
hello:     file format elf32-littlearm

Disassembly of section .init:

000080b4 <_init>:
    80b4:	e1a0c00d 	mov	ip, sp
    80b8:	e92ddff8 	stmdb	sp!, {r3, r4, r5, r6, r7, r8, r9, sl, fp, ip, lr, pc}
    80bc:	e24cb004 	sub	fp, ip, #4	; 0x4
    80c0:	eb000034 	bl	8198 <frame_dummy>
    80c4:	eb013a41 	bl	569d0 <__do_global_ctors_aux>
    80c8:	e24bd028 	sub	sp, fp, #40	; 0x28
    80cc:	e89d6ff0 	ldmia	sp, {r4, r5, r6, r7, r8, r9, sl, fp, sp, lr}
    80d0:	e1a0f00e 	mov	pc, lr
Disassembly of section .text:

000080e0 <_start>:
    80e0:	e59fc024 	ldr	ip, [pc, #36]	; 810c <.text+0x2c>
    80e4:	e3a0b000 	mov	fp, #0	; 0x0
    80e8:	e49d1004 	ldr	r1, [sp], #4
    80ec:	e1a0200d 	mov	r2, sp
    80f0:	e52d2004 	str	r2, [sp, #-4]!
    80f4:	e52d0004 	str	r0, [sp, #-4]!
    80f8:	e59f0010 	ldr	r0, [pc, #16]	; 8110 <.text+0x30>
    80fc:	e59f3010 	ldr	r3, [pc, #16]	; 8114 <.text+0x34>
    8100:	e52dc004 	str	ip, [sp, #-4]!
    8104:	eb00004e 	bl	8244 <__libc_start_main>
    8108:	eb00010c 	bl	8540 <abort>
    810c:	000084c0 	andeq	r8, r0, r0, asr #9
    8110:	000081f8 	streqd	r8, [r0], -r8
    8114:	00008444 	andeq	r8, r0, r4, asr #8

00008118 <__do_global_dtors_aux>:
    8118:	e92d4030 	stmdb	sp!, {r4, r5, lr}
    811c:	e59f505c 	ldr	r5, [pc, #92]	; 8180 <.text+0xa0>
    8120:	e5d53000 	ldrb	r3, [r5]
    8124:	e3530000 	cmp	r3, #0	; 0x0
    8128:	18bd8030 	ldmneia	sp!, {r4, r5, pc}
    812c:	e59f4050 	ldr	r4, [pc, #80]	; 8184 <.text+0xa4>
    8130:	e5943000 	ldr	r3, [r4]
    8134:	e5932000 	ldr	r2, [r3]
    8138:	e3520000 	cmp	r2, #0	; 0x0
    813c:	0a000007 	beq	8160 <__do_global_dtors_aux+0x48>
    8140:	e2833004 	add	r3, r3, #4	; 0x4
    8144:	e5843000 	str	r3, [r4]
    8148:	e1a0e00f 	mov	lr, pc
    814c:	e1a0f002 	mov	pc, r2
    8150:	e5943000 	ldr	r3, [r4]
    8154:	e5932000 	ldr	r2, [r3]
    8158:	e3520000 	cmp	r2, #0	; 0x0
    815c:	1afffff7 	bne	8140 <__do_global_dtors_aux+0x28>
    8160:	e59f3020 	ldr	r3, [pc, #32]	; 8188 <.text+0xa8>
    8164:	e3530000 	cmp	r3, #0	; 0x0
    8168:	159f001c 	ldrne	r0, [pc, #28]	; 818c <.text+0xac>
    816c:	11a0e00f 	movne	lr, pc
    8170:	11a0f003 	movne	pc, r3
    8174:	e3a03001 	mov	r3, #1	; 0x1
    8178:	e5c53000 	strb	r3, [r5]
    817c:	e8bd8030 	ldmia	sp!, {r4, r5, pc}
    8180:	00072da0 	andeq	r2, r7, r0, lsr #27
    8184:	00072030 	andeq	r2, r7, r0, lsr r0
    8188:	00000000 	andeq	r0, r0, r0
    818c:	00069244 	andeq	r9, r6, r4, asr #4

00008190 <call___do_global_dtors_aux>:
    8190:	e52de004 	str	lr, [sp, #-4]!
    8194:	e49df004 	ldr	pc, [sp], #4

00008198 <frame_dummy>:
    8198:	e59f303c 	ldr	r3, [pc, #60]	; 81dc <.text+0xfc>
    819c:	e3530000 	cmp	r3, #0	; 0x0
    81a0:	e52de004 	str	lr, [sp, #-4]!
    81a4:	159f0034 	ldrne	r0, [pc, #52]	; 81e0 <.text+0x100>
    81a8:	159f1034 	ldrne	r1, [pc, #52]	; 81e4 <.text+0x104>
    81ac:	11a0e00f 	movne	lr, pc
    81b0:	11a0f003 	movne	pc, r3
    81b4:	e59f002c 	ldr	r0, [pc, #44]	; 81e8 <.text+0x108>
    81b8:	e5903000 	ldr	r3, [r0]
    81bc:	e3530000 	cmp	r3, #0	; 0x0
    81c0:	049df004 	ldreq	pc, [sp], #4
    81c4:	e59f3020 	ldr	r3, [pc, #32]	; 81ec <.text+0x10c>
    81c8:	e3530000 	cmp	r3, #0	; 0x0
    81cc:	049df004 	ldreq	pc, [sp], #4
    81d0:	e1a0e00f 	mov	lr, pc
    81d4:	e1a0f003 	mov	pc, r3
    81d8:	e49df004 	ldr	pc, [sp], #4
    81dc:	00000000 	andeq	r0, r0, r0
    81e0:	00069244 	andeq	r9, r6, r4, asr #4
    81e4:	00072da4 	andeq	r2, r7, r4, lsr #27
    81e8:	00072010 	andeq	r2, r7, r0, lsl r0
    81ec:	00000000 	andeq	r0, r0, r0

000081f0 <call_frame_dummy>:
    81f0:	e52de004 	str	lr, [sp, #-4]!
    81f4:	e49df004 	ldr	pc, [sp], #4

000081f8 <main>:
    81f8:	e1a0c00d 	mov	ip, sp
    81fc:	e92dd800 	stmdb	sp!, {fp, ip, lr, pc}
    8200:	e24cb004 	sub	fp, ip, #4	; 0x4
    8204:	e24dd004 	sub	sp, sp, #4	; 0x4
    8208:	e3a03000 	mov	r3, #0	; 0x0
    820c:	e50b3010 	str	r3, [fp, #-16]
    8210:	e3a03000 	mov	r3, #0	; 0x0
    8214:	e50b3010 	str	r3, [fp, #-16]
    8218:	ea000002 	b	8228 <main+0x30>
    821c:	e51b3010 	ldr	r3, [fp, #-16]
    8220:	e2833001 	add	r3, r3, #1	; 0x1
    8224:	e50b3010 	str	r3, [fp, #-16]
    8228:	e51b3010 	ldr	r3, [fp, #-16]
    822c:	e3530063 	cmp	r3, #99	; 0x63
    8230:	dafffff9 	ble	821c <main+0x24>
    8234:	e59f0004 	ldr	r0, [pc, #4]	; 8240 <.text+0x160>
    8238:	eb0001bf 	bl	893c <_IO_puts>
    823c:	eafffff3 	b	8210 <main+0x18>
    8240:	00056f48 	andeq	r6, r5, r8, asr #30

00008244 <__libc_start_main>:
    8244:	e92d47f0 	stmdb	sp!, {r4, r5, r6, r7, r8, r9, sl, lr}
    8248:	e59fe108 	ldr	lr, [pc, #264]	; 8358 <__libc_start_main+0x114>
    824c:	e24ddf72 	sub	sp, sp, #456	; 0x1c8
    8250:	e1a05001 	mov	r5, r1
    8254:	e35e0000 	cmp	lr, #0	; 0x0
    8258:	e0821101 	add	r1, r2, r1, lsl #2
    825c:	e1a0a000 	mov	sl, r0
    8260:	e1a04002 	mov	r4, r2
    8264:	e1a07003 	mov	r7, r3
    8268:	e59d91e8 	ldr	r9, [sp, #488]
    826c:	e59d81ec 	ldr	r8, [sp, #492]
    8270:	e2810004 	add	r0, r1, #4	; 0x4
    8274:	e3a0c000 	mov	ip, #0	; 0x0
    8278:	0a000003 	beq	828c <__libc_start_main+0x48>
    827c:	e59e3000 	ldr	r3, [lr]
    8280:	e153000c 	cmp	r3, ip
    8284:	13a0c000 	movne	ip, #0	; 0x0
    8288:	03a0c001 	moveq	ip, #1	; 0x1
    828c:	e59f30c8 	ldr	r3, [pc, #200]	; 835c <__libc_start_main+0x118>
    8290:	e59d21f0 	ldr	r2, [sp, #496]
    8294:	e59f60c4 	ldr	r6, [pc, #196]	; 8360 <__libc_start_main+0x11c>
    8298:	e5832000 	str	r2, [r3]
    829c:	e5911004 	ldr	r1, [r1, #4]
    82a0:	e59f30bc 	ldr	r3, [pc, #188]	; 8364 <__libc_start_main+0x120>
    82a4:	e3510000 	cmp	r1, #0	; 0x0
    82a8:	e583c000 	str	ip, [r3]
    82ac:	e5860000 	str	r0, [r6]
    82b0:	0a000002 	beq	82c0 <__libc_start_main+0x7c>
    82b4:	e5b03004 	ldr	r3, [r0, #4]!
    82b8:	e3530000 	cmp	r3, #0	; 0x0
    82bc:	1afffffc 	bne	82b4 <__libc_start_main+0x70>
    82c0:	e2800004 	add	r0, r0, #4	; 0x4
    82c4:	eb001d6d 	bl	f880 <_dl_aux_init>
    82c8:	e59f3098 	ldr	r3, [pc, #152]	; 8368 <__libc_start_main+0x124>
    82cc:	e3530000 	cmp	r3, #0	; 0x0
    82d0:	11a0e00f 	movne	lr, pc
    82d4:	11a0f003 	movne	pc, r3
    82d8:	e59f308c 	ldr	r3, [pc, #140]	; 836c <__libc_start_main+0x128>
    82dc:	e5932000 	ldr	r2, [r3]
    82e0:	e3520000 	cmp	r2, #0	; 0x0
    82e4:	1a000019 	bne	8350 <__libc_start_main+0x10c>
    82e8:	e3580000 	cmp	r8, #0	; 0x0
    82ec:	0a000003 	beq	8300 <__libc_start_main+0xbc>
    82f0:	e3a01000 	mov	r1, #0	; 0x0
    82f4:	e1a00008 	mov	r0, r8
    82f8:	e1a02001 	mov	r2, r1
    82fc:	eb00013c 	bl	87f4 <__cxa_atexit>
    8300:	e5962000 	ldr	r2, [r6]
    8304:	e1a00005 	mov	r0, r5
    8308:	e1a01004 	mov	r1, r4
    830c:	eb001e56 	bl	fc6c <__libc_init_first>
    8310:	e3590000 	cmp	r9, #0	; 0x0
    8314:	0a000003 	beq	8328 <__libc_start_main+0xe4>
    8318:	e3a01000 	mov	r1, #0	; 0x0
    831c:	e1a00009 	mov	r0, r9
    8320:	e1a02001 	mov	r2, r1
    8324:	eb000132 	bl	87f4 <__cxa_atexit>
    8328:	e3570000 	cmp	r7, #0	; 0x0
    832c:	11a0e00f 	movne	lr, pc
    8330:	11a0f007 	movne	pc, r7
    8334:	e59f3024 	ldr	r3, [pc, #36]	; 8360 <__libc_start_main+0x11c>
    8338:	e1a01004 	mov	r1, r4
    833c:	e5932000 	ldr	r2, [r3]
    8340:	e1a00005 	mov	r0, r5
    8344:	e1a0e00f 	mov	lr, pc
    8348:	e1a0f00a 	mov	pc, sl
    834c:	eb0000e6 	bl	86ec <exit>
    8350:	eb00002e 	bl	8410 <__libc_check_standard_fds>
    8354:	eaffffe3 	b	82e8 <__libc_start_main+0xa4>
    8358:	000724e4 	andeq	r2, r7, r4, ror #9
    835c:	000738c0 	andeq	r3, r7, r0, asr #17
    8360:	000734d4 	ldreqd	r3, [r7], -r4
    8364:	00072510 	andeq	r2, r7, r0, lsl r5
    8368:	00000000 	andeq	r0, r0, r0
    836c:	0007250c 	andeq	r2, r7, ip, lsl #10

00008370 <check_one_fd>:
    8370:	e92d4030 	stmdb	sp!, {r4, r5, lr}
    8374:	e1a04001 	mov	r4, r1
    8378:	e24dd060 	sub	sp, sp, #96	; 0x60
    837c:	e3a01001 	mov	r1, #1	; 0x1
    8380:	e1a05000 	mov	r5, r0
    8384:	eb001c74 	bl	f55c <__libc_fcntl>
    8388:	e3700001 	cmn	r0, #1	; 0x1
    838c:	0a000001 	beq	8398 <check_one_fd+0x28>
    8390:	e28dd060 	add	sp, sp, #96	; 0x60
    8394:	e8bd8030 	ldmia	sp!, {r4, r5, pc}
    8398:	eb00005a 	bl	8508 <__errno_location>
    839c:	e5903000 	ldr	r3, [r0]
    83a0:	e3530009 	cmp	r3, #9	; 0x9
    83a4:	1afffff9 	bne	8390 <check_one_fd+0x20>
    83a8:	e59f0058 	ldr	r0, [pc, #88]	; 8408 <check_one_fd+0x98>
    83ac:	e1a01004 	mov	r1, r4
    83b0:	eb001bce 	bl	f2f0 <__libc_open>
    83b4:	e1500005 	cmp	r0, r5
    83b8:	1a00000d 	bne	83f4 <check_one_fd+0x84>
    83bc:	e1a01000 	mov	r1, r0
    83c0:	e1a0200d 	mov	r2, sp
    83c4:	e3a00003 	mov	r0, #3	; 0x3
    83c8:	eb001b39 	bl	f0b4 <___fxstat64>
    83cc:	e3500000 	cmp	r0, #0	; 0x0
    83d0:	1a000007 	bne	83f4 <check_one_fd+0x84>
    83d4:	e59d3010 	ldr	r3, [sp, #16]
    83d8:	e2033a0f 	and	r3, r3, #61440	; 0xf000
    83dc:	e3530a02 	cmp	r3, #8192	; 0x2000
    83e0:	1a000003 	bne	83f4 <check_one_fd+0x84>
    83e4:	e59d2020 	ldr	r2, [sp, #32]
    83e8:	e59f301c 	ldr	r3, [pc, #28]	; 840c <check_one_fd+0x9c>
    83ec:	e1520003 	cmp	r2, r3
    83f0:	0a000000 	beq	83f8 <check_one_fd+0x88>
    83f4:	eafffffe 	b	83f4 <check_one_fd+0x84>
    83f8:	e59d3024 	ldr	r3, [sp, #36]
    83fc:	e3530000 	cmp	r3, #0	; 0x0
    8400:	0affffe2 	beq	8390 <check_one_fd+0x20>
    8404:	eafffffa 	b	83f4 <check_one_fd+0x84>
    8408:	00056f50 	andeq	r6, r5, r0, asr pc
    840c:	00000103 	andeq	r0, r0, r3, lsl #2

00008410 <__libc_check_standard_fds>:
    8410:	e92d4010 	stmdb	sp!, {r4, lr}
    8414:	e59f4024 	ldr	r4, [pc, #36]	; 8440 <__libc_check_standard_fds+0x30>
    8418:	e3a00000 	mov	r0, #0	; 0x0
    841c:	e3a01902 	mov	r1, #32768	; 0x8000
    8420:	ebffffd2 	bl	8370 <check_one_fd>
    8424:	e1a01004 	mov	r1, r4
    8428:	e3a00001 	mov	r0, #1	; 0x1
    842c:	ebffffcf 	bl	8370 <check_one_fd>
    8430:	e1a01004 	mov	r1, r4
    8434:	e3a00002 	mov	r0, #2	; 0x2
    8438:	e8bd4010 	ldmia	sp!, {r4, lr}
    843c:	eaffffcb 	b	8370 <check_one_fd>
    8440:	00008002 	andeq	r8, r0, r2

00008444 <__libc_csu_init>:
    8444:	e92d4070 	stmdb	sp!, {r4, r5, r6, lr}
    8448:	e59f3060 	ldr	r3, [pc, #96]	; 84b0 <__libc_csu_init+0x6c>
    844c:	e59f6060 	ldr	r6, [pc, #96]	; 84b4 <__libc_csu_init+0x70>
    8450:	e3a04000 	mov	r4, #0	; 0x0
    8454:	e0663003 	rsb	r3, r6, r3
    8458:	e1540143 	cmp	r4, r3, asr #2
    845c:	2a000005 	bcs	8478 <__libc_csu_init+0x34>
    8460:	e1a05003 	mov	r5, r3
    8464:	e1a0e00f 	mov	lr, pc
    8468:	e796f104 	ldr	pc, [r6, r4, lsl #2]
    846c:	e2844001 	add	r4, r4, #1	; 0x1
    8470:	e1540145 	cmp	r4, r5, asr #2
    8474:	3afffffa 	bcc	8464 <__libc_csu_init+0x20>
    8478:	ebffff0d 	bl	80b4 <_init>
    847c:	e59f6034 	ldr	r6, [pc, #52]	; 84b8 <__libc_csu_init+0x74>
    8480:	e59f3034 	ldr	r3, [pc, #52]	; 84bc <__libc_csu_init+0x78>
    8484:	e3a04000 	mov	r4, #0	; 0x0
    8488:	e0663003 	rsb	r3, r6, r3
    848c:	e1540143 	cmp	r4, r3, asr #2
    8490:	2a000005 	bcs	84ac <__libc_csu_init+0x68>
    8494:	e1a05003 	mov	r5, r3
    8498:	e1a0e00f 	mov	lr, pc
    849c:	e796f104 	ldr	pc, [r6, r4, lsl #2]
    84a0:	e2844001 	add	r4, r4, #1	; 0x1
    84a4:	e1540145 	cmp	r4, r5, asr #2
    84a8:	3afffffa 	bcc	8498 <__libc_csu_init+0x54>
    84ac:	e8bd8070 	ldmia	sp!, {r4, r5, r6, pc}
    84b0:	00072000 	andeq	r2, r7, r0
    84b4:	00072000 	andeq	r2, r7, r0
    84b8:	00072000 	andeq	r2, r7, r0
    84bc:	00072000 	andeq	r2, r7, r0

000084c0 <__libc_csu_fini>:
    84c0:	e92d4030 	stmdb	sp!, {r4, r5, lr}
    84c4:	e59f3034 	ldr	r3, [pc, #52]	; 8500 <__libc_csu_fini+0x40>
    84c8:	e59f5034 	ldr	r5, [pc, #52]	; 8504 <__libc_csu_fini+0x44>
    84cc:	e0653003 	rsb	r3, r5, r3
    84d0:	e1a04143 	mov	r4, r3, asr #2
    84d4:	e3540000 	cmp	r4, #0	; 0x0
    84d8:	e2444001 	sub	r4, r4, #1	; 0x1
    84dc:	1a000001 	bne	84e8 <__libc_csu_fini+0x28>
    84e0:	e8bd4030 	ldmia	sp!, {r4, r5, lr}
    84e4:	ea013a8f 	b	56f28 <__stop___libc_freeres_fn>
    84e8:	e1a0e00f 	mov	lr, pc
    84ec:	e795f104 	ldr	pc, [r5, r4, lsl #2]
    84f0:	e3540000 	cmp	r4, #0	; 0x0
    84f4:	e2444001 	sub	r4, r4, #1	; 0x1
    84f8:	1afffffa 	bne	84e8 <__libc_csu_fini+0x28>
    84fc:	eafffff7 	b	84e0 <__libc_csu_fini+0x20>
    8500:	00072000 	andeq	r2, r7, r0
    8504:	00072000 	andeq	r2, r7, r0

00008508 <__errno_location>:
    8508:	e52de004 	str	lr, [sp, #-4]!
    850c:	e59f3020 	ldr	r3, [pc, #32]	; 8534 <__errno_location+0x2c>
    8510:	e59f0020 	ldr	r0, [pc, #32]	; 8538 <__errno_location+0x30>
    8514:	e5932000 	ldr	r2, [r3]
    8518:	e3520000 	cmp	r2, #0	; 0x0
    851c:	049df004 	ldreq	pc, [sp], #4
    8520:	e59f0014 	ldr	r0, [pc, #20]	; 853c <__errno_location+0x34>
    8524:	e1a0e00f 	mov	lr, pc
    8528:	e1a0f000 	mov	pc, r0
    852c:	e59001b8 	ldr	r0, [r0, #440]
    8530:	e49df004 	ldr	pc, [sp], #4
    8534:	00073880 	andeq	r3, r7, r0, lsl #17
    8538:	000734e4 	andeq	r3, r7, r4, ror #9
    853c:	00000000 	andeq	r0, r0, r0

00008540 <abort>:
    8540:	e92d40f0 	stmdb	sp!, {r4, r5, r6, r7, lr}
    8544:	e59f6190 	ldr	r6, [pc, #400]	; 86dc <abort+0x19c>
    8548:	e24ddf43 	sub	sp, sp, #268	; 0x10c
    854c:	e3560000 	cmp	r6, #0	; 0x0
    8550:	159f0188 	ldrne	r0, [pc, #392]	; 86e0 <abort+0x1a0>
    8554:	11a0e00f 	movne	lr, pc
    8558:	11a0f006 	movne	pc, r6
    855c:	e59f5180 	ldr	r5, [pc, #384]	; 86e4 <abort+0x1a4>
    8560:	e5952000 	ldr	r2, [r5]
    8564:	e3520000 	cmp	r2, #0	; 0x0
    8568:	1a00000b 	bne	859c <abort+0x5c>
    856c:	e2823001 	add	r3, r2, #1	; 0x1
    8570:	e5853000 	str	r3, [r5]
    8574:	e1a0100d 	mov	r1, sp
    8578:	e3a0301f 	mov	r3, #31	; 0x1f
    857c:	e7812103 	str	r2, [r1, r3, lsl #2]
    8580:	e2533001 	subs	r3, r3, #1	; 0x1
    8584:	5afffffc 	bpl	857c <abort+0x3c>
    8588:	e59d3000 	ldr	r3, [sp]
    858c:	e3a00001 	mov	r0, #1	; 0x1
    8590:	e3833020 	orr	r3, r3, #32	; 0x20
    8594:	e58d3000 	str	r3, [sp]
    8598:	eb001e61 	bl	ff24 <__sigprocmask>
    859c:	e5954000 	ldr	r4, [r5]
    85a0:	e59f713c 	ldr	r7, [pc, #316]	; 86e4 <abort+0x1a4>
    85a4:	e3540001 	cmp	r4, #1	; 0x1
    85a8:	0a000041 	beq	86b4 <abort+0x174>
    85ac:	e3540002 	cmp	r4, #2	; 0x2
    85b0:	0a00002f 	beq	8674 <abort+0x134>
    85b4:	e5953000 	ldr	r3, [r5]
    85b8:	e3530003 	cmp	r3, #3	; 0x3
    85bc:	0a000016 	beq	861c <abort+0xdc>
    85c0:	e5953000 	ldr	r3, [r5]
    85c4:	e59f4118 	ldr	r4, [pc, #280]	; 86e4 <abort+0x1a4>
    85c8:	e3530004 	cmp	r3, #4	; 0x4
    85cc:	0a00000d 	beq	8608 <abort+0xc8>
    85d0:	e3530005 	cmp	r3, #5	; 0x5
    85d4:	0a000005 	beq	85f0 <abort+0xb0>
    85d8:	e3530006 	cmp	r3, #6	; 0x6
    85dc:	02833001 	addeq	r3, r3, #1	; 0x1
    85e0:	05843000 	streq	r3, [r4]
    85e4:	e3530007 	cmp	r3, #7	; 0x7
    85e8:	0a000037 	beq	86cc <abort+0x18c>
    85ec:	eafffffe 	b	85ec <abort+0xac>
    85f0:	e2833001 	add	r3, r3, #1	; 0x1
    85f4:	e1a00003 	mov	r0, r3
    85f8:	e5843000 	str	r3, [r4]
    85fc:	eb001db1 	bl	fcc8 <raise>
    8600:	e5943000 	ldr	r3, [r4]
    8604:	eafffff3 	b	85d8 <abort+0x98>
    8608:	e2833001 	add	r3, r3, #1	; 0x1
    860c:	e5853000 	str	r3, [r5]
    8610:	eb00011a 	bl	8a80 <__fcloseall>
    8614:	e5953000 	ldr	r3, [r5]
    8618:	eaffffec 	b	85d0 <abort+0x90>
    861c:	e28d4080 	add	r4, sp, #128	; 0x80
    8620:	e2833001 	add	r3, r3, #1	; 0x1
    8624:	e3a01000 	mov	r1, #0	; 0x0
    8628:	e3a0208c 	mov	r2, #140	; 0x8c
    862c:	e1a00004 	mov	r0, r4
    8630:	e5853000 	str	r3, [r5]
    8634:	eb00191d 	bl	eab0 <memset>
    8638:	e3a03000 	mov	r3, #0	; 0x0
    863c:	e58d3080 	str	r3, [sp, #128]
    8640:	e28d1084 	add	r1, sp, #132	; 0x84
    8644:	e3a0301f 	mov	r3, #31	; 0x1f
    8648:	e3e02000 	mvn	r2, #0	; 0x0
    864c:	e7812103 	str	r2, [r1, r3, lsl #2]
    8650:	e2533001 	subs	r3, r3, #1	; 0x1
    8654:	5afffffc 	bpl	864c <abort+0x10c>
    8658:	e3a03000 	mov	r3, #0	; 0x0
    865c:	e1a01004 	mov	r1, r4
    8660:	e1a02003 	mov	r2, r3
    8664:	e3a00006 	mov	r0, #6	; 0x6
    8668:	e58d3104 	str	r3, [sp, #260]
    866c:	eb001e26 	bl	ff0c <__sigaction>
    8670:	eaffffd2 	b	85c0 <abort+0x80>
    8674:	e59f206c 	ldr	r2, [pc, #108]	; 86e8 <abort+0x1a8>
    8678:	e3a03000 	mov	r3, #0	; 0x0
    867c:	e3520000 	cmp	r2, #0	; 0x0
    8680:	e5873000 	str	r3, [r7]
    8684:	159f0054 	ldrne	r0, [pc, #84]	; 86e0 <abort+0x1a0>
    8688:	11a0e00f 	movne	lr, pc
    868c:	11a0f002 	movne	pc, r2
    8690:	e3a00006 	mov	r0, #6	; 0x6
    8694:	eb001d8b 	bl	fcc8 <raise>
    8698:	e3560000 	cmp	r6, #0	; 0x0
    869c:	159f003c 	ldrne	r0, [pc, #60]	; 86e0 <abort+0x1a0>
    86a0:	11a0e00f 	movne	lr, pc
    86a4:	11a0f006 	movne	pc, r6
    86a8:	e2843001 	add	r3, r4, #1	; 0x1
    86ac:	e5873000 	str	r3, [r7]
    86b0:	eaffffbf 	b	85b4 <abort+0x74>
    86b4:	e2843001 	add	r3, r4, #1	; 0x1
    86b8:	e3a00000 	mov	r0, #0	; 0x0
    86bc:	e5853000 	str	r3, [r5]
    86c0:	eb000467 	bl	9864 <_IO_flush_all_lockp>
    86c4:	e5954000 	ldr	r4, [r5]
    86c8:	eaffffb7 	b	85ac <abort+0x6c>
    86cc:	e2833001 	add	r3, r3, #1	; 0x1
    86d0:	e3a0007f 	mov	r0, #127	; 0x7f
    86d4:	e5843000 	str	r3, [r4]
    86d8:	eb001a6a 	bl	f088 <_exit>
    86dc:	00000000 	andeq	r0, r0, r0
    86e0:	00072034 	andeq	r2, r7, r4, lsr r0
    86e4:	00072dbc 	streqh	r2, [r7], -ip
    86e8:	00000000 	andeq	r0, r0, r0

000086ec <exit>:
    86ec:	e92d4070 	stmdb	sp!, {r4, r5, r6, lr}
    86f0:	e59f20f0 	ldr	r2, [pc, #240]	; 87e8 <exit+0xfc>
    86f4:	e1a05000 	mov	r5, r0
    86f8:	e5923000 	ldr	r3, [r2]
    86fc:	e3530000 	cmp	r3, #0	; 0x0
    8700:	0a000025 	beq	879c <exit+0xb0>
    8704:	e1a04002 	mov	r4, r2
    8708:	e5922000 	ldr	r2, [r2]
    870c:	e5923004 	ldr	r3, [r2, #4]
    8710:	e3530000 	cmp	r3, #0	; 0x0
    8714:	0a000017 	beq	8778 <exit+0x8c>
    8718:	e1a00002 	mov	r0, r2
    871c:	e5903004 	ldr	r3, [r0, #4]
    8720:	e2433001 	sub	r3, r3, #1	; 0x1
    8724:	e0802203 	add	r2, r0, r3, lsl #4
    8728:	e5921008 	ldr	r1, [r2, #8]
    872c:	e5803004 	str	r3, [r0, #4]
    8730:	e2822008 	add	r2, r2, #8	; 0x8
    8734:	e3510004 	cmp	r1, #4	; 0x4
    8738:	979ff101 	ldrls	pc, [pc, r1, lsl #2]
    873c:	ea000008 	b	8764 <exit+0x78>
    8740:	00008764 	andeq	r8, r0, r4, ror #14
    8744:	00008764 	andeq	r8, r0, r4, ror #14
    8748:	00008754 	andeq	r8, r0, r4, asr r7
    874c:	000087d0 	ldreqd	r8, [r0], -r0
    8750:	000087dc 	ldreqd	r8, [r0], -ip
    8754:	e5921008 	ldr	r1, [r2, #8]
    8758:	e1a00005 	mov	r0, r5
    875c:	e1a0e00f 	mov	lr, pc
    8760:	e592f004 	ldr	pc, [r2, #4]
    8764:	e5943000 	ldr	r3, [r4]
    8768:	e5932004 	ldr	r2, [r3, #4]
    876c:	e1a00003 	mov	r0, r3
    8770:	e3520000 	cmp	r2, #0	; 0x0
    8774:	1affffe8 	bne	871c <exit+0x30>
    8778:	e5940000 	ldr	r0, [r4]
    877c:	e5903000 	ldr	r3, [r0]
    8780:	e3530000 	cmp	r3, #0	; 0x0
    8784:	e5843000 	str	r3, [r4]
    8788:	1a00000e 	bne	87c8 <exit+0xdc>
    878c:	e59f2054 	ldr	r2, [pc, #84]	; 87e8 <exit+0xfc>
    8790:	e5923000 	ldr	r3, [r2]
    8794:	e3530000 	cmp	r3, #0	; 0x0
    8798:	1affffda 	bne	8708 <exit+0x1c>
    879c:	e59f4048 	ldr	r4, [pc, #72]	; 87ec <exit+0x100>
    87a0:	e59f6048 	ldr	r6, [pc, #72]	; 87f0 <exit+0x104>
    87a4:	e1540006 	cmp	r4, r6
    87a8:	3a000001 	bcc	87b4 <exit+0xc8>
    87ac:	e1a00005 	mov	r0, r5
    87b0:	eb001a34 	bl	f088 <_exit>
    87b4:	e1a0e00f 	mov	lr, pc
    87b8:	e494f004 	ldr	pc, [r4], #4
    87bc:	e1540006 	cmp	r4, r6
    87c0:	3afffffb 	bcc	87b4 <exit+0xc8>
    87c4:	eafffff8 	b	87ac <exit+0xc0>
    87c8:	eb000f7a 	bl	c5b8 <__libc_free>
    87cc:	eaffffee 	b	878c <exit+0xa0>
    87d0:	e1a0e00f 	mov	lr, pc
    87d4:	e592f004 	ldr	pc, [r2, #4]
    87d8:	eaffffe1 	b	8764 <exit+0x78>
    87dc:	e5920008 	ldr	r0, [r2, #8]
    87e0:	e1a01005 	mov	r1, r5
    87e4:	eaffffdc 	b	875c <exit+0x70>
    87e8:	0007204c 	andeq	r2, r7, ip, asr #32
    87ec:	00069214 	andeq	r9, r6, r4, lsl r2
    87f0:	00069218 	andeq	r9, r6, r8, lsl r2

000087f4 <__cxa_atexit>:
    87f4:	e92d4070 	stmdb	sp!, {r4, r5, r6, lr}
    87f8:	e1a05000 	mov	r5, r0
    87fc:	e1a06001 	mov	r6, r1
    8800:	e1a04002 	mov	r4, r2
    8804:	eb000009 	bl	8830 <__new_exitfn>
    8808:	e3500000 	cmp	r0, #0	; 0x0
    880c:	e3e03000 	mvn	r3, #0	; 0x0
    8810:	0a000004 	beq	8828 <__cxa_atexit+0x34>
    8814:	e3a03004 	mov	r3, #4	; 0x4
    8818:	e5803000 	str	r3, [r0]
    881c:	e580400c 	str	r4, [r0, #12]
    8820:	e9800060 	stmib	r0, {r5, r6}
    8824:	e3a03000 	mov	r3, #0	; 0x0
    8828:	e1a00003 	mov	r0, r3
    882c:	e8bd8070 	ldmia	sp!, {r4, r5, r6, pc}

00008830 <__new_exitfn>:
    8830:	e59f30f4 	ldr	r3, [pc, #244]	; 892c <__new_exitfn+0xfc>
    8834:	e92d4070 	stmdb	sp!, {r4, r5, r6, lr}
    8838:	e3a05000 	mov	r5, #0	; 0x0
    883c:	e1530005 	cmp	r3, r5
    8840:	159f00e8 	ldrne	r0, [pc, #232]	; 8930 <__new_exitfn+0x100>
    8844:	11a0e00f 	movne	lr, pc
    8848:	11a0f003 	movne	pc, r3
    884c:	e59f60e0 	ldr	r6, [pc, #224]	; 8934 <__new_exitfn+0x104>
    8850:	e5964000 	ldr	r4, [r6]
    8854:	e3540000 	cmp	r4, #0	; 0x0
    8858:	0a000010 	beq	88a0 <__new_exitfn+0x70>
    885c:	e5941004 	ldr	r1, [r4, #4]
    8860:	e3a05000 	mov	r5, #0	; 0x0
    8864:	e1550001 	cmp	r5, r1
    8868:	2a000007 	bcs	888c <__new_exitfn+0x5c>
    886c:	e1a02004 	mov	r2, r4
    8870:	e5923008 	ldr	r3, [r2, #8]
    8874:	e2822010 	add	r2, r2, #16	; 0x10
    8878:	e3530000 	cmp	r3, #0	; 0x0
    887c:	0a000027 	beq	8920 <__new_exitfn+0xf0>
    8880:	e2855001 	add	r5, r5, #1	; 0x1
    8884:	e1550001 	cmp	r5, r1
    8888:	3afffff8 	bcc	8870 <__new_exitfn+0x40>
    888c:	e351001f 	cmp	r1, #31	; 0x1f
    8890:	9a00001c 	bls	8908 <__new_exitfn+0xd8>
    8894:	e5944000 	ldr	r4, [r4]
    8898:	e3540000 	cmp	r4, #0	; 0x0
    889c:	1affffee 	bne	885c <__new_exitfn+0x2c>
    88a0:	e3a00f82 	mov	r0, #520	; 0x208
    88a4:	eb000ed5 	bl	c400 <__libc_malloc>
    88a8:	e3500000 	cmp	r0, #0	; 0x0
    88ac:	e1a04000 	mov	r4, r0
    88b0:	0a000008 	beq	88d8 <__new_exitfn+0xa8>
    88b4:	e5963000 	ldr	r3, [r6]
    88b8:	e3a02001 	mov	r2, #1	; 0x1
    88bc:	e5803000 	str	r3, [r0]
    88c0:	e5802004 	str	r2, [r0, #4]
    88c4:	e5860000 	str	r0, [r6]
    88c8:	e3a05000 	mov	r5, #0	; 0x0
    88cc:	e0842205 	add	r2, r4, r5, lsl #4
    88d0:	e3a03001 	mov	r3, #1	; 0x1
    88d4:	e5823008 	str	r3, [r2, #8]
    88d8:	e59f3058 	ldr	r3, [pc, #88]	; 8938 <__new_exitfn+0x108>
    88dc:	e3530000 	cmp	r3, #0	; 0x0
    88e0:	159f0048 	ldrne	r0, [pc, #72]	; 8930 <__new_exitfn+0x100>
    88e4:	11a0e00f 	movne	lr, pc
    88e8:	11a0f003 	movne	pc, r3
    88ec:	e3540000 	cmp	r4, #0	; 0x0
    88f0:	0a000002 	beq	8900 <__new_exitfn+0xd0>
    88f4:	e0843205 	add	r3, r4, r5, lsl #4
    88f8:	e2830008 	add	r0, r3, #8	; 0x8
    88fc:	e8bd8070 	ldmia	sp!, {r4, r5, r6, pc}
    8900:	e1a00004 	mov	r0, r4
    8904:	e8bd8070 	ldmia	sp!, {r4, r5, r6, pc}
    8908:	e2813001 	add	r3, r1, #1	; 0x1
    890c:	e1a05001 	mov	r5, r1
    8910:	e5843004 	str	r3, [r4, #4]
    8914:	e3540000 	cmp	r4, #0	; 0x0
    8918:	1affffeb 	bne	88cc <__new_exitfn+0x9c>
    891c:	eaffffdf 	b	88a0 <__new_exitfn+0x70>
    8920:	e1550001 	cmp	r5, r1
    8924:	2affffd8 	bcs	888c <__new_exitfn+0x5c>
    8928:	eafffff9 	b	8914 <__new_exitfn+0xe4>
    892c:	00000000 	andeq	r0, r0, r0
    8930:	00072dc0 	andeq	r2, r7, r0, asr #27
    8934:	0007204c 	andeq	r2, r7, ip, asr #32
    8938:	00000000 	andeq	r0, r0, r0

0000893c <_IO_puts>:
    893c:	e92d41f0 	stmdb	sp!, {r4, r5, r6, r7, r8, lr}
    8940:	e24dd010 	sub	sp, sp, #16	; 0x10
    8944:	e1a06000 	mov	r6, r0
    8948:	eb0016f4 	bl	e520 <strlen>
    894c:	e59f411c 	ldr	r4, [pc, #284]	; 8a70 <_IO_puts+0x134>
    8950:	e1a05000 	mov	r5, r0
    8954:	e5942000 	ldr	r2, [r4]
    8958:	e3e08000 	mvn	r8, #0	; 0x0
    895c:	e5923000 	ldr	r3, [r2]
    8960:	e3a07000 	mov	r7, #0	; 0x0
    8964:	e3130902 	tst	r3, #32768	; 0x8000
    8968:	1a000007 	bne	898c <_IO_puts+0x50>
    896c:	e59f3100 	ldr	r3, [pc, #256]	; 8a74 <_IO_puts+0x138>
    8970:	e1530007 	cmp	r3, r7
    8974:	0a000004 	beq	898c <_IO_puts+0x50>
    8978:	e1a0000d 	mov	r0, sp
    897c:	e59f10f4 	ldr	r1, [pc, #244]	; 8a78 <_IO_puts+0x13c>
    8980:	e3a07001 	mov	r7, #1	; 0x1
    8984:	e1a0e00f 	mov	lr, pc
    8988:	e1a0f003 	mov	pc, r3
    898c:	e5940000 	ldr	r0, [r4]
    8990:	e5903000 	ldr	r3, [r0]
    8994:	e3130902 	tst	r3, #32768	; 0x8000
    8998:	0a000031 	beq	8a64 <_IO_puts+0x128>
    899c:	e1d034d6 	ldrsb	r3, [r0, #70]
    89a0:	e3530000 	cmp	r3, #0	; 0x0
    89a4:	1a000017 	bne	8a08 <_IO_puts+0xcc>
    89a8:	e590305c 	ldr	r3, [r0, #92]
    89ac:	e3e02000 	mvn	r2, #0	; 0x0
    89b0:	e3530000 	cmp	r3, #0	; 0x0
    89b4:	0580205c 	streq	r2, [r0, #92]
    89b8:	e590205c 	ldr	r2, [r0, #92]
    89bc:	e3720001 	cmn	r2, #1	; 0x1
    89c0:	0a000010 	beq	8a08 <_IO_puts+0xcc>
    89c4:	e5940000 	ldr	r0, [r4]
    89c8:	e5903000 	ldr	r3, [r0]
    89cc:	e3130902 	tst	r3, #32768	; 0x8000
    89d0:	0a00000a 	beq	8a00 <_IO_puts+0xc4>
    89d4:	e3570000 	cmp	r7, #0	; 0x0
    89d8:	1a000002 	bne	89e8 <_IO_puts+0xac>
    89dc:	e1a00008 	mov	r0, r8
    89e0:	e28dd010 	add	sp, sp, #16	; 0x10
    89e4:	e8bd81f0 	ldmia	sp!, {r4, r5, r6, r7, r8, pc}
    89e8:	e1a0000d 	mov	r0, sp
    89ec:	e3a01000 	mov	r1, #0	; 0x0
    89f0:	e59f3084 	ldr	r3, [pc, #132]	; 8a7c <_IO_puts+0x140>
    89f4:	e1a0e00f 	mov	lr, pc
    89f8:	e1a0f003 	mov	pc, r3
    89fc:	eafffff6 	b	89dc <_IO_puts+0xa0>
    8a00:	eb0023c3 	bl	11914 <_IO_funlockfile>
    8a04:	eafffff2 	b	89d4 <_IO_puts+0x98>
    8a08:	e5940000 	ldr	r0, [r4]
    8a0c:	e1a01006 	mov	r1, r6
    8a10:	e5903094 	ldr	r3, [r0, #148]
    8a14:	e1a02005 	mov	r2, r5
    8a18:	e1a0e00f 	mov	lr, pc
    8a1c:	e593f01c 	ldr	pc, [r3, #28]
    8a20:	e1500005 	cmp	r0, r5
    8a24:	1affffe6 	bne	89c4 <_IO_puts+0x88>
    8a28:	e5940000 	ldr	r0, [r4]
    8a2c:	e5902014 	ldr	r2, [r0, #20]
    8a30:	e5903018 	ldr	r3, [r0, #24]
    8a34:	e1520003 	cmp	r2, r3
    8a38:	33a0300a 	movcc	r3, #10	; 0xa
    8a3c:	34c23001 	strccb	r3, [r2], #1
    8a40:	35802014 	strcc	r2, [r0, #20]
    8a44:	2a000001 	bcs	8a50 <_IO_puts+0x114>
    8a48:	e2858001 	add	r8, r5, #1	; 0x1
    8a4c:	eaffffdc 	b	89c4 <_IO_puts+0x88>
    8a50:	e3a0100a 	mov	r1, #10	; 0xa
    8a54:	eb000108 	bl	8e7c <__overflow>
    8a58:	e3700001 	cmn	r0, #1	; 0x1
    8a5c:	1afffff9 	bne	8a48 <_IO_puts+0x10c>
    8a60:	eaffffd7 	b	89c4 <_IO_puts+0x88>
    8a64:	eb0023a4 	bl	118fc <_IO_flockfile>
    8a68:	e5940000 	ldr	r0, [r4]
    8a6c:	eaffffca 	b	899c <_IO_puts+0x60>
    8a70:	000724b4 	streqh	r2, [r7], -r4
    8a74:	00000000 	andeq	r0, r0, r0
    8a78:	00011914 	andeq	r1, r1, r4, lsl r9
    8a7c:	00000000 	andeq	r0, r0, r0

00008a80 <__fcloseall>:
    8a80:	ea000451 	b	9bcc <_IO_cleanup>

00008a84 <flush_cleanup>:
    8a84:	e52de004 	str	lr, [sp, #-4]!
    8a88:	e59f3034 	ldr	r3, [pc, #52]	; 8ac4 <flush_cleanup+0x40>
    8a8c:	e5930000 	ldr	r0, [r3]
    8a90:	e3500000 	cmp	r0, #0	; 0x0
    8a94:	0a000002 	beq	8aa4 <flush_cleanup+0x20>
    8a98:	e5903000 	ldr	r3, [r0]
    8a9c:	e3130902 	tst	r3, #32768	; 0x8000
    8aa0:	0a000005 	beq	8abc <flush_cleanup+0x38>
    8aa4:	e59f301c 	ldr	r3, [pc, #28]	; 8ac8 <flush_cleanup+0x44>
    8aa8:	e59f001c 	ldr	r0, [pc, #28]	; 8acc <flush_cleanup+0x48>
    8aac:	e3530000 	cmp	r3, #0	; 0x0
    8ab0:	049df004 	ldreq	pc, [sp], #4
    8ab4:	e49de004 	ldr	lr, [sp], #4
    8ab8:	eaffdd50 	b	0 <.text-0x80e0>
    8abc:	eb002394 	bl	11914 <_IO_funlockfile>
    8ac0:	eafffff7 	b	8aa4 <flush_cleanup+0x20>
    8ac4:	00072fe4 	andeq	r2, r7, r4, ror #31
    8ac8:	00000000 	andeq	r0, r0, r0
    8acc:	00072050 	andeq	r2, r7, r0, asr r0

00008ad0 <_IO_un_link>:
    8ad0:	e92d4070 	stmdb	sp!, {r4, r5, r6, lr}
    8ad4:	e5903000 	ldr	r3, [r0]
    8ad8:	e24dd010 	sub	sp, sp, #16	; 0x10
    8adc:	e3130080 	tst	r3, #128	; 0x80
    8ae0:	e1a04000 	mov	r4, r0
    8ae4:	0a00002d 	beq	8ba0 <_IO_un_link+0xd0>
    8ae8:	e59f3100 	ldr	r3, [pc, #256]	; 8bf0 <_IO_un_link+0x120>
    8aec:	e2535000 	subs	r5, r3, #0	; 0x0
    8af0:	13a05001 	movne	r5, #1	; 0x1
    8af4:	e3550000 	cmp	r5, #0	; 0x0
    8af8:	0a000004 	beq	8b10 <_IO_un_link+0x40>
    8afc:	e1a0000d 	mov	r0, sp
    8b00:	e59f10ec 	ldr	r1, [pc, #236]	; 8bf4 <_IO_un_link+0x124>
    8b04:	e3a02000 	mov	r2, #0	; 0x0
    8b08:	e1a0e00f 	mov	lr, pc
    8b0c:	e1a0f003 	mov	pc, r3
    8b10:	e59f30e0 	ldr	r3, [pc, #224]	; 8bf8 <_IO_un_link+0x128>
    8b14:	e3530000 	cmp	r3, #0	; 0x0
    8b18:	159f00dc 	ldrne	r0, [pc, #220]	; 8bfc <_IO_un_link+0x12c>
    8b1c:	11a0e00f 	movne	lr, pc
    8b20:	11a0f003 	movne	pc, r3
    8b24:	e5943000 	ldr	r3, [r4]
    8b28:	e59f60d0 	ldr	r6, [pc, #208]	; 8c00 <_IO_un_link+0x130>
    8b2c:	e3130902 	tst	r3, #32768	; 0x8000
    8b30:	e5864000 	str	r4, [r6]
    8b34:	0a00002a 	beq	8be4 <_IO_un_link+0x114>
    8b38:	e59f10c4 	ldr	r1, [pc, #196]	; 8c04 <_IO_un_link+0x134>
    8b3c:	e5913000 	ldr	r3, [r1]
    8b40:	e3530000 	cmp	r3, #0	; 0x0
    8b44:	159f00bc 	ldrne	r0, [pc, #188]	; 8c08 <_IO_un_link+0x138>
    8b48:	0a000006 	beq	8b68 <_IO_un_link+0x98>
    8b4c:	e1530004 	cmp	r3, r4
    8b50:	0a00001d 	beq	8bcc <_IO_un_link+0xfc>
    8b54:	e5932034 	ldr	r2, [r3, #52]
    8b58:	e2831034 	add	r1, r3, #52	; 0x34
    8b5c:	e3520000 	cmp	r2, #0	; 0x0
    8b60:	11a03002 	movne	r3, r2
    8b64:	1afffff8 	bne	8b4c <_IO_un_link+0x7c>
    8b68:	e5943000 	ldr	r3, [r4]
    8b6c:	e3130902 	tst	r3, #32768	; 0x8000
    8b70:	e3c33080 	bic	r3, r3, #128	; 0x80
    8b74:	e5843000 	str	r3, [r4]
    8b78:	0a000010 	beq	8bc0 <_IO_un_link+0xf0>
    8b7c:	e59f3088 	ldr	r3, [pc, #136]	; 8c0c <_IO_un_link+0x13c>
    8b80:	e3a04000 	mov	r4, #0	; 0x0
    8b84:	e1530004 	cmp	r3, r4
    8b88:	e5864000 	str	r4, [r6]
    8b8c:	159f0068 	ldrne	r0, [pc, #104]	; 8bfc <_IO_un_link+0x12c>
    8b90:	11a0e00f 	movne	lr, pc
    8b94:	11a0f003 	movne	pc, r3
    8b98:	e3550000 	cmp	r5, #0	; 0x0
    8b9c:	1a000001 	bne	8ba8 <_IO_un_link+0xd8>
    8ba0:	e28dd010 	add	sp, sp, #16	; 0x10
    8ba4:	e8bd8070 	ldmia	sp!, {r4, r5, r6, pc}
    8ba8:	e1a0000d 	mov	r0, sp
    8bac:	e1a01004 	mov	r1, r4
    8bb0:	e59f3058 	ldr	r3, [pc, #88]	; 8c10 <_IO_un_link+0x140>
    8bb4:	e1a0e00f 	mov	lr, pc
    8bb8:	e1a0f003 	mov	pc, r3
    8bbc:	eafffff7 	b	8ba0 <_IO_un_link+0xd0>
    8bc0:	e1a00004 	mov	r0, r4
    8bc4:	eb002352 	bl	11914 <_IO_funlockfile>
    8bc8:	eaffffeb 	b	8b7c <_IO_un_link+0xac>
    8bcc:	e5903000 	ldr	r3, [r0]
    8bd0:	e5942034 	ldr	r2, [r4, #52]
    8bd4:	e2833001 	add	r3, r3, #1	; 0x1
    8bd8:	e5812000 	str	r2, [r1]
    8bdc:	e5803000 	str	r3, [r0]
    8be0:	eaffffe0 	b	8b68 <_IO_un_link+0x98>
    8be4:	e1a00004 	mov	r0, r4
    8be8:	eb002343 	bl	118fc <_IO_flockfile>
    8bec:	eaffffd1 	b	8b38 <_IO_un_link+0x68>
    8bf0:	00000000 	andeq	r0, r0, r0
    8bf4:	00008a84 	andeq	r8, r0, r4, lsl #21
    8bf8:	00000000 	andeq	r0, r0, r0
    8bfc:	00072050 	andeq	r2, r7, r0, asr r0
    8c00:	00072fe4 	andeq	r2, r7, r4, ror #31
    8c04:	000724ac 	andeq	r2, r7, ip, lsr #9
    8c08:	00072fe0 	andeq	r2, r7, r0, ror #31
	...

00008c14 <_IO_link_in>:
    8c14:	e92d40f0 	stmdb	sp!, {r4, r5, r6, r7, lr}
    8c18:	e5903000 	ldr	r3, [r0]
    8c1c:	e24dd010 	sub	sp, sp, #16	; 0x10
    8c20:	e2135080 	ands	r5, r3, #128	; 0x80
    8c24:	e1a04000 	mov	r4, r0
    8c28:	1a000028 	bne	8cd0 <_IO_link_in+0xbc>
    8c2c:	e59fc0d4 	ldr	ip, [pc, #212]	; 8d08 <_IO_link_in+0xf4>
    8c30:	e3833080 	orr	r3, r3, #128	; 0x80
    8c34:	e25c6000 	subs	r6, ip, #0	; 0x0
    8c38:	13a06001 	movne	r6, #1	; 0x1
    8c3c:	e3560000 	cmp	r6, #0	; 0x0
    8c40:	e5803000 	str	r3, [r0]
    8c44:	0a000004 	beq	8c5c <_IO_link_in+0x48>
    8c48:	e1a0000d 	mov	r0, sp
    8c4c:	e59f10b8 	ldr	r1, [pc, #184]	; 8d0c <_IO_link_in+0xf8>
    8c50:	e1a02005 	mov	r2, r5
    8c54:	e1a0e00f 	mov	lr, pc
    8c58:	e1a0f00c 	mov	pc, ip
    8c5c:	e59f30ac 	ldr	r3, [pc, #172]	; 8d10 <_IO_link_in+0xfc>
    8c60:	e3530000 	cmp	r3, #0	; 0x0
    8c64:	159f00a8 	ldrne	r0, [pc, #168]	; 8d14 <_IO_link_in+0x100>
    8c68:	11a0e00f 	movne	lr, pc
    8c6c:	11a0f003 	movne	pc, r3
    8c70:	e5943000 	ldr	r3, [r4]
    8c74:	e59f709c 	ldr	r7, [pc, #156]	; 8d18 <_IO_link_in+0x104>
    8c78:	e3130902 	tst	r3, #32768	; 0x8000
    8c7c:	e5874000 	str	r4, [r7]
    8c80:	0a00001d 	beq	8cfc <_IO_link_in+0xe8>
    8c84:	e59f0090 	ldr	r0, [pc, #144]	; 8d1c <_IO_link_in+0x108>
    8c88:	e59fc090 	ldr	ip, [pc, #144]	; 8d20 <_IO_link_in+0x10c>
    8c8c:	e5903000 	ldr	r3, [r0]
    8c90:	e5942000 	ldr	r2, [r4]
    8c94:	e59c1000 	ldr	r1, [ip]
    8c98:	e2833001 	add	r3, r3, #1	; 0x1
    8c9c:	e3120902 	tst	r2, #32768	; 0x8000
    8ca0:	e5803000 	str	r3, [r0]
    8ca4:	e5841034 	str	r1, [r4, #52]
    8ca8:	e58c4000 	str	r4, [ip]
    8cac:	0a00000f 	beq	8cf0 <_IO_link_in+0xdc>
    8cb0:	e59f306c 	ldr	r3, [pc, #108]	; 8d24 <_IO_link_in+0x110>
    8cb4:	e5875000 	str	r5, [r7]
    8cb8:	e3530000 	cmp	r3, #0	; 0x0
    8cbc:	159f0050 	ldrne	r0, [pc, #80]	; 8d14 <_IO_link_in+0x100>
    8cc0:	11a0e00f 	movne	lr, pc
    8cc4:	11a0f003 	movne	pc, r3
    8cc8:	e3560000 	cmp	r6, #0	; 0x0
    8ccc:	1a000001 	bne	8cd8 <_IO_link_in+0xc4>
    8cd0:	e28dd010 	add	sp, sp, #16	; 0x10
    8cd4:	e8bd80f0 	ldmia	sp!, {r4, r5, r6, r7, pc}
    8cd8:	e1a0000d 	mov	r0, sp
    8cdc:	e1a01005 	mov	r1, r5
    8ce0:	e59f3040 	ldr	r3, [pc, #64]	; 8d28 <_IO_link_in+0x114>
    8ce4:	e1a0e00f 	mov	lr, pc
    8ce8:	e1a0f003 	mov	pc, r3
    8cec:	eafffff7 	b	8cd0 <_IO_link_in+0xbc>
    8cf0:	e1a00004 	mov	r0, r4
    8cf4:	eb002306 	bl	11914 <_IO_funlockfile>
    8cf8:	eaffffec 	b	8cb0 <_IO_link_in+0x9c>
    8cfc:	e1a00004 	mov	r0, r4
    8d00:	eb0022fd 	bl	118fc <_IO_flockfile>
    8d04:	eaffffde 	b	8c84 <_IO_link_in+0x70>
    8d08:	00000000 	andeq	r0, r0, r0
    8d0c:	00008a84 	andeq	r8, r0, r4, lsl #21
    8d10:	00000000 	andeq	r0, r0, r0
    8d14:	00072050 	andeq	r2, r7, r0, asr r0
    8d18:	00072fe4 	andeq	r2, r7, r4, ror #31
    8d1c:	00072fe0 	andeq	r2, r7, r0, ror #31
    8d20:	000724ac 	andeq	r2, r7, ip, lsr #9
	...

00008d2c <_IO_least_marker>:
    8d2c:	e5902030 	ldr	r2, [r0, #48]
    8d30:	e590300c 	ldr	r3, [r0, #12]
    8d34:	e3520000 	cmp	r2, #0	; 0x0
    8d38:	e0630001 	rsb	r0, r3, r1
    8d3c:	01a0f00e 	moveq	pc, lr
    8d40:	e5923008 	ldr	r3, [r2, #8]
    8d44:	e5922000 	ldr	r2, [r2]
    8d48:	e1500003 	cmp	r0, r3
    8d4c:	a1a00003 	movge	r0, r3
    8d50:	e3520000 	cmp	r2, #0	; 0x0
    8d54:	1afffff9 	bne	8d40 <_IO_least_marker+0x14>
    8d58:	e1a0f00e 	mov	pc, lr

00008d5c <_IO_switch_to_main_get_area>:
    8d5c:	e590c008 	ldr	ip, [r0, #8]
    8d60:	e5903000 	ldr	r3, [r0]
    8d64:	e5902024 	ldr	r2, [r0, #36]
    8d68:	e590102c 	ldr	r1, [r0, #44]
    8d6c:	e580c02c 	str	ip, [r0, #44]
    8d70:	e590c00c 	ldr	ip, [r0, #12]
    8d74:	e3c33c01 	bic	r3, r3, #256	; 0x100
    8d78:	e5802004 	str	r2, [r0, #4]
    8d7c:	e5803000 	str	r3, [r0]
    8d80:	e5801008 	str	r1, [r0, #8]
    8d84:	e580c024 	str	ip, [r0, #36]
    8d88:	e580200c 	str	r2, [r0, #12]
    8d8c:	e1a0f00e 	mov	pc, lr

00008d90 <_IO_switch_to_backup_area>:
    8d90:	e590c008 	ldr	ip, [r0, #8]
    8d94:	e5903000 	ldr	r3, [r0]
    8d98:	e590102c 	ldr	r1, [r0, #44]
    8d9c:	e5902024 	ldr	r2, [r0, #36]
    8da0:	e580c02c 	str	ip, [r0, #44]
    8da4:	e590c00c 	ldr	ip, [r0, #12]
    8da8:	e3833c01 	orr	r3, r3, #256	; 0x100
    8dac:	e5801004 	str	r1, [r0, #4]
    8db0:	e5803000 	str	r3, [r0]
    8db4:	e580200c 	str	r2, [r0, #12]
    8db8:	e580c024 	str	ip, [r0, #36]
    8dbc:	e5801008 	str	r1, [r0, #8]
    8dc0:	e1a0f00e 	mov	pc, lr

00008dc4 <_IO_switch_to_get_mode>:
    8dc4:	e92d4010 	stmdb	sp!, {r4, lr}
    8dc8:	e590c014 	ldr	ip, [r0, #20]
    8dcc:	e5903010 	ldr	r3, [r0, #16]
    8dd0:	e1a04000 	mov	r4, r0
    8dd4:	e15c0003 	cmp	ip, r3
    8dd8:	e3e01000 	mvn	r1, #0	; 0x0
    8ddc:	8a000011 	bhi	8e28 <_IO_switch_to_get_mode+0x64>
    8de0:	e5941000 	ldr	r1, [r4]
    8de4:	e3110c01 	tst	r1, #256	; 0x100
    8de8:	15943028 	ldrne	r3, [r4, #40]
    8dec:	1584300c 	strne	r3, [r4, #12]
    8df0:	1a000004 	bne	8e08 <_IO_switch_to_get_mode+0x44>
    8df4:	e5943008 	ldr	r3, [r4, #8]
    8df8:	e594201c 	ldr	r2, [r4, #28]
    8dfc:	e15c0003 	cmp	ip, r3
    8e00:	e584200c 	str	r2, [r4, #12]
    8e04:	8584c008 	strhi	ip, [r4, #8]
    8e08:	e3c13b02 	bic	r3, r1, #2048	; 0x800
    8e0c:	e584c010 	str	ip, [r4, #16]
    8e10:	e584c004 	str	ip, [r4, #4]
    8e14:	e584c018 	str	ip, [r4, #24]
    8e18:	e584c014 	str	ip, [r4, #20]
    8e1c:	e3a00000 	mov	r0, #0	; 0x0
    8e20:	e5843000 	str	r3, [r4]
    8e24:	e8bd8010 	ldmia	sp!, {r4, pc}
    8e28:	e5903094 	ldr	r3, [r0, #148]
    8e2c:	e1a0e00f 	mov	lr, pc
    8e30:	e593f00c 	ldr	pc, [r3, #12]
    8e34:	e3700001 	cmn	r0, #1	; 0x1
    8e38:	0afffff9 	beq	8e24 <_IO_switch_to_get_mode+0x60>
    8e3c:	e594c014 	ldr	ip, [r4, #20]
    8e40:	eaffffe6 	b	8de0 <_IO_switch_to_get_mode+0x1c>

00008e44 <_IO_free_backup_area>:
    8e44:	e92d4010 	stmdb	sp!, {r4, lr}
    8e48:	e5903000 	ldr	r3, [r0]
    8e4c:	e1a04000 	mov	r4, r0
    8e50:	e3130c01 	tst	r3, #256	; 0x100
    8e54:	1a000006 	bne	8e74 <_IO_free_backup_area+0x30>
    8e58:	e5940024 	ldr	r0, [r4, #36]
    8e5c:	eb000dd5 	bl	c5b8 <__libc_free>
    8e60:	e3a03000 	mov	r3, #0	; 0x0
    8e64:	e5843028 	str	r3, [r4, #40]
    8e68:	e5843024 	str	r3, [r4, #36]
    8e6c:	e584302c 	str	r3, [r4, #44]
    8e70:	e8bd8010 	ldmia	sp!, {r4, pc}
    8e74:	ebffffb8 	bl	8d5c <_IO_switch_to_main_get_area>
    8e78:	eafffff6 	b	8e58 <_IO_free_backup_area+0x14>

00008e7c <__overflow>:
    8e7c:	e52de004 	str	lr, [sp, #-4]!
    8e80:	e590305c 	ldr	r3, [r0, #92]
    8e84:	e1a02000 	mov	r2, r0
    8e88:	e3530000 	cmp	r3, #0	; 0x0
    8e8c:	03e03000 	mvneq	r3, #0	; 0x0
    8e90:	0580305c 	streq	r3, [r0, #92]
    8e94:	e5923094 	ldr	r3, [r2, #148]
    8e98:	e1a0e00f 	mov	lr, pc
    8e9c:	e593f00c 	ldr	pc, [r3, #12]
    8ea0:	e49df004 	ldr	pc, [sp], #4

00008ea4 <save_for_backup>:
    8ea4:	e92d47f0 	stmdb	sp!, {r4, r5, r6, r7, r8, r9, sl, lr}
    8ea8:	e1a04000 	mov	r4, r0
    8eac:	e1a0a001 	mov	sl, r1
    8eb0:	ebffff9d 	bl	8d2c <_IO_least_marker>
    8eb4:	e594100c 	ldr	r1, [r4, #12]
    8eb8:	e1a05000 	mov	r5, r0
    8ebc:	e594202c 	ldr	r2, [r4, #44]
    8ec0:	e5940024 	ldr	r0, [r4, #36]
    8ec4:	e061300a 	rsb	r3, r1, sl
    8ec8:	e0656003 	rsb	r6, r5, r3
    8ecc:	e0603002 	rsb	r3, r0, r2
    8ed0:	e1560003 	cmp	r6, r3
    8ed4:	8a000023 	bhi	8f68 <save_for_backup+0xc4>
    8ed8:	e3550000 	cmp	r5, #0	; 0x0
    8edc:	e0669003 	rsb	r9, r6, r3
    8ee0:	ba000016 	blt	8f40 <save_for_backup+0x9c>
    8ee4:	e3560000 	cmp	r6, #0	; 0x0
    8ee8:	1a00000d 	bne	8f24 <save_for_backup+0x80>
    8eec:	e594c030 	ldr	ip, [r4, #48]
    8ef0:	e0803009 	add	r3, r0, r9
    8ef4:	e35c0000 	cmp	ip, #0	; 0x0
    8ef8:	e5843028 	str	r3, [r4, #40]
    8efc:	e061100a 	rsb	r1, r1, sl
    8f00:	0a000005 	beq	8f1c <save_for_backup+0x78>
    8f04:	e59c3008 	ldr	r3, [ip, #8]
    8f08:	e0613003 	rsb	r3, r1, r3
    8f0c:	e58c3008 	str	r3, [ip, #8]
    8f10:	e59cc000 	ldr	ip, [ip]
    8f14:	e35c0000 	cmp	ip, #0	; 0x0
    8f18:	1afffff9 	bne	8f04 <save_for_backup+0x60>
    8f1c:	e3a00000 	mov	r0, #0	; 0x0
    8f20:	e8bd87f0 	ldmia	sp!, {r4, r5, r6, r7, r8, r9, sl, pc}
    8f24:	e0811005 	add	r1, r1, r5
    8f28:	e0800009 	add	r0, r0, r9
    8f2c:	e1a02006 	mov	r2, r6
    8f30:	eb00172c 	bl	ebe8 <memcpy>
    8f34:	e594100c 	ldr	r1, [r4, #12]
    8f38:	e5940024 	ldr	r0, [r4, #36]
    8f3c:	eaffffea 	b	8eec <save_for_backup+0x48>
    8f40:	e0821005 	add	r1, r2, r5
    8f44:	e0800009 	add	r0, r0, r9
    8f48:	e2652000 	rsb	r2, r5, #0	; 0x0
    8f4c:	eb001689 	bl	e978 <memmove>
    8f50:	e5940024 	ldr	r0, [r4, #36]
    8f54:	e594100c 	ldr	r1, [r4, #12]
    8f58:	e0800009 	add	r0, r0, r9
    8f5c:	e0650000 	rsb	r0, r5, r0
    8f60:	e061200a 	rsb	r2, r1, sl
    8f64:	eafffff1 	b	8f30 <save_for_backup+0x8c>
    8f68:	e2860064 	add	r0, r6, #100	; 0x64
    8f6c:	eb000d23 	bl	c400 <__libc_malloc>
    8f70:	e3500000 	cmp	r0, #0	; 0x0
    8f74:	e1a07000 	mov	r7, r0
    8f78:	e3a09064 	mov	r9, #100	; 0x64
    8f7c:	0a00001c 	beq	8ff4 <save_for_backup+0x150>
    8f80:	e3550000 	cmp	r5, #0	; 0x0
    8f84:	ba000010 	blt	8fcc <save_for_backup+0x128>
    8f88:	e594100c 	ldr	r1, [r4, #12]
    8f8c:	e2808064 	add	r8, r0, #100	; 0x64
    8f90:	e0811005 	add	r1, r1, r5
    8f94:	e1a00008 	mov	r0, r8
    8f98:	e1a02006 	mov	r2, r6
    8f9c:	eb001711 	bl	ebe8 <memcpy>
    8fa0:	e5940024 	ldr	r0, [r4, #36]
    8fa4:	e3500000 	cmp	r0, #0	; 0x0
    8fa8:	1a000005 	bne	8fc4 <save_for_backup+0x120>
    8fac:	e594100c 	ldr	r1, [r4, #12]
    8fb0:	e0883006 	add	r3, r8, r6
    8fb4:	e1a00007 	mov	r0, r7
    8fb8:	e584302c 	str	r3, [r4, #44]
    8fbc:	e5847024 	str	r7, [r4, #36]
    8fc0:	eaffffc9 	b	8eec <save_for_backup+0x48>
    8fc4:	eb000d7b 	bl	c5b8 <__libc_free>
    8fc8:	eafffff7 	b	8fac <save_for_backup+0x108>
    8fcc:	e594102c 	ldr	r1, [r4, #44]
    8fd0:	e2808064 	add	r8, r0, #100	; 0x64
    8fd4:	e2652000 	rsb	r2, r5, #0	; 0x0
    8fd8:	e0811005 	add	r1, r1, r5
    8fdc:	e1a00008 	mov	r0, r8
    8fe0:	eb0016da 	bl	eb50 <__mempcpy>
    8fe4:	e594100c 	ldr	r1, [r4, #12]
    8fe8:	e061200a 	rsb	r2, r1, sl
    8fec:	eb0016d7 	bl	eb50 <__mempcpy>
    8ff0:	eaffffea 	b	8fa0 <save_for_backup+0xfc>
    8ff4:	e3e00000 	mvn	r0, #0	; 0x0
    8ff8:	e8bd87f0 	ldmia	sp!, {r4, r5, r6, r7, r8, r9, sl, pc}

00008ffc <__underflow>:
    8ffc:	e92d4010 	stmdb	sp!, {r4, lr}
    9000:	e1d034d6 	ldrsb	r3, [r0, #70]
    9004:	e1a04000 	mov	r4, r0
    9008:	e3530000 	cmp	r3, #0	; 0x0
    900c:	1590305c 	ldrne	r3, [r0, #92]
    9010:	1a000006 	bne	9030 <__underflow+0x34>
    9014:	e590305c 	ldr	r3, [r0, #92]
    9018:	e3e02000 	mvn	r2, #0	; 0x0
    901c:	e3530000 	cmp	r3, #0	; 0x0
    9020:	01a03002 	moveq	r3, r2
    9024:	0580205c 	streq	r2, [r0, #92]
    9028:	e3730001 	cmn	r3, #1	; 0x1
    902c:	1a00001d 	bne	90a8 <__underflow+0xac>
    9030:	e3530000 	cmp	r3, #0	; 0x0
    9034:	03e03000 	mvneq	r3, #0	; 0x0
    9038:	0584305c 	streq	r3, [r4, #92]
    903c:	e5943000 	ldr	r3, [r4]
    9040:	e3130b02 	tst	r3, #2048	; 0x800
    9044:	1a000020 	bne	90cc <__underflow+0xd0>
    9048:	e9940003 	ldmib	r4, {r0, r1}
    904c:	e1500001 	cmp	r0, r1
    9050:	3a00001b 	bcc	90c4 <__underflow+0xc8>
    9054:	e5943000 	ldr	r3, [r4]
    9058:	e3130c01 	tst	r3, #256	; 0x100
    905c:	1a000013 	bne	90b0 <__underflow+0xb4>
    9060:	e5943030 	ldr	r3, [r4, #48]
    9064:	e3530000 	cmp	r3, #0	; 0x0
    9068:	1a00000a 	bne	9098 <__underflow+0x9c>
    906c:	e5943024 	ldr	r3, [r4, #36]
    9070:	e3530000 	cmp	r3, #0	; 0x0
    9074:	1a000004 	bne	908c <__underflow+0x90>
    9078:	e5943094 	ldr	r3, [r4, #148]
    907c:	e1a00004 	mov	r0, r4
    9080:	e1a0e00f 	mov	lr, pc
    9084:	e593f010 	ldr	pc, [r3, #16]
    9088:	e8bd8010 	ldmia	sp!, {r4, pc}
    908c:	e1a00004 	mov	r0, r4
    9090:	ebffff6b 	bl	8e44 <_IO_free_backup_area>
    9094:	eafffff7 	b	9078 <__underflow+0x7c>
    9098:	e1a00004 	mov	r0, r4
    909c:	ebffff80 	bl	8ea4 <save_for_backup>
    90a0:	e3500000 	cmp	r0, #0	; 0x0
    90a4:	0afffff3 	beq	9078 <__underflow+0x7c>
    90a8:	e3e00000 	mvn	r0, #0	; 0x0
    90ac:	e8bd8010 	ldmia	sp!, {r4, pc}
    90b0:	e1a00004 	mov	r0, r4
    90b4:	ebffff28 	bl	8d5c <_IO_switch_to_main_get_area>
    90b8:	e9940003 	ldmib	r4, {r0, r1}
    90bc:	e1500001 	cmp	r0, r1
    90c0:	2affffe6 	bcs	9060 <__underflow+0x64>
    90c4:	e5d00000 	ldrb	r0, [r0]
    90c8:	e8bd8010 	ldmia	sp!, {r4, pc}
    90cc:	e1a00004 	mov	r0, r4
    90d0:	ebffff3b 	bl	8dc4 <_IO_switch_to_get_mode>
    90d4:	e3700001 	cmn	r0, #1	; 0x1
    90d8:	1affffda 	bne	9048 <__underflow+0x4c>
    90dc:	eaffffe9 	b	9088 <__underflow+0x8c>

000090e0 <__uflow>:
    90e0:	e92d4010 	stmdb	sp!, {r4, lr}
    90e4:	e1d034d6 	ldrsb	r3, [r0, #70]
    90e8:	e1a04000 	mov	r4, r0
    90ec:	e3530000 	cmp	r3, #0	; 0x0
    90f0:	1590305c 	ldrne	r3, [r0, #92]
    90f4:	1a000006 	bne	9114 <__uflow+0x34>
    90f8:	e590305c 	ldr	r3, [r0, #92]
    90fc:	e3e02000 	mvn	r2, #0	; 0x0
    9100:	e3530000 	cmp	r3, #0	; 0x0
    9104:	01a03002 	moveq	r3, r2
    9108:	0580205c 	streq	r2, [r0, #92]
    910c:	e3730001 	cmn	r3, #1	; 0x1
    9110:	1a00001e 	bne	9190 <__uflow+0xb0>
    9114:	e3530000 	cmp	r3, #0	; 0x0
    9118:	03e03000 	mvneq	r3, #0	; 0x0
    911c:	0584305c 	streq	r3, [r4, #92]
    9120:	e5943000 	ldr	r3, [r4]
    9124:	e3130b02 	tst	r3, #2048	; 0x800
    9128:	1a000024 	bne	91c0 <__uflow+0xe0>
    912c:	e5942004 	ldr	r2, [r4, #4]
    9130:	e5941008 	ldr	r1, [r4, #8]
    9134:	e1520001 	cmp	r2, r1
    9138:	3a00001c 	bcc	91b0 <__uflow+0xd0>
    913c:	e5943000 	ldr	r3, [r4]
    9140:	e3130c01 	tst	r3, #256	; 0x100
    9144:	1a000013 	bne	9198 <__uflow+0xb8>
    9148:	e5943030 	ldr	r3, [r4, #48]
    914c:	e3530000 	cmp	r3, #0	; 0x0
    9150:	1a00000a 	bne	9180 <__uflow+0xa0>
    9154:	e5943024 	ldr	r3, [r4, #36]
    9158:	e3530000 	cmp	r3, #0	; 0x0
    915c:	1a000004 	bne	9174 <__uflow+0x94>
    9160:	e5943094 	ldr	r3, [r4, #148]
    9164:	e1a00004 	mov	r0, r4
    9168:	e1a0e00f 	mov	lr, pc
    916c:	e593f014 	ldr	pc, [r3, #20]
    9170:	e8bd8010 	ldmia	sp!, {r4, pc}
    9174:	e1a00004 	mov	r0, r4
    9178:	ebffff31 	bl	8e44 <_IO_free_backup_area>
    917c:	eafffff7 	b	9160 <__uflow+0x80>
    9180:	e1a00004 	mov	r0, r4
    9184:	ebffff46 	bl	8ea4 <save_for_backup>
    9188:	e3500000 	cmp	r0, #0	; 0x0
    918c:	0afffff3 	beq	9160 <__uflow+0x80>
    9190:	e3e00000 	mvn	r0, #0	; 0x0
    9194:	e8bd8010 	ldmia	sp!, {r4, pc}
    9198:	e1a00004 	mov	r0, r4
    919c:	ebfffeee 	bl	8d5c <_IO_switch_to_main_get_area>
    91a0:	e5942004 	ldr	r2, [r4, #4]
    91a4:	e5941008 	ldr	r1, [r4, #8]
    91a8:	e1520001 	cmp	r2, r1
    91ac:	2affffe5 	bcs	9148 <__uflow+0x68>
    91b0:	e4d23001 	ldrb	r3, [r2], #1
    91b4:	e1a00003 	mov	r0, r3
    91b8:	e5842004 	str	r2, [r4, #4]
    91bc:	e8bd8010 	ldmia	sp!, {r4, pc}
    91c0:	e1a00004 	mov	r0, r4
    91c4:	ebfffefe 	bl	8dc4 <_IO_switch_to_get_mode>
    91c8:	e3700001 	cmn	r0, #1	; 0x1
    91cc:	1affffd6 	bne	912c <__uflow+0x4c>
    91d0:	eaffffe6 	b	9170 <__uflow+0x90>

000091d4 <_IO_setb>:
    91d4:	e92d40f0 	stmdb	sp!, {r4, r5, r6, r7, lr}
    91d8:	e590c01c 	ldr	ip, [r0, #28]
    91dc:	e1a04000 	mov	r4, r0
    91e0:	e35c0000 	cmp	ip, #0	; 0x0
    91e4:	e1a07001 	mov	r7, r1
    91e8:	e1a06002 	mov	r6, r2
    91ec:	e1a05003 	mov	r5, r3
    91f0:	0a000012 	beq	9240 <_IO_setb+0x6c>
    91f4:	e5943000 	ldr	r3, [r4]
    91f8:	e1a0000c 	mov	r0, ip
    91fc:	e3130001 	tst	r3, #1	; 0x1
    9200:	0a000007 	beq	9224 <_IO_setb+0x50>
    9204:	e3c32001 	bic	r2, r3, #1	; 0x1
    9208:	e3550000 	cmp	r5, #0	; 0x0
    920c:	e3833001 	orr	r3, r3, #1	; 0x1
    9210:	e584701c 	str	r7, [r4, #28]
    9214:	e5846020 	str	r6, [r4, #32]
    9218:	15842000 	strne	r2, [r4]
    921c:	05843000 	streq	r3, [r4]
    9220:	e8bd80f0 	ldmia	sp!, {r4, r5, r6, r7, pc}
    9224:	e5941020 	ldr	r1, [r4, #32]
    9228:	e06c1001 	rsb	r1, ip, r1
    922c:	e2811eff 	add	r1, r1, #4080	; 0xff0
    9230:	e281100f 	add	r1, r1, #15	; 0xf
    9234:	e3c11eff 	bic	r1, r1, #4080	; 0xff0
    9238:	e3c1100f 	bic	r1, r1, #15	; 0xf
    923c:	eb00190f 	bl	f680 <__munmap>
    9240:	e5943000 	ldr	r3, [r4]
    9244:	eaffffee 	b	9204 <_IO_setb+0x30>

00009248 <_IO_doallocbuf>:
    9248:	e92d4010 	stmdb	sp!, {r4, lr}
    924c:	e590301c 	ldr	r3, [r0, #28]
    9250:	e1a04000 	mov	r4, r0
    9254:	e3530000 	cmp	r3, #0	; 0x0
    9258:	1a00000a 	bne	9288 <_IO_doallocbuf+0x40>
    925c:	e5903000 	ldr	r3, [r0]
    9260:	e3130002 	tst	r3, #2	; 0x2
    9264:	0a000002 	beq	9274 <_IO_doallocbuf+0x2c>
    9268:	e590305c 	ldr	r3, [r0, #92]
    926c:	e3530000 	cmp	r3, #0	; 0x0
    9270:	da000005 	ble	928c <_IO_doallocbuf+0x44>
    9274:	e5943094 	ldr	r3, [r4, #148]
    9278:	e1a0e00f 	mov	lr, pc
    927c:	e593f034 	ldr	pc, [r3, #52]
    9280:	e3700001 	cmn	r0, #1	; 0x1
    9284:	0a000000 	beq	928c <_IO_doallocbuf+0x44>
    9288:	e8bd8010 	ldmia	sp!, {r4, pc}
    928c:	e2841047 	add	r1, r4, #71	; 0x47
    9290:	e2842048 	add	r2, r4, #72	; 0x48
    9294:	e1a00004 	mov	r0, r4
    9298:	e3a03000 	mov	r3, #0	; 0x0
    929c:	e8bd4010 	ldmia	sp!, {r4, lr}
    92a0:	eaffffcb 	b	91d4 <_IO_setb>

000092a4 <_IO_default_underflow>:
    92a4:	e3e00000 	mvn	r0, #0	; 0x0
    92a8:	e1a0f00e 	mov	pc, lr

000092ac <_IO_default_uflow>:
    92ac:	e92d4010 	stmdb	sp!, {r4, lr}
    92b0:	e5903094 	ldr	r3, [r0, #148]
    92b4:	e1a04000 	mov	r4, r0
    92b8:	e1a0e00f 	mov	lr, pc
    92bc:	e593f010 	ldr	pc, [r3, #16]
    92c0:	e3700001 	cmn	r0, #1	; 0x1
    92c4:	15943004 	ldrne	r3, [r4, #4]
    92c8:	14d32001 	ldrneb	r2, [r3], #1
    92cc:	11a00002 	movne	r0, r2
    92d0:	15843004 	strne	r3, [r4, #4]
    92d4:	e8bd8010 	ldmia	sp!, {r4, pc}

000092d8 <_IO_default_xsputn>:
    92d8:	e3520000 	cmp	r2, #0	; 0x0
    92dc:	e92d41f0 	stmdb	sp!, {r4, r5, r6, r7, r8, lr}
    92e0:	e1a08002 	mov	r8, r2
    92e4:	e1a07000 	mov	r7, r0
    92e8:	e1a04001 	mov	r4, r1
    92ec:	e1a06002 	mov	r6, r2
    92f0:	1a000001 	bne	92fc <_IO_default_xsputn+0x24>
    92f4:	e1a00002 	mov	r0, r2
    92f8:	e8bd81f0 	ldmia	sp!, {r4, r5, r6, r7, r8, pc}
    92fc:	e2873018 	add	r3, r7, #24	; 0x18
    9300:	e8130028 	ldmda	r3, {r3, r5}
    9304:	e0455003 	sub	r5, r5, r3
    9308:	e5970014 	ldr	r0, [r7, #20]
    930c:	e3550000 	cmp	r5, #0	; 0x0
    9310:	da00000e 	ble	9350 <_IO_default_xsputn+0x78>
    9314:	e1550006 	cmp	r5, r6
    9318:	21a05006 	movcs	r5, r6
    931c:	e3550014 	cmp	r5, #20	; 0x14
    9320:	ca000016 	bgt	9380 <_IO_default_xsputn+0xa8>
    9324:	e3550000 	cmp	r5, #0	; 0x0
    9328:	d3a05000 	movle	r5, #0	; 0x0
    932c:	da000006 	ble	934c <_IO_default_xsputn+0x74>
    9330:	e2552001 	subs	r2, r5, #1	; 0x1
    9334:	4a000003 	bmi	9348 <_IO_default_xsputn+0x70>
    9338:	e4d43001 	ldrb	r3, [r4], #1
    933c:	e2522001 	subs	r2, r2, #1	; 0x1
    9340:	e4c03001 	strb	r3, [r0], #1
    9344:	5afffffb 	bpl	9338 <_IO_default_xsputn+0x60>
    9348:	e5870014 	str	r0, [r7, #20]
    934c:	e0656006 	rsb	r6, r5, r6
    9350:	e3560000 	cmp	r6, #0	; 0x0
    9354:	0a000007 	beq	9378 <_IO_default_xsputn+0xa0>
    9358:	e4d41001 	ldrb	r1, [r4], #1
    935c:	e5973094 	ldr	r3, [r7, #148]
    9360:	e1a00007 	mov	r0, r7
    9364:	e1a0e00f 	mov	lr, pc
    9368:	e593f00c 	ldr	pc, [r3, #12]
    936c:	e3700001 	cmn	r0, #1	; 0x1
    9370:	12466001 	subne	r6, r6, #1	; 0x1
    9374:	1affffe0 	bne	92fc <_IO_default_xsputn+0x24>
    9378:	e0660008 	rsb	r0, r6, r8
    937c:	e8bd81f0 	ldmia	sp!, {r4, r5, r6, r7, r8, pc}
    9380:	e1a01004 	mov	r1, r4
    9384:	e1a02005 	mov	r2, r5
    9388:	eb0015f0 	bl	eb50 <__mempcpy>
    938c:	e0844005 	add	r4, r4, r5
    9390:	eaffffec 	b	9348 <_IO_default_xsputn+0x70>

00009394 <_IO_sgetn>:
    9394:	e52de004 	str	lr, [sp, #-4]!
    9398:	e590c094 	ldr	ip, [r0, #148]
    939c:	e1a0e00f 	mov	lr, pc
    93a0:	e59cf020 	ldr	pc, [ip, #32]
    93a4:	e49df004 	ldr	pc, [sp], #4

000093a8 <_IO_default_xsgetn>:
    93a8:	e92d41f0 	stmdb	sp!, {r4, r5, r6, r7, r8, lr}
    93ac:	e1a08002 	mov	r8, r2
    93b0:	e1a06000 	mov	r6, r0
    93b4:	e1a05001 	mov	r5, r1
    93b8:	e1a07002 	mov	r7, r2
    93bc:	e2863008 	add	r3, r6, #8	; 0x8
    93c0:	e8130018 	ldmda	r3, {r3, r4}
    93c4:	e0444003 	sub	r4, r4, r3
    93c8:	e5961004 	ldr	r1, [r6, #4]
    93cc:	e3540000 	cmp	r4, #0	; 0x0
    93d0:	da00000e 	ble	9410 <_IO_default_xsgetn+0x68>
    93d4:	e1540007 	cmp	r4, r7
    93d8:	21a04007 	movcs	r4, r7
    93dc:	e3540014 	cmp	r4, #20	; 0x14
    93e0:	ca000012 	bgt	9430 <_IO_default_xsgetn+0x88>
    93e4:	e3540000 	cmp	r4, #0	; 0x0
    93e8:	d3a04000 	movle	r4, #0	; 0x0
    93ec:	da000006 	ble	940c <_IO_default_xsgetn+0x64>
    93f0:	e2542001 	subs	r2, r4, #1	; 0x1
    93f4:	4a000003 	bmi	9408 <_IO_default_xsgetn+0x60>
    93f8:	e4d13001 	ldrb	r3, [r1], #1
    93fc:	e2522001 	subs	r2, r2, #1	; 0x1
    9400:	e4c53001 	strb	r3, [r5], #1
    9404:	5afffffb 	bpl	93f8 <_IO_default_xsgetn+0x50>
    9408:	e5861004 	str	r1, [r6, #4]
    940c:	e0647007 	rsb	r7, r4, r7
    9410:	e3570000 	cmp	r7, #0	; 0x0
    9414:	0a000003 	beq	9428 <_IO_default_xsgetn+0x80>
    9418:	e1a00006 	mov	r0, r6
    941c:	ebfffef6 	bl	8ffc <__underflow>
    9420:	e3700001 	cmn	r0, #1	; 0x1
    9424:	1affffe4 	bne	93bc <_IO_default_xsgetn+0x14>
    9428:	e0670008 	rsb	r0, r7, r8
    942c:	e8bd81f0 	ldmia	sp!, {r4, r5, r6, r7, r8, pc}
    9430:	e1a00005 	mov	r0, r5
    9434:	e1a02004 	mov	r2, r4
    9438:	eb0015c4 	bl	eb50 <__mempcpy>
    943c:	e5963004 	ldr	r3, [r6, #4]
    9440:	e1a05000 	mov	r5, r0
    9444:	e0833004 	add	r3, r3, r4
    9448:	e5863004 	str	r3, [r6, #4]
    944c:	eaffffee 	b	940c <_IO_default_xsgetn+0x64>

00009450 <_IO_default_setbuf>:
    9450:	e92d4070 	stmdb	sp!, {r4, r5, r6, lr}
    9454:	e5903094 	ldr	r3, [r0, #148]
    9458:	e1a04000 	mov	r4, r0
    945c:	e1a05001 	mov	r5, r1
    9460:	e1a06002 	mov	r6, r2
    9464:	e1a0e00f 	mov	lr, pc
    9468:	e593f030 	ldr	pc, [r3, #48]
    946c:	e3700001 	cmn	r0, #1	; 0x1
    9470:	e3a00000 	mov	r0, #0	; 0x0
    9474:	0a00001d 	beq	94f0 <_IO_default_setbuf+0xa0>
    9478:	e3a03000 	mov	r3, #0	; 0x0
    947c:	e1560003 	cmp	r6, r3
    9480:	13a0c000 	movne	ip, #0	; 0x0
    9484:	03a0c001 	moveq	ip, #1	; 0x1
    9488:	e1550003 	cmp	r5, r3
    948c:	11a0e00c 	movne	lr, ip
    9490:	038ce001 	orreq	lr, ip, #1	; 0x1
    9494:	e15e0003 	cmp	lr, r3
    9498:	1594c000 	ldrne	ip, [r4]
    949c:	0594c000 	ldreq	ip, [r4]
    94a0:	138cc002 	orrne	ip, ip, #2	; 0x2
    94a4:	03ccc002 	biceq	ip, ip, #2	; 0x2
    94a8:	e0856006 	add	r6, r5, r6
    94ac:	e1a00004 	mov	r0, r4
    94b0:	e2841047 	add	r1, r4, #71	; 0x47
    94b4:	e2842048 	add	r2, r4, #72	; 0x48
    94b8:	01a0300e 	moveq	r3, lr
    94bc:	01a00004 	moveq	r0, r4
    94c0:	01a01005 	moveq	r1, r5
    94c4:	01a02006 	moveq	r2, r6
    94c8:	e584c000 	str	ip, [r4]
    94cc:	ebffff40 	bl	91d4 <_IO_setb>
    94d0:	e3a03000 	mov	r3, #0	; 0x0
    94d4:	e1a00004 	mov	r0, r4
    94d8:	e584300c 	str	r3, [r4, #12]
    94dc:	e5843018 	str	r3, [r4, #24]
    94e0:	e5843014 	str	r3, [r4, #20]
    94e4:	e5843010 	str	r3, [r4, #16]
    94e8:	e5843008 	str	r3, [r4, #8]
    94ec:	e5843004 	str	r3, [r4, #4]
    94f0:	e8bd8070 	ldmia	sp!, {r4, r5, r6, pc}

000094f4 <_IO_default_seekpos>:
    94f4:	e92d4010 	stmdb	sp!, {r4, lr}
    94f8:	e24dd004 	sub	sp, sp, #4	; 0x4
    94fc:	e58d3000 	str	r3, [sp]
    9500:	e5904094 	ldr	r4, [r0, #148]
    9504:	e3a03000 	mov	r3, #0	; 0x0
    9508:	e1a0e00f 	mov	lr, pc
    950c:	e594f024 	ldr	pc, [r4, #36]
    9510:	e28dd004 	add	sp, sp, #4	; 0x4
    9514:	e8bd8010 	ldmia	sp!, {r4, pc}

00009518 <_IO_default_doallocate>:
    9518:	e92d4030 	stmdb	sp!, {r4, r5, lr}
    951c:	e3a04000 	mov	r4, #0	; 0x0
    9520:	e24dd008 	sub	sp, sp, #8	; 0x8
    9524:	e3e0c000 	mvn	ip, #0	; 0x0
    9528:	e1a05000 	mov	r5, r0
    952c:	e3a01a02 	mov	r1, #8192	; 0x2000
    9530:	e3a02003 	mov	r2, #3	; 0x3
    9534:	e3a03022 	mov	r3, #34	; 0x22
    9538:	e1a00004 	mov	r0, r4
    953c:	e58dc000 	str	ip, [sp]
    9540:	e58d4004 	str	r4, [sp, #4]
    9544:	eb001845 	bl	f660 <__mmap>
    9548:	e1a01000 	mov	r1, r0
    954c:	e3700001 	cmn	r0, #1	; 0x1
    9550:	e2802a02 	add	r2, r0, #8192	; 0x2000
    9554:	e1a0c001 	mov	ip, r1
    9558:	e1a00005 	mov	r0, r5
    955c:	e3a03001 	mov	r3, #1	; 0x1
    9560:	0a000001 	beq	956c <_IO_default_doallocate+0x54>
    9564:	ebffff1a 	bl	91d4 <_IO_setb>
    9568:	e3a0c001 	mov	ip, #1	; 0x1
    956c:	e1a0000c 	mov	r0, ip
    9570:	e28dd008 	add	sp, sp, #8	; 0x8
    9574:	e8bd8030 	ldmia	sp!, {r4, r5, pc}

00009578 <_IO_init>:
    9578:	e52de004 	str	lr, [sp, #-4]!
    957c:	e3a0c000 	mov	ip, #0	; 0x0
    9580:	e24dd004 	sub	sp, sp, #4	; 0x4
    9584:	e3e02000 	mvn	r2, #0	; 0x0
    9588:	e1a0300c 	mov	r3, ip
    958c:	e58dc000 	str	ip, [sp]
    9590:	eb000001 	bl	959c <_IO_no_init>
    9594:	e28dd004 	add	sp, sp, #4	; 0x4
    9598:	e8bd8000 	ldmia	sp!, {pc}

0000959c <_IO_no_init>:
    959c:	e92d41f0 	stmdb	sp!, {r4, r5, r6, r7, r8, lr}
    95a0:	e590c048 	ldr	ip, [r0, #72]
    95a4:	e38114fb 	orr	r1, r1, #-83886080	; 0xfb000000
    95a8:	e1a04000 	mov	r4, r0
    95ac:	e38118ad 	orr	r1, r1, #11337728	; 0xad0000
    95b0:	e3a00000 	mov	r0, #0	; 0x0
    95b4:	e35c0000 	cmp	ip, #0	; 0x0
    95b8:	e24dd004 	sub	sp, sp, #4	; 0x4
    95bc:	e59f80e8 	ldr	r8, [pc, #232]	; 96ac <_IO_no_init+0x110>
    95c0:	e5841000 	str	r1, [r4]
    95c4:	e1c404b4 	strh	r0, [r4, #68]
    95c8:	e1a05003 	mov	r5, r3
    95cc:	e1a07002 	mov	r7, r2
    95d0:	e584003c 	str	r0, [r4, #60]
    95d4:	e584001c 	str	r0, [r4, #28]
    95d8:	e5840020 	str	r0, [r4, #32]
    95dc:	e584000c 	str	r0, [r4, #12]
    95e0:	e5840004 	str	r0, [r4, #4]
    95e4:	e5840008 	str	r0, [r4, #8]
    95e8:	e5840010 	str	r0, [r4, #16]
    95ec:	e5840014 	str	r0, [r4, #20]
    95f0:	e5840018 	str	r0, [r4, #24]
    95f4:	e5840034 	str	r0, [r4, #52]
    95f8:	e5840024 	str	r0, [r4, #36]
    95fc:	e5840028 	str	r0, [r4, #40]
    9600:	e584002c 	str	r0, [r4, #44]
    9604:	e5840030 	str	r0, [r4, #48]
    9608:	0a000013 	beq	965c <_IO_no_init+0xc0>
    960c:	e3580000 	cmp	r8, #0	; 0x0
    9610:	e1a0600d 	mov	r6, sp
    9614:	e1a0000d 	mov	r0, sp
    9618:	0a00000f 	beq	965c <_IO_no_init+0xc0>
    961c:	e59f308c 	ldr	r3, [pc, #140]	; 96b0 <_IO_no_init+0x114>
    9620:	e1a0e00f 	mov	lr, pc
    9624:	e1a0f003 	mov	pc, r3
    9628:	e59f3084 	ldr	r3, [pc, #132]	; 96b4 <_IO_no_init+0x118>
    962c:	e3a01001 	mov	r1, #1	; 0x1
    9630:	e1a0000d 	mov	r0, sp
    9634:	e1a0e00f 	mov	lr, pc
    9638:	e1a0f003 	mov	pc, r3
    963c:	e5940048 	ldr	r0, [r4, #72]
    9640:	e1a0100d 	mov	r1, sp
    9644:	e1a0e00f 	mov	lr, pc
    9648:	e1a0f008 	mov	pc, r8
    964c:	e59f3064 	ldr	r3, [pc, #100]	; 96b8 <_IO_no_init+0x11c>
    9650:	e1a0000d 	mov	r0, sp
    9654:	e1a0e00f 	mov	lr, pc
    9658:	e1a0f003 	mov	pc, r3
    965c:	e3a02000 	mov	r2, #0	; 0x0
    9660:	e1570002 	cmp	r7, r2
    9664:	e584705c 	str	r7, [r4, #92]
    9668:	ba00000d 	blt	96a4 <_IO_no_init+0x108>
    966c:	e59d301c 	ldr	r3, [sp, #28]
    9670:	e5845058 	str	r5, [r4, #88]
    9674:	e58530b8 	str	r3, [r5, #184]
    9678:	e5852028 	str	r2, [r5, #40]
    967c:	e5852018 	str	r2, [r5, #24]
    9680:	e585201c 	str	r2, [r5, #28]
    9684:	e5852008 	str	r2, [r5, #8]
    9688:	e5852000 	str	r2, [r5]
    968c:	e5852004 	str	r2, [r5, #4]
    9690:	e585200c 	str	r2, [r5, #12]
    9694:	e5852010 	str	r2, [r5, #16]
    9698:	e5852014 	str	r2, [r5, #20]
    969c:	e5852020 	str	r2, [r5, #32]
    96a0:	e5852024 	str	r2, [r5, #36]
    96a4:	e28dd004 	add	sp, sp, #4	; 0x4
    96a8:	e8bd81f0 	ldmia	sp!, {r4, r5, r6, r7, r8, pc}
	...

000096bc <_IO_default_sync>:
    96bc:	e3a00000 	mov	r0, #0	; 0x0
    96c0:	e1a0f00e 	mov	pc, lr

000096c4 <_IO_default_finish>:
    96c4:	e92d4030 	stmdb	sp!, {r4, r5, lr}
    96c8:	e590201c 	ldr	r2, [r0, #28]
    96cc:	e1a04000 	mov	r4, r0
    96d0:	e3520000 	cmp	r2, #0	; 0x0
    96d4:	0a000002 	beq	96e4 <_IO_default_finish+0x20>
    96d8:	e5903000 	ldr	r3, [r0]
    96dc:	e2135001 	ands	r5, r3, #1	; 0x1
    96e0:	0a000018 	beq	9748 <_IO_default_finish+0x84>
    96e4:	e5943030 	ldr	r3, [r4, #48]
    96e8:	e3530000 	cmp	r3, #0	; 0x0
    96ec:	0a000004 	beq	9704 <_IO_default_finish+0x40>
    96f0:	e3a02000 	mov	r2, #0	; 0x0
    96f4:	e5832004 	str	r2, [r3, #4]
    96f8:	e5933000 	ldr	r3, [r3]
    96fc:	e3530000 	cmp	r3, #0	; 0x0
    9700:	1afffffb 	bne	96f4 <_IO_default_finish+0x30>
    9704:	e5940024 	ldr	r0, [r4, #36]
    9708:	e3500000 	cmp	r0, #0	; 0x0
    970c:	1a000009 	bne	9738 <_IO_default_finish+0x74>
    9710:	e5940048 	ldr	r0, [r4, #72]
    9714:	e3500000 	cmp	r0, #0	; 0x0
    9718:	0a000003 	beq	972c <_IO_default_finish+0x68>
    971c:	e59f3050 	ldr	r3, [pc, #80]	; 9774 <_IO_default_finish+0xb0>
    9720:	e3530000 	cmp	r3, #0	; 0x0
    9724:	11a0e00f 	movne	lr, pc
    9728:	11a0f003 	movne	pc, r3
    972c:	e1a00004 	mov	r0, r4
    9730:	e8bd4030 	ldmia	sp!, {r4, r5, lr}
    9734:	eafffce5 	b	8ad0 <_IO_un_link>
    9738:	eb000b9e 	bl	c5b8 <__libc_free>
    973c:	e3a03000 	mov	r3, #0	; 0x0
    9740:	e5843024 	str	r3, [r4, #36]
    9744:	eafffff1 	b	9710 <_IO_default_finish+0x4c>
    9748:	e5901020 	ldr	r1, [r0, #32]
    974c:	e1a00002 	mov	r0, r2
    9750:	e0621001 	rsb	r1, r2, r1
    9754:	e2811eff 	add	r1, r1, #4080	; 0xff0
    9758:	e281100f 	add	r1, r1, #15	; 0xf
    975c:	e3c11eff 	bic	r1, r1, #4080	; 0xff0
    9760:	e3c1100f 	bic	r1, r1, #15	; 0xf
    9764:	eb0017c5 	bl	f680 <__munmap>
    9768:	e584501c 	str	r5, [r4, #28]
    976c:	e5845020 	str	r5, [r4, #32]
    9770:	eaffffdb 	b	96e4 <_IO_default_finish+0x20>
    9774:	00000000 	andeq	r0, r0, r0

00009778 <_IO_default_seekoff>:
    9778:	e3e01000 	mvn	r1, #0	; 0x0
    977c:	e3e00000 	mvn	r0, #0	; 0x0
    9780:	e1a0f00e 	mov	pc, lr

00009784 <_IO_sputbackc>:
    9784:	e92d4010 	stmdb	sp!, {r4, lr}
    9788:	e5902004 	ldr	r2, [r0, #4]
    978c:	e590300c 	ldr	r3, [r0, #12]
    9790:	e1a04000 	mov	r4, r0
    9794:	e1520003 	cmp	r2, r3
    9798:	e201c0ff 	and	ip, r1, #255	; 0xff
    979c:	9a000005 	bls	97b8 <_IO_sputbackc+0x34>
    97a0:	e5523001 	ldrb	r3, [r2, #-1]
    97a4:	e242e001 	sub	lr, r2, #1	; 0x1
    97a8:	e153000c 	cmp	r3, ip
    97ac:	e1a02003 	mov	r2, r3
    97b0:	0580e004 	streq	lr, [r0, #4]
    97b4:	0a000003 	beq	97c8 <_IO_sputbackc+0x44>
    97b8:	e5943094 	ldr	r3, [r4, #148]
    97bc:	e1a0e00f 	mov	lr, pc
    97c0:	e593f018 	ldr	pc, [r3, #24]
    97c4:	e1a02000 	mov	r2, r0
    97c8:	e3720001 	cmn	r2, #1	; 0x1
    97cc:	15943000 	ldrne	r3, [r4]
    97d0:	e1a00002 	mov	r0, r2
    97d4:	13c33010 	bicne	r3, r3, #16	; 0x10
    97d8:	15843000 	strne	r3, [r4]
    97dc:	e8bd8010 	ldmia	sp!, {r4, pc}

000097e0 <_IO_sungetc>:
    97e0:	e92d4010 	stmdb	sp!, {r4, lr}
    97e4:	e5902004 	ldr	r2, [r0, #4]
    97e8:	e590300c 	ldr	r3, [r0, #12]
    97ec:	e242c001 	sub	ip, r2, #1	; 0x1
    97f0:	e1520003 	cmp	r2, r3
    97f4:	8580c004 	strhi	ip, [r0, #4]
    97f8:	e1a04000 	mov	r4, r0
    97fc:	e3e01000 	mvn	r1, #0	; 0x0
    9800:	85520001 	ldrhib	r0, [r2, #-1]
    9804:	9a000004 	bls	981c <_IO_sungetc+0x3c>
    9808:	e3700001 	cmn	r0, #1	; 0x1
    980c:	15943000 	ldrne	r3, [r4]
    9810:	13c33010 	bicne	r3, r3, #16	; 0x10
    9814:	15843000 	strne	r3, [r4]
    9818:	e8bd8010 	ldmia	sp!, {r4, pc}
    981c:	e5903094 	ldr	r3, [r0, #148]
    9820:	e1a0e00f 	mov	lr, pc
    9824:	e593f018 	ldr	pc, [r3, #24]
    9828:	eafffff6 	b	9808 <_IO_sungetc+0x28>

0000982c <_IO_adjust_column>:
    982c:	e081c002 	add	ip, r1, r2
    9830:	e15c0001 	cmp	ip, r1
    9834:	e52de004 	str	lr, [sp, #-4]!
    9838:	e1a0e000 	mov	lr, r0
    983c:	9a000006 	bls	985c <_IO_adjust_column+0x30>
    9840:	e3e00000 	mvn	r0, #0	; 0x0
    9844:	e57c3001 	ldrb	r3, [ip, #-1]!
    9848:	e2800001 	add	r0, r0, #1	; 0x1
    984c:	e353000a 	cmp	r3, #10	; 0xa
    9850:	049df004 	ldreq	pc, [sp], #4
    9854:	e15c0001 	cmp	ip, r1
    9858:	8afffff9 	bhi	9844 <_IO_adjust_column+0x18>
    985c:	e08e0002 	add	r0, lr, r2
    9860:	e49df004 	ldr	pc, [sp], #4

00009864 <_IO_flush_all_lockp>:
    9864:	e92d4ff0 	stmdb	sp!, {r4, r5, r6, r7, r8, r9, sl, fp, lr}
    9868:	e59f3178 	ldr	r3, [pc, #376]	; 99e8 <_IO_flush_all_lockp+0x184>
    986c:	e24dd010 	sub	sp, sp, #16	; 0x10
    9870:	e253b000 	subs	fp, r3, #0	; 0x0
    9874:	13a0b001 	movne	fp, #1	; 0x1
    9878:	e35b0000 	cmp	fp, #0	; 0x0
    987c:	e1a05000 	mov	r5, r0
    9880:	e3a0a000 	mov	sl, #0	; 0x0
    9884:	0a000004 	beq	989c <_IO_flush_all_lockp+0x38>
    9888:	e1a0000d 	mov	r0, sp
    988c:	e59f1158 	ldr	r1, [pc, #344]	; 99ec <_IO_flush_all_lockp+0x188>
    9890:	e1a0200a 	mov	r2, sl
    9894:	e1a0e00f 	mov	lr, pc
    9898:	e1a0f003 	mov	pc, r3
    989c:	e3550000 	cmp	r5, #0	; 0x0
    98a0:	0a000004 	beq	98b8 <_IO_flush_all_lockp+0x54>
    98a4:	e59f3144 	ldr	r3, [pc, #324]	; 99f0 <_IO_flush_all_lockp+0x18c>
    98a8:	e3530000 	cmp	r3, #0	; 0x0
    98ac:	159f0140 	ldrne	r0, [pc, #320]	; 99f4 <_IO_flush_all_lockp+0x190>
    98b0:	11a0e00f 	movne	lr, pc
    98b4:	11a0f003 	movne	pc, r3
    98b8:	e59f9138 	ldr	r9, [pc, #312]	; 99f8 <_IO_flush_all_lockp+0x194>
    98bc:	e59f8138 	ldr	r8, [pc, #312]	; 99fc <_IO_flush_all_lockp+0x198>
    98c0:	e5994000 	ldr	r4, [r9]
    98c4:	e5986000 	ldr	r6, [r8]
    98c8:	e3540000 	cmp	r4, #0	; 0x0
    98cc:	0a000028 	beq	9974 <_IO_flush_all_lockp+0x110>
    98d0:	e59f7128 	ldr	r7, [pc, #296]	; 9a00 <_IO_flush_all_lockp+0x19c>
    98d4:	e3550000 	cmp	r5, #0	; 0x0
    98d8:	e5874000 	str	r4, [r7]
    98dc:	0a000002 	beq	98ec <_IO_flush_all_lockp+0x88>
    98e0:	e5943000 	ldr	r3, [r4]
    98e4:	e3130902 	tst	r3, #32768	; 0x8000
    98e8:	0a00003b 	beq	99dc <_IO_flush_all_lockp+0x178>
    98ec:	e594105c 	ldr	r1, [r4, #92]
    98f0:	e3510000 	cmp	r1, #0	; 0x0
    98f4:	da000033 	ble	99c8 <_IO_flush_all_lockp+0x164>
    98f8:	e1d434d6 	ldrsb	r3, [r4, #70]
    98fc:	e3530000 	cmp	r3, #0	; 0x0
    9900:	1a00000d 	bne	993c <_IO_flush_all_lockp+0xd8>
    9904:	e3510000 	cmp	r1, #0	; 0x0
    9908:	da00000b 	ble	993c <_IO_flush_all_lockp+0xd8>
    990c:	e5943058 	ldr	r3, [r4, #88]
    9910:	e593100c 	ldr	r1, [r3, #12]
    9914:	e5932010 	ldr	r2, [r3, #16]
    9918:	e1520001 	cmp	r2, r1
    991c:	9a000006 	bls	993c <_IO_flush_all_lockp+0xd8>
    9920:	e5943094 	ldr	r3, [r4, #148]
    9924:	e1a00004 	mov	r0, r4
    9928:	e3e01000 	mvn	r1, #0	; 0x0
    992c:	e1a0e00f 	mov	lr, pc
    9930:	e593f00c 	ldr	pc, [r3, #12]
    9934:	e3700001 	cmn	r0, #1	; 0x1
    9938:	01a0a000 	moveq	sl, r0
    993c:	e3550000 	cmp	r5, #0	; 0x0
    9940:	0a000002 	beq	9950 <_IO_flush_all_lockp+0xec>
    9944:	e5943000 	ldr	r3, [r4]
    9948:	e3130902 	tst	r3, #32768	; 0x8000
    994c:	0a00001a 	beq	99bc <_IO_flush_all_lockp+0x158>
    9950:	e5982000 	ldr	r2, [r8]
    9954:	e3a03000 	mov	r3, #0	; 0x0
    9958:	e1560002 	cmp	r6, r2
    995c:	e5873000 	str	r3, [r7]
    9960:	15994000 	ldrne	r4, [r9]
    9964:	05944034 	ldreq	r4, [r4, #52]
    9968:	11a06002 	movne	r6, r2
    996c:	e3540000 	cmp	r4, #0	; 0x0
    9970:	1affffd7 	bne	98d4 <_IO_flush_all_lockp+0x70>
    9974:	e3550000 	cmp	r5, #0	; 0x0
    9978:	0a000004 	beq	9990 <_IO_flush_all_lockp+0x12c>
    997c:	e59f3080 	ldr	r3, [pc, #128]	; 9a04 <_IO_flush_all_lockp+0x1a0>
    9980:	e3530000 	cmp	r3, #0	; 0x0
    9984:	159f0068 	ldrne	r0, [pc, #104]	; 99f4 <_IO_flush_all_lockp+0x190>
    9988:	11a0e00f 	movne	lr, pc
    998c:	11a0f003 	movne	pc, r3
    9990:	e35b0000 	cmp	fp, #0	; 0x0
    9994:	1a000002 	bne	99a4 <_IO_flush_all_lockp+0x140>
    9998:	e1a0000a 	mov	r0, sl
    999c:	e28dd010 	add	sp, sp, #16	; 0x10
    99a0:	e8bd8ff0 	ldmia	sp!, {r4, r5, r6, r7, r8, r9, sl, fp, pc}
    99a4:	e1a0000d 	mov	r0, sp
    99a8:	e3a01000 	mov	r1, #0	; 0x0
    99ac:	e59f3054 	ldr	r3, [pc, #84]	; 9a08 <_IO_flush_all_lockp+0x1a4>
    99b0:	e1a0e00f 	mov	lr, pc
    99b4:	e1a0f003 	mov	pc, r3
    99b8:	eafffff6 	b	9998 <_IO_flush_all_lockp+0x134>
    99bc:	e1a00004 	mov	r0, r4
    99c0:	eb001fd3 	bl	11914 <_IO_funlockfile>
    99c4:	eaffffe1 	b	9950 <_IO_flush_all_lockp+0xec>
    99c8:	e5942014 	ldr	r2, [r4, #20]
    99cc:	e5943010 	ldr	r3, [r4, #16]
    99d0:	e1520003 	cmp	r2, r3
    99d4:	8affffd1 	bhi	9920 <_IO_flush_all_lockp+0xbc>
    99d8:	eaffffc6 	b	98f8 <_IO_flush_all_lockp+0x94>
    99dc:	e1a00004 	mov	r0, r4
    99e0:	eb001fc5 	bl	118fc <_IO_flockfile>
    99e4:	eaffffc0 	b	98ec <_IO_flush_all_lockp+0x88>
    99e8:	00000000 	andeq	r0, r0, r0
    99ec:	00008a84 	andeq	r8, r0, r4, lsl #21
    99f0:	00000000 	andeq	r0, r0, r0
    99f4:	00072050 	andeq	r2, r7, r0, asr r0
    99f8:	000724ac 	andeq	r2, r7, ip, lsr #9
    99fc:	00072fe0 	andeq	r2, r7, r0, ror #31
    9a00:	00072fe4 	andeq	r2, r7, r4, ror #31
	...

00009a0c <_IO_flush_all>:
    9a0c:	e3a00001 	mov	r0, #1	; 0x1
    9a10:	eaffff93 	b	9864 <_IO_flush_all_lockp>

00009a14 <_IO_flush_all_linebuffered>:
    9a14:	e92d47f0 	stmdb	sp!, {r4, r5, r6, r7, r8, r9, sl, lr}
    9a18:	e59f3114 	ldr	r3, [pc, #276]	; 9b34 <_IO_flush_all_linebuffered+0x120>
    9a1c:	e24dd010 	sub	sp, sp, #16	; 0x10
    9a20:	e2539000 	subs	r9, r3, #0	; 0x0
    9a24:	13a09001 	movne	r9, #1	; 0x1
    9a28:	e3590000 	cmp	r9, #0	; 0x0
    9a2c:	0a000004 	beq	9a44 <_IO_flush_all_linebuffered+0x30>
    9a30:	e1a0000d 	mov	r0, sp
    9a34:	e59f10fc 	ldr	r1, [pc, #252]	; 9b38 <_IO_flush_all_linebuffered+0x124>
    9a38:	e3a02000 	mov	r2, #0	; 0x0
    9a3c:	e1a0e00f 	mov	lr, pc
    9a40:	e1a0f003 	mov	pc, r3
    9a44:	e59f30f0 	ldr	r3, [pc, #240]	; 9b3c <_IO_flush_all_linebuffered+0x128>
    9a48:	e3530000 	cmp	r3, #0	; 0x0
    9a4c:	159f00ec 	ldrne	r0, [pc, #236]	; 9b40 <_IO_flush_all_linebuffered+0x12c>
    9a50:	11a0e00f 	movne	lr, pc
    9a54:	11a0f003 	movne	pc, r3
    9a58:	e59fa0e4 	ldr	sl, [pc, #228]	; 9b44 <_IO_flush_all_linebuffered+0x130>
    9a5c:	e59f80e4 	ldr	r8, [pc, #228]	; 9b48 <_IO_flush_all_linebuffered+0x134>
    9a60:	e59a4000 	ldr	r4, [sl]
    9a64:	e5985000 	ldr	r5, [r8]
    9a68:	e3540000 	cmp	r4, #0	; 0x0
    9a6c:	0a000019 	beq	9ad8 <_IO_flush_all_linebuffered+0xc4>
    9a70:	e59f60d4 	ldr	r6, [pc, #212]	; 9b4c <_IO_flush_all_linebuffered+0x138>
    9a74:	e1a07006 	mov	r7, r6
    9a78:	e5943000 	ldr	r3, [r4]
    9a7c:	e1a00004 	mov	r0, r4
    9a80:	e3130902 	tst	r3, #32768	; 0x8000
    9a84:	e5874000 	str	r4, [r7]
    9a88:	0a000027 	beq	9b2c <_IO_flush_all_linebuffered+0x118>
    9a8c:	e5943000 	ldr	r3, [r4]
    9a90:	e1a00004 	mov	r0, r4
    9a94:	e2033f82 	and	r3, r3, #520	; 0x208
    9a98:	e3530c02 	cmp	r3, #512	; 0x200
    9a9c:	e3e01000 	mvn	r1, #0	; 0x0
    9aa0:	0a00001d 	beq	9b1c <_IO_flush_all_linebuffered+0x108>
    9aa4:	e5943000 	ldr	r3, [r4]
    9aa8:	e1a00004 	mov	r0, r4
    9aac:	e3130902 	tst	r3, #32768	; 0x8000
    9ab0:	0a000017 	beq	9b14 <_IO_flush_all_linebuffered+0x100>
    9ab4:	e5982000 	ldr	r2, [r8]
    9ab8:	e3a03000 	mov	r3, #0	; 0x0
    9abc:	e1550002 	cmp	r5, r2
    9ac0:	e5863000 	str	r3, [r6]
    9ac4:	159a4000 	ldrne	r4, [sl]
    9ac8:	05944034 	ldreq	r4, [r4, #52]
    9acc:	11a05002 	movne	r5, r2
    9ad0:	e3540000 	cmp	r4, #0	; 0x0
    9ad4:	1affffe7 	bne	9a78 <_IO_flush_all_linebuffered+0x64>
    9ad8:	e59f3070 	ldr	r3, [pc, #112]	; 9b50 <_IO_flush_all_linebuffered+0x13c>
    9adc:	e3530000 	cmp	r3, #0	; 0x0
    9ae0:	159f0058 	ldrne	r0, [pc, #88]	; 9b40 <_IO_flush_all_linebuffered+0x12c>
    9ae4:	11a0e00f 	movne	lr, pc
    9ae8:	11a0f003 	movne	pc, r3
    9aec:	e3590000 	cmp	r9, #0	; 0x0
    9af0:	1a000001 	bne	9afc <_IO_flush_all_linebuffered+0xe8>
    9af4:	e28dd010 	add	sp, sp, #16	; 0x10
    9af8:	e8bd87f0 	ldmia	sp!, {r4, r5, r6, r7, r8, r9, sl, pc}
    9afc:	e1a0000d 	mov	r0, sp
    9b00:	e3a01000 	mov	r1, #0	; 0x0
    9b04:	e59f3048 	ldr	r3, [pc, #72]	; 9b54 <_IO_flush_all_linebuffered+0x140>
    9b08:	e1a0e00f 	mov	lr, pc
    9b0c:	e1a0f003 	mov	pc, r3
    9b10:	eafffff7 	b	9af4 <_IO_flush_all_linebuffered+0xe0>
    9b14:	eb001f7e 	bl	11914 <_IO_funlockfile>
    9b18:	eaffffe5 	b	9ab4 <_IO_flush_all_linebuffered+0xa0>
    9b1c:	e5943094 	ldr	r3, [r4, #148]
    9b20:	e1a0e00f 	mov	lr, pc
    9b24:	e593f00c 	ldr	pc, [r3, #12]
    9b28:	eaffffdd 	b	9aa4 <_IO_flush_all_linebuffered+0x90>
    9b2c:	eb001f72 	bl	118fc <_IO_flockfile>
    9b30:	eaffffd5 	b	9a8c <_IO_flush_all_linebuffered+0x78>
    9b34:	00000000 	andeq	r0, r0, r0
    9b38:	00008a84 	andeq	r8, r0, r4, lsl #21
    9b3c:	00000000 	andeq	r0, r0, r0
    9b40:	00072050 	andeq	r2, r7, r0, asr r0
    9b44:	000724ac 	andeq	r2, r7, ip, lsr #9
    9b48:	00072fe0 	andeq	r2, r7, r0, ror #31
    9b4c:	00072fe4 	andeq	r2, r7, r4, ror #31
	...

00009b58 <_IO_unbuffer_write>:
    9b58:	e92d4030 	stmdb	sp!, {r4, r5, lr}
    9b5c:	e59f3060 	ldr	r3, [pc, #96]	; 9bc4 <_IO_unbuffer_write+0x6c>
    9b60:	e5934000 	ldr	r4, [r3]
    9b64:	e3540000 	cmp	r4, #0	; 0x0
    9b68:	0a000010 	beq	9bb0 <_IO_unbuffer_write+0x58>
    9b6c:	e3e05000 	mvn	r5, #0	; 0x0
    9b70:	e5943000 	ldr	r3, [r4]
    9b74:	e59f204c 	ldr	r2, [pc, #76]	; 9bc8 <_IO_unbuffer_write+0x70>
    9b78:	e2131002 	ands	r1, r3, #2	; 0x2
    9b7c:	e0032002 	and	r2, r3, r2
    9b80:	1a000006 	bne	9ba0 <_IO_unbuffer_write+0x48>
    9b84:	e3520008 	cmp	r2, #8	; 0x8
    9b88:	0a000004 	beq	9ba0 <_IO_unbuffer_write+0x48>
    9b8c:	e594305c 	ldr	r3, [r4, #92]
    9b90:	e1a00004 	mov	r0, r4
    9b94:	e3530000 	cmp	r3, #0	; 0x0
    9b98:	e1a02001 	mov	r2, r1
    9b9c:	1a000004 	bne	9bb4 <_IO_unbuffer_write+0x5c>
    9ba0:	e584505c 	str	r5, [r4, #92]
    9ba4:	e5944034 	ldr	r4, [r4, #52]
    9ba8:	e3540000 	cmp	r4, #0	; 0x0
    9bac:	1affffef 	bne	9b70 <_IO_unbuffer_write+0x18>
    9bb0:	e8bd8030 	ldmia	sp!, {r4, r5, pc}
    9bb4:	e5943094 	ldr	r3, [r4, #148]
    9bb8:	e1a0e00f 	mov	lr, pc
    9bbc:	e593f02c 	ldr	pc, [r3, #44]
    9bc0:	eafffff6 	b	9ba0 <_IO_unbuffer_write+0x48>
    9bc4:	000724ac 	andeq	r2, r7, ip, lsr #9
    9bc8:	00001008 	andeq	r1, r0, r8

00009bcc <_IO_cleanup>:
    9bcc:	e92d4010 	stmdb	sp!, {r4, lr}
    9bd0:	ebffff8d 	bl	9a0c <_IO_flush_all>
    9bd4:	e1a04000 	mov	r4, r0
    9bd8:	ebffffde 	bl	9b58 <_IO_unbuffer_write>
    9bdc:	e1a00004 	mov	r0, r4
    9be0:	e8bd8010 	ldmia	sp!, {r4, pc}

00009be4 <_IO_init_marker>:
    9be4:	e5913000 	ldr	r3, [r1]
    9be8:	e92d4030 	stmdb	sp!, {r4, r5, lr}
    9bec:	e3130b02 	tst	r3, #2048	; 0x800
    9bf0:	e1a05000 	mov	r5, r0
    9bf4:	e1a04001 	mov	r4, r1
    9bf8:	e1a00001 	mov	r0, r1
    9bfc:	e5851004 	str	r1, [r5, #4]
    9c00:	1a00000b 	bne	9c34 <_IO_init_marker+0x50>
    9c04:	e3130c01 	tst	r3, #256	; 0x100
    9c08:	05943004 	ldreq	r3, [r4, #4]
    9c0c:	0594200c 	ldreq	r2, [r4, #12]
    9c10:	12842004 	addne	r2, r4, #4	; 0x4
    9c14:	1892000c 	ldmneia	r2, {r2, r3}
    9c18:	10423003 	subne	r3, r2, r3
    9c1c:	00623003 	rsbeq	r3, r2, r3
    9c20:	e5853008 	str	r3, [r5, #8]
    9c24:	e5943030 	ldr	r3, [r4, #48]
    9c28:	e5853000 	str	r3, [r5]
    9c2c:	e5845030 	str	r5, [r4, #48]
    9c30:	e8bd8030 	ldmia	sp!, {r4, r5, pc}
    9c34:	ebfffc62 	bl	8dc4 <_IO_switch_to_get_mode>
    9c38:	e5943000 	ldr	r3, [r4]
    9c3c:	eafffff0 	b	9c04 <_IO_init_marker+0x20>

00009c40 <_IO_remove_marker>:
    9c40:	e5903004 	ldr	r3, [r0, #4]
    9c44:	e2832030 	add	r2, r3, #48	; 0x30
    9c48:	e5923000 	ldr	r3, [r2]
    9c4c:	e3530000 	cmp	r3, #0	; 0x0
    9c50:	01a0f00e 	moveq	pc, lr
    9c54:	e1530000 	cmp	r3, r0
    9c58:	05933000 	ldreq	r3, [r3]
    9c5c:	05823000 	streq	r3, [r2]
    9c60:	01a0f00e 	moveq	pc, lr
    9c64:	e1a02003 	mov	r2, r3
    9c68:	eafffff6 	b	9c48 <_IO_remove_marker+0x8>

00009c6c <_IO_marker_difference>:
    9c6c:	e5900008 	ldr	r0, [r0, #8]
    9c70:	e5913008 	ldr	r3, [r1, #8]
    9c74:	e0630000 	rsb	r0, r3, r0
    9c78:	e1a0f00e 	mov	pc, lr

00009c7c <_IO_marker_delta>:
    9c7c:	e5901004 	ldr	r1, [r0, #4]
    9c80:	e1a0c000 	mov	ip, r0
    9c84:	e3510000 	cmp	r1, #0	; 0x0
    9c88:	e3e00000 	mvn	r0, #0	; 0x0
    9c8c:	01a0f00e 	moveq	pc, lr
    9c90:	e5913000 	ldr	r3, [r1]
    9c94:	e3130c01 	tst	r3, #256	; 0x100
    9c98:	05913004 	ldreq	r3, [r1, #4]
    9c9c:	0591200c 	ldreq	r2, [r1, #12]
    9ca0:	12813004 	addne	r3, r1, #4	; 0x4
    9ca4:	18930009 	ldmneia	r3, {r0, r3}
    9ca8:	10400003 	subne	r0, r0, r3
    9cac:	00620003 	rsbeq	r0, r2, r3
    9cb0:	e59c3008 	ldr	r3, [ip, #8]
    9cb4:	e0600003 	rsb	r0, r0, r3
    9cb8:	e1a0f00e 	mov	pc, lr

00009cbc <_IO_seekmark>:
    9cbc:	e92d4030 	stmdb	sp!, {r4, r5, lr}
    9cc0:	e5914004 	ldr	r4, [r1, #4]
    9cc4:	e1a05001 	mov	r5, r1
    9cc8:	e1540000 	cmp	r4, r0
    9ccc:	1a000015 	bne	9d28 <_IO_seekmark+0x6c>
    9cd0:	e5912008 	ldr	r2, [r1, #8]
    9cd4:	e3520000 	cmp	r2, #0	; 0x0
    9cd8:	ba00000a 	blt	9d08 <_IO_seekmark+0x4c>
    9cdc:	e5943000 	ldr	r3, [r4]
    9ce0:	e3130c01 	tst	r3, #256	; 0x100
    9ce4:	1a000004 	bne	9cfc <_IO_seekmark+0x40>
    9ce8:	e594300c 	ldr	r3, [r4, #12]
    9cec:	e0833002 	add	r3, r3, r2
    9cf0:	e3a00000 	mov	r0, #0	; 0x0
    9cf4:	e5843004 	str	r3, [r4, #4]
    9cf8:	e8bd8030 	ldmia	sp!, {r4, r5, pc}
    9cfc:	ebfffc16 	bl	8d5c <_IO_switch_to_main_get_area>
    9d00:	e5952008 	ldr	r2, [r5, #8]
    9d04:	eafffff7 	b	9ce8 <_IO_seekmark+0x2c>
    9d08:	e5943000 	ldr	r3, [r4]
    9d0c:	e3130c01 	tst	r3, #256	; 0x100
    9d10:	0a000001 	beq	9d1c <_IO_seekmark+0x60>
    9d14:	e5943008 	ldr	r3, [r4, #8]
    9d18:	eafffff3 	b	9cec <_IO_seekmark+0x30>
    9d1c:	ebfffc1b 	bl	8d90 <_IO_switch_to_backup_area>
    9d20:	e5952008 	ldr	r2, [r5, #8]
    9d24:	eafffffa 	b	9d14 <_IO_seekmark+0x58>
    9d28:	e3e00000 	mvn	r0, #0	; 0x0
    9d2c:	e8bd8030 	ldmia	sp!, {r4, r5, pc}

00009d30 <_IO_unsave_markers>:
    9d30:	e5903030 	ldr	r3, [r0, #48]
    9d34:	e1a02000 	mov	r2, r0
    9d38:	e3530000 	cmp	r3, #0	; 0x0
    9d3c:	13a03000 	movne	r3, #0	; 0x0
    9d40:	15803030 	strne	r3, [r0, #48]
    9d44:	e5923024 	ldr	r3, [r2, #36]
    9d48:	e3530000 	cmp	r3, #0	; 0x0
    9d4c:	01a0f00e 	moveq	pc, lr
    9d50:	eafffc3b 	b	8e44 <_IO_free_backup_area>

00009d54 <_IO_default_pbackfail>:
    9d54:	e92d45f0 	stmdb	sp!, {r4, r5, r6, r7, r8, sl, lr}
    9d58:	e5904004 	ldr	r4, [r0, #4]
    9d5c:	e590200c 	ldr	r2, [r0, #12]
    9d60:	e1a05000 	mov	r5, r0
    9d64:	e1540002 	cmp	r4, r2
    9d68:	e1a08001 	mov	r8, r1
    9d6c:	95900000 	ldrls	r0, [r0]
    9d70:	e1a01004 	mov	r1, r4
    9d74:	9a000007 	bls	9d98 <_IO_default_pbackfail+0x44>
    9d78:	e5900000 	ldr	r0, [r0]
    9d7c:	e3100c01 	tst	r0, #256	; 0x100
    9d80:	1a000029 	bne	9e2c <_IO_default_pbackfail+0xd8>
    9d84:	e5543001 	ldrb	r3, [r4, #-1]
    9d88:	e1530008 	cmp	r3, r8
    9d8c:	02443001 	subeq	r3, r4, #1	; 0x1
    9d90:	05853004 	streq	r3, [r5, #4]
    9d94:	0a000016 	beq	9df4 <_IO_default_pbackfail+0xa0>
    9d98:	e3100c01 	tst	r0, #256	; 0x100
    9d9c:	1a000022 	bne	9e2c <_IO_default_pbackfail+0xd8>
    9da0:	e1510002 	cmp	r1, r2
    9da4:	9a00001c 	bls	9e1c <_IO_default_pbackfail+0xc8>
    9da8:	e5953024 	ldr	r3, [r5, #36]
    9dac:	e3530000 	cmp	r3, #0	; 0x0
    9db0:	1a000013 	bne	9e04 <_IO_default_pbackfail+0xb0>
    9db4:	e3a00080 	mov	r0, #128	; 0x80
    9db8:	eb000990 	bl	c400 <__libc_malloc>
    9dbc:	e3500000 	cmp	r0, #0	; 0x0
    9dc0:	0a00000d 	beq	9dfc <_IO_default_pbackfail+0xa8>
    9dc4:	e5954004 	ldr	r4, [r5, #4]
    9dc8:	e2803080 	add	r3, r0, #128	; 0x80
    9dcc:	e5853028 	str	r3, [r5, #40]
    9dd0:	e5850024 	str	r0, [r5, #36]
    9dd4:	e585302c 	str	r3, [r5, #44]
    9dd8:	e585400c 	str	r4, [r5, #12]
    9ddc:	e1a00005 	mov	r0, r5
    9de0:	ebfffbea 	bl	8d90 <_IO_switch_to_backup_area>
    9de4:	e5954004 	ldr	r4, [r5, #4]
    9de8:	e2443001 	sub	r3, r4, #1	; 0x1
    9dec:	e5853004 	str	r3, [r5, #4]
    9df0:	e5448001 	strb	r8, [r4, #-1]
    9df4:	e20800ff 	and	r0, r8, #255	; 0xff
    9df8:	e8bd85f0 	ldmia	sp!, {r4, r5, r6, r7, r8, sl, pc}
    9dfc:	e3e00000 	mvn	r0, #0	; 0x0
    9e00:	e8bd85f0 	ldmia	sp!, {r4, r5, r6, r7, r8, sl, pc}
    9e04:	e1a00005 	mov	r0, r5
    9e08:	ebfffc25 	bl	8ea4 <save_for_backup>
    9e0c:	e3500000 	cmp	r0, #0	; 0x0
    9e10:	05954004 	ldreq	r4, [r5, #4]
    9e14:	0affffef 	beq	9dd8 <_IO_default_pbackfail+0x84>
    9e18:	eafffff7 	b	9dfc <_IO_default_pbackfail+0xa8>
    9e1c:	e5953024 	ldr	r3, [r5, #36]
    9e20:	e3530000 	cmp	r3, #0	; 0x0
    9e24:	1affffeb 	bne	9dd8 <_IO_default_pbackfail+0x84>
    9e28:	eaffffe1 	b	9db4 <_IO_default_pbackfail+0x60>
    9e2c:	e1510002 	cmp	r1, r2
    9e30:	8affffec 	bhi	9de8 <_IO_default_pbackfail+0x94>
    9e34:	e5953008 	ldr	r3, [r5, #8]
    9e38:	e0626003 	rsb	r6, r2, r3
    9e3c:	e1a0a086 	mov	sl, r6, lsl #1
    9e40:	e1a0000a 	mov	r0, sl
    9e44:	eb00096d 	bl	c400 <__libc_malloc>
    9e48:	e3500000 	cmp	r0, #0	; 0x0
    9e4c:	e1a07000 	mov	r7, r0
    9e50:	0affffe9 	beq	9dfc <_IO_default_pbackfail+0xa8>
    9e54:	e066400a 	rsb	r4, r6, sl
    9e58:	e0804004 	add	r4, r0, r4
    9e5c:	e595100c 	ldr	r1, [r5, #12]
    9e60:	e1a02006 	mov	r2, r6
    9e64:	e1a00004 	mov	r0, r4
    9e68:	eb00135e 	bl	ebe8 <memcpy>
    9e6c:	e595000c 	ldr	r0, [r5, #12]
    9e70:	eb0009d0 	bl	c5b8 <__libc_free>
    9e74:	e087300a 	add	r3, r7, sl
    9e78:	e5853008 	str	r3, [r5, #8]
    9e7c:	e585700c 	str	r7, [r5, #12]
    9e80:	e5854004 	str	r4, [r5, #4]
    9e84:	e5854028 	str	r4, [r5, #40]
    9e88:	eaffffd6 	b	9de8 <_IO_default_pbackfail+0x94>

00009e8c <_IO_default_seek>:
    9e8c:	e3e01000 	mvn	r1, #0	; 0x0
    9e90:	e3e00000 	mvn	r0, #0	; 0x0
    9e94:	e1a0f00e 	mov	pc, lr

00009e98 <_IO_default_stat>:
    9e98:	e3e00000 	mvn	r0, #0	; 0x0
    9e9c:	e1a0f00e 	mov	pc, lr

00009ea0 <_IO_default_read>:
    9ea0:	e3e00000 	mvn	r0, #0	; 0x0
    9ea4:	e1a0f00e 	mov	pc, lr

00009ea8 <_IO_default_write>:
    9ea8:	e3a00000 	mov	r0, #0	; 0x0
    9eac:	e1a0f00e 	mov	pc, lr

00009eb0 <_IO_default_showmanyc>:
    9eb0:	e3e00000 	mvn	r0, #0	; 0x0
    9eb4:	e1a0f00e 	mov	pc, lr

00009eb8 <_IO_default_imbue>:
    9eb8:	e1a0f00e 	mov	pc, lr

00009ebc <_IO_iter_begin>:
    9ebc:	e59f3004 	ldr	r3, [pc, #4]	; 9ec8 <_IO_iter_begin+0xc>
    9ec0:	e5930000 	ldr	r0, [r3]
    9ec4:	e1a0f00e 	mov	pc, lr
    9ec8:	000724ac 	andeq	r2, r7, ip, lsr #9

00009ecc <_IO_iter_end>:
    9ecc:	e3a00000 	mov	r0, #0	; 0x0
    9ed0:	e1a0f00e 	mov	pc, lr

00009ed4 <_IO_iter_next>:
    9ed4:	e5900034 	ldr	r0, [r0, #52]
    9ed8:	e1a0f00e 	mov	pc, lr

00009edc <_IO_iter_file>:
    9edc:	e1a0f00e 	mov	pc, lr

00009ee0 <_IO_list_lock>:
    9ee0:	e59f300c 	ldr	r3, [pc, #12]	; 9ef4 <_IO_list_lock+0x14>
    9ee4:	e3530000 	cmp	r3, #0	; 0x0
    9ee8:	e59f0008 	ldr	r0, [pc, #8]	; 9ef8 <_IO_list_lock+0x18>
    9eec:	01a0f00e 	moveq	pc, lr
    9ef0:	eaffd842 	b	0 <.text-0x80e0>
    9ef4:	00000000 	andeq	r0, r0, r0
    9ef8:	00072050 	andeq	r2, r7, r0, asr r0

00009efc <_IO_list_unlock>:
    9efc:	e59f300c 	ldr	r3, [pc, #12]	; 9f10 <_IO_list_unlock+0x14>
    9f00:	e3530000 	cmp	r3, #0	; 0x0
    9f04:	e59f0008 	ldr	r0, [pc, #8]	; 9f14 <_IO_list_unlock+0x18>
    9f08:	01a0f00e 	moveq	pc, lr
    9f0c:	eaffd83b 	b	0 <.text-0x80e0>
    9f10:	00000000 	andeq	r0, r0, r0
    9f14:	00072050 	andeq	r2, r7, r0, asr r0

00009f18 <_IO_list_resetlock>:
    9f18:	e92d4030 	stmdb	sp!, {r4, r5, lr}
    9f1c:	e59f5058 	ldr	r5, [pc, #88]	; 9f7c <_IO_list_resetlock+0x64>
    9f20:	e24dd004 	sub	sp, sp, #4	; 0x4
    9f24:	e3550000 	cmp	r5, #0	; 0x0
    9f28:	e1a0400d 	mov	r4, sp
    9f2c:	e1a0000d 	mov	r0, sp
    9f30:	0a00000f 	beq	9f74 <_IO_list_resetlock+0x5c>
    9f34:	e59f3044 	ldr	r3, [pc, #68]	; 9f80 <_IO_list_resetlock+0x68>
    9f38:	e1a0e00f 	mov	lr, pc
    9f3c:	e1a0f003 	mov	pc, r3
    9f40:	e59f303c 	ldr	r3, [pc, #60]	; 9f84 <_IO_list_resetlock+0x6c>
    9f44:	e3a01001 	mov	r1, #1	; 0x1
    9f48:	e1a0000d 	mov	r0, sp
    9f4c:	e1a0e00f 	mov	lr, pc
    9f50:	e1a0f003 	mov	pc, r3
    9f54:	e59f002c 	ldr	r0, [pc, #44]	; 9f88 <_IO_list_resetlock+0x70>
    9f58:	e1a0100d 	mov	r1, sp
    9f5c:	e1a0e00f 	mov	lr, pc
    9f60:	e1a0f005 	mov	pc, r5
    9f64:	e59f3020 	ldr	r3, [pc, #32]	; 9f8c <_IO_list_resetlock+0x74>
    9f68:	e1a0000d 	mov	r0, sp
    9f6c:	e1a0e00f 	mov	lr, pc
    9f70:	e1a0f003 	mov	pc, r3
    9f74:	e28dd004 	add	sp, sp, #4	; 0x4
    9f78:	e8bd8030 	ldmia	sp!, {r4, r5, pc}
	...
    9f88:	00072050 	andeq	r2, r7, r0, asr r0
    9f8c:	00000000 	andeq	r0, r0, r0

00009f90 <malloc_init_state>:
    9f90:	e280305c 	add	r3, r0, #92	; 0x5c
    9f94:	e3a0207e 	mov	r2, #126	; 0x7e
    9f98:	e2522001 	subs	r2, r2, #1	; 0x1
    9f9c:	e583300c 	str	r3, [r3, #12]
    9fa0:	e5833008 	str	r3, [r3, #8]
    9fa4:	e2833008 	add	r3, r3, #8	; 0x8
    9fa8:	5afffffa 	bpl	9f98 <malloc_init_state+0x8>
    9fac:	e59f3028 	ldr	r3, [pc, #40]	; 9fdc <malloc_init_state+0x4c>
    9fb0:	e280205c 	add	r2, r0, #92	; 0x5c
    9fb4:	e1500003 	cmp	r0, r3
    9fb8:	15903028 	ldrne	r3, [r0, #40]
    9fbc:	e5802054 	str	r2, [r0, #84]
    9fc0:	13833002 	orrne	r3, r3, #2	; 0x2
    9fc4:	15803028 	strne	r3, [r0, #40]
    9fc8:	e5903028 	ldr	r3, [r0, #40]
    9fcc:	e2033002 	and	r3, r3, #2	; 0x2
    9fd0:	e3833049 	orr	r3, r3, #73	; 0x49
    9fd4:	e5803028 	str	r3, [r0, #40]
    9fd8:	e1a0f00e 	mov	pc, lr
    9fdc:	00072ff8 	streqd	r2, [r7], -r8

00009fe0 <malloc_atfork>:
    9fe0:	e59f30c0 	ldr	r3, [pc, #192]	; a0a8 <malloc_atfork+0xc8>
    9fe4:	e92d4030 	stmdb	sp!, {r4, r5, lr}
    9fe8:	e3530000 	cmp	r3, #0	; 0x0
    9fec:	059f30b8 	ldreq	r3, [pc, #184]	; a0ac <malloc_atfork+0xcc>
    9ff0:	e1a04000 	mov	r4, r0
    9ff4:	e3a00000 	mov	r0, #0	; 0x0
    9ff8:	05930000 	ldreq	r0, [r3]
    9ffc:	11a0e00f 	movne	lr, pc
    a000:	11a0f003 	movne	pc, r3
    a004:	e3700001 	cmn	r0, #1	; 0x1
    a008:	0a000012 	beq	a058 <malloc_atfork+0x78>
    a00c:	e59f309c 	ldr	r3, [pc, #156]	; a0b0 <malloc_atfork+0xd0>
    a010:	e3530000 	cmp	r3, #0	; 0x0
    a014:	059f5098 	ldreq	r5, [pc, #152]	; a0b4 <malloc_atfork+0xd4>
    a018:	03a03001 	moveq	r3, #1	; 0x1
    a01c:	05853000 	streq	r3, [r5]
    a020:	0a000003 	beq	a034 <malloc_atfork+0x54>
    a024:	e59f5088 	ldr	r5, [pc, #136]	; a0b4 <malloc_atfork+0xd4>
    a028:	e1a00005 	mov	r0, r5
    a02c:	e1a0e00f 	mov	lr, pc
    a030:	e1a0f003 	mov	pc, r3
    a034:	e59f307c 	ldr	r3, [pc, #124]	; a0b8 <malloc_atfork+0xd8>
    a038:	e3530000 	cmp	r3, #0	; 0x0
    a03c:	05853000 	streq	r3, [r5]
    a040:	159f006c 	ldrne	r0, [pc, #108]	; a0b4 <malloc_atfork+0xd4>
    a044:	11a0e00f 	movne	lr, pc
    a048:	11a0f003 	movne	pc, r3
    a04c:	e1a00004 	mov	r0, r4
    a050:	e8bd4030 	ldmia	sp!, {r4, r5, lr}
    a054:	ea0008e9 	b	c400 <__libc_malloc>
    a058:	e59f305c 	ldr	r3, [pc, #92]	; a0bc <malloc_atfork+0xdc>
    a05c:	e59f205c 	ldr	r2, [pc, #92]	; a0c0 <malloc_atfork+0xe0>
    a060:	e5931000 	ldr	r1, [r3]
    a064:	e1510002 	cmp	r1, r2
    a068:	0a000003 	beq	a07c <malloc_atfork+0x9c>
    a06c:	e59f0050 	ldr	r0, [pc, #80]	; a0c4 <malloc_atfork+0xe4>
    a070:	e1a01004 	mov	r1, r4
    a074:	e8bd4030 	ldmia	sp!, {r4, r5, lr}
    a078:	ea000c22 	b	d108 <_int_malloc>
    a07c:	eb000477 	bl	b260 <top_check>
    a080:	e3500000 	cmp	r0, #0	; 0x0
    a084:	ba000005 	blt	a0a0 <malloc_atfork+0xc0>
    a088:	e2841001 	add	r1, r4, #1	; 0x1
    a08c:	e59f0030 	ldr	r0, [pc, #48]	; a0c4 <malloc_atfork+0xe4>
    a090:	eb000c1c 	bl	d108 <_int_malloc>
    a094:	e1a01004 	mov	r1, r4
    a098:	e8bd4030 	ldmia	sp!, {r4, r5, lr}
    a09c:	ea0003e2 	b	b02c <mem2mem_check>
    a0a0:	e3a00000 	mov	r0, #0	; 0x0
    a0a4:	e8bd8030 	ldmia	sp!, {r4, r5, pc}
    a0a8:	00000000 	andeq	r0, r0, r0
    a0ac:	00072ff4 	streqd	r2, [r7], -r4
    a0b0:	00000000 	andeq	r0, r0, r0
    a0b4:	000734a0 	andeq	r3, r7, r0, lsr #9
    a0b8:	00000000 	andeq	r0, r0, r0
    a0bc:	000734bc 	streqh	r3, [r7], -ip
    a0c0:	0000b3a8 	andeq	fp, r0, r8, lsr #7
    a0c4:	00072ff8 	streqd	r2, [r7], -r8

0000a0c8 <free_atfork>:
    a0c8:	e3500000 	cmp	r0, #0	; 0x0
    a0cc:	e92d4070 	stmdb	sp!, {r4, r5, r6, lr}
    a0d0:	e1a04000 	mov	r4, r0
    a0d4:	0a000026 	beq	a174 <free_atfork+0xac>
    a0d8:	e2400008 	sub	r0, r0, #8	; 0x8
    a0dc:	e5903004 	ldr	r3, [r0, #4]
    a0e0:	e3130002 	tst	r3, #2	; 0x2
    a0e4:	1a000023 	bne	a178 <free_atfork+0xb0>
    a0e8:	e3130004 	tst	r3, #4	; 0x4
    a0ec:	11a03a20 	movne	r3, r0, lsr #20
    a0f0:	11a03a03 	movne	r3, r3, lsl #20
    a0f4:	15936000 	ldrne	r6, [r3]
    a0f8:	e59f3080 	ldr	r3, [pc, #128]	; a180 <free_atfork+0xb8>
    a0fc:	059f6080 	ldreq	r6, [pc, #128]	; a184 <free_atfork+0xbc>
    a100:	e3530000 	cmp	r3, #0	; 0x0
    a104:	059f307c 	ldreq	r3, [pc, #124]	; a188 <free_atfork+0xc0>
    a108:	05935000 	ldreq	r5, [r3]
    a10c:	0a000003 	beq	a120 <free_atfork+0x58>
    a110:	e3a00000 	mov	r0, #0	; 0x0
    a114:	e1a0e00f 	mov	lr, pc
    a118:	e1a0f003 	mov	pc, r3
    a11c:	e1a05000 	mov	r5, r0
    a120:	e3750001 	cmn	r5, #1	; 0x1
    a124:	0a000006 	beq	a144 <free_atfork+0x7c>
    a128:	e59f305c 	ldr	r3, [pc, #92]	; a18c <free_atfork+0xc4>
    a12c:	e3530000 	cmp	r3, #0	; 0x0
    a130:	03a03001 	moveq	r3, #1	; 0x1
    a134:	05863000 	streq	r3, [r6]
    a138:	11a00006 	movne	r0, r6
    a13c:	11a0e00f 	movne	lr, pc
    a140:	11a0f003 	movne	pc, r3
    a144:	e1a01004 	mov	r1, r4
    a148:	e1a00006 	mov	r0, r6
    a14c:	eb000d36 	bl	d62c <_int_free>
    a150:	e3750001 	cmn	r5, #1	; 0x1
    a154:	0a000006 	beq	a174 <free_atfork+0xac>
    a158:	e59f3030 	ldr	r3, [pc, #48]	; a190 <free_atfork+0xc8>
    a15c:	e3530000 	cmp	r3, #0	; 0x0
    a160:	0a000002 	beq	a170 <free_atfork+0xa8>
    a164:	e1a00006 	mov	r0, r6
    a168:	e8bd4070 	ldmia	sp!, {r4, r5, r6, lr}
    a16c:	eaffd7a3 	b	0 <.text-0x80e0>
    a170:	e5863000 	str	r3, [r6]
    a174:	e8bd8070 	ldmia	sp!, {r4, r5, r6, pc}
    a178:	e8bd4070 	ldmia	sp!, {r4, r5, r6, lr}
    a17c:	ea00086c 	b	c334 <munmap_chunk>
    a180:	00000000 	andeq	r0, r0, r0
    a184:	00072ff8 	streqd	r2, [r7], -r8
    a188:	00072ff4 	streqd	r2, [r7], -r4
	...

0000a194 <ptmalloc_lock_all>:
    a194:	e92d40f0 	stmdb	sp!, {r4, r5, r6, r7, lr}
    a198:	e59f30d4 	ldr	r3, [pc, #212]	; a274 <ptmalloc_lock_all+0xe0>
    a19c:	e5932000 	ldr	r2, [r3]
    a1a0:	e3520000 	cmp	r2, #0	; 0x0
    a1a4:	da000031 	ble	a270 <ptmalloc_lock_all+0xdc>
    a1a8:	e59f50c8 	ldr	r5, [pc, #200]	; a278 <ptmalloc_lock_all+0xe4>
    a1ac:	e3550000 	cmp	r5, #0	; 0x0
    a1b0:	059f30c4 	ldreq	r3, [pc, #196]	; a27c <ptmalloc_lock_all+0xe8>
    a1b4:	03a02001 	moveq	r2, #1	; 0x1
    a1b8:	05832000 	streq	r2, [r3]
    a1bc:	159f00b8 	ldrne	r0, [pc, #184]	; a27c <ptmalloc_lock_all+0xe8>
    a1c0:	11a0e00f 	movne	lr, pc
    a1c4:	11a0f005 	movne	pc, r5
    a1c8:	e59f40b0 	ldr	r4, [pc, #176]	; a280 <ptmalloc_lock_all+0xec>
    a1cc:	e3a07001 	mov	r7, #1	; 0x1
    a1d0:	e1a06004 	mov	r6, r4
    a1d4:	e3550000 	cmp	r5, #0	; 0x0
    a1d8:	e1a00004 	mov	r0, r4
    a1dc:	05847000 	streq	r7, [r4]
    a1e0:	11a0e00f 	movne	lr, pc
    a1e4:	11a0f005 	movne	pc, r5
    a1e8:	e594446c 	ldr	r4, [r4, #1132]
    a1ec:	e1540006 	cmp	r4, r6
    a1f0:	1afffff7 	bne	a1d4 <ptmalloc_lock_all+0x40>
    a1f4:	e59fc088 	ldr	ip, [pc, #136]	; a284 <ptmalloc_lock_all+0xf0>
    a1f8:	e59fe088 	ldr	lr, [pc, #136]	; a288 <ptmalloc_lock_all+0xf4>
    a1fc:	e59c1000 	ldr	r1, [ip]
    a200:	e59f3084 	ldr	r3, [pc, #132]	; a28c <ptmalloc_lock_all+0xf8>
    a204:	e59f4084 	ldr	r4, [pc, #132]	; a290 <ptmalloc_lock_all+0xfc>
    a208:	e59e0000 	ldr	r0, [lr]
    a20c:	e59f2080 	ldr	r2, [pc, #128]	; a294 <ptmalloc_lock_all+0x100>
    a210:	e5831000 	str	r1, [r3]
    a214:	e59f307c 	ldr	r3, [pc, #124]	; a298 <ptmalloc_lock_all+0x104>
    a218:	e3540000 	cmp	r4, #0	; 0x0
    a21c:	e5820000 	str	r0, [r2]
    a220:	e58c3000 	str	r3, [ip]
    a224:	e59f2070 	ldr	r2, [pc, #112]	; a29c <ptmalloc_lock_all+0x108>
    a228:	059f3070 	ldreq	r3, [pc, #112]	; a2a0 <ptmalloc_lock_all+0x10c>
    a22c:	e58e2000 	str	r2, [lr]
    a230:	05930000 	ldreq	r0, [r3]
    a234:	13a00000 	movne	r0, #0	; 0x0
    a238:	11a0e00f 	movne	lr, pc
    a23c:	11a0f004 	movne	pc, r4
    a240:	e59f205c 	ldr	r2, [pc, #92]	; a2a4 <ptmalloc_lock_all+0x110>
    a244:	e59f305c 	ldr	r3, [pc, #92]	; a2a8 <ptmalloc_lock_all+0x114>
    a248:	e3520000 	cmp	r2, #0	; 0x0
    a24c:	e5830000 	str	r0, [r3]
    a250:	0a000003 	beq	a264 <ptmalloc_lock_all+0xd0>
    a254:	e3a00000 	mov	r0, #0	; 0x0
    a258:	e3e01000 	mvn	r1, #0	; 0x0
    a25c:	e8bd40f0 	ldmia	sp!, {r4, r5, r6, r7, lr}
    a260:	eaffd766 	b	0 <.text-0x80e0>
    a264:	e59f3034 	ldr	r3, [pc, #52]	; a2a0 <ptmalloc_lock_all+0x10c>
    a268:	e3e02000 	mvn	r2, #0	; 0x0
    a26c:	e5832000 	str	r2, [r3]
    a270:	e8bd80f0 	ldmia	sp!, {r4, r5, r6, r7, pc}
    a274:	000724cc 	andeq	r2, r7, ip, asr #9
    a278:	00000000 	andeq	r0, r0, r0
    a27c:	000734a0 	andeq	r3, r7, r0, lsr #9
    a280:	00072ff8 	streqd	r2, [r7], -r8
    a284:	000724c0 	andeq	r2, r7, r0, asr #9
    a288:	00072fec 	andeq	r2, r7, ip, ror #31
    a28c:	000734bc 	streqh	r3, [r7], -ip
    a290:	00000000 	andeq	r0, r0, r0
    a294:	000734c4 	andeq	r3, r7, r4, asr #9
    a298:	00009fe0 	andeq	r9, r0, r0, ror #31
    a29c:	0000a0c8 	andeq	sl, r0, r8, asr #1
    a2a0:	00072ff4 	streqd	r2, [r7], -r4
    a2a4:	00000000 	andeq	r0, r0, r0
    a2a8:	000734c8 	andeq	r3, r7, r8, asr #9

0000a2ac <ptmalloc_unlock_all>:
    a2ac:	e92d40f0 	stmdb	sp!, {r4, r5, r6, r7, lr}
    a2b0:	e59f30ac 	ldr	r3, [pc, #172]	; a364 <ptmalloc_unlock_all+0xb8>
    a2b4:	e5932000 	ldr	r2, [r3]
    a2b8:	e3520000 	cmp	r2, #0	; 0x0
    a2bc:	da000027 	ble	a360 <ptmalloc_unlock_all+0xb4>
    a2c0:	e59f20a0 	ldr	r2, [pc, #160]	; a368 <ptmalloc_unlock_all+0xbc>
    a2c4:	e3520000 	cmp	r2, #0	; 0x0
    a2c8:	059f309c 	ldreq	r3, [pc, #156]	; a36c <ptmalloc_unlock_all+0xc0>
    a2cc:	059f209c 	ldreq	r2, [pc, #156]	; a370 <ptmalloc_unlock_all+0xc4>
    a2d0:	05931000 	ldreq	r1, [r3]
    a2d4:	05821000 	streq	r1, [r2]
    a2d8:	0a000004 	beq	a2f0 <ptmalloc_unlock_all+0x44>
    a2dc:	e59f3088 	ldr	r3, [pc, #136]	; a36c <ptmalloc_unlock_all+0xc0>
    a2e0:	e3a00000 	mov	r0, #0	; 0x0
    a2e4:	e5931000 	ldr	r1, [r3]
    a2e8:	e1a0e00f 	mov	lr, pc
    a2ec:	e1a0f002 	mov	pc, r2
    a2f0:	e59f307c 	ldr	r3, [pc, #124]	; a374 <ptmalloc_unlock_all+0xc8>
    a2f4:	e59f207c 	ldr	r2, [pc, #124]	; a378 <ptmalloc_unlock_all+0xcc>
    a2f8:	e5931000 	ldr	r1, [r3]
    a2fc:	e5920000 	ldr	r0, [r2]
    a300:	e59f4074 	ldr	r4, [pc, #116]	; a37c <ptmalloc_unlock_all+0xd0>
    a304:	e59f5074 	ldr	r5, [pc, #116]	; a380 <ptmalloc_unlock_all+0xd4>
    a308:	e59f3074 	ldr	r3, [pc, #116]	; a384 <ptmalloc_unlock_all+0xd8>
    a30c:	e59f2074 	ldr	r2, [pc, #116]	; a388 <ptmalloc_unlock_all+0xdc>
    a310:	e5831000 	str	r1, [r3]
    a314:	e5820000 	str	r0, [r2]
    a318:	e1a06004 	mov	r6, r4
    a31c:	e1a07005 	mov	r7, r5
    a320:	e3550000 	cmp	r5, #0	; 0x0
    a324:	e1a00004 	mov	r0, r4
    a328:	05847000 	streq	r7, [r4]
    a32c:	11a0e00f 	movne	lr, pc
    a330:	11a0f005 	movne	pc, r5
    a334:	e594446c 	ldr	r4, [r4, #1132]
    a338:	e1540006 	cmp	r4, r6
    a33c:	1afffff7 	bne	a320 <ptmalloc_unlock_all+0x74>
    a340:	e3550000 	cmp	r5, #0	; 0x0
    a344:	0a000002 	beq	a354 <ptmalloc_unlock_all+0xa8>
    a348:	e59f003c 	ldr	r0, [pc, #60]	; a38c <ptmalloc_unlock_all+0xe0>
    a34c:	e8bd40f0 	ldmia	sp!, {r4, r5, r6, r7, lr}
    a350:	eaffd72a 	b	0 <.text-0x80e0>
    a354:	e59f3024 	ldr	r3, [pc, #36]	; a380 <ptmalloc_unlock_all+0xd4>
    a358:	e59f202c 	ldr	r2, [pc, #44]	; a38c <ptmalloc_unlock_all+0xe0>
    a35c:	e5823000 	str	r3, [r2]
    a360:	e8bd80f0 	ldmia	sp!, {r4, r5, r6, r7, pc}
    a364:	000724cc 	andeq	r2, r7, ip, asr #9
    a368:	00000000 	andeq	r0, r0, r0
    a36c:	000734c8 	andeq	r3, r7, r8, asr #9
    a370:	00072ff4 	streqd	r2, [r7], -r4
    a374:	000734bc 	streqh	r3, [r7], -ip
    a378:	000734c4 	andeq	r3, r7, r4, asr #9
    a37c:	00072ff8 	streqd	r2, [r7], -r8
    a380:	00000000 	andeq	r0, r0, r0
    a384:	000724c0 	andeq	r2, r7, r0, asr #9
    a388:	00072fec 	andeq	r2, r7, ip, ror #31
    a38c:	000734a0 	andeq	r3, r7, r0, lsr #9

0000a390 <ptmalloc_unlock_all2>:
    a390:	e92d40f0 	stmdb	sp!, {r4, r5, r6, r7, lr}
    a394:	e59f30b4 	ldr	r3, [pc, #180]	; a450 <ptmalloc_unlock_all2+0xc0>
    a398:	e5932000 	ldr	r2, [r3]
    a39c:	e3520000 	cmp	r2, #0	; 0x0
    a3a0:	da000029 	ble	a44c <ptmalloc_unlock_all2+0xbc>
    a3a4:	e59f20a8 	ldr	r2, [pc, #168]	; a454 <ptmalloc_unlock_all2+0xc4>
    a3a8:	e3520000 	cmp	r2, #0	; 0x0
    a3ac:	059f30a4 	ldreq	r3, [pc, #164]	; a458 <ptmalloc_unlock_all2+0xc8>
    a3b0:	059f20a4 	ldreq	r2, [pc, #164]	; a45c <ptmalloc_unlock_all2+0xcc>
    a3b4:	05931000 	ldreq	r1, [r3]
    a3b8:	05821000 	streq	r1, [r2]
    a3bc:	0a000004 	beq	a3d4 <ptmalloc_unlock_all2+0x44>
    a3c0:	e59f3090 	ldr	r3, [pc, #144]	; a458 <ptmalloc_unlock_all2+0xc8>
    a3c4:	e3a00000 	mov	r0, #0	; 0x0
    a3c8:	e5931000 	ldr	r1, [r3]
    a3cc:	e1a0e00f 	mov	lr, pc
    a3d0:	e1a0f002 	mov	pc, r2
    a3d4:	e59f3084 	ldr	r3, [pc, #132]	; a460 <ptmalloc_unlock_all2+0xd0>
    a3d8:	e59f2084 	ldr	r2, [pc, #132]	; a464 <ptmalloc_unlock_all2+0xd4>
    a3dc:	e5931000 	ldr	r1, [r3]
    a3e0:	e5920000 	ldr	r0, [r2]
    a3e4:	e59f407c 	ldr	r4, [pc, #124]	; a468 <ptmalloc_unlock_all2+0xd8>
    a3e8:	e59f507c 	ldr	r5, [pc, #124]	; a46c <ptmalloc_unlock_all2+0xdc>
    a3ec:	e59f307c 	ldr	r3, [pc, #124]	; a470 <ptmalloc_unlock_all2+0xe0>
    a3f0:	e59f207c 	ldr	r2, [pc, #124]	; a474 <ptmalloc_unlock_all2+0xe4>
    a3f4:	e5831000 	str	r1, [r3]
    a3f8:	e5820000 	str	r0, [r2]
    a3fc:	e1a06004 	mov	r6, r4
    a400:	e1a07005 	mov	r7, r5
    a404:	e3a01000 	mov	r1, #0	; 0x0
    a408:	e1550001 	cmp	r5, r1
    a40c:	e1a00004 	mov	r0, r4
    a410:	05847000 	streq	r7, [r4]
    a414:	11a0e00f 	movne	lr, pc
    a418:	11a0f005 	movne	pc, r5
    a41c:	e594446c 	ldr	r4, [r4, #1132]
    a420:	e1540006 	cmp	r4, r6
    a424:	1afffff6 	bne	a404 <ptmalloc_unlock_all2+0x74>
    a428:	e3550000 	cmp	r5, #0	; 0x0
    a42c:	0a000003 	beq	a440 <ptmalloc_unlock_all2+0xb0>
    a430:	e59f0040 	ldr	r0, [pc, #64]	; a478 <ptmalloc_unlock_all2+0xe8>
    a434:	e3a01000 	mov	r1, #0	; 0x0
    a438:	e8bd40f0 	ldmia	sp!, {r4, r5, r6, r7, lr}
    a43c:	eaffd6ef 	b	0 <.text-0x80e0>
    a440:	e59f3024 	ldr	r3, [pc, #36]	; a46c <ptmalloc_unlock_all2+0xdc>
    a444:	e59f202c 	ldr	r2, [pc, #44]	; a478 <ptmalloc_unlock_all2+0xe8>
    a448:	e5823000 	str	r3, [r2]
    a44c:	e8bd80f0 	ldmia	sp!, {r4, r5, r6, r7, pc}
    a450:	000724cc 	andeq	r2, r7, ip, asr #9
    a454:	00000000 	andeq	r0, r0, r0
    a458:	000734c8 	andeq	r3, r7, r8, asr #9
    a45c:	00072ff4 	streqd	r2, [r7], -r4
    a460:	000734bc 	streqh	r3, [r7], -ip
    a464:	000734c4 	andeq	r3, r7, r4, asr #9
    a468:	00072ff8 	streqd	r2, [r7], -r8
    a46c:	00000000 	andeq	r0, r0, r0
    a470:	000724c0 	andeq	r2, r7, r0, asr #9
    a474:	00072fec 	andeq	r2, r7, ip, ror #31
    a478:	000734a0 	andeq	r3, r7, r0, lsr #9

0000a47c <next_env_entry>:
    a47c:	e5901000 	ldr	r1, [r0]
    a480:	e3a0c000 	mov	ip, #0	; 0x0
    a484:	e5912000 	ldr	r2, [r1]
    a488:	e152000c 	cmp	r2, ip
    a48c:	0a000006 	beq	a4ac <next_env_entry+0x30>
    a490:	e5d23000 	ldrb	r3, [r2]
    a494:	e353004d 	cmp	r3, #77	; 0x4d
    a498:	0a000005 	beq	a4b4 <next_env_entry+0x38>
    a49c:	e5b13004 	ldr	r3, [r1, #4]!
    a4a0:	e3530000 	cmp	r3, #0	; 0x0
    a4a4:	e1a02003 	mov	r2, r3
    a4a8:	1afffff8 	bne	a490 <next_env_entry+0x14>
    a4ac:	e1a0000c 	mov	r0, ip
    a4b0:	e1a0f00e 	mov	pc, lr
    a4b4:	e5d23001 	ldrb	r3, [r2, #1]
    a4b8:	e3530041 	cmp	r3, #65	; 0x41
    a4bc:	1afffff6 	bne	a49c <next_env_entry+0x20>
    a4c0:	e5d23002 	ldrb	r3, [r2, #2]
    a4c4:	e353004c 	cmp	r3, #76	; 0x4c
    a4c8:	1afffff3 	bne	a49c <next_env_entry+0x20>
    a4cc:	e5d23003 	ldrb	r3, [r2, #3]
    a4d0:	e353004c 	cmp	r3, #76	; 0x4c
    a4d4:	1afffff0 	bne	a49c <next_env_entry+0x20>
    a4d8:	e5d23004 	ldrb	r3, [r2, #4]
    a4dc:	e353004f 	cmp	r3, #79	; 0x4f
    a4e0:	1affffed 	bne	a49c <next_env_entry+0x20>
    a4e4:	e5d23005 	ldrb	r3, [r2, #5]
    a4e8:	e3530043 	cmp	r3, #67	; 0x43
    a4ec:	1affffea 	bne	a49c <next_env_entry+0x20>
    a4f0:	e5d23006 	ldrb	r3, [r2, #6]
    a4f4:	e353005f 	cmp	r3, #95	; 0x5f
    a4f8:	02811004 	addeq	r1, r1, #4	; 0x4
    a4fc:	0282c007 	addeq	ip, r2, #7	; 0x7
    a500:	05801000 	streq	r1, [r0]
    a504:	1affffe4 	bne	a49c <next_env_entry+0x20>
    a508:	eaffffe7 	b	a4ac <next_env_entry+0x30>

0000a50c <ptmalloc_init_minimal>:
    a50c:	e92d4010 	stmdb	sp!, {r4, lr}
    a510:	e59f401c 	ldr	r4, [pc, #28]	; a534 <ptmalloc_init_minimal+0x28>
    a514:	e3a02802 	mov	r2, #131072	; 0x20000
    a518:	e3a03801 	mov	r3, #65536	; 0x10000
    a51c:	e5843010 	str	r3, [r4, #16]
    a520:	e5842000 	str	r2, [r4]
    a524:	e5842008 	str	r2, [r4, #8]
    a528:	eb001443 	bl	f63c <__getpagesize>
    a52c:	e5840018 	str	r0, [r4, #24]
    a530:	e8bd8010 	ldmia	sp!, {r4, pc}
    a534:	00073470 	andeq	r3, r7, r0, ror r4

0000a538 <ptmalloc_init>:
    a538:	e92d4ff0 	stmdb	sp!, {r4, r5, r6, r7, r8, r9, sl, fp, lr}
    a53c:	e59f6344 	ldr	r6, [pc, #836]	; a888 <ptmalloc_init+0x350>
    a540:	e3a05000 	mov	r5, #0	; 0x0
    a544:	e5963000 	ldr	r3, [r6]
    a548:	e24dd004 	sub	sp, sp, #4	; 0x4
    a54c:	e1530005 	cmp	r3, r5
    a550:	ba000001 	blt	a55c <ptmalloc_init+0x24>
    a554:	e28dd004 	add	sp, sp, #4	; 0x4
    a558:	e8bd8ff0 	ldmia	sp!, {r4, r5, r6, r7, r8, r9, sl, fp, pc}
    a55c:	e59f8328 	ldr	r8, [pc, #808]	; a88c <ptmalloc_init+0x354>
    a560:	e59f9328 	ldr	r9, [pc, #808]	; a890 <ptmalloc_init+0x358>
    a564:	e5865000 	str	r5, [r6]
    a568:	e59fb324 	ldr	fp, [pc, #804]	; a894 <ptmalloc_init+0x35c>
    a56c:	ebffffe6 	bl	a50c <ptmalloc_init_minimal>
    a570:	e5983000 	ldr	r3, [r8]
    a574:	e5992000 	ldr	r2, [r9]
    a578:	e59fa318 	ldr	sl, [pc, #792]	; a898 <ptmalloc_init+0x360>
    a57c:	e58b3000 	str	r3, [fp]
    a580:	e59f3314 	ldr	r3, [pc, #788]	; a89c <ptmalloc_init+0x364>
    a584:	e59a1000 	ldr	r1, [sl]
    a588:	e5832000 	str	r2, [r3]
    a58c:	e59f330c 	ldr	r3, [pc, #780]	; a8a0 <ptmalloc_init+0x368>
    a590:	e59f030c 	ldr	r0, [pc, #780]	; a8a4 <ptmalloc_init+0x36c>
    a594:	e5831000 	str	r1, [r3]
    a598:	e59f3308 	ldr	r3, [pc, #776]	; a8a8 <ptmalloc_init+0x370>
    a59c:	e59f2308 	ldr	r2, [pc, #776]	; a8ac <ptmalloc_init+0x374>
    a5a0:	e5883000 	str	r3, [r8]
    a5a4:	e59f3304 	ldr	r3, [pc, #772]	; a8b0 <ptmalloc_init+0x378>
    a5a8:	e1500005 	cmp	r0, r5
    a5ac:	e5892000 	str	r2, [r9]
    a5b0:	e58a3000 	str	r3, [sl]
    a5b4:	11a0e00f 	movne	lr, pc
    a5b8:	11a0f000 	movne	pc, r0
    a5bc:	e59f42f0 	ldr	r4, [pc, #752]	; a8b4 <ptmalloc_init+0x37c>
    a5c0:	e3540000 	cmp	r4, #0	; 0x0
    a5c4:	059f72ec 	ldreq	r7, [pc, #748]	; a8b8 <ptmalloc_init+0x380>
    a5c8:	05875000 	streq	r5, [r7]
    a5cc:	0a000004 	beq	a5e4 <ptmalloc_init+0xac>
    a5d0:	e59f72e0 	ldr	r7, [pc, #736]	; a8b8 <ptmalloc_init+0x380>
    a5d4:	e1a01005 	mov	r1, r5
    a5d8:	e1a00007 	mov	r0, r7
    a5dc:	e1a0e00f 	mov	lr, pc
    a5e0:	e1a0f004 	mov	pc, r4
    a5e4:	e3540000 	cmp	r4, #0	; 0x0
    a5e8:	059f22c4 	ldreq	r2, [pc, #708]	; a8b4 <ptmalloc_init+0x37c>
    a5ec:	059f32c8 	ldreq	r3, [pc, #712]	; a8bc <ptmalloc_init+0x384>
    a5f0:	e587746c 	str	r7, [r7, #1132]
    a5f4:	05832000 	streq	r2, [r3]
    a5f8:	0a000003 	beq	a60c <ptmalloc_init+0xd4>
    a5fc:	e3a01000 	mov	r1, #0	; 0x0
    a600:	e59f02b4 	ldr	r0, [pc, #692]	; a8bc <ptmalloc_init+0x384>
    a604:	e1a0e00f 	mov	lr, pc
    a608:	e1a0f004 	mov	pc, r4
    a60c:	e59f32ac 	ldr	r3, [pc, #684]	; a8c0 <ptmalloc_init+0x388>
    a610:	e3530000 	cmp	r3, #0	; 0x0
    a614:	059f32a8 	ldreq	r3, [pc, #680]	; a8c4 <ptmalloc_init+0x38c>
    a618:	05837000 	streq	r7, [r3]
    a61c:	0a000003 	beq	a630 <ptmalloc_init+0xf8>
    a620:	e59f1290 	ldr	r1, [pc, #656]	; a8b8 <ptmalloc_init+0x380>
    a624:	e3a00000 	mov	r0, #0	; 0x0
    a628:	e1a0e00f 	mov	lr, pc
    a62c:	e1a0f003 	mov	pc, r3
    a630:	e59f3290 	ldr	r3, [pc, #656]	; a8c8 <ptmalloc_init+0x390>
    a634:	e59f1290 	ldr	r1, [pc, #656]	; a8cc <ptmalloc_init+0x394>
    a638:	e3530000 	cmp	r3, #0	; 0x0
    a63c:	15933000 	ldrne	r3, [r3]
    a640:	e59f2288 	ldr	r2, [pc, #648]	; a8d0 <ptmalloc_init+0x398>
    a644:	e59f0288 	ldr	r0, [pc, #648]	; a8d4 <ptmalloc_init+0x39c>
    a648:	eb001438 	bl	f730 <__register_atfork>
    a64c:	e59f3284 	ldr	r3, [pc, #644]	; a8d8 <ptmalloc_init+0x3a0>
    a650:	e59bc000 	ldr	ip, [fp]
    a654:	e5930000 	ldr	r0, [r3]
    a658:	e59f323c 	ldr	r3, [pc, #572]	; a89c <ptmalloc_init+0x364>
    a65c:	e3500000 	cmp	r0, #0	; 0x0
    a660:	e5932000 	ldr	r2, [r3]
    a664:	e59f3234 	ldr	r3, [pc, #564]	; a8a0 <ptmalloc_init+0x368>
    a668:	128d7004 	addne	r7, sp, #4	; 0x4
    a66c:	e5931000 	ldr	r1, [r3]
    a670:	e59f3264 	ldr	r3, [pc, #612]	; a8dc <ptmalloc_init+0x3a4>
    a674:	e588c000 	str	ip, [r8]
    a678:	e5892000 	str	r2, [r9]
    a67c:	e58a1000 	str	r1, [sl]
    a680:	e5935000 	ldr	r5, [r3]
    a684:	e3a08000 	mov	r8, #0	; 0x0
    a688:	15270004 	strne	r0, [r7, #-4]!
    a68c:	0a00000a 	beq	a6bc <ptmalloc_init+0x184>
    a690:	e1a00007 	mov	r0, r7
    a694:	ebffff78 	bl	a47c <next_env_entry>
    a698:	e3500000 	cmp	r0, #0	; 0x0
    a69c:	e1a04000 	mov	r4, r0
    a6a0:	1a000013 	bne	a6f4 <ptmalloc_init+0x1bc>
    a6a4:	e3580000 	cmp	r8, #0	; 0x0
    a6a8:	0a000003 	beq	a6bc <ptmalloc_init+0x184>
    a6ac:	e5d81000 	ldrb	r1, [r8]
    a6b0:	e3510000 	cmp	r1, #0	; 0x0
    a6b4:	1a00000a 	bne	a6e4 <ptmalloc_init+0x1ac>
    a6b8:	eb00022b 	bl	af6c <__malloc_check_init>
    a6bc:	e59f321c 	ldr	r3, [pc, #540]	; a8e0 <ptmalloc_init+0x3a8>
    a6c0:	e5933000 	ldr	r3, [r3]
    a6c4:	e3530000 	cmp	r3, #0	; 0x0
    a6c8:	1a000002 	bne	a6d8 <ptmalloc_init+0x1a0>
    a6cc:	e3a03001 	mov	r3, #1	; 0x1
    a6d0:	e5863000 	str	r3, [r6]
    a6d4:	eaffff9e 	b	a554 <ptmalloc_init+0x1c>
    a6d8:	e1a0e00f 	mov	lr, pc
    a6dc:	e1a0f003 	mov	pc, r3
    a6e0:	eafffff9 	b	a6cc <ptmalloc_init+0x194>
    a6e4:	e2411030 	sub	r1, r1, #48	; 0x30
    a6e8:	e3e00004 	mvn	r0, #4	; 0x4
    a6ec:	eb000f24 	bl	e384 <mALLOPt>
    a6f0:	eafffff0 	b	a6b8 <ptmalloc_init+0x180>
    a6f4:	e5d41000 	ldrb	r1, [r4]
    a6f8:	e3a03000 	mov	r3, #0	; 0x0
    a6fc:	e20120ff 	and	r2, r1, #255	; 0xff
    a700:	e1520003 	cmp	r2, r3
    a704:	05d41000 	ldreqb	r1, [r4]
    a708:	0a000008 	beq	a730 <ptmalloc_init+0x1f8>
    a70c:	e352003d 	cmp	r2, #61	; 0x3d
    a710:	0a000006 	beq	a730 <ptmalloc_init+0x1f8>
    a714:	e2833001 	add	r3, r3, #1	; 0x1
    a718:	e7d41003 	ldrb	r1, [r4, r3]
    a71c:	e20120ff 	and	r2, r1, #255	; 0xff
    a720:	e3520000 	cmp	r2, #0	; 0x0
    a724:	0a000001 	beq	a730 <ptmalloc_init+0x1f8>
    a728:	e352003d 	cmp	r2, #61	; 0x3d
    a72c:	1afffff8 	bne	a714 <ptmalloc_init+0x1dc>
    a730:	e351003d 	cmp	r1, #61	; 0x3d
    a734:	1affffd5 	bne	a690 <ptmalloc_init+0x158>
    a738:	e2433006 	sub	r3, r3, #6	; 0x6
    a73c:	e3530009 	cmp	r3, #9	; 0x9
    a740:	979ff103 	ldrls	pc, [pc, r3, lsl #2]
    a744:	eaffffd1 	b	a690 <ptmalloc_init+0x158>
    a748:	0000a770 	andeq	sl, r0, r0, ror r7
    a74c:	0000a690 	muleq	r0, r0, r6
    a750:	0000a78c 	andeq	sl, r0, ip, lsl #15
    a754:	0000a7d0 	ldreqd	sl, [r0], -r0
    a758:	0000a690 	muleq	r0, r0, r6
    a75c:	0000a690 	muleq	r0, r0, r6
    a760:	0000a690 	muleq	r0, r0, r6
    a764:	0000a690 	muleq	r0, r0, r6
    a768:	0000a690 	muleq	r0, r0, r6
    a76c:	0000a810 	andeq	sl, r0, r0, lsl r8
    a770:	e59f116c 	ldr	r1, [pc, #364]	; a8e4 <ptmalloc_init+0x3ac>
    a774:	e1a00004 	mov	r0, r4
    a778:	e3a02006 	mov	r2, #6	; 0x6
    a77c:	eb000f7f 	bl	e580 <memcmp>
    a780:	e3500000 	cmp	r0, #0	; 0x0
    a784:	02848007 	addeq	r8, r4, #7	; 0x7
    a788:	eaffffc0 	b	a690 <ptmalloc_init+0x158>
    a78c:	e3550000 	cmp	r5, #0	; 0x0
    a790:	1affffbe 	bne	a690 <ptmalloc_init+0x158>
    a794:	e59f114c 	ldr	r1, [pc, #332]	; a8e8 <ptmalloc_init+0x3b0>
    a798:	e1a00004 	mov	r0, r4
    a79c:	e3a02008 	mov	r2, #8	; 0x8
    a7a0:	eb000f76 	bl	e580 <memcmp>
    a7a4:	e3500000 	cmp	r0, #0	; 0x0
    a7a8:	1affffb8 	bne	a690 <ptmalloc_init+0x158>
    a7ac:	e1a01005 	mov	r1, r5
    a7b0:	e2840009 	add	r0, r4, #9	; 0x9
    a7b4:	e3a0200a 	mov	r2, #10	; 0xa
    a7b8:	e1a03005 	mov	r3, r5
    a7bc:	eb001774 	bl	10594 <__strtol_internal>
    a7c0:	e1a01000 	mov	r1, r0
    a7c4:	e3e00001 	mvn	r0, #1	; 0x1
    a7c8:	eb000eed 	bl	e384 <mALLOPt>
    a7cc:	eaffffaf 	b	a690 <ptmalloc_init+0x158>
    a7d0:	e3550000 	cmp	r5, #0	; 0x0
    a7d4:	1affffad 	bne	a690 <ptmalloc_init+0x158>
    a7d8:	e59f110c 	ldr	r1, [pc, #268]	; a8ec <ptmalloc_init+0x3b4>
    a7dc:	e1a00004 	mov	r0, r4
    a7e0:	e3a02009 	mov	r2, #9	; 0x9
    a7e4:	eb000f65 	bl	e580 <memcmp>
    a7e8:	e3500000 	cmp	r0, #0	; 0x0
    a7ec:	1affffa7 	bne	a690 <ptmalloc_init+0x158>
    a7f0:	e1a01005 	mov	r1, r5
    a7f4:	e284000a 	add	r0, r4, #10	; 0xa
    a7f8:	e3a0200a 	mov	r2, #10	; 0xa
    a7fc:	e1a03005 	mov	r3, r5
    a800:	eb001763 	bl	10594 <__strtol_internal>
    a804:	e1a01000 	mov	r1, r0
    a808:	e3e00003 	mvn	r0, #3	; 0x3
    a80c:	eaffffed 	b	a7c8 <ptmalloc_init+0x290>
    a810:	e3550000 	cmp	r5, #0	; 0x0
    a814:	1affff9d 	bne	a690 <ptmalloc_init+0x158>
    a818:	e59f10d0 	ldr	r1, [pc, #208]	; a8f0 <ptmalloc_init+0x3b8>
    a81c:	e1a00004 	mov	r0, r4
    a820:	e3a0200f 	mov	r2, #15	; 0xf
    a824:	eb000f55 	bl	e580 <memcmp>
    a828:	e3500000 	cmp	r0, #0	; 0x0
    a82c:	0a00000d 	beq	a868 <ptmalloc_init+0x330>
    a830:	e59f10bc 	ldr	r1, [pc, #188]	; a8f4 <ptmalloc_init+0x3bc>
    a834:	e1a00004 	mov	r0, r4
    a838:	e3a0200f 	mov	r2, #15	; 0xf
    a83c:	eb000f4f 	bl	e580 <memcmp>
    a840:	e3500000 	cmp	r0, #0	; 0x0
    a844:	1affff91 	bne	a690 <ptmalloc_init+0x158>
    a848:	e1a01000 	mov	r1, r0
    a84c:	e1a03001 	mov	r3, r1
    a850:	e2840010 	add	r0, r4, #16	; 0x10
    a854:	e3a0200a 	mov	r2, #10	; 0xa
    a858:	eb00174d 	bl	10594 <__strtol_internal>
    a85c:	e1a01000 	mov	r1, r0
    a860:	e3e00002 	mvn	r0, #2	; 0x2
    a864:	eaffffd7 	b	a7c8 <ptmalloc_init+0x290>
    a868:	e1a01000 	mov	r1, r0
    a86c:	e1a03001 	mov	r3, r1
    a870:	e2840010 	add	r0, r4, #16	; 0x10
    a874:	e3a0200a 	mov	r2, #10	; 0xa
    a878:	eb001745 	bl	10594 <__strtol_internal>
    a87c:	e1a01000 	mov	r1, r0
    a880:	e3e00000 	mvn	r0, #0	; 0x0
    a884:	eaffffcf 	b	a7c8 <ptmalloc_init+0x290>
    a888:	000724cc 	andeq	r2, r7, ip, asr #9
    a88c:	000724c0 	andeq	r2, r7, r0, asr #9
    a890:	000724c8 	andeq	r2, r7, r8, asr #9
    a894:	000734bc 	streqh	r3, [r7], -ip
    a898:	00072fec 	andeq	r2, r7, ip, ror #31
    a89c:	000734c0 	andeq	r3, r7, r0, asr #9
    a8a0:	000734c4 	andeq	r3, r7, r4, asr #9
    a8a4:	00000000 	andeq	r0, r0, r0
    a8a8:	0000b808 	andeq	fp, r0, r8, lsl #16
    a8ac:	0000b818 	andeq	fp, r0, r8, lsl r8
    a8b0:	0000b830 	andeq	fp, r0, r0, lsr r8
    a8b4:	00000000 	andeq	r0, r0, r0
    a8b8:	00072ff8 	streqd	r2, [r7], -r8
    a8bc:	000734a0 	andeq	r3, r7, r0, lsr #9
    a8c0:	00000000 	andeq	r0, r0, r0
    a8c4:	00072ff4 	streqd	r2, [r7], -r4
    a8c8:	0007202c 	andeq	r2, r7, ip, lsr #32
    a8cc:	0000a2ac 	andeq	sl, r0, ip, lsr #5
    a8d0:	0000a390 	muleq	r0, r0, r3
    a8d4:	0000a194 	muleq	r0, r4, r1
    a8d8:	000734d4 	ldreqd	r3, [r7], -r4
    a8dc:	0007250c 	andeq	r2, r7, ip, lsl #10
    a8e0:	00072fe8 	andeq	r2, r7, r8, ror #31
    a8e4:	00056f5c 	andeq	r6, r5, ip, asr pc
    a8e8:	00056f64 	andeq	r6, r5, r4, ror #30
    a8ec:	00056f70 	andeq	r6, r5, r0, ror pc
    a8f0:	00056f7c 	andeq	r6, r5, ip, ror pc
    a8f4:	00056f8c 	andeq	r6, r5, ip, lsl #31

0000a8f8 <new_heap>:
    a8f8:	e92d4070 	stmdb	sp!, {r4, r5, r6, lr}
    a8fc:	e24dd008 	sub	sp, sp, #8	; 0x8
    a900:	e1a06000 	mov	r6, r0
    a904:	e1a04001 	mov	r4, r1
    a908:	eb00134b 	bl	f63c <__getpagesize>
    a90c:	e0863004 	add	r3, r6, r4
    a910:	e3530902 	cmp	r3, #32768	; 0x8000
    a914:	e240c001 	sub	ip, r0, #1	; 0x1
    a918:	33a06902 	movcc	r6, #32768	; 0x8000
    a91c:	3a000005 	bcc	a938 <new_heap+0x40>
    a920:	e3530601 	cmp	r3, #1048576	; 0x100000
    a924:	91a06003 	movls	r6, r3
    a928:	9a000002 	bls	a938 <new_heap+0x40>
    a92c:	e3560601 	cmp	r6, #1048576	; 0x100000
    a930:	8a000026 	bhi	a9d0 <new_heap+0xd8>
    a934:	e3a06601 	mov	r6, #1048576	; 0x100000
    a938:	e3a04000 	mov	r4, #0	; 0x0
    a93c:	e086e00c 	add	lr, r6, ip
    a940:	e1ce600c 	bic	r6, lr, ip
    a944:	e59f30d4 	ldr	r3, [pc, #212]	; aa20 <new_heap+0x128>
    a948:	e3e0c000 	mvn	ip, #0	; 0x0
    a94c:	e1a00004 	mov	r0, r4
    a950:	e3a01602 	mov	r1, #2097152	; 0x200000
    a954:	e1a02004 	mov	r2, r4
    a958:	e58dc000 	str	ip, [sp]
    a95c:	e58d4004 	str	r4, [sp, #4]
    a960:	eb00133e 	bl	f660 <__mmap>
    a964:	e3700001 	cmn	r0, #1	; 0x1
    a968:	e1a0c000 	mov	ip, r0
    a96c:	0a000019 	beq	a9d8 <new_heap+0xe0>
    a970:	e240337f 	sub	r3, r0, #-67108863	; 0xfc000001
    a974:	e243363f 	sub	r3, r3, #66060288	; 0x3f00000
    a978:	e1a05a23 	mov	r5, r3, lsr #20
    a97c:	e1a05a05 	mov	r5, r5, lsl #20
    a980:	e0604005 	rsb	r4, r0, r5
    a984:	e1a01004 	mov	r1, r4
    a988:	e2644601 	rsb	r4, r4, #1048576	; 0x100000
    a98c:	eb00133b 	bl	f680 <__munmap>
    a990:	e2850601 	add	r0, r5, #1048576	; 0x100000
    a994:	e1a01004 	mov	r1, r4
    a998:	eb001338 	bl	f680 <__munmap>
    a99c:	e1a00005 	mov	r0, r5
    a9a0:	e1a01006 	mov	r1, r6
    a9a4:	e3a02003 	mov	r2, #3	; 0x3
    a9a8:	eb001338 	bl	f690 <__mprotect>
    a9ac:	e3500000 	cmp	r0, #0	; 0x0
    a9b0:	05856008 	streq	r6, [r5, #8]
    a9b4:	01a00005 	moveq	r0, r5
    a9b8:	1a000001 	bne	a9c4 <new_heap+0xcc>
    a9bc:	e28dd008 	add	sp, sp, #8	; 0x8
    a9c0:	e8bd8070 	ldmia	sp!, {r4, r5, r6, pc}
    a9c4:	e1a00005 	mov	r0, r5
    a9c8:	e3a01601 	mov	r1, #1048576	; 0x100000
    a9cc:	eb00132b 	bl	f680 <__munmap>
    a9d0:	e3a00000 	mov	r0, #0	; 0x0
    a9d4:	eafffff8 	b	a9bc <new_heap+0xc4>
    a9d8:	e59f3040 	ldr	r3, [pc, #64]	; aa20 <new_heap+0x128>
    a9dc:	e1a00004 	mov	r0, r4
    a9e0:	e3a01601 	mov	r1, #1048576	; 0x100000
    a9e4:	e1a02004 	mov	r2, r4
    a9e8:	e58dc000 	str	ip, [sp]
    a9ec:	e58d4004 	str	r4, [sp, #4]
    a9f0:	eb00131a 	bl	f660 <__mmap>
    a9f4:	e3700001 	cmn	r0, #1	; 0x1
    a9f8:	e1a05000 	mov	r5, r0
    a9fc:	0a000005 	beq	aa18 <new_heap+0x120>
    aa00:	e3c034ff 	bic	r3, r0, #-16777216	; 0xff000000
    aa04:	e3c3360f 	bic	r3, r3, #15728640	; 0xf00000
    aa08:	e3530000 	cmp	r3, #0	; 0x0
    aa0c:	0affffe2 	beq	a99c <new_heap+0xa4>
    aa10:	e3a01601 	mov	r1, #1048576	; 0x100000
    aa14:	eb001319 	bl	f680 <__munmap>
    aa18:	e1a00004 	mov	r0, r4
    aa1c:	eaffffe6 	b	a9bc <new_heap+0xc4>
    aa20:	00004022 	andeq	r4, r0, r2, lsr #32

0000aa24 <grow_heap>:
    aa24:	e92d4070 	stmdb	sp!, {r4, r5, r6, lr}
    aa28:	e24dd008 	sub	sp, sp, #8	; 0x8
    aa2c:	e1a04001 	mov	r4, r1
    aa30:	e1a06000 	mov	r6, r0
    aa34:	eb001300 	bl	f63c <__getpagesize>
    aa38:	e3540000 	cmp	r4, #0	; 0x0
    aa3c:	e2400001 	sub	r0, r0, #1	; 0x1
    aa40:	ba000013 	blt	aa94 <grow_heap+0x70>
    aa44:	e0843000 	add	r3, r4, r0
    aa48:	e5962008 	ldr	r2, [r6, #8]
    aa4c:	e1c34000 	bic	r4, r3, r0
    aa50:	e0825004 	add	r5, r2, r4
    aa54:	e3550601 	cmp	r5, #1048576	; 0x100000
    aa58:	ca00000b 	bgt	aa8c <grow_heap+0x68>
    aa5c:	e0860002 	add	r0, r6, r2
    aa60:	e1a01004 	mov	r1, r4
    aa64:	e3a02003 	mov	r2, #3	; 0x3
    aa68:	eb001308 	bl	f690 <__mprotect>
    aa6c:	e3500000 	cmp	r0, #0	; 0x0
    aa70:	1a000003 	bne	aa84 <grow_heap+0x60>
    aa74:	e5865008 	str	r5, [r6, #8]
    aa78:	e3a00000 	mov	r0, #0	; 0x0
    aa7c:	e28dd008 	add	sp, sp, #8	; 0x8
    aa80:	e8bd8070 	ldmia	sp!, {r4, r5, r6, pc}
    aa84:	e3e00001 	mvn	r0, #1	; 0x1
    aa88:	eafffffb 	b	aa7c <grow_heap+0x58>
    aa8c:	e3e00000 	mvn	r0, #0	; 0x0
    aa90:	eafffff9 	b	aa7c <grow_heap+0x58>
    aa94:	e5963008 	ldr	r3, [r6, #8]
    aa98:	e0835004 	add	r5, r3, r4
    aa9c:	e355000f 	cmp	r5, #15	; 0xf
    aaa0:	dafffff9 	ble	aa8c <grow_heap+0x68>
    aaa4:	e2641000 	rsb	r1, r4, #0	; 0x0
    aaa8:	e3a04000 	mov	r4, #0	; 0x0
    aaac:	e3e0c000 	mvn	ip, #0	; 0x0
    aab0:	e0860005 	add	r0, r6, r5
    aab4:	e1a02004 	mov	r2, r4
    aab8:	e3a03032 	mov	r3, #50	; 0x32
    aabc:	e58dc000 	str	ip, [sp]
    aac0:	e58d4004 	str	r4, [sp, #4]
    aac4:	eb0012e5 	bl	f660 <__mmap>
    aac8:	e3700001 	cmn	r0, #1	; 0x1
    aacc:	1affffe8 	bne	aa74 <grow_heap+0x50>
    aad0:	eaffffeb 	b	aa84 <grow_heap+0x60>

0000aad4 <heap_trim>:
    aad4:	e92d4ff0 	stmdb	sp!, {r4, r5, r6, r7, r8, r9, sl, fp, lr}
    aad8:	e5908000 	ldr	r8, [r0]
    aadc:	e2803010 	add	r3, r0, #16	; 0x10
    aae0:	e5987054 	ldr	r7, [r8, #84]
    aae4:	e1a06000 	mov	r6, r0
    aae8:	e1570003 	cmp	r7, r3
    aaec:	e59f3140 	ldr	r3, [pc, #320]	; ac34 <heap_trim+0x160>
    aaf0:	e1a0b001 	mov	fp, r1
    aaf4:	e593a018 	ldr	sl, [r3, #24]
    aaf8:	0a00001d 	beq	ab74 <heap_trim+0xa0>
    aafc:	e5973004 	ldr	r3, [r7, #4]
    ab00:	e1a0100a 	mov	r1, sl
    ab04:	e3c35007 	bic	r5, r3, #7	; 0x7
    ab08:	e06b0005 	rsb	r0, fp, r5
    ab0c:	e080000a 	add	r0, r0, sl
    ab10:	e2400011 	sub	r0, r0, #17	; 0x11
    ab14:	eb012bf9 	bl	55b00 <__aeabi_uidiv>
    ab18:	e2400001 	sub	r0, r0, #1	; 0x1
    ab1c:	e004009a 	mul	r4, sl, r0
    ab20:	e154000a 	cmp	r4, sl
    ab24:	aa000001 	bge	ab30 <heap_trim+0x5c>
    ab28:	e3a00000 	mov	r0, #0	; 0x0
    ab2c:	e8bd8ff0 	ldmia	sp!, {r4, r5, r6, r7, r8, r9, sl, fp, pc}
    ab30:	e2641000 	rsb	r1, r4, #0	; 0x0
    ab34:	e1a00006 	mov	r0, r6
    ab38:	ebffffb9 	bl	aa24 <grow_heap>
    ab3c:	e3500000 	cmp	r0, #0	; 0x0
    ab40:	1afffff8 	bne	ab28 <heap_trim+0x54>
    ab44:	e59f00ec 	ldr	r0, [pc, #236]	; ac38 <heap_trim+0x164>
    ab48:	e5983470 	ldr	r3, [r8, #1136]
    ab4c:	e5902000 	ldr	r2, [r0]
    ab50:	e0641005 	rsb	r1, r4, r5
    ab54:	e0642002 	rsb	r2, r4, r2
    ab58:	e0643003 	rsb	r3, r4, r3
    ab5c:	e3811001 	orr	r1, r1, #1	; 0x1
    ab60:	e5802000 	str	r2, [r0]
    ab64:	e3a00001 	mov	r0, #1	; 0x1
    ab68:	e5883470 	str	r3, [r8, #1136]
    ab6c:	e5871004 	str	r1, [r7, #4]
    ab70:	e8bd8ff0 	ldmia	sp!, {r4, r5, r6, r7, r8, r9, sl, fp, pc}
    ab74:	e081900a 	add	r9, r1, sl
    ab78:	e596e004 	ldr	lr, [r6, #4]
    ab7c:	e1a00006 	mov	r0, r6
    ab80:	e59ec008 	ldr	ip, [lr, #8]
    ab84:	e3a01601 	mov	r1, #1048576	; 0x100000
    ab88:	e08e300c 	add	r3, lr, ip
    ab8c:	e5132008 	ldr	r2, [r3, #-8]
    ab90:	e2434008 	sub	r4, r3, #8	; 0x8
    ab94:	e0624004 	rsb	r4, r2, r4
    ab98:	e5943004 	ldr	r3, [r4, #4]
    ab9c:	e2892010 	add	r2, r9, #16	; 0x10
    aba0:	e3130001 	tst	r3, #1	; 0x1
    aba4:	e3c33007 	bic	r3, r3, #7	; 0x7
    aba8:	e2835008 	add	r5, r3, #8	; 0x8
    abac:	05943000 	ldreq	r3, [r4]
    abb0:	00855003 	addeq	r5, r5, r3
    abb4:	e06c3005 	rsb	r3, ip, r5
    abb8:	e2833601 	add	r3, r3, #1048576	; 0x100000
    abbc:	e1530002 	cmp	r3, r2
    abc0:	3affffcd 	bcc	aafc <heap_trim+0x28>
    abc4:	e596c008 	ldr	ip, [r6, #8]
    abc8:	e5983470 	ldr	r3, [r8, #1136]
    abcc:	e59f7064 	ldr	r7, [pc, #100]	; ac38 <heap_trim+0x164>
    abd0:	e06c3003 	rsb	r3, ip, r3
    abd4:	e5883470 	str	r3, [r8, #1136]
    abd8:	e5972000 	ldr	r2, [r7]
    abdc:	e596c008 	ldr	ip, [r6, #8]
    abe0:	e1a0600e 	mov	r6, lr
    abe4:	e06c2002 	rsb	r2, ip, r2
    abe8:	e5872000 	str	r2, [r7]
    abec:	eb0012a3 	bl	f680 <__munmap>
    abf0:	e5943004 	ldr	r3, [r4, #4]
    abf4:	e2861010 	add	r1, r6, #16	; 0x10
    abf8:	e3130001 	tst	r3, #1	; 0x1
    abfc:	e3850001 	orr	r0, r5, #1	; 0x1
    ac00:	1a000005 	bne	ac1c <heap_trim+0x148>
    ac04:	e5943000 	ldr	r3, [r4]
    ac08:	e0634004 	rsb	r4, r3, r4
    ac0c:	e5942008 	ldr	r2, [r4, #8]
    ac10:	e594300c 	ldr	r3, [r4, #12]
    ac14:	e5832008 	str	r2, [r3, #8]
    ac18:	e582300c 	str	r3, [r2, #12]
    ac1c:	e1540001 	cmp	r4, r1
    ac20:	e1a07004 	mov	r7, r4
    ac24:	e5840004 	str	r0, [r4, #4]
    ac28:	e5884054 	str	r4, [r8, #84]
    ac2c:	0affffd1 	beq	ab78 <heap_trim+0xa4>
    ac30:	eaffffb1 	b	aafc <heap_trim+0x28>
    ac34:	00073470 	andeq	r3, r7, r0, ror r4
    ac38:	000734b8 	streqh	r3, [r7], -r8

0000ac3c <arena_get2>:
    ac3c:	e3500000 	cmp	r0, #0	; 0x0
    ac40:	e92d41f0 	stmdb	sp!, {r4, r5, r6, r7, r8, lr}
    ac44:	059f41c8 	ldreq	r4, [pc, #456]	; ae14 <arena_get2+0x1d8>
    ac48:	e1a05000 	mov	r5, r0
    ac4c:	e1a08001 	mov	r8, r1
    ac50:	059f61c0 	ldreq	r6, [pc, #448]	; ae18 <arena_get2+0x1dc>
    ac54:	01a05004 	moveq	r5, r4
    ac58:	0a000003 	beq	ac6c <arena_get2+0x30>
    ac5c:	e590446c 	ldr	r4, [r0, #1132]
    ac60:	e3540000 	cmp	r4, #0	; 0x0
    ac64:	159f61ac 	ldrne	r6, [pc, #428]	; ae18 <arena_get2+0x1dc>
    ac68:	0a00005f 	beq	adec <arena_get2+0x1b0>
    ac6c:	e3560000 	cmp	r6, #0	; 0x0
    ac70:	e1a00004 	mov	r0, r4
    ac74:	0a000056 	beq	add4 <arena_get2+0x198>
    ac78:	e1a0e00f 	mov	lr, pc
    ac7c:	e1a0f006 	mov	pc, r6
    ac80:	e3500000 	cmp	r0, #0	; 0x0
    ac84:	0a000047 	beq	ada8 <arena_get2+0x16c>
    ac88:	e594446c 	ldr	r4, [r4, #1132]
    ac8c:	e1540005 	cmp	r4, r5
    ac90:	1afffff5 	bne	ac6c <arena_get2+0x30>
    ac94:	e59f7180 	ldr	r7, [pc, #384]	; ae1c <arena_get2+0x1e0>
    ac98:	e3560000 	cmp	r6, #0	; 0x0
    ac9c:	e1a04005 	mov	r4, r5
    aca0:	e1a00007 	mov	r0, r7
    aca4:	0a000038 	beq	ad8c <arena_get2+0x150>
    aca8:	e1a0e00f 	mov	lr, pc
    acac:	e1a0f006 	mov	pc, r6
    acb0:	e3500000 	cmp	r0, #0	; 0x0
    acb4:	1affffec 	bne	ac6c <arena_get2+0x30>
    acb8:	e59f6160 	ldr	r6, [pc, #352]	; ae20 <arena_get2+0x1e4>
    acbc:	e3560000 	cmp	r6, #0	; 0x0
    acc0:	05876000 	streq	r6, [r7]
    acc4:	159f0150 	ldrne	r0, [pc, #336]	; ae1c <arena_get2+0x1e0>
    acc8:	11a0e00f 	movne	lr, pc
    accc:	11a0f006 	movne	pc, r6
    acd0:	e1a00008 	mov	r0, r8
    acd4:	eb000056 	bl	ae34 <_int_new_arena>
    acd8:	e3500000 	cmp	r0, #0	; 0x0
    acdc:	e1a04000 	mov	r4, r0
    ace0:	0a000028 	beq	ad88 <arena_get2+0x14c>
    ace4:	e59f3138 	ldr	r3, [pc, #312]	; ae24 <arena_get2+0x1e8>
    ace8:	e3530000 	cmp	r3, #0	; 0x0
    acec:	059f3134 	ldreq	r3, [pc, #308]	; ae28 <arena_get2+0x1ec>
    acf0:	05830000 	streq	r0, [r3]
    acf4:	0a000003 	beq	ad08 <arena_get2+0xcc>
    acf8:	e1a01000 	mov	r1, r0
    acfc:	e3a00000 	mov	r0, #0	; 0x0
    ad00:	e1a0e00f 	mov	lr, pc
    ad04:	e1a0f003 	mov	pc, r3
    ad08:	e59f311c 	ldr	r3, [pc, #284]	; ae2c <arena_get2+0x1f0>
    ad0c:	e3530000 	cmp	r3, #0	; 0x0
    ad10:	05843000 	streq	r3, [r4]
    ad14:	0a000003 	beq	ad28 <arena_get2+0xec>
    ad18:	e1a00004 	mov	r0, r4
    ad1c:	e3a01000 	mov	r1, #0	; 0x0
    ad20:	e1a0e00f 	mov	lr, pc
    ad24:	e1a0f003 	mov	pc, r3
    ad28:	e59f5100 	ldr	r5, [pc, #256]	; ae30 <arena_get2+0x1f4>
    ad2c:	e3550000 	cmp	r5, #0	; 0x0
    ad30:	03a03001 	moveq	r3, #1	; 0x1
    ad34:	05843000 	streq	r3, [r4]
    ad38:	11a00004 	movne	r0, r4
    ad3c:	11a0e00f 	movne	lr, pc
    ad40:	11a0f005 	movne	pc, r5
    ad44:	e3550000 	cmp	r5, #0	; 0x0
    ad48:	03a03001 	moveq	r3, #1	; 0x1
    ad4c:	05873000 	streq	r3, [r7]
    ad50:	159f00c4 	ldrne	r0, [pc, #196]	; ae1c <arena_get2+0x1e0>
    ad54:	11a0e00f 	movne	lr, pc
    ad58:	11a0f005 	movne	pc, r5
    ad5c:	e59f20b0 	ldr	r2, [pc, #176]	; ae14 <arena_get2+0x1d8>
    ad60:	e3560000 	cmp	r6, #0	; 0x0
    ad64:	e592346c 	ldr	r3, [r2, #1132]
    ad68:	e584346c 	str	r3, [r4, #1132]
    ad6c:	059f30ac 	ldreq	r3, [pc, #172]	; ae20 <arena_get2+0x1e4>
    ad70:	e582446c 	str	r4, [r2, #1132]
    ad74:	05873000 	streq	r3, [r7]
    ad78:	159f009c 	ldrne	r0, [pc, #156]	; ae1c <arena_get2+0x1e0>
    ad7c:	11a0e00f 	movne	lr, pc
    ad80:	11a0f006 	movne	pc, r6
    ad84:	e1a00004 	mov	r0, r4
    ad88:	e8bd81f0 	ldmia	sp!, {r4, r5, r6, r7, r8, pc}
    ad8c:	e59f7088 	ldr	r7, [pc, #136]	; ae1c <arena_get2+0x1e0>
    ad90:	e5973000 	ldr	r3, [r7]
    ad94:	e3530000 	cmp	r3, #0	; 0x0
    ad98:	1affffb3 	bne	ac6c <arena_get2+0x30>
    ad9c:	e3a03001 	mov	r3, #1	; 0x1
    ada0:	e5873000 	str	r3, [r7]
    ada4:	eaffffc3 	b	acb8 <arena_get2+0x7c>
    ada8:	e59f3074 	ldr	r3, [pc, #116]	; ae24 <arena_get2+0x1e8>
    adac:	e3530000 	cmp	r3, #0	; 0x0
    adb0:	059f3070 	ldreq	r3, [pc, #112]	; ae28 <arena_get2+0x1ec>
    adb4:	05834000 	streq	r4, [r3]
    adb8:	0a000003 	beq	adcc <arena_get2+0x190>
    adbc:	e1a01004 	mov	r1, r4
    adc0:	e3a00000 	mov	r0, #0	; 0x0
    adc4:	e1a0e00f 	mov	lr, pc
    adc8:	e1a0f003 	mov	pc, r3
    adcc:	e1a00004 	mov	r0, r4
    add0:	e8bd81f0 	ldmia	sp!, {r4, r5, r6, r7, r8, pc}
    add4:	e5943000 	ldr	r3, [r4]
    add8:	e3530000 	cmp	r3, #0	; 0x0
    addc:	1affffa9 	bne	ac88 <arena_get2+0x4c>
    ade0:	e3a03001 	mov	r3, #1	; 0x1
    ade4:	e5843000 	str	r3, [r4]
    ade8:	eaffffee 	b	ada8 <arena_get2+0x16c>
    adec:	e59f303c 	ldr	r3, [pc, #60]	; ae30 <arena_get2+0x1f4>
    adf0:	e3530000 	cmp	r3, #0	; 0x0
    adf4:	059f3018 	ldreq	r3, [pc, #24]	; ae14 <arena_get2+0x1d8>
    adf8:	03a02001 	moveq	r2, #1	; 0x1
    adfc:	05832000 	streq	r2, [r3]
    ae00:	159f000c 	ldrne	r0, [pc, #12]	; ae14 <arena_get2+0x1d8>
    ae04:	11a0e00f 	movne	lr, pc
    ae08:	11a0f003 	movne	pc, r3
    ae0c:	e59f0000 	ldr	r0, [pc, #0]	; ae14 <arena_get2+0x1d8>
    ae10:	e8bd81f0 	ldmia	sp!, {r4, r5, r6, r7, r8, pc}
    ae14:	00072ff8 	streqd	r2, [r7], -r8
    ae18:	00000000 	andeq	r0, r0, r0
    ae1c:	000734a0 	andeq	r3, r7, r0, lsr #9
	...
    ae28:	00072ff4 	streqd	r2, [r7], -r4
	...

0000ae34 <_int_new_arena>:
    ae34:	e92d4030 	stmdb	sp!, {r4, r5, lr}
    ae38:	e59f5090 	ldr	r5, [pc, #144]	; aed0 <_int_new_arena+0x9c>
    ae3c:	e2800e49 	add	r0, r0, #1168	; 0x490
    ae40:	e5951004 	ldr	r1, [r5, #4]
    ae44:	ebfffeab 	bl	a8f8 <new_heap>
    ae48:	e1a04000 	mov	r4, r0
    ae4c:	e3540000 	cmp	r4, #0	; 0x0
    ae50:	e3a00e49 	mov	r0, #1168	; 0x490
    ae54:	0a000017 	beq	aeb8 <_int_new_arena+0x84>
    ae58:	e2845010 	add	r5, r4, #16	; 0x10
    ae5c:	e1a00005 	mov	r0, r5
    ae60:	e5845000 	str	r5, [r4]
    ae64:	ebfffc49 	bl	9f90 <malloc_init_state>
    ae68:	e5943008 	ldr	r3, [r4, #8]
    ae6c:	e59f1060 	ldr	r1, [pc, #96]	; aed4 <_int_new_arena+0xa0>
    ae70:	e5853470 	str	r3, [r5, #1136]
    ae74:	e5853474 	str	r3, [r5, #1140]
    ae78:	e5942008 	ldr	r2, [r4, #8]
    ae7c:	e5913000 	ldr	r3, [r1]
    ae80:	e284cd12 	add	ip, r4, #1152	; 0x480
    ae84:	e28cc008 	add	ip, ip, #8	; 0x8
    ae88:	e0833002 	add	r3, r3, r2
    ae8c:	e084e002 	add	lr, r4, r2
    ae90:	e2142007 	ands	r2, r4, #7	; 0x7
    ae94:	e5813000 	str	r3, [r1]
    ae98:	e062300c 	rsb	r3, r2, ip
    ae9c:	1283c008 	addne	ip, r3, #8	; 0x8
    aea0:	e06c300e 	rsb	r3, ip, lr
    aea4:	e3833001 	orr	r3, r3, #1	; 0x1
    aea8:	e1a00005 	mov	r0, r5
    aeac:	e585c054 	str	ip, [r5, #84]
    aeb0:	e58c3004 	str	r3, [ip, #4]
    aeb4:	e8bd8030 	ldmia	sp!, {r4, r5, pc}
    aeb8:	e5951004 	ldr	r1, [r5, #4]
    aebc:	ebfffe8d 	bl	a8f8 <new_heap>
    aec0:	e3500000 	cmp	r0, #0	; 0x0
    aec4:	e1a04000 	mov	r4, r0
    aec8:	1affffe2 	bne	ae58 <_int_new_arena+0x24>
    aecc:	eafffff8 	b	aeb4 <_int_new_arena+0x80>
    aed0:	00073470 	andeq	r3, r7, r0, ror r4
    aed4:	000734b8 	streqh	r3, [r7], -r8

0000aed8 <malloc_hook_ini>:
    aed8:	e59f301c 	ldr	r3, [pc, #28]	; aefc <malloc_hook_ini+0x24>
    aedc:	e3a02000 	mov	r2, #0	; 0x0
    aee0:	e92d4010 	stmdb	sp!, {r4, lr}
    aee4:	e5832000 	str	r2, [r3]
    aee8:	e1a04000 	mov	r4, r0
    aeec:	ebfffd91 	bl	a538 <ptmalloc_init>
    aef0:	e1a00004 	mov	r0, r4
    aef4:	e8bd4010 	ldmia	sp!, {r4, lr}
    aef8:	ea000540 	b	c400 <__libc_malloc>
    aefc:	000724c0 	andeq	r2, r7, r0, asr #9

0000af00 <realloc_hook_ini>:
    af00:	e59f302c 	ldr	r3, [pc, #44]	; af34 <realloc_hook_ini+0x34>
    af04:	e59f202c 	ldr	r2, [pc, #44]	; af38 <realloc_hook_ini+0x38>
    af08:	e92d4030 	stmdb	sp!, {r4, r5, lr}
    af0c:	e1a05001 	mov	r5, r1
    af10:	e3a01000 	mov	r1, #0	; 0x0
    af14:	e5831000 	str	r1, [r3]
    af18:	e5821000 	str	r1, [r2]
    af1c:	e1a04000 	mov	r4, r0
    af20:	ebfffd84 	bl	a538 <ptmalloc_init>
    af24:	e1a00004 	mov	r0, r4
    af28:	e1a01005 	mov	r1, r5
    af2c:	e8bd4030 	ldmia	sp!, {r4, r5, lr}
    af30:	ea0005cd 	b	c66c <__libc_realloc>
    af34:	000724c4 	andeq	r2, r7, r4, asr #9
    af38:	000724c0 	andeq	r2, r7, r0, asr #9

0000af3c <memalign_hook_ini>:
    af3c:	e59f3024 	ldr	r3, [pc, #36]	; af68 <memalign_hook_ini+0x2c>
    af40:	e3a02000 	mov	r2, #0	; 0x0
    af44:	e92d4030 	stmdb	sp!, {r4, r5, lr}
    af48:	e5832000 	str	r2, [r3]
    af4c:	e1a04000 	mov	r4, r0
    af50:	e1a05001 	mov	r5, r1
    af54:	ebfffd77 	bl	a538 <ptmalloc_init>
    af58:	e1a00004 	mov	r0, r4
    af5c:	e1a01005 	mov	r1, r5
    af60:	e8bd4030 	ldmia	sp!, {r4, r5, lr}
    af64:	ea00062a 	b	c814 <__libc_memalign>
    af68:	000724c8 	andeq	r2, r7, r8, asr #9

0000af6c <__malloc_check_init>:
    af6c:	e92d4030 	stmdb	sp!, {r4, r5, lr}
    af70:	e59f2080 	ldr	r2, [pc, #128]	; aff8 <__malloc_check_init+0x8c>
    af74:	e3a05001 	mov	r5, #1	; 0x1
    af78:	e5923000 	ldr	r3, [r2]
    af7c:	e3530000 	cmp	r3, #0	; 0x0
    af80:	0a000002 	beq	af90 <__malloc_check_init+0x24>
    af84:	e3a03000 	mov	r3, #0	; 0x0
    af88:	e5823000 	str	r3, [r2]
    af8c:	e8bd8030 	ldmia	sp!, {r4, r5, pc}
    af90:	e59f3064 	ldr	r3, [pc, #100]	; affc <__malloc_check_init+0x90>
    af94:	e59fc064 	ldr	ip, [pc, #100]	; b000 <__malloc_check_init+0x94>
    af98:	e5934000 	ldr	r4, [r3]
    af9c:	e59f3060 	ldr	r3, [pc, #96]	; b004 <__malloc_check_init+0x98>
    afa0:	e59fe060 	ldr	lr, [pc, #96]	; b008 <__malloc_check_init+0x9c>
    afa4:	e583c000 	str	ip, [r3]
    afa8:	e59f305c 	ldr	r3, [pc, #92]	; b00c <__malloc_check_init+0xa0>
    afac:	e59fc05c 	ldr	ip, [pc, #92]	; b010 <__malloc_check_init+0xa4>
    afb0:	e583e000 	str	lr, [r3]
    afb4:	e59f3058 	ldr	r3, [pc, #88]	; b014 <__malloc_check_init+0xa8>
    afb8:	e59fe058 	ldr	lr, [pc, #88]	; b018 <__malloc_check_init+0xac>
    afbc:	e583c000 	str	ip, [r3]
    afc0:	e59f3054 	ldr	r3, [pc, #84]	; b01c <__malloc_check_init+0xb0>
    afc4:	e59fc054 	ldr	ip, [pc, #84]	; b020 <__malloc_check_init+0xb4>
    afc8:	e3140001 	tst	r4, #1	; 0x1
    afcc:	e1a01005 	mov	r1, r5
    afd0:	e59f004c 	ldr	r0, [pc, #76]	; b024 <__malloc_check_init+0xb8>
    afd4:	e3a0201e 	mov	r2, #30	; 0x1e
    afd8:	e583e000 	str	lr, [r3]
    afdc:	e58c5000 	str	r5, [ip]
    afe0:	1a000000 	bne	afe8 <__malloc_check_init+0x7c>
    afe4:	e8bd8030 	ldmia	sp!, {r4, r5, pc}
    afe8:	e59fc038 	ldr	ip, [pc, #56]	; b028 <__malloc_check_init+0xbc>
    afec:	e59c3000 	ldr	r3, [ip]
    aff0:	e8bd4030 	ldmia	sp!, {r4, r5, lr}
    aff4:	ea001a4c 	b	1192c <_IO_fwrite>
    aff8:	000734d0 	ldreqd	r3, [r7], -r0
    affc:	000724d0 	ldreqd	r2, [r7], -r0
    b000:	0000b3a8 	andeq	fp, r0, r8, lsr #7
    b004:	000724c0 	andeq	r2, r7, r0, asr #9
    b008:	0000b42c 	andeq	fp, r0, ip, lsr #8
    b00c:	00072fec 	andeq	r2, r7, ip, ror #31
    b010:	0000b544 	andeq	fp, r0, r4, asr #10
    b014:	000724c4 	andeq	r2, r7, r4, asr #9
    b018:	0000b73c 	andeq	fp, r0, ip, lsr r7
    b01c:	000724c8 	andeq	r2, r7, r8, asr #9
    b020:	000734cc 	andeq	r3, r7, ip, asr #9
    b024:	00056f9c 	muleq	r5, ip, pc
    b028:	000724b8 	streqh	r2, [r7], -r8

0000b02c <mem2mem_check>:
    b02c:	e3500000 	cmp	r0, #0	; 0x0
    b030:	e52de004 	str	lr, [sp, #-4]!
    b034:	049df004 	ldreq	pc, [sp], #4
    b038:	e240c008 	sub	ip, r0, #8	; 0x8
    b03c:	e59c3004 	ldr	r3, [ip, #4]
    b040:	e3130002 	tst	r3, #2	; 0x2
    b044:	e3c33007 	bic	r3, r3, #7	; 0x7
    b048:	12433009 	subne	r3, r3, #9	; 0x9
    b04c:	02433005 	subeq	r3, r3, #5	; 0x5
    b050:	e1530001 	cmp	r3, r1
    b054:	9a000008 	bls	b07c <mem2mem_check+0x50>
    b058:	e3e0e000 	mvn	lr, #0	; 0x0
    b05c:	e0612003 	rsb	r2, r1, r3
    b060:	e35200ff 	cmp	r2, #255	; 0xff
    b064:	97c02003 	strlsb	r2, [r0, r3]
    b068:	9a000003 	bls	b07c <mem2mem_check+0x50>
    b06c:	e7c0e003 	strb	lr, [r0, r3]
    b070:	e24330ff 	sub	r3, r3, #255	; 0xff
    b074:	e1530001 	cmp	r3, r1
    b078:	8afffff7 	bhi	b05c <mem2mem_check+0x30>
    b07c:	e1a035ac 	mov	r3, ip, lsr #11
    b080:	e02331ac 	eor	r3, r3, ip, lsr #3
    b084:	e7c03001 	strb	r3, [r0, r1]
    b088:	e49df004 	ldr	pc, [sp], #4

0000b08c <mem2chunk_check>:
    b08c:	e3100007 	tst	r0, #7	; 0x7
    b090:	e92d4030 	stmdb	sp!, {r4, r5, lr}
    b094:	e1a04000 	mov	r4, r0
    b098:	1a000022 	bne	b128 <mem2chunk_check+0x9c>
    b09c:	e59f31b4 	ldr	r3, [pc, #436]	; b258 <mem2chunk_check+0x1cc>
    b0a0:	e2405008 	sub	r5, r0, #8	; 0x8
    b0a4:	e5931028 	ldr	r1, [r3, #40]
    b0a8:	e1550001 	cmp	r5, r1
    b0ac:	3a000035 	bcc	b188 <mem2chunk_check+0xfc>
    b0b0:	e59f31a4 	ldr	r3, [pc, #420]	; b25c <mem2chunk_check+0x1d0>
    b0b4:	e5932470 	ldr	r2, [r3, #1136]
    b0b8:	e0813002 	add	r3, r1, r2
    b0bc:	e1550003 	cmp	r5, r3
    b0c0:	2a000030 	bcs	b188 <mem2chunk_check+0xfc>
    b0c4:	e5952004 	ldr	r2, [r5, #4]
    b0c8:	e3120002 	tst	r2, #2	; 0x2
    b0cc:	1a000015 	bne	b128 <mem2chunk_check+0x9c>
    b0d0:	e3c2c007 	bic	ip, r2, #7	; 0x7
    b0d4:	e085000c 	add	r0, r5, ip
    b0d8:	e1500003 	cmp	r0, r3
    b0dc:	2a000011 	bcs	b128 <mem2chunk_check+0x9c>
    b0e0:	e35c000f 	cmp	ip, #15	; 0xf
    b0e4:	9a00000f 	bls	b128 <mem2chunk_check+0x9c>
    b0e8:	e5903004 	ldr	r3, [r0, #4]
    b0ec:	e3130001 	tst	r3, #1	; 0x1
    b0f0:	0a00000c 	beq	b128 <mem2chunk_check+0x9c>
    b0f4:	e3120001 	tst	r2, #1	; 0x1
    b0f8:	1a00000c 	bne	b130 <mem2chunk_check+0xa4>
    b0fc:	e5140008 	ldr	r0, [r4, #-8]
    b100:	e3100007 	tst	r0, #7	; 0x7
    b104:	1a000007 	bne	b128 <mem2chunk_check+0x9c>
    b108:	e0600005 	rsb	r0, r0, r5
    b10c:	e1500001 	cmp	r0, r1
    b110:	ba000004 	blt	b128 <mem2chunk_check+0x9c>
    b114:	e5903004 	ldr	r3, [r0, #4]
    b118:	e3c33007 	bic	r3, r3, #7	; 0x7
    b11c:	e0803003 	add	r3, r0, r3
    b120:	e1530005 	cmp	r3, r5
    b124:	0a000001 	beq	b130 <mem2chunk_check+0xa4>
    b128:	e3a00000 	mov	r0, #0	; 0x0
    b12c:	e8bd8030 	ldmia	sp!, {r4, r5, pc}
    b130:	e28cc003 	add	ip, ip, #3	; 0x3
    b134:	e1a035a5 	mov	r3, r5, lsr #11
    b138:	e7d5100c 	ldrb	r1, [r5, ip]
    b13c:	e02331a5 	eor	r3, r3, r5, lsr #3
    b140:	e20330ff 	and	r3, r3, #255	; 0xff
    b144:	e20120ff 	and	r2, r1, #255	; 0xff
    b148:	e1520003 	cmp	r2, r3
    b14c:	0a000009 	beq	b178 <mem2chunk_check+0xec>
    b150:	e3520000 	cmp	r2, #0	; 0x0
    b154:	e2821008 	add	r1, r2, #8	; 0x8
    b158:	0afffff2 	beq	b128 <mem2chunk_check+0x9c>
    b15c:	e15c0001 	cmp	ip, r1
    b160:	e062c00c 	rsb	ip, r2, ip
    b164:	3affffef 	bcc	b128 <mem2chunk_check+0x9c>
    b168:	e7d5100c 	ldrb	r1, [r5, ip]
    b16c:	e20120ff 	and	r2, r1, #255	; 0xff
    b170:	e1520003 	cmp	r2, r3
    b174:	1afffff5 	bne	b150 <mem2chunk_check+0xc4>
    b178:	e1e03001 	mvn	r3, r1
    b17c:	e1a00005 	mov	r0, r5
    b180:	e7c5300c 	strb	r3, [r5, ip]
    b184:	e8bd8030 	ldmia	sp!, {r4, r5, pc}
    b188:	eb00112b 	bl	f63c <__getpagesize>
    b18c:	e2401001 	sub	r1, r0, #1	; 0x1
    b190:	e0040001 	and	r0, r4, r1
    b194:	e3500008 	cmp	r0, #8	; 0x8
    b198:	13500000 	cmpne	r0, #0	; 0x0
    b19c:	0a00000e 	beq	b1dc <mem2chunk_check+0x150>
    b1a0:	e3500010 	cmp	r0, #16	; 0x10
    b1a4:	13500020 	cmpne	r0, #32	; 0x20
    b1a8:	0a00000b 	beq	b1dc <mem2chunk_check+0x150>
    b1ac:	e3500040 	cmp	r0, #64	; 0x40
    b1b0:	13500080 	cmpne	r0, #128	; 0x80
    b1b4:	0a000008 	beq	b1dc <mem2chunk_check+0x150>
    b1b8:	e3500c01 	cmp	r0, #256	; 0x100
    b1bc:	13500c02 	cmpne	r0, #512	; 0x200
    b1c0:	0a000005 	beq	b1dc <mem2chunk_check+0x150>
    b1c4:	e3500b01 	cmp	r0, #1024	; 0x400
    b1c8:	13500b02 	cmpne	r0, #2048	; 0x800
    b1cc:	0a000002 	beq	b1dc <mem2chunk_check+0x150>
    b1d0:	e3500a01 	cmp	r0, #4096	; 0x1000
    b1d4:	13500a02 	cmpne	r0, #8192	; 0x2000
    b1d8:	3affffd2 	bcc	b128 <mem2chunk_check+0x9c>
    b1dc:	e5952004 	ldr	r2, [r5, #4]
    b1e0:	e2023003 	and	r3, r2, #3	; 0x3
    b1e4:	e3530002 	cmp	r3, #2	; 0x2
    b1e8:	1affffce 	bne	b128 <mem2chunk_check+0x9c>
    b1ec:	e5950000 	ldr	r0, [r5]
    b1f0:	e0603005 	rsb	r3, r0, r5
    b1f4:	e1130001 	tst	r3, r1
    b1f8:	1affffca 	bne	b128 <mem2chunk_check+0x9c>
    b1fc:	e3c2c007 	bic	ip, r2, #7	; 0x7
    b200:	e080300c 	add	r3, r0, ip
    b204:	e1130001 	tst	r3, r1
    b208:	1affffc6 	bne	b128 <mem2chunk_check+0x9c>
    b20c:	e24cc001 	sub	ip, ip, #1	; 0x1
    b210:	e1a035a5 	mov	r3, r5, lsr #11
    b214:	e7d5100c 	ldrb	r1, [r5, ip]
    b218:	e02331a5 	eor	r3, r3, r5, lsr #3
    b21c:	e20330ff 	and	r3, r3, #255	; 0xff
    b220:	e20120ff 	and	r2, r1, #255	; 0xff
    b224:	e1520003 	cmp	r2, r3
    b228:	0affffd2 	beq	b178 <mem2chunk_check+0xec>
    b22c:	e3520000 	cmp	r2, #0	; 0x0
    b230:	e2821008 	add	r1, r2, #8	; 0x8
    b234:	0affffbb 	beq	b128 <mem2chunk_check+0x9c>
    b238:	e15c0001 	cmp	ip, r1
    b23c:	e062c00c 	rsb	ip, r2, ip
    b240:	3affffb8 	bcc	b128 <mem2chunk_check+0x9c>
    b244:	e7d5100c 	ldrb	r1, [r5, ip]
    b248:	e20120ff 	and	r2, r1, #255	; 0xff
    b24c:	e1520003 	cmp	r2, r3
    b250:	1afffff5 	bne	b22c <mem2chunk_check+0x1a0>
    b254:	eaffffc7 	b	b178 <mem2chunk_check+0xec>
    b258:	00073470 	andeq	r3, r7, r0, ror r4
    b25c:	00072ff8 	streqd	r2, [r7], -r8

0000b260 <top_check>:
    b260:	e92d4ff0 	stmdb	sp!, {r4, r5, r6, r7, r8, r9, sl, fp, lr}
    b264:	eb0010f4 	bl	f63c <__getpagesize>
    b268:	e59f811c 	ldr	r8, [pc, #284]	; b38c <top_check+0x12c>
    b26c:	e59fa11c 	ldr	sl, [pc, #284]	; b390 <top_check+0x130>
    b270:	e5984054 	ldr	r4, [r8, #84]
    b274:	e59a2028 	ldr	r2, [sl, #40]
    b278:	e5943004 	ldr	r3, [r4, #4]
    b27c:	e5981470 	ldr	r1, [r8, #1136]
    b280:	e3c33007 	bic	r3, r3, #7	; 0x7
    b284:	e0822001 	add	r2, r2, r1
    b288:	e0843003 	add	r3, r4, r3
    b28c:	e1530002 	cmp	r3, r2
    b290:	e1a07000 	mov	r7, r0
    b294:	0a000039 	beq	b380 <top_check+0x120>
    b298:	e288305c 	add	r3, r8, #92	; 0x5c
    b29c:	e1540003 	cmp	r4, r3
    b2a0:	0a000036 	beq	b380 <top_check+0x120>
    b2a4:	e59f40e8 	ldr	r4, [pc, #232]	; b394 <top_check+0x134>
    b2a8:	e5943000 	ldr	r3, [r4]
    b2ac:	e3130001 	tst	r3, #1	; 0x1
    b2b0:	1a00002a 	bne	b360 <top_check+0x100>
    b2b4:	e2139002 	ands	r9, r3, #2	; 0x2
    b2b8:	1a000032 	bne	b388 <top_check+0x128>
    b2bc:	e59fb0d4 	ldr	fp, [pc, #212]	; b398 <top_check+0x138>
    b2c0:	e1a00009 	mov	r0, r9
    b2c4:	e1a0e00f 	mov	lr, pc
    b2c8:	e59bf000 	ldr	pc, [fp]
    b2cc:	e59a3004 	ldr	r3, [sl, #4]
    b2d0:	e2105007 	ands	r5, r0, #7	; 0x7
    b2d4:	12655008 	rsbne	r5, r5, #8	; 0x8
    b2d8:	e0853003 	add	r3, r5, r3
    b2dc:	e2834010 	add	r4, r3, #16	; 0x10
    b2e0:	e1a06000 	mov	r6, r0
    b2e4:	e2471001 	sub	r1, r7, #1	; 0x1
    b2e8:	e0862004 	add	r2, r6, r4
    b2ec:	e0022001 	and	r2, r2, r1
    b2f0:	e0622007 	rsb	r2, r2, r7
    b2f4:	e0844002 	add	r4, r4, r2
    b2f8:	e1a00004 	mov	r0, r4
    b2fc:	e1a0e00f 	mov	lr, pc
    b300:	e59bf000 	ldr	pc, [fp]
    b304:	e3500000 	cmp	r0, #0	; 0x0
    b308:	e1a07000 	mov	r7, r0
    b30c:	0a000011 	beq	b358 <top_check+0xf8>
    b310:	e59f3084 	ldr	r3, [pc, #132]	; b39c <top_check+0x13c>
    b314:	e5933000 	ldr	r3, [r3]
    b318:	e3530000 	cmp	r3, #0	; 0x0
    b31c:	1a00000a 	bne	b34c <top_check+0xec>
    b320:	e59a3028 	ldr	r3, [sl, #40]
    b324:	e0652004 	rsb	r2, r5, r4
    b328:	e0633007 	rsb	r3, r3, r7
    b32c:	e0861005 	add	r1, r6, r5
    b330:	e0833004 	add	r3, r3, r4
    b334:	e3822001 	orr	r2, r2, #1	; 0x1
    b338:	e1a00009 	mov	r0, r9
    b33c:	e5883470 	str	r3, [r8, #1136]
    b340:	e5881054 	str	r1, [r8, #84]
    b344:	e5812004 	str	r2, [r1, #4]
    b348:	e8bd8ff0 	ldmia	sp!, {r4, r5, r6, r7, r8, r9, sl, fp, pc}
    b34c:	e1a0e00f 	mov	lr, pc
    b350:	e1a0f003 	mov	pc, r3
    b354:	eafffff1 	b	b320 <top_check+0xc0>
    b358:	e3e00000 	mvn	r0, #0	; 0x0
    b35c:	e8bd8ff0 	ldmia	sp!, {r4, r5, r6, r7, r8, r9, sl, fp, pc}
    b360:	e59f2038 	ldr	r2, [pc, #56]	; b3a0 <top_check+0x140>
    b364:	e59f0038 	ldr	r0, [pc, #56]	; b3a4 <top_check+0x144>
    b368:	e5923000 	ldr	r3, [r2]
    b36c:	e3a01001 	mov	r1, #1	; 0x1
    b370:	e3a0201d 	mov	r2, #29	; 0x1d
    b374:	eb00196c 	bl	1192c <_IO_fwrite>
    b378:	e5943000 	ldr	r3, [r4]
    b37c:	eaffffcc 	b	b2b4 <top_check+0x54>
    b380:	e3a00000 	mov	r0, #0	; 0x0
    b384:	e8bd8ff0 	ldmia	sp!, {r4, r5, r6, r7, r8, r9, sl, fp, pc}
    b388:	ebfff46c 	bl	8540 <abort>
    b38c:	00072ff8 	streqd	r2, [r7], -r8
    b390:	00073470 	andeq	r3, r7, r0, ror r4
    b394:	000724d0 	ldreqd	r2, [r7], -r0
    b398:	000724bc 	streqh	r2, [r7], -ip
    b39c:	00072ff0 	streqd	r2, [r7], -r0
    b3a0:	000724b8 	streqh	r2, [r7], -r8
    b3a4:	00056fbc 	streqh	r6, [r5], -ip

0000b3a8 <malloc_check>:
    b3a8:	e59f3070 	ldr	r3, [pc, #112]	; b420 <malloc_check+0x78>
    b3ac:	e92d4070 	stmdb	sp!, {r4, r5, r6, lr}
    b3b0:	e59f606c 	ldr	r6, [pc, #108]	; b424 <malloc_check+0x7c>
    b3b4:	e3530000 	cmp	r3, #0	; 0x0
    b3b8:	e1a04000 	mov	r4, r0
    b3bc:	e1a00006 	mov	r0, r6
    b3c0:	059f605c 	ldreq	r6, [pc, #92]	; b424 <malloc_check+0x7c>
    b3c4:	03a03001 	moveq	r3, #1	; 0x1
    b3c8:	05863000 	streq	r3, [r6]
    b3cc:	11a0e00f 	movne	lr, pc
    b3d0:	11a0f003 	movne	pc, r3
    b3d4:	ebffffa1 	bl	b260 <top_check>
    b3d8:	e3a05000 	mov	r5, #0	; 0x0
    b3dc:	e1a03000 	mov	r3, r0
    b3e0:	e1530005 	cmp	r3, r5
    b3e4:	e59f0038 	ldr	r0, [pc, #56]	; b424 <malloc_check+0x7c>
    b3e8:	e2841001 	add	r1, r4, #1	; 0x1
    b3ec:	ba000001 	blt	b3f8 <malloc_check+0x50>
    b3f0:	eb000744 	bl	d108 <_int_malloc>
    b3f4:	e1a05000 	mov	r5, r0
    b3f8:	e59f3028 	ldr	r3, [pc, #40]	; b428 <malloc_check+0x80>
    b3fc:	e59f0020 	ldr	r0, [pc, #32]	; b424 <malloc_check+0x7c>
    b400:	e3530000 	cmp	r3, #0	; 0x0
    b404:	05863000 	streq	r3, [r6]
    b408:	11a0e00f 	movne	lr, pc
    b40c:	11a0f003 	movne	pc, r3
    b410:	e1a00005 	mov	r0, r5
    b414:	e1a01004 	mov	r1, r4
    b418:	e8bd4070 	ldmia	sp!, {r4, r5, r6, lr}
    b41c:	eaffff02 	b	b02c <mem2mem_check>
    b420:	00000000 	andeq	r0, r0, r0
    b424:	00072ff8 	streqd	r2, [r7], -r8
    b428:	00000000 	andeq	r0, r0, r0

0000b42c <free_check>:
    b42c:	e3500000 	cmp	r0, #0	; 0x0
    b430:	e92d4070 	stmdb	sp!, {r4, r5, r6, lr}
    b434:	e1a05000 	mov	r5, r0
    b438:	0a000025 	beq	b4d4 <free_check+0xa8>
    b43c:	e59f30e8 	ldr	r3, [pc, #232]	; b52c <free_check+0x100>
    b440:	e3530000 	cmp	r3, #0	; 0x0
    b444:	059f60e4 	ldreq	r6, [pc, #228]	; b530 <free_check+0x104>
    b448:	03a03001 	moveq	r3, #1	; 0x1
    b44c:	05863000 	streq	r3, [r6]
    b450:	0a000003 	beq	b464 <free_check+0x38>
    b454:	e59f60d4 	ldr	r6, [pc, #212]	; b530 <free_check+0x104>
    b458:	e1a00006 	mov	r0, r6
    b45c:	e1a0e00f 	mov	lr, pc
    b460:	e1a0f003 	mov	pc, r3
    b464:	e1a00005 	mov	r0, r5
    b468:	ebffff07 	bl	b08c <mem2chunk_check>
    b46c:	e3500000 	cmp	r0, #0	; 0x0
    b470:	e1a04000 	mov	r4, r0
    b474:	0a000017 	beq	b4d8 <free_check+0xac>
    b478:	e5903004 	ldr	r3, [r0, #4]
    b47c:	e3130002 	tst	r3, #2	; 0x2
    b480:	0a000008 	beq	b4a8 <free_check+0x7c>
    b484:	e59f30a8 	ldr	r3, [pc, #168]	; b534 <free_check+0x108>
    b488:	e3530000 	cmp	r3, #0	; 0x0
    b48c:	05863000 	streq	r3, [r6]
    b490:	159f0098 	ldrne	r0, [pc, #152]	; b530 <free_check+0x104>
    b494:	11a0e00f 	movne	lr, pc
    b498:	11a0f003 	movne	pc, r3
    b49c:	e1a00004 	mov	r0, r4
    b4a0:	e8bd4070 	ldmia	sp!, {r4, r5, r6, lr}
    b4a4:	ea0003a2 	b	c334 <munmap_chunk>
    b4a8:	e59f4080 	ldr	r4, [pc, #128]	; b530 <free_check+0x104>
    b4ac:	e1a01005 	mov	r1, r5
    b4b0:	e1a00004 	mov	r0, r4
    b4b4:	eb00085c 	bl	d62c <_int_free>
    b4b8:	e59f3074 	ldr	r3, [pc, #116]	; b534 <free_check+0x108>
    b4bc:	e3530000 	cmp	r3, #0	; 0x0
    b4c0:	0a000002 	beq	b4d0 <free_check+0xa4>
    b4c4:	e1a00004 	mov	r0, r4
    b4c8:	e8bd4070 	ldmia	sp!, {r4, r5, r6, lr}
    b4cc:	eaffd2cb 	b	0 <.text-0x80e0>
    b4d0:	e5843000 	str	r3, [r4]
    b4d4:	e8bd8070 	ldmia	sp!, {r4, r5, r6, pc}
    b4d8:	e59f3054 	ldr	r3, [pc, #84]	; b534 <free_check+0x108>
    b4dc:	e3530000 	cmp	r3, #0	; 0x0
    b4e0:	05860000 	streq	r0, [r6]
    b4e4:	159f0044 	ldrne	r0, [pc, #68]	; b530 <free_check+0x104>
    b4e8:	11a0e00f 	movne	lr, pc
    b4ec:	11a0f003 	movne	pc, r3
    b4f0:	e59f4040 	ldr	r4, [pc, #64]	; b538 <free_check+0x10c>
    b4f4:	e5943000 	ldr	r3, [r4]
    b4f8:	e3130001 	tst	r3, #1	; 0x1
    b4fc:	1a000002 	bne	b50c <free_check+0xe0>
    b500:	e3130002 	tst	r3, #2	; 0x2
    b504:	0afffff2 	beq	b4d4 <free_check+0xa8>
    b508:	ea000006 	b	b528 <free_check+0xfc>
    b50c:	e59f3028 	ldr	r3, [pc, #40]	; b53c <free_check+0x110>
    b510:	e1a02005 	mov	r2, r5
    b514:	e5930000 	ldr	r0, [r3]
    b518:	e59f1020 	ldr	r1, [pc, #32]	; b540 <free_check+0x114>
    b51c:	eb0018ee 	bl	118dc <fprintf>
    b520:	e5943000 	ldr	r3, [r4]
    b524:	eafffff5 	b	b500 <free_check+0xd4>
    b528:	ebfff404 	bl	8540 <abort>
    b52c:	00000000 	andeq	r0, r0, r0
    b530:	00072ff8 	streqd	r2, [r7], -r8
    b534:	00000000 	andeq	r0, r0, r0
    b538:	000724d0 	ldreqd	r2, [r7], -r0
    b53c:	000724b8 	streqh	r2, [r7], -r8
    b540:	00056fdc 	ldreqd	r6, [r5], -ip

0000b544 <realloc_check>:
    b544:	e92d4ff0 	stmdb	sp!, {r4, r5, r6, r7, r8, r9, sl, fp, lr}
    b548:	e3500000 	cmp	r0, #0	; 0x0
    b54c:	e24dd004 	sub	sp, sp, #4	; 0x4
    b550:	e1a07000 	mov	r7, r0
    b554:	e1a0a001 	mov	sl, r1
    b558:	e3a0b000 	mov	fp, #0	; 0x0
    b55c:	0a000063 	beq	b6f0 <realloc_check+0x1ac>
    b560:	e59f61bc 	ldr	r6, [pc, #444]	; b724 <realloc_check+0x1e0>
    b564:	e3560000 	cmp	r6, #0	; 0x0
    b568:	059f21b8 	ldreq	r2, [pc, #440]	; b728 <realloc_check+0x1e4>
    b56c:	03a03001 	moveq	r3, #1	; 0x1
    b570:	05823000 	streq	r3, [r2]
    b574:	159f01ac 	ldrne	r0, [pc, #428]	; b728 <realloc_check+0x1e4>
    b578:	11a0e00f 	movne	lr, pc
    b57c:	11a0f006 	movne	pc, r6
    b580:	e1a00007 	mov	r0, r7
    b584:	ebfffec0 	bl	b08c <mem2chunk_check>
    b588:	e59f919c 	ldr	r9, [pc, #412]	; b72c <realloc_check+0x1e8>
    b58c:	e1a04000 	mov	r4, r0
    b590:	e3590000 	cmp	r9, #0	; 0x0
    b594:	059f318c 	ldreq	r3, [pc, #396]	; b728 <realloc_check+0x1e4>
    b598:	05839000 	streq	r9, [r3]
    b59c:	159f0184 	ldrne	r0, [pc, #388]	; b728 <realloc_check+0x1e4>
    b5a0:	11a0e00f 	movne	lr, pc
    b5a4:	11a0f009 	movne	pc, r9
    b5a8:	e3540000 	cmp	r4, #0	; 0x0
    b5ac:	0a000049 	beq	b6d8 <realloc_check+0x194>
    b5b0:	e5943004 	ldr	r3, [r4, #4]
    b5b4:	e28a8001 	add	r8, sl, #1	; 0x1
    b5b8:	e3c33007 	bic	r3, r3, #7	; 0x7
    b5bc:	e3780021 	cmn	r8, #33	; 0x21
    b5c0:	e58d3000 	str	r3, [sp]
    b5c4:	8a00003d 	bhi	b6c0 <realloc_check+0x17c>
    b5c8:	e28a100c 	add	r1, sl, #12	; 0xc
    b5cc:	e351000f 	cmp	r1, #15	; 0xf
    b5d0:	83c15007 	bichi	r5, r1, #7	; 0x7
    b5d4:	93a05010 	movls	r5, #16	; 0x10
    b5d8:	e3560000 	cmp	r6, #0	; 0x0
    b5dc:	059f2144 	ldreq	r2, [pc, #324]	; b728 <realloc_check+0x1e4>
    b5e0:	03a03001 	moveq	r3, #1	; 0x1
    b5e4:	05823000 	streq	r3, [r2]
    b5e8:	159f0138 	ldrne	r0, [pc, #312]	; b728 <realloc_check+0x1e4>
    b5ec:	11a0e00f 	movne	lr, pc
    b5f0:	11a0f006 	movne	pc, r6
    b5f4:	e5943004 	ldr	r3, [r4, #4]
    b5f8:	e3130002 	tst	r3, #2	; 0x2
    b5fc:	0a000026 	beq	b69c <realloc_check+0x158>
    b600:	e1a00004 	mov	r0, r4
    b604:	e1a01005 	mov	r1, r5
    b608:	eb000359 	bl	c374 <mremap_chunk>
    b60c:	e3500000 	cmp	r0, #0	; 0x0
    b610:	1280b008 	addne	fp, r0, #8	; 0x8
    b614:	0a00000b 	beq	b648 <realloc_check+0x104>
    b618:	e3590000 	cmp	r9, #0	; 0x0
    b61c:	059f3108 	ldreq	r3, [pc, #264]	; b72c <realloc_check+0x1e8>
    b620:	059f2100 	ldreq	r2, [pc, #256]	; b728 <realloc_check+0x1e4>
    b624:	05823000 	streq	r3, [r2]
    b628:	159f00f8 	ldrne	r0, [pc, #248]	; b728 <realloc_check+0x1e4>
    b62c:	11a0e00f 	movne	lr, pc
    b630:	11a0f009 	movne	pc, r9
    b634:	e1a0000b 	mov	r0, fp
    b638:	e1a0100a 	mov	r1, sl
    b63c:	e28dd004 	add	sp, sp, #4	; 0x4
    b640:	e8bd4ff0 	ldmia	sp!, {r4, r5, r6, r7, r8, r9, sl, fp, lr}
    b644:	eafffe78 	b	b02c <mem2mem_check>
    b648:	e59d2000 	ldr	r2, [sp]
    b64c:	e2423004 	sub	r3, r2, #4	; 0x4
    b650:	e1530005 	cmp	r3, r5
    b654:	21a0b007 	movcs	fp, r7
    b658:	2affffee 	bcs	b618 <realloc_check+0xd4>
    b65c:	ebfffeff 	bl	b260 <top_check>
    b660:	e3500000 	cmp	r0, #0	; 0x0
    b664:	baffffeb 	blt	b618 <realloc_check+0xd4>
    b668:	e59f00b8 	ldr	r0, [pc, #184]	; b728 <realloc_check+0x1e4>
    b66c:	e1a01008 	mov	r1, r8
    b670:	eb0006a4 	bl	d108 <_int_malloc>
    b674:	e3500000 	cmp	r0, #0	; 0x0
    b678:	e1a0b000 	mov	fp, r0
    b67c:	0affffe5 	beq	b618 <realloc_check+0xd4>
    b680:	e59d3000 	ldr	r3, [sp]
    b684:	e1a01007 	mov	r1, r7
    b688:	e2432008 	sub	r2, r3, #8	; 0x8
    b68c:	eb000d55 	bl	ebe8 <memcpy>
    b690:	e1a00004 	mov	r0, r4
    b694:	eb000326 	bl	c334 <munmap_chunk>
    b698:	eaffffde 	b	b618 <realloc_check+0xd4>
    b69c:	ebfffeef 	bl	b260 <top_check>
    b6a0:	e3500000 	cmp	r0, #0	; 0x0
    b6a4:	baffffdb 	blt	b618 <realloc_check+0xd4>
    b6a8:	e59f0078 	ldr	r0, [pc, #120]	; b728 <realloc_check+0x1e4>
    b6ac:	e1a01007 	mov	r1, r7
    b6b0:	e1a02008 	mov	r2, r8
    b6b4:	eb000881 	bl	d8c0 <_int_realloc>
    b6b8:	e1a0b000 	mov	fp, r0
    b6bc:	eaffffd5 	b	b618 <realloc_check+0xd4>
    b6c0:	ebfff390 	bl	8508 <__errno_location>
    b6c4:	e3a0300c 	mov	r3, #12	; 0xc
    b6c8:	e5803000 	str	r3, [r0]
    b6cc:	e3a00000 	mov	r0, #0	; 0x0
    b6d0:	e28dd004 	add	sp, sp, #4	; 0x4
    b6d4:	e8bd8ff0 	ldmia	sp!, {r4, r5, r6, r7, r8, r9, sl, fp, pc}
    b6d8:	e59f5050 	ldr	r5, [pc, #80]	; b730 <realloc_check+0x1ec>
    b6dc:	e5953000 	ldr	r3, [r5]
    b6e0:	e3130001 	tst	r3, #1	; 0x1
    b6e4:	1a000006 	bne	b704 <realloc_check+0x1c0>
    b6e8:	e3130002 	tst	r3, #2	; 0x2
    b6ec:	1a00000b 	bne	b720 <realloc_check+0x1dc>
    b6f0:	e1a0000a 	mov	r0, sl
    b6f4:	e3a01000 	mov	r1, #0	; 0x0
    b6f8:	e28dd004 	add	sp, sp, #4	; 0x4
    b6fc:	e8bd4ff0 	ldmia	sp!, {r4, r5, r6, r7, r8, r9, sl, fp, lr}
    b700:	eaffff28 	b	b3a8 <malloc_check>
    b704:	e59f3028 	ldr	r3, [pc, #40]	; b734 <realloc_check+0x1f0>
    b708:	e1a02007 	mov	r2, r7
    b70c:	e5930000 	ldr	r0, [r3]
    b710:	e59f1020 	ldr	r1, [pc, #32]	; b738 <realloc_check+0x1f4>
    b714:	eb001870 	bl	118dc <fprintf>
    b718:	e5953000 	ldr	r3, [r5]
    b71c:	eafffff1 	b	b6e8 <realloc_check+0x1a4>
    b720:	ebfff386 	bl	8540 <abort>
    b724:	00000000 	andeq	r0, r0, r0
    b728:	00072ff8 	streqd	r2, [r7], -r8
    b72c:	00000000 	andeq	r0, r0, r0
    b730:	000724d0 	ldreqd	r2, [r7], -r0
    b734:	000724b8 	streqh	r2, [r7], -r8
    b738:	00056ffc 	streqd	r6, [r5], -ip

0000b73c <memalign_check>:
    b73c:	e3500008 	cmp	r0, #8	; 0x8
    b740:	e92d40f0 	stmdb	sp!, {r4, r5, r6, r7, lr}
    b744:	e1a04000 	mov	r4, r0
    b748:	e1a05001 	mov	r5, r1
    b74c:	9a000026 	bls	b7ec <memalign_check+0xb0>
    b750:	e350000f 	cmp	r0, #15	; 0xf
    b754:	e2816001 	add	r6, r1, #1	; 0x1
    b758:	93a04010 	movls	r4, #16	; 0x10
    b75c:	e3760021 	cmn	r6, #33	; 0x21
    b760:	8a00001c 	bhi	b7d8 <memalign_check+0x9c>
    b764:	e59f3090 	ldr	r3, [pc, #144]	; b7fc <memalign_check+0xc0>
    b768:	e3530000 	cmp	r3, #0	; 0x0
    b76c:	059f708c 	ldreq	r7, [pc, #140]	; b800 <memalign_check+0xc4>
    b770:	03a03001 	moveq	r3, #1	; 0x1
    b774:	05873000 	streq	r3, [r7]
    b778:	0a000003 	beq	b78c <memalign_check+0x50>
    b77c:	e59f707c 	ldr	r7, [pc, #124]	; b800 <memalign_check+0xc4>
    b780:	e1a00007 	mov	r0, r7
    b784:	e1a0e00f 	mov	lr, pc
    b788:	e1a0f003 	mov	pc, r3
    b78c:	ebfffeb3 	bl	b260 <top_check>
    b790:	e3500000 	cmp	r0, #0	; 0x0
    b794:	b3a04000 	movlt	r4, #0	; 0x0
    b798:	ba000004 	blt	b7b0 <memalign_check+0x74>
    b79c:	e1a01004 	mov	r1, r4
    b7a0:	e59f0058 	ldr	r0, [pc, #88]	; b800 <memalign_check+0xc4>
    b7a4:	e1a02006 	mov	r2, r6
    b7a8:	eb00091e 	bl	dc28 <_int_memalign>
    b7ac:	e1a04000 	mov	r4, r0
    b7b0:	e59f304c 	ldr	r3, [pc, #76]	; b804 <memalign_check+0xc8>
    b7b4:	e3530000 	cmp	r3, #0	; 0x0
    b7b8:	05873000 	streq	r3, [r7]
    b7bc:	159f003c 	ldrne	r0, [pc, #60]	; b800 <memalign_check+0xc4>
    b7c0:	11a0e00f 	movne	lr, pc
    b7c4:	11a0f003 	movne	pc, r3
    b7c8:	e1a00004 	mov	r0, r4
    b7cc:	e1a01005 	mov	r1, r5
    b7d0:	e8bd40f0 	ldmia	sp!, {r4, r5, r6, r7, lr}
    b7d4:	eafffe14 	b	b02c <mem2mem_check>
    b7d8:	ebfff34a 	bl	8508 <__errno_location>
    b7dc:	e3a0300c 	mov	r3, #12	; 0xc
    b7e0:	e5803000 	str	r3, [r0]
    b7e4:	e3a00000 	mov	r0, #0	; 0x0
    b7e8:	e8bd80f0 	ldmia	sp!, {r4, r5, r6, r7, pc}
    b7ec:	e1a00001 	mov	r0, r1
    b7f0:	e3a01000 	mov	r1, #0	; 0x0
    b7f4:	e8bd40f0 	ldmia	sp!, {r4, r5, r6, r7, lr}
    b7f8:	eafffeea 	b	b3a8 <malloc_check>
    b7fc:	00000000 	andeq	r0, r0, r0
    b800:	00072ff8 	streqd	r2, [r7], -r8
    b804:	00000000 	andeq	r0, r0, r0

0000b808 <malloc_starter>:
    b808:	e1a01000 	mov	r1, r0
    b80c:	e59f0000 	ldr	r0, [pc, #0]	; b814 <malloc_starter+0xc>
    b810:	ea00063c 	b	d108 <_int_malloc>
    b814:	00072ff8 	streqd	r2, [r7], -r8

0000b818 <memalign_starter>:
    b818:	e1a03000 	mov	r3, r0
    b81c:	e59f0008 	ldr	r0, [pc, #8]	; b82c <memalign_starter+0x14>
    b820:	e1a02001 	mov	r2, r1
    b824:	e1a01003 	mov	r1, r3
    b828:	ea0008fe 	b	dc28 <_int_memalign>
    b82c:	00072ff8 	streqd	r2, [r7], -r8

0000b830 <free_starter>:
    b830:	e3500000 	cmp	r0, #0	; 0x0
    b834:	e1a01000 	mov	r1, r0
    b838:	e2403008 	sub	r3, r0, #8	; 0x8
    b83c:	01a0f00e 	moveq	pc, lr
    b840:	e1a00003 	mov	r0, r3
    b844:	e5933004 	ldr	r3, [r3, #4]
    b848:	e3130002 	tst	r3, #2	; 0x2
    b84c:	0a000000 	beq	b854 <free_starter+0x24>
    b850:	ea0002b7 	b	c334 <munmap_chunk>
    b854:	e59f0000 	ldr	r0, [pc, #0]	; b85c <free_starter+0x2c>
    b858:	ea000773 	b	d62c <_int_free>
    b85c:	00072ff8 	streqd	r2, [r7], -r8

0000b860 <__malloc_get_state>:
    b860:	e92d41f0 	stmdb	sp!, {r4, r5, r6, r7, r8, lr}
    b864:	e59f013c 	ldr	r0, [pc, #316]	; b9a8 <__malloc_get_state+0x148>
    b868:	eb0002e4 	bl	c400 <__libc_malloc>
    b86c:	e3500000 	cmp	r0, #0	; 0x0
    b870:	e1a07000 	mov	r7, r0
    b874:	0a00004a 	beq	b9a4 <__malloc_get_state+0x144>
    b878:	e59f312c 	ldr	r3, [pc, #300]	; b9ac <__malloc_get_state+0x14c>
    b87c:	e3530000 	cmp	r3, #0	; 0x0
    b880:	059f4128 	ldreq	r4, [pc, #296]	; b9b0 <__malloc_get_state+0x150>
    b884:	03a03001 	moveq	r3, #1	; 0x1
    b888:	05843000 	streq	r3, [r4]
    b88c:	0a000003 	beq	b8a0 <__malloc_get_state+0x40>
    b890:	e59f4118 	ldr	r4, [pc, #280]	; b9b0 <__malloc_get_state+0x150>
    b894:	e1a00004 	mov	r0, r4
    b898:	e1a0e00f 	mov	lr, pc
    b89c:	e1a0f003 	mov	pc, r3
    b8a0:	e59f0108 	ldr	r0, [pc, #264]	; b9b0 <__malloc_get_state+0x150>
    b8a4:	eb0007c4 	bl	d7bc <malloc_consolidate>
    b8a8:	e3a01000 	mov	r1, #0	; 0x0
    b8ac:	e5871008 	str	r1, [r7, #8]
    b8b0:	e587100c 	str	r1, [r7, #12]
    b8b4:	e5940054 	ldr	r0, [r4, #84]
    b8b8:	e59f30f4 	ldr	r3, [pc, #244]	; b9b4 <__malloc_get_state+0x154>
    b8bc:	e3a02002 	mov	r2, #2	; 0x2
    b8c0:	e59fc0f0 	ldr	ip, [pc, #240]	; b9b8 <__malloc_get_state+0x158>
    b8c4:	e5872004 	str	r2, [r7, #4]
    b8c8:	e5870010 	str	r0, [r7, #16]
    b8cc:	e5873000 	str	r3, [r7]
    b8d0:	e5871014 	str	r1, [r7, #20]
    b8d4:	e3a00001 	mov	r0, #1	; 0x1
    b8d8:	e2872008 	add	r2, r7, #8	; 0x8
    b8dc:	e59c3008 	ldr	r3, [ip, #8]
    b8e0:	e2800001 	add	r0, r0, #1	; 0x1
    b8e4:	e153000c 	cmp	r3, ip
    b8e8:	15823010 	strne	r3, [r2, #16]
    b8ec:	159c300c 	ldrne	r3, [ip, #12]
    b8f0:	05821014 	streq	r1, [r2, #20]
    b8f4:	05821010 	streq	r1, [r2, #16]
    b8f8:	15823014 	strne	r3, [r2, #20]
    b8fc:	e350007f 	cmp	r0, #127	; 0x7f
    b900:	e28cc008 	add	ip, ip, #8	; 0x8
    b904:	e2822008 	add	r2, r2, #8	; 0x8
    b908:	dafffff3 	ble	b8dc <__malloc_get_state+0x7c>
    b90c:	e5943470 	ldr	r3, [r4, #1136]
    b910:	e59f20a4 	ldr	r2, [pc, #164]	; b9bc <__malloc_get_state+0x15c>
    b914:	e5873414 	str	r3, [r7, #1044]
    b918:	e59f30a0 	ldr	r3, [pc, #160]	; b9c0 <__malloc_get_state+0x160>
    b91c:	e5921010 	ldr	r1, [r2, #16]
    b920:	e5930000 	ldr	r0, [r3]
    b924:	e5925004 	ldr	r5, [r2, #4]
    b928:	e5871420 	str	r1, [r7, #1056]
    b92c:	e5926008 	ldr	r6, [r2, #8]
    b930:	e5870428 	str	r0, [r7, #1064]
    b934:	e592100c 	ldr	r1, [r2, #12]
    b938:	e5944474 	ldr	r4, [r4, #1140]
    b93c:	e5871434 	str	r1, [r7, #1076]
    b940:	e5923014 	ldr	r3, [r2, #20]
    b944:	e59f8078 	ldr	r8, [pc, #120]	; b9c4 <__malloc_get_state+0x164>
    b948:	e5873438 	str	r3, [r7, #1080]
    b94c:	e59f3074 	ldr	r3, [pc, #116]	; b9c8 <__malloc_get_state+0x168>
    b950:	e592001c 	ldr	r0, [r2, #28]
    b954:	e593c000 	ldr	ip, [r3]
    b958:	e5923028 	ldr	r3, [r2, #40]
    b95c:	e5921000 	ldr	r1, [r2]
    b960:	e592e020 	ldr	lr, [r2, #32]
    b964:	e587043c 	str	r0, [r7, #1084]
    b968:	e59f0040 	ldr	r0, [pc, #64]	; b9b0 <__malloc_get_state+0x150>
    b96c:	e3580000 	cmp	r8, #0	; 0x0
    b970:	e5873410 	str	r3, [r7, #1040]
    b974:	e3a03000 	mov	r3, #0	; 0x0
    b978:	e587c444 	str	ip, [r7, #1092]
    b97c:	e5871418 	str	r1, [r7, #1048]
    b980:	e587541c 	str	r5, [r7, #1052]
    b984:	e5876424 	str	r6, [r7, #1060]
    b988:	e587442c 	str	r4, [r7, #1068]
    b98c:	e5873430 	str	r3, [r7, #1072]
    b990:	e587e440 	str	lr, [r7, #1088]
    b994:	05808000 	streq	r8, [r0]
    b998:	11a0e00f 	movne	lr, pc
    b99c:	11a0f008 	movne	pc, r8
    b9a0:	e1a00007 	mov	r0, r7
    b9a4:	e8bd81f0 	ldmia	sp!, {r4, r5, r6, r7, r8, pc}
    b9a8:	00000448 	andeq	r0, r0, r8, asr #8
    b9ac:	00000000 	andeq	r0, r0, r0
    b9b0:	00072ff8 	streqd	r2, [r7], -r8
    b9b4:	444c4541 	strmib	r4, [ip], #-1345
    b9b8:	00073054 	andeq	r3, r7, r4, asr r0
    b9bc:	00073470 	andeq	r3, r7, r0, ror r4
    b9c0:	000724d0 	ldreqd	r2, [r7], -r0
    b9c4:	00000000 	andeq	r0, r0, r0
    b9c8:	000734cc 	andeq	r3, r7, ip, asr #9

0000b9cc <__malloc_set_state>:
    b9cc:	e92d45f0 	stmdb	sp!, {r4, r5, r6, r7, r8, sl, lr}
    b9d0:	e59fa338 	ldr	sl, [pc, #824]	; bd10 <__malloc_set_state+0x344>
    b9d4:	e1a07000 	mov	r7, r0
    b9d8:	e3a04001 	mov	r4, #1	; 0x1
    b9dc:	e58a4000 	str	r4, [sl]
    b9e0:	ebfffad4 	bl	a538 <ptmalloc_init>
    b9e4:	e5972000 	ldr	r2, [r7]
    b9e8:	e59f3324 	ldr	r3, [pc, #804]	; bd14 <__malloc_set_state+0x348>
    b9ec:	e1520003 	cmp	r2, r3
    b9f0:	1a0000c4 	bne	bd08 <__malloc_set_state+0x33c>
    b9f4:	e5973004 	ldr	r3, [r7, #4]
    b9f8:	e3c330ff 	bic	r3, r3, #255	; 0xff
    b9fc:	e3530000 	cmp	r3, #0	; 0x0
    ba00:	ca0000be 	bgt	bd00 <__malloc_set_state+0x334>
    ba04:	e59f330c 	ldr	r3, [pc, #780]	; bd18 <__malloc_set_state+0x34c>
    ba08:	e3530000 	cmp	r3, #0	; 0x0
    ba0c:	059f8308 	ldreq	r8, [pc, #776]	; bd1c <__malloc_set_state+0x350>
    ba10:	05884000 	streq	r4, [r8]
    ba14:	0a000003 	beq	ba28 <__malloc_set_state+0x5c>
    ba18:	e59f82fc 	ldr	r8, [pc, #764]	; bd1c <__malloc_set_state+0x350>
    ba1c:	e1a00008 	mov	r0, r8
    ba20:	e1a0e00f 	mov	lr, pc
    ba24:	e1a0f003 	mov	pc, r3
    ba28:	e5983028 	ldr	r3, [r8, #40]
    ba2c:	e3a05000 	mov	r5, #0	; 0x0
    ba30:	e2033002 	and	r3, r3, #2	; 0x2
    ba34:	e3833049 	orr	r3, r3, #73	; 0x49
    ba38:	e5883028 	str	r3, [r8, #40]
    ba3c:	e1a02005 	mov	r2, r5
    ba40:	e1a03008 	mov	r3, r8
    ba44:	e2855001 	add	r5, r5, #1	; 0x1
    ba48:	e3550009 	cmp	r5, #9	; 0x9
    ba4c:	e583202c 	str	r2, [r3, #44]
    ba50:	e2833004 	add	r3, r3, #4	; 0x4
    ba54:	9afffffa 	bls	ba44 <__malloc_set_state+0x78>
    ba58:	e1a05002 	mov	r5, r2
    ba5c:	e1a03008 	mov	r3, r8
    ba60:	e2855001 	add	r5, r5, #1	; 0x1
    ba64:	e3550003 	cmp	r5, #3	; 0x3
    ba68:	e583245c 	str	r2, [r3, #1116]
    ba6c:	e2833004 	add	r3, r3, #4	; 0x4
    ba70:	9afffffa 	bls	ba60 <__malloc_set_state+0x94>
    ba74:	e5973010 	ldr	r3, [r7, #16]
    ba78:	e59f62a0 	ldr	r6, [pc, #672]	; bd20 <__malloc_set_state+0x354>
    ba7c:	e5883054 	str	r3, [r8, #84]
    ba80:	e5882058 	str	r2, [r8, #88]
    ba84:	e3a05001 	mov	r5, #1	; 0x1
    ba88:	e2874008 	add	r4, r7, #8	; 0x8
    ba8c:	e5943010 	ldr	r3, [r4, #16]
    ba90:	e086e185 	add	lr, r6, r5, lsl #3
    ba94:	e3530000 	cmp	r3, #0	; 0x0
    ba98:	058ee008 	streq	lr, [lr, #8]
    ba9c:	058ee00c 	streq	lr, [lr, #12]
    baa0:	0a00001a 	beq	bb10 <__malloc_set_state+0x144>
    baa4:	e355003f 	cmp	r5, #63	; 0x3f
    baa8:	9a000069 	bls	bc54 <__malloc_set_state+0x288>
    baac:	e5933004 	ldr	r3, [r3, #4]
    bab0:	e3c32007 	bic	r2, r3, #7	; 0x7
    bab4:	e1a03322 	mov	r3, r2, lsr #6
    bab8:	e3530020 	cmp	r3, #32	; 0x20
    babc:	92833038 	addls	r3, r3, #56	; 0x38
    bac0:	9a000003 	bls	bad4 <__malloc_set_state+0x108>
    bac4:	e1a034a2 	mov	r3, r2, lsr #9
    bac8:	e3530014 	cmp	r3, #20	; 0x14
    bacc:	8a00007d 	bhi	bcc8 <__malloc_set_state+0x2fc>
    bad0:	e283305b 	add	r3, r3, #91	; 0x5b
    bad4:	e1530005 	cmp	r3, r5
    bad8:	0a000050 	beq	bc20 <__malloc_set_state+0x254>
    badc:	e58ee008 	str	lr, [lr, #8]
    bae0:	e58ee00c 	str	lr, [lr, #12]
    bae4:	e5943010 	ldr	r3, [r4, #16]
    bae8:	e59fe234 	ldr	lr, [pc, #564]	; bd24 <__malloc_set_state+0x358>
    baec:	e583e00c 	str	lr, [r3, #12]
    baf0:	e5942014 	ldr	r2, [r4, #20]
    baf4:	e59e3008 	ldr	r3, [lr, #8]
    baf8:	e5823008 	str	r3, [r2, #8]
    bafc:	e59e1008 	ldr	r1, [lr, #8]
    bb00:	e5943014 	ldr	r3, [r4, #20]
    bb04:	e581300c 	str	r3, [r1, #12]
    bb08:	e5942010 	ldr	r2, [r4, #16]
    bb0c:	e58e2008 	str	r2, [lr, #8]
    bb10:	e2855001 	add	r5, r5, #1	; 0x1
    bb14:	e355007f 	cmp	r5, #127	; 0x7f
    bb18:	e2844008 	add	r4, r4, #8	; 0x8
    bb1c:	9affffda 	bls	ba8c <__malloc_set_state+0xc0>
    bb20:	e59f2200 	ldr	r2, [pc, #512]	; bd28 <__malloc_set_state+0x35c>
    bb24:	e5973418 	ldr	r3, [r7, #1048]
    bb28:	e5970414 	ldr	r0, [r7, #1044]
    bb2c:	e5823000 	str	r3, [r2]
    bb30:	e597141c 	ldr	r1, [r7, #1052]
    bb34:	e5880470 	str	r0, [r8, #1136]
    bb38:	e5821004 	str	r1, [r2, #4]
    bb3c:	e5973420 	ldr	r3, [r7, #1056]
    bb40:	e5971424 	ldr	r1, [r7, #1060]
    bb44:	e597042c 	ldr	r0, [r7, #1068]
    bb48:	e5821008 	str	r1, [r2, #8]
    bb4c:	e5823010 	str	r3, [r2, #16]
    bb50:	e5975428 	ldr	r5, [r7, #1064]
    bb54:	e5880474 	str	r0, [r8, #1140]
    bb58:	e5973434 	ldr	r3, [r7, #1076]
    bb5c:	e5970004 	ldr	r0, [r7, #4]
    bb60:	e582300c 	str	r3, [r2, #12]
    bb64:	e5974438 	ldr	r4, [r7, #1080]
    bb68:	e597c410 	ldr	ip, [r7, #1040]
    bb6c:	e597e43c 	ldr	lr, [r7, #1084]
    bb70:	e5971440 	ldr	r1, [r7, #1088]
    bb74:	e59f31b0 	ldr	r3, [pc, #432]	; bd2c <__malloc_set_state+0x360>
    bb78:	e3500000 	cmp	r0, #0	; 0x0
    bb7c:	e5835000 	str	r5, [r3]
    bb80:	e5821020 	str	r1, [r2, #32]
    bb84:	e582c028 	str	ip, [r2, #40]
    bb88:	e5824014 	str	r4, [r2, #20]
    bb8c:	e582e01c 	str	lr, [r2, #28]
    bb90:	da000018 	ble	bbf8 <__malloc_set_state+0x22c>
    bb94:	e5970444 	ldr	r0, [r7, #1092]
    bb98:	e3500000 	cmp	r0, #0	; 0x0
    bb9c:	0a000008 	beq	bbc4 <__malloc_set_state+0x1f8>
    bba0:	e59f3188 	ldr	r3, [pc, #392]	; bd30 <__malloc_set_state+0x364>
    bba4:	e5932000 	ldr	r2, [r3]
    bba8:	e3520000 	cmp	r2, #0	; 0x0
    bbac:	1a000002 	bne	bbbc <__malloc_set_state+0x1f0>
    bbb0:	e59a3000 	ldr	r3, [sl]
    bbb4:	e3530000 	cmp	r3, #0	; 0x0
    bbb8:	0a000016 	beq	bc18 <__malloc_set_state+0x24c>
    bbbc:	e3500000 	cmp	r0, #0	; 0x0
    bbc0:	1a00000c 	bne	bbf8 <__malloc_set_state+0x22c>
    bbc4:	e59f2164 	ldr	r2, [pc, #356]	; bd30 <__malloc_set_state+0x364>
    bbc8:	e5923000 	ldr	r3, [r2]
    bbcc:	e3530000 	cmp	r3, #0	; 0x0
    bbd0:	0a000008 	beq	bbf8 <__malloc_set_state+0x22c>
    bbd4:	e59f3158 	ldr	r3, [pc, #344]	; bd34 <__malloc_set_state+0x368>
    bbd8:	e5820000 	str	r0, [r2]
    bbdc:	e59f2154 	ldr	r2, [pc, #340]	; bd38 <__malloc_set_state+0x36c>
    bbe0:	e5830000 	str	r0, [r3]
    bbe4:	e5820000 	str	r0, [r2]
    bbe8:	e59f314c 	ldr	r3, [pc, #332]	; bd3c <__malloc_set_state+0x370>
    bbec:	e59f214c 	ldr	r2, [pc, #332]	; bd40 <__malloc_set_state+0x374>
    bbf0:	e5830000 	str	r0, [r3]
    bbf4:	e5820000 	str	r0, [r2]
    bbf8:	e59f3144 	ldr	r3, [pc, #324]	; bd44 <__malloc_set_state+0x378>
    bbfc:	e3530000 	cmp	r3, #0	; 0x0
    bc00:	05883000 	streq	r3, [r8]
    bc04:	159f0110 	ldrne	r0, [pc, #272]	; bd1c <__malloc_set_state+0x350>
    bc08:	11a0e00f 	movne	lr, pc
    bc0c:	11a0f003 	movne	pc, r3
    bc10:	e3a00000 	mov	r0, #0	; 0x0
    bc14:	e8bd85f0 	ldmia	sp!, {r4, r5, r6, r7, r8, sl, pc}
    bc18:	ebfffcd3 	bl	af6c <__malloc_check_init>
    bc1c:	eafffff5 	b	bbf8 <__malloc_set_state+0x22c>
    bc20:	e5943014 	ldr	r3, [r4, #20]
    bc24:	e5932004 	ldr	r2, [r3, #4]
    bc28:	e3c22007 	bic	r2, r2, #7	; 0x7
    bc2c:	e1a03322 	mov	r3, r2, lsr #6
    bc30:	e3530020 	cmp	r3, #32	; 0x20
    bc34:	92833038 	addls	r3, r3, #56	; 0x38
    bc38:	9a000003 	bls	bc4c <__malloc_set_state+0x280>
    bc3c:	e1a034a2 	mov	r3, r2, lsr #9
    bc40:	e3530014 	cmp	r3, #20	; 0x14
    bc44:	8a000011 	bhi	bc90 <__malloc_set_state+0x2c4>
    bc48:	e283305b 	add	r3, r3, #91	; 0x5b
    bc4c:	e1530005 	cmp	r3, r5
    bc50:	1affffa1 	bne	badc <__malloc_set_state+0x110>
    bc54:	e5941010 	ldr	r1, [r4, #16]
    bc58:	e1a002a5 	mov	r0, r5, lsr #5
    bc5c:	e58e1008 	str	r1, [lr, #8]
    bc60:	e5943014 	ldr	r3, [r4, #20]
    bc64:	e0880100 	add	r0, r8, r0, lsl #2
    bc68:	e58e300c 	str	r3, [lr, #12]
    bc6c:	e590245c 	ldr	r2, [r0, #1116]
    bc70:	e581e00c 	str	lr, [r1, #12]
    bc74:	e59ec00c 	ldr	ip, [lr, #12]
    bc78:	e205101f 	and	r1, r5, #31	; 0x1f
    bc7c:	e3a03001 	mov	r3, #1	; 0x1
    bc80:	e1822113 	orr	r2, r2, r3, lsl r1
    bc84:	e58ce008 	str	lr, [ip, #8]
    bc88:	e580245c 	str	r2, [r0, #1116]
    bc8c:	eaffff9f 	b	bb10 <__malloc_set_state+0x144>
    bc90:	e1a03622 	mov	r3, r2, lsr #12
    bc94:	e353000a 	cmp	r3, #10	; 0xa
    bc98:	9283306e 	addls	r3, r3, #110	; 0x6e
    bc9c:	9affffea 	bls	bc4c <__malloc_set_state+0x280>
    bca0:	e1a037a2 	mov	r3, r2, lsr #15
    bca4:	e3530004 	cmp	r3, #4	; 0x4
    bca8:	92833077 	addls	r3, r3, #119	; 0x77
    bcac:	9affffe6 	bls	bc4c <__malloc_set_state+0x280>
    bcb0:	e1a02922 	mov	r2, r2, lsr #18
    bcb4:	e3520002 	cmp	r2, #2	; 0x2
    bcb8:	9282307c 	addls	r3, r2, #124	; 0x7c
    bcbc:	9affffe2 	bls	bc4c <__malloc_set_state+0x280>
    bcc0:	e355007e 	cmp	r5, #126	; 0x7e
    bcc4:	eaffffe1 	b	bc50 <__malloc_set_state+0x284>
    bcc8:	e1a03622 	mov	r3, r2, lsr #12
    bccc:	e353000a 	cmp	r3, #10	; 0xa
    bcd0:	9283306e 	addls	r3, r3, #110	; 0x6e
    bcd4:	9affff7e 	bls	bad4 <__malloc_set_state+0x108>
    bcd8:	e1a037a2 	mov	r3, r2, lsr #15
    bcdc:	e3530004 	cmp	r3, #4	; 0x4
    bce0:	92833077 	addls	r3, r3, #119	; 0x77
    bce4:	9affff7a 	bls	bad4 <__malloc_set_state+0x108>
    bce8:	e1a03922 	mov	r3, r2, lsr #18
    bcec:	e3530002 	cmp	r3, #2	; 0x2
    bcf0:	9283307c 	addls	r3, r3, #124	; 0x7c
    bcf4:	9affff76 	bls	bad4 <__malloc_set_state+0x108>
    bcf8:	e355007e 	cmp	r5, #126	; 0x7e
    bcfc:	eaffff75 	b	bad8 <__malloc_set_state+0x10c>
    bd00:	e3e00001 	mvn	r0, #1	; 0x1
    bd04:	e8bd85f0 	ldmia	sp!, {r4, r5, r6, r7, r8, sl, pc}
    bd08:	e3e00000 	mvn	r0, #0	; 0x0
    bd0c:	e8bd85f0 	ldmia	sp!, {r4, r5, r6, r7, r8, sl, pc}
    bd10:	000734d0 	ldreqd	r3, [r7], -r0
    bd14:	444c4541 	strmib	r4, [ip], #-1345
    bd18:	00000000 	andeq	r0, r0, r0
    bd1c:	00072ff8 	streqd	r2, [r7], -r8
    bd20:	0007304c 	andeq	r3, r7, ip, asr #32
    bd24:	00073054 	andeq	r3, r7, r4, asr r0
    bd28:	00073470 	andeq	r3, r7, r0, ror r4
    bd2c:	000724d0 	ldreqd	r2, [r7], -r0
    bd30:	000734cc 	andeq	r3, r7, ip, asr #9
    bd34:	000724c0 	andeq	r2, r7, r0, asr #9
    bd38:	00072fec 	andeq	r2, r7, ip, ror #31
    bd3c:	000724c4 	andeq	r2, r7, r4, asr #9
    bd40:	000724c8 	andeq	r2, r7, r8, asr #9
    bd44:	00000000 	andeq	r0, r0, r0

0000bd48 <sYSMALLOc>:
    bd48:	e92d4ff0 	stmdb	sp!, {r4, r5, r6, r7, r8, r9, sl, fp, lr}
    bd4c:	e59f94ec 	ldr	r9, [pc, #1260]	; c240 <sYSMALLOc+0x4f8>
    bd50:	e24dd014 	sub	sp, sp, #20	; 0x14
    bd54:	e5993008 	ldr	r3, [r9, #8]
    bd58:	e5992018 	ldr	r2, [r9, #24]
    bd5c:	e1500003 	cmp	r0, r3
    bd60:	e2422001 	sub	r2, r2, #1	; 0x1
    bd64:	e1a08000 	mov	r8, r0
    bd68:	e1a06001 	mov	r6, r1
    bd6c:	e58d200c 	str	r2, [sp, #12]
    bd70:	3a000009 	bcc	bd9c <sYSMALLOc+0x54>
    bd74:	e599200c 	ldr	r2, [r9, #12]
    bd78:	e5993010 	ldr	r3, [r9, #16]
    bd7c:	e1520003 	cmp	r2, r3
    bd80:	aa000005 	bge	bd9c <sYSMALLOc+0x54>
    bd84:	e59d100c 	ldr	r1, [sp, #12]
    bd88:	e0803001 	add	r3, r0, r1
    bd8c:	e283300b 	add	r3, r3, #11	; 0xb
    bd90:	e1c35001 	bic	r5, r3, r1
    bd94:	e1550000 	cmp	r5, r0
    bd98:	8a000105 	bhi	c1b4 <sYSMALLOc+0x46c>
    bd9c:	e596a054 	ldr	sl, [r6, #84]
    bda0:	e59f249c 	ldr	r2, [pc, #1180]	; c244 <sYSMALLOc+0x4fc>
    bda4:	e59a3004 	ldr	r3, [sl, #4]
    bda8:	e1560002 	cmp	r6, r2
    bdac:	e3c37007 	bic	r7, r3, #7	; 0x7
    bdb0:	e3a03000 	mov	r3, #0	; 0x0
    bdb4:	e58d3010 	str	r3, [sp, #16]
    bdb8:	e08a4007 	add	r4, sl, r7
    bdbc:	e1a0b003 	mov	fp, r3
    bdc0:	0a00005d 	beq	bf3c <sYSMALLOc+0x1f4>
    bdc4:	e1a04a2a 	mov	r4, sl, lsr #20
    bdc8:	e1a04a04 	mov	r4, r4, lsl #20
    bdcc:	e0671008 	rsb	r1, r7, r8
    bdd0:	e2811010 	add	r1, r1, #16	; 0x10
    bdd4:	e1a00004 	mov	r0, r4
    bdd8:	e5945008 	ldr	r5, [r4, #8]
    bddc:	ebfffb10 	bl	aa24 <grow_heap>
    bde0:	e150000b 	cmp	r0, fp
    bde4:	1a00002b 	bne	be98 <sYSMALLOc+0x150>
    bde8:	e5943008 	ldr	r3, [r4, #8]
    bdec:	e5962470 	ldr	r2, [r6, #1136]
    bdf0:	e0653003 	rsb	r3, r5, r3
    bdf4:	e0822003 	add	r2, r2, r3
    bdf8:	e5862470 	str	r2, [r6, #1136]
    bdfc:	e5941008 	ldr	r1, [r4, #8]
    be00:	e59f0440 	ldr	r0, [pc, #1088]	; c248 <sYSMALLOc+0x500>
    be04:	e0843001 	add	r3, r4, r1
    be08:	e5902000 	ldr	r2, [r0]
    be0c:	e0651001 	rsb	r1, r5, r1
    be10:	e06a3003 	rsb	r3, sl, r3
    be14:	e0822001 	add	r2, r2, r1
    be18:	e3833001 	orr	r3, r3, #1	; 0x1
    be1c:	e5802000 	str	r2, [r0]
    be20:	e58a3004 	str	r3, [sl, #4]
    be24:	e5962470 	ldr	r2, [r6, #1136]
    be28:	e5963474 	ldr	r3, [r6, #1140]
    be2c:	e596c054 	ldr	ip, [r6, #84]
    be30:	e1520003 	cmp	r2, r3
    be34:	85862474 	strhi	r2, [r6, #1140]
    be38:	e59c3004 	ldr	r3, [ip, #4]
    be3c:	e2882010 	add	r2, r8, #16	; 0x10
    be40:	e3c35007 	bic	r5, r3, #7	; 0x7
    be44:	e1550002 	cmp	r5, r2
    be48:	3a00000d 	bcc	be84 <sYSMALLOc+0x13c>
    be4c:	e59f23f0 	ldr	r2, [pc, #1008]	; c244 <sYSMALLOc+0x4fc>
    be50:	e3883001 	orr	r3, r8, #1	; 0x1
    be54:	e0561002 	subs	r1, r6, r2
    be58:	13a01001 	movne	r1, #1	; 0x1
    be5c:	e0682005 	rsb	r2, r8, r5
    be60:	e1833101 	orr	r3, r3, r1, lsl #2
    be64:	e3822001 	orr	r2, r2, #1	; 0x1
    be68:	e08c1008 	add	r1, ip, r8
    be6c:	e28c0008 	add	r0, ip, #8	; 0x8
    be70:	e58c3004 	str	r3, [ip, #4]
    be74:	e5861054 	str	r1, [r6, #84]
    be78:	e5812004 	str	r2, [r1, #4]
    be7c:	e28dd014 	add	sp, sp, #20	; 0x14
    be80:	e8bd8ff0 	ldmia	sp!, {r4, r5, r6, r7, r8, r9, sl, fp, pc}
    be84:	ebfff19f 	bl	8508 <__errno_location>
    be88:	e3a0300c 	mov	r3, #12	; 0xc
    be8c:	e5803000 	str	r3, [r0]
    be90:	e3a00000 	mov	r0, #0	; 0x0
    be94:	eafffff8 	b	be7c <sYSMALLOc+0x134>
    be98:	e5991004 	ldr	r1, [r9, #4]
    be9c:	e2880020 	add	r0, r8, #32	; 0x20
    bea0:	ebfffa94 	bl	a8f8 <new_heap>
    bea4:	e3500000 	cmp	r0, #0	; 0x0
    bea8:	e1a0e000 	mov	lr, r0
    beac:	0affffdc 	beq	be24 <sYSMALLOc+0xdc>
    beb0:	e5902008 	ldr	r2, [r0, #8]
    beb4:	e5963470 	ldr	r3, [r6, #1136]
    beb8:	e59fc388 	ldr	ip, [pc, #904]	; c248 <sYSMALLOc+0x500>
    bebc:	e0833002 	add	r3, r3, r2
    bec0:	e5863470 	str	r3, [r6, #1136]
    bec4:	e5901008 	ldr	r1, [r0, #8]
    bec8:	e59c2000 	ldr	r2, [ip]
    becc:	e2477010 	sub	r7, r7, #16	; 0x10
    bed0:	e2413010 	sub	r3, r1, #16	; 0x10
    bed4:	e0822001 	add	r2, r2, r1
    bed8:	e357000f 	cmp	r7, #15	; 0xf
    bedc:	e2800010 	add	r0, r0, #16	; 0x10
    bee0:	e3833001 	orr	r3, r3, #1	; 0x1
    bee4:	e5803004 	str	r3, [r0, #4]
    bee8:	e08a5007 	add	r5, sl, r7
    beec:	e3a03001 	mov	r3, #1	; 0x1
    bef0:	e58c2000 	str	r2, [ip]
    bef4:	92872008 	addls	r2, r7, #8	; 0x8
    bef8:	e585300c 	str	r3, [r5, #12]
    befc:	93823001 	orrls	r3, r2, #1	; 0x1
    bf00:	e58e4004 	str	r4, [lr, #4]
    bf04:	e58e6000 	str	r6, [lr]
    bf08:	e5860054 	str	r0, [r6, #84]
    bf0c:	958a3004 	strls	r3, [sl, #4]
    bf10:	95852008 	strls	r2, [r5, #8]
    bf14:	9affffc2 	bls	be24 <sYSMALLOc+0xdc>
    bf18:	e3870005 	orr	r0, r7, #5	; 0x5
    bf1c:	e3a03008 	mov	r3, #8	; 0x8
    bf20:	e3a02009 	mov	r2, #9	; 0x9
    bf24:	e28a1008 	add	r1, sl, #8	; 0x8
    bf28:	e985000c 	stmib	r5, {r2, r3}
    bf2c:	e58a0004 	str	r0, [sl, #4]
    bf30:	e1a00006 	mov	r0, r6
    bf34:	eb0005bc 	bl	d62c <_int_free>
    bf38:	eaffffb9 	b	be24 <sYSMALLOc+0xdc>
    bf3c:	e5993004 	ldr	r3, [r9, #4]
    bf40:	e5962028 	ldr	r2, [r6, #40]
    bf44:	e0883003 	add	r3, r8, r3
    bf48:	e2835010 	add	r5, r3, #16	; 0x10
    bf4c:	e3120002 	tst	r2, #2	; 0x2
    bf50:	e59dc00c 	ldr	ip, [sp, #12]
    bf54:	00675005 	rsbeq	r5, r7, r5
    bf58:	e1e0100c 	mvn	r1, ip
    bf5c:	e085300c 	add	r3, r5, ip
    bf60:	e0035001 	and	r5, r3, r1
    bf64:	e3550000 	cmp	r5, #0	; 0x0
    bf68:	e58d1008 	str	r1, [sp, #8]
    bf6c:	da000074 	ble	c144 <sYSMALLOc+0x3fc>
    bf70:	e1a00005 	mov	r0, r5
    bf74:	e59f32d0 	ldr	r3, [pc, #720]	; c24c <sYSMALLOc+0x504>
    bf78:	e1a0e00f 	mov	lr, pc
    bf7c:	e593f000 	ldr	pc, [r3]
    bf80:	e3500000 	cmp	r0, #0	; 0x0
    bf84:	e1a0b000 	mov	fp, r0
    bf88:	0a00006d 	beq	c144 <sYSMALLOc+0x3fc>
    bf8c:	e59f32bc 	ldr	r3, [pc, #700]	; c250 <sYSMALLOc+0x508>
    bf90:	e5933000 	ldr	r3, [r3]
    bf94:	e3530000 	cmp	r3, #0	; 0x0
    bf98:	1a000066 	bne	c138 <sYSMALLOc+0x3f0>
    bf9c:	e35b0000 	cmp	fp, #0	; 0x0
    bfa0:	0affff9f 	beq	be24 <sYSMALLOc+0xdc>
    bfa4:	e5993028 	ldr	r3, [r9, #40]
    bfa8:	e59d2010 	ldr	r2, [sp, #16]
    bfac:	e3530000 	cmp	r3, #0	; 0x0
    bfb0:	0589b028 	streq	fp, [r9, #40]
    bfb4:	e3520000 	cmp	r2, #0	; 0x0
    bfb8:	13a03000 	movne	r3, #0	; 0x0
    bfbc:	03a03001 	moveq	r3, #1	; 0x1
    bfc0:	e5962470 	ldr	r2, [r6, #1136]
    bfc4:	e15b0004 	cmp	fp, r4
    bfc8:	13a00000 	movne	r0, #0	; 0x0
    bfcc:	02030001 	andeq	r0, r3, #1	; 0x1
    bfd0:	e0822005 	add	r2, r2, r5
    bfd4:	e3500000 	cmp	r0, #0	; 0x0
    bfd8:	e5862470 	str	r2, [r6, #1136]
    bfdc:	0a000002 	beq	bfec <sYSMALLOc+0x2a4>
    bfe0:	e0853007 	add	r3, r5, r7
    bfe4:	e3833001 	orr	r3, r3, #1	; 0x1
    bfe8:	eaffff8c 	b	be20 <sYSMALLOc+0xd8>
    bfec:	e5961028 	ldr	r1, [r6, #40]
    bff0:	e1a030a1 	mov	r3, r1, lsr #1
    bff4:	e2233001 	eor	r3, r3, #1	; 0x1
    bff8:	e2033001 	and	r3, r3, #1	; 0x1
    bffc:	e3570000 	cmp	r7, #0	; 0x0
    c000:	03a03000 	moveq	r3, #0	; 0x0
    c004:	12033001 	andne	r3, r3, #1	; 0x1
    c008:	e3530000 	cmp	r3, #0	; 0x0
    c00c:	0a000001 	beq	c018 <sYSMALLOc+0x2d0>
    c010:	e15b0004 	cmp	fp, r4
    c014:	3affff82 	bcc	be24 <sYSMALLOc+0xdc>
    c018:	e3570000 	cmp	r7, #0	; 0x0
    c01c:	1064300b 	rsbne	r3, r4, fp
    c020:	10823003 	addne	r3, r2, r3
    c024:	15863470 	strne	r3, [r6, #1136]
    c028:	e3110002 	tst	r1, #2	; 0x2
    c02c:	e1a04000 	mov	r4, r0
    c030:	e1a0900b 	mov	r9, fp
    c034:	1a000038 	bne	c11c <sYSMALLOc+0x3d4>
    c038:	e21b3007 	ands	r3, fp, #7	; 0x7
    c03c:	12634008 	rsbne	r4, r3, #8	; 0x8
    c040:	108b9004 	addne	r9, fp, r4
    c044:	e08b2005 	add	r2, fp, r5
    c048:	e0844007 	add	r4, r4, r7
    c04c:	e59dc00c 	ldr	ip, [sp, #12]
    c050:	e0822004 	add	r2, r2, r4
    c054:	e59d1008 	ldr	r1, [sp, #8]
    c058:	e082300c 	add	r3, r2, ip
    c05c:	e0033001 	and	r3, r3, r1
    c060:	e0623003 	rsb	r3, r2, r3
    c064:	e0844003 	add	r4, r4, r3
    c068:	e59f51dc 	ldr	r5, [pc, #476]	; c24c <sYSMALLOc+0x504>
    c06c:	e1a00004 	mov	r0, r4
    c070:	e1a0e00f 	mov	lr, pc
    c074:	e595f000 	ldr	pc, [r5]
    c078:	e3500000 	cmp	r0, #0	; 0x0
    c07c:	e58d0010 	str	r0, [sp, #16]
    c080:	0a000020 	beq	c108 <sYSMALLOc+0x3c0>
    c084:	e59f31c4 	ldr	r3, [pc, #452]	; c250 <sYSMALLOc+0x508>
    c088:	e5933000 	ldr	r3, [r3]
    c08c:	e3530000 	cmp	r3, #0	; 0x0
    c090:	1a000019 	bne	c0fc <sYSMALLOc+0x3b4>
    c094:	e59d3010 	ldr	r3, [sp, #16]
    c098:	e3530000 	cmp	r3, #0	; 0x0
    c09c:	0affff60 	beq	be24 <sYSMALLOc+0xdc>
    c0a0:	e59dc010 	ldr	ip, [sp, #16]
    c0a4:	e3570000 	cmp	r7, #0	; 0x0
    c0a8:	e069300c 	rsb	r3, r9, ip
    c0ac:	e0833004 	add	r3, r3, r4
    c0b0:	e3833001 	orr	r3, r3, #1	; 0x1
    c0b4:	e5893004 	str	r3, [r9, #4]
    c0b8:	e5962470 	ldr	r2, [r6, #1136]
    c0bc:	e5869054 	str	r9, [r6, #84]
    c0c0:	e0822004 	add	r2, r2, r4
    c0c4:	e5862470 	str	r2, [r6, #1136]
    c0c8:	0affff55 	beq	be24 <sYSMALLOc+0xdc>
    c0cc:	e2473010 	sub	r3, r7, #16	; 0x10
    c0d0:	e3c37007 	bic	r7, r3, #7	; 0x7
    c0d4:	e08a1007 	add	r1, sl, r7
    c0d8:	e3a02009 	mov	r2, #9	; 0x9
    c0dc:	e3873001 	orr	r3, r7, #1	; 0x1
    c0e0:	e357000f 	cmp	r7, #15	; 0xf
    c0e4:	e58a3004 	str	r3, [sl, #4]
    c0e8:	e581200c 	str	r2, [r1, #12]
    c0ec:	e5812004 	str	r2, [r1, #4]
    c0f0:	9affff4b 	bls	be24 <sYSMALLOc+0xdc>
    c0f4:	e28a1008 	add	r1, sl, #8	; 0x8
    c0f8:	eaffff8c 	b	bf30 <sYSMALLOc+0x1e8>
    c0fc:	e1a0e00f 	mov	lr, pc
    c100:	e1a0f003 	mov	pc, r3
    c104:	eaffffe2 	b	c094 <sYSMALLOc+0x34c>
    c108:	e1a04000 	mov	r4, r0
    c10c:	e1a0e00f 	mov	lr, pc
    c110:	e595f000 	ldr	pc, [r5]
    c114:	e58d0010 	str	r0, [sp, #16]
    c118:	eaffffdd 	b	c094 <sYSMALLOc+0x34c>
    c11c:	e59d2010 	ldr	r2, [sp, #16]
    c120:	e3520000 	cmp	r2, #0	; 0x0
    c124:	1affffdd 	bne	c0a0 <sYSMALLOc+0x358>
    c128:	e59f311c 	ldr	r3, [pc, #284]	; c24c <sYSMALLOc+0x504>
    c12c:	e1a0e00f 	mov	lr, pc
    c130:	e593f000 	ldr	pc, [r3]
    c134:	eafffff6 	b	c114 <sYSMALLOc+0x3cc>
    c138:	e1a0e00f 	mov	lr, pc
    c13c:	e1a0f003 	mov	pc, r3
    c140:	eaffff95 	b	bf9c <sYSMALLOc+0x254>
    c144:	e5963028 	ldr	r3, [r6, #40]
    c148:	e3130002 	tst	r3, #2	; 0x2
    c14c:	059d200c 	ldreq	r2, [sp, #12]
    c150:	00853007 	addeq	r3, r5, r7
    c154:	059dc008 	ldreq	ip, [sp, #8]
    c158:	00833002 	addeq	r3, r3, r2
    c15c:	0003500c 	andeq	r5, r3, ip
    c160:	e3550601 	cmp	r5, #1048576	; 0x100000
    c164:	33a05601 	movcc	r5, #1048576	; 0x100000
    c168:	e1550008 	cmp	r5, r8
    c16c:	9affff8a 	bls	bf9c <sYSMALLOc+0x254>
    c170:	e59d0010 	ldr	r0, [sp, #16]
    c174:	e3e0c000 	mvn	ip, #0	; 0x0
    c178:	e1a01005 	mov	r1, r5
    c17c:	e3a02003 	mov	r2, #3	; 0x3
    c180:	e3a03022 	mov	r3, #34	; 0x22
    c184:	e58dc000 	str	ip, [sp]
    c188:	e58d0004 	str	r0, [sp, #4]
    c18c:	eb000d33 	bl	f660 <__mmap>
    c190:	e3700001 	cmn	r0, #1	; 0x1
    c194:	0affff80 	beq	bf9c <sYSMALLOc+0x254>
    c198:	e5963028 	ldr	r3, [r6, #40]
    c19c:	e0801005 	add	r1, r0, r5
    c1a0:	e3833002 	orr	r3, r3, #2	; 0x2
    c1a4:	e1a0b000 	mov	fp, r0
    c1a8:	e5863028 	str	r3, [r6, #40]
    c1ac:	e58d1010 	str	r1, [sp, #16]
    c1b0:	eaffff79 	b	bf9c <sYSMALLOc+0x254>
    c1b4:	e3a04000 	mov	r4, #0	; 0x0
    c1b8:	e3e0c000 	mvn	ip, #0	; 0x0
    c1bc:	e1a00004 	mov	r0, r4
    c1c0:	e1a01005 	mov	r1, r5
    c1c4:	e3a02003 	mov	r2, #3	; 0x3
    c1c8:	e3a03022 	mov	r3, #34	; 0x22
    c1cc:	e58dc000 	str	ip, [sp]
    c1d0:	e58d4004 	str	r4, [sp, #4]
    c1d4:	eb000d21 	bl	f660 <__mmap>
    c1d8:	e3700001 	cmn	r0, #1	; 0x1
    c1dc:	0afffeee 	beq	bd9c <sYSMALLOc+0x54>
    c1e0:	e2103007 	ands	r3, r0, #7	; 0x7
    c1e4:	12634008 	rsbne	r4, r3, #8	; 0x8
    c1e8:	10643005 	rsbne	r3, r4, r5
    c1ec:	1080c004 	addne	ip, r0, r4
    c1f0:	01a0c000 	moveq	ip, r0
    c1f4:	13833002 	orrne	r3, r3, #2	; 0x2
    c1f8:	03853002 	orreq	r3, r5, #2	; 0x2
    c1fc:	17804004 	strne	r4, [r0, r4]
    c200:	e58c3004 	str	r3, [ip, #4]
    c204:	e599300c 	ldr	r3, [r9, #12]
    c208:	e5992014 	ldr	r2, [r9, #20]
    c20c:	e2833001 	add	r3, r3, #1	; 0x1
    c210:	e59f1028 	ldr	r1, [pc, #40]	; c240 <sYSMALLOc+0x4f8>
    c214:	e1530002 	cmp	r3, r2
    c218:	c5893014 	strgt	r3, [r9, #20]
    c21c:	e589300c 	str	r3, [r9, #12]
    c220:	e591301c 	ldr	r3, [r1, #28]
    c224:	e5912020 	ldr	r2, [r1, #32]
    c228:	e0830005 	add	r0, r3, r5
    c22c:	e1500002 	cmp	r0, r2
    c230:	e581001c 	str	r0, [r1, #28]
    c234:	85810020 	strhi	r0, [r1, #32]
    c238:	e28c0008 	add	r0, ip, #8	; 0x8
    c23c:	eaffff0e 	b	be7c <sYSMALLOc+0x134>
    c240:	00073470 	andeq	r3, r7, r0, ror r4
    c244:	00072ff8 	streqd	r2, [r7], -r8
    c248:	000734b8 	streqh	r3, [r7], -r8
    c24c:	000724bc 	streqh	r2, [r7], -ip
    c250:	00072ff0 	streqd	r2, [r7], -r0

0000c254 <sYSTRIm>:
    c254:	e92d41f0 	stmdb	sp!, {r4, r5, r6, r7, r8, lr}
    c258:	e5913054 	ldr	r3, [r1, #84]
    c25c:	e59f20c4 	ldr	r2, [pc, #196]	; c328 <sYSTRIm+0xd4>
    c260:	e1a07001 	mov	r7, r1
    c264:	e5931004 	ldr	r1, [r3, #4]
    c268:	e5924018 	ldr	r4, [r2, #24]
    c26c:	e3c15007 	bic	r5, r1, #7	; 0x7
    c270:	e0600005 	rsb	r0, r0, r5
    c274:	e0800004 	add	r0, r0, r4
    c278:	e1a01004 	mov	r1, r4
    c27c:	e2400011 	sub	r0, r0, #17	; 0x11
    c280:	eb01261e 	bl	55b00 <__aeabi_uidiv>
    c284:	e2403001 	sub	r3, r0, #1	; 0x1
    c288:	e0040493 	mul	r4, r3, r4
    c28c:	e3a00000 	mov	r0, #0	; 0x0
    c290:	e1540000 	cmp	r4, r0
    c294:	e59f8090 	ldr	r8, [pc, #144]	; c32c <sYSTRIm+0xd8>
    c298:	da000007 	ble	c2bc <sYSTRIm+0x68>
    c29c:	e1a0e00f 	mov	lr, pc
    c2a0:	e598f000 	ldr	pc, [r8]
    c2a4:	e5973054 	ldr	r3, [r7, #84]
    c2a8:	e1a06000 	mov	r6, r0
    c2ac:	e0833005 	add	r3, r3, r5
    c2b0:	e1560003 	cmp	r6, r3
    c2b4:	e2640000 	rsb	r0, r4, #0	; 0x0
    c2b8:	0a000001 	beq	c2c4 <sYSTRIm+0x70>
    c2bc:	e3a00000 	mov	r0, #0	; 0x0
    c2c0:	e8bd81f0 	ldmia	sp!, {r4, r5, r6, r7, r8, pc}
    c2c4:	e1a0e00f 	mov	lr, pc
    c2c8:	e598f000 	ldr	pc, [r8]
    c2cc:	e59f305c 	ldr	r3, [pc, #92]	; c330 <sYSTRIm+0xdc>
    c2d0:	e5933000 	ldr	r3, [r3]
    c2d4:	e3530000 	cmp	r3, #0	; 0x0
    c2d8:	1a00000f 	bne	c31c <sYSTRIm+0xc8>
    c2dc:	e3a00000 	mov	r0, #0	; 0x0
    c2e0:	e1a0e00f 	mov	lr, pc
    c2e4:	e598f000 	ldr	pc, [r8]
    c2e8:	e3500000 	cmp	r0, #0	; 0x0
    c2ec:	0afffff2 	beq	c2bc <sYSTRIm+0x68>
    c2f0:	e056c000 	subs	ip, r6, r0
    c2f4:	e06c3005 	rsb	r3, ip, r5
    c2f8:	e3a00001 	mov	r0, #1	; 0x1
    c2fc:	e1831000 	orr	r1, r3, r0
    c300:	0affffed 	beq	c2bc <sYSTRIm+0x68>
    c304:	e5973470 	ldr	r3, [r7, #1136]
    c308:	e5972054 	ldr	r2, [r7, #84]
    c30c:	e06c3003 	rsb	r3, ip, r3
    c310:	e5873470 	str	r3, [r7, #1136]
    c314:	e5821004 	str	r1, [r2, #4]
    c318:	e8bd81f0 	ldmia	sp!, {r4, r5, r6, r7, r8, pc}
    c31c:	e1a0e00f 	mov	lr, pc
    c320:	e1a0f003 	mov	pc, r3
    c324:	eaffffec 	b	c2dc <sYSTRIm+0x88>
    c328:	00073470 	andeq	r3, r7, r0, ror r4
    c32c:	000724bc 	streqh	r2, [r7], -ip
    c330:	00072ff0 	streqd	r2, [r7], -r0

0000c334 <munmap_chunk>:
    c334:	e59fc034 	ldr	ip, [pc, #52]	; c370 <munmap_chunk+0x3c>
    c338:	e5901004 	ldr	r1, [r0, #4]
    c33c:	e59c300c 	ldr	r3, [ip, #12]
    c340:	e3c11007 	bic	r1, r1, #7	; 0x7
    c344:	e2433001 	sub	r3, r3, #1	; 0x1
    c348:	e58c300c 	str	r3, [ip, #12]
    c34c:	e5902000 	ldr	r2, [r0]
    c350:	e59c301c 	ldr	r3, [ip, #28]
    c354:	e0812002 	add	r2, r1, r2
    c358:	e0623003 	rsb	r3, r2, r3
    c35c:	e58c301c 	str	r3, [ip, #28]
    c360:	e5902000 	ldr	r2, [r0]
    c364:	e0811002 	add	r1, r1, r2
    c368:	e0620000 	rsb	r0, r2, r0
    c36c:	ea000cc3 	b	f680 <__munmap>
    c370:	00073470 	andeq	r3, r7, r0, ror r4

0000c374 <mremap_chunk>:
    c374:	e92d40f0 	stmdb	sp!, {r4, r5, r6, r7, lr}
    c378:	e59f707c 	ldr	r7, [pc, #124]	; c3fc <mremap_chunk+0x88>
    c37c:	e5904000 	ldr	r4, [r0]
    c380:	e1a0c000 	mov	ip, r0
    c384:	e5970018 	ldr	r0, [r7, #24]
    c388:	e59c2004 	ldr	r2, [ip, #4]
    c38c:	e2400001 	sub	r0, r0, #1	; 0x1
    c390:	e0813004 	add	r3, r1, r4
    c394:	e0833000 	add	r3, r3, r0
    c398:	e3c22007 	bic	r2, r2, #7	; 0x7
    c39c:	e2833004 	add	r3, r3, #4	; 0x4
    c3a0:	e1c35000 	bic	r5, r3, r0
    c3a4:	e0826004 	add	r6, r2, r4
    c3a8:	e064000c 	rsb	r0, r4, ip
    c3ac:	e3a03001 	mov	r3, #1	; 0x1
    c3b0:	e1a01006 	mov	r1, r6
    c3b4:	e1a02005 	mov	r2, r5
    c3b8:	eb000cb8 	bl	f6a0 <__mremap>
    c3bc:	e0643005 	rsb	r3, r4, r5
    c3c0:	e3700001 	cmn	r0, #1	; 0x1
    c3c4:	e080c004 	add	ip, r0, r4
    c3c8:	e3833002 	orr	r3, r3, #2	; 0x2
    c3cc:	e3a00000 	mov	r0, #0	; 0x0
    c3d0:	0a000008 	beq	c3f8 <mremap_chunk+0x84>
    c3d4:	e58c3004 	str	r3, [ip, #4]
    c3d8:	e597301c 	ldr	r3, [r7, #28]
    c3dc:	e5972020 	ldr	r2, [r7, #32]
    c3e0:	e0663003 	rsb	r3, r6, r3
    c3e4:	e0831005 	add	r1, r3, r5
    c3e8:	e1510002 	cmp	r1, r2
    c3ec:	e1a0000c 	mov	r0, ip
    c3f0:	e587101c 	str	r1, [r7, #28]
    c3f4:	85871020 	strhi	r1, [r7, #32]
    c3f8:	e8bd80f0 	ldmia	sp!, {r4, r5, r6, r7, pc}
    c3fc:	00073470 	andeq	r3, r7, r0, ror r4

0000c400 <__libc_malloc>:
    c400:	e92d41f0 	stmdb	sp!, {r4, r5, r6, r7, r8, lr}
    c404:	e59f3190 	ldr	r3, [pc, #400]	; c59c <__libc_malloc+0x19c>
    c408:	e1a0100e 	mov	r1, lr
    c40c:	e5933000 	ldr	r3, [r3]
    c410:	e1a06000 	mov	r6, r0
    c414:	e3530000 	cmp	r3, #0	; 0x0
    c418:	0a000002 	beq	c428 <__libc_malloc+0x28>
    c41c:	e1a0e00f 	mov	lr, pc
    c420:	e1a0f003 	mov	pc, r3
    c424:	e8bd81f0 	ldmia	sp!, {r4, r5, r6, r7, r8, pc}
    c428:	e59f2170 	ldr	r2, [pc, #368]	; c5a0 <__libc_malloc+0x1a0>
    c42c:	e3520000 	cmp	r2, #0	; 0x0
    c430:	059f316c 	ldreq	r3, [pc, #364]	; c5a4 <__libc_malloc+0x1a4>
    c434:	05935000 	ldreq	r5, [r3]
    c438:	0a000003 	beq	c44c <__libc_malloc+0x4c>
    c43c:	e1a00003 	mov	r0, r3
    c440:	e1a0e00f 	mov	lr, pc
    c444:	e1a0f002 	mov	pc, r2
    c448:	e1a05000 	mov	r5, r0
    c44c:	e2554000 	subs	r4, r5, #0	; 0x0
    c450:	0a000007 	beq	c474 <__libc_malloc+0x74>
    c454:	e59f314c 	ldr	r3, [pc, #332]	; c5a8 <__libc_malloc+0x1a8>
    c458:	e3530000 	cmp	r3, #0	; 0x0
    c45c:	0a000049 	beq	c588 <__libc_malloc+0x188>
    c460:	e1a00004 	mov	r0, r4
    c464:	e1a0e00f 	mov	lr, pc
    c468:	e1a0f003 	mov	pc, r3
    c46c:	e3500000 	cmp	r0, #0	; 0x0
    c470:	0a000003 	beq	c484 <__libc_malloc+0x84>
    c474:	e1a00005 	mov	r0, r5
    c478:	e1a01006 	mov	r1, r6
    c47c:	ebfff9ee 	bl	ac3c <arena_get2>
    c480:	e1a04000 	mov	r4, r0
    c484:	e3540000 	cmp	r4, #0	; 0x0
    c488:	0a00003c 	beq	c580 <__libc_malloc+0x180>
    c48c:	e1a00004 	mov	r0, r4
    c490:	e1a01006 	mov	r1, r6
    c494:	eb00031b 	bl	d108 <_int_malloc>
    c498:	e3500000 	cmp	r0, #0	; 0x0
    c49c:	e1a05000 	mov	r5, r0
    c4a0:	0a000009 	beq	c4cc <__libc_malloc+0xcc>
    c4a4:	e59f3100 	ldr	r3, [pc, #256]	; c5ac <__libc_malloc+0x1ac>
    c4a8:	e3530000 	cmp	r3, #0	; 0x0
    c4ac:	0a000004 	beq	c4c4 <__libc_malloc+0xc4>
    c4b0:	e1a00004 	mov	r0, r4
    c4b4:	e1a0e00f 	mov	lr, pc
    c4b8:	e1a0f003 	mov	pc, r3
    c4bc:	e1a00005 	mov	r0, r5
    c4c0:	e8bd81f0 	ldmia	sp!, {r4, r5, r6, r7, r8, pc}
    c4c4:	e5843000 	str	r3, [r4]
    c4c8:	eafffffb 	b	c4bc <__libc_malloc+0xbc>
    c4cc:	e59f70dc 	ldr	r7, [pc, #220]	; c5b0 <__libc_malloc+0x1b0>
    c4d0:	e1540007 	cmp	r4, r7
    c4d4:	0a000019 	beq	c540 <__libc_malloc+0x140>
    c4d8:	e59f80cc 	ldr	r8, [pc, #204]	; c5ac <__libc_malloc+0x1ac>
    c4dc:	e3580000 	cmp	r8, #0	; 0x0
    c4e0:	05840000 	streq	r0, [r4]
    c4e4:	11a00004 	movne	r0, r4
    c4e8:	11a0e00f 	movne	lr, pc
    c4ec:	11a0f008 	movne	pc, r8
    c4f0:	e59f30bc 	ldr	r3, [pc, #188]	; c5b4 <__libc_malloc+0x1b4>
    c4f4:	e3530000 	cmp	r3, #0	; 0x0
    c4f8:	03a03001 	moveq	r3, #1	; 0x1
    c4fc:	05873000 	streq	r3, [r7]
    c500:	159f00a8 	ldrne	r0, [pc, #168]	; c5b0 <__libc_malloc+0x1b0>
    c504:	11a0e00f 	movne	lr, pc
    c508:	11a0f003 	movne	pc, r3
    c50c:	e59f409c 	ldr	r4, [pc, #156]	; c5b0 <__libc_malloc+0x1b0>
    c510:	e1a01006 	mov	r1, r6
    c514:	e1a00004 	mov	r0, r4
    c518:	eb0002fa 	bl	d108 <_int_malloc>
    c51c:	e3580000 	cmp	r8, #0	; 0x0
    c520:	e1a05000 	mov	r5, r0
    c524:	0a000003 	beq	c538 <__libc_malloc+0x138>
    c528:	e1a00004 	mov	r0, r4
    c52c:	e1a0e00f 	mov	lr, pc
    c530:	e1a0f008 	mov	pc, r8
    c534:	eaffffe0 	b	c4bc <__libc_malloc+0xbc>
    c538:	e59f306c 	ldr	r3, [pc, #108]	; c5ac <__libc_malloc+0x1ac>
    c53c:	eaffffe0 	b	c4c4 <__libc_malloc+0xc4>
    c540:	e594046c 	ldr	r0, [r4, #1132]
    c544:	e1a01006 	mov	r1, r6
    c548:	e3500000 	cmp	r0, #0	; 0x0
    c54c:	11a00004 	movne	r0, r4
    c550:	03a00000 	moveq	r0, #0	; 0x0
    c554:	ebfff9b8 	bl	ac3c <arena_get2>
    c558:	e59f804c 	ldr	r8, [pc, #76]	; c5ac <__libc_malloc+0x1ac>
    c55c:	e1a04000 	mov	r4, r0
    c560:	e3580000 	cmp	r8, #0	; 0x0
    c564:	05875000 	streq	r5, [r7]
    c568:	11a00007 	movne	r0, r7
    c56c:	11a0e00f 	movne	lr, pc
    c570:	11a0f008 	movne	pc, r8
    c574:	e3540000 	cmp	r4, #0	; 0x0
    c578:	1affffe4 	bne	c510 <__libc_malloc+0x110>
    c57c:	eaffffce 	b	c4bc <__libc_malloc+0xbc>
    c580:	e1a00004 	mov	r0, r4
    c584:	e8bd81f0 	ldmia	sp!, {r4, r5, r6, r7, r8, pc}
    c588:	e5943000 	ldr	r3, [r4]
    c58c:	e3530000 	cmp	r3, #0	; 0x0
    c590:	03a03001 	moveq	r3, #1	; 0x1
    c594:	05843000 	streq	r3, [r4]
    c598:	eaffffb4 	b	c470 <__libc_malloc+0x70>
    c59c:	000724c0 	andeq	r2, r7, r0, asr #9
    c5a0:	00000000 	andeq	r0, r0, r0
    c5a4:	00072ff4 	streqd	r2, [r7], -r4
	...
    c5b0:	00072ff8 	streqd	r2, [r7], -r8
    c5b4:	00000000 	andeq	r0, r0, r0

0000c5b8 <__libc_free>:
    c5b8:	e92d4030 	stmdb	sp!, {r4, r5, lr}
    c5bc:	e59f3098 	ldr	r3, [pc, #152]	; c65c <__libc_free+0xa4>
    c5c0:	e1a0100e 	mov	r1, lr
    c5c4:	e5933000 	ldr	r3, [r3]
    c5c8:	e1a04000 	mov	r4, r0
    c5cc:	e3530000 	cmp	r3, #0	; 0x0
    c5d0:	0a000002 	beq	c5e0 <__libc_free+0x28>
    c5d4:	e1a0e00f 	mov	lr, pc
    c5d8:	e1a0f003 	mov	pc, r3
    c5dc:	e8bd8030 	ldmia	sp!, {r4, r5, pc}
    c5e0:	e3500000 	cmp	r0, #0	; 0x0
    c5e4:	0a000019 	beq	c650 <__libc_free+0x98>
    c5e8:	e2400008 	sub	r0, r0, #8	; 0x8
    c5ec:	e5903004 	ldr	r3, [r0, #4]
    c5f0:	e3130002 	tst	r3, #2	; 0x2
    c5f4:	1a000016 	bne	c654 <__libc_free+0x9c>
    c5f8:	e3130004 	tst	r3, #4	; 0x4
    c5fc:	11a03a20 	movne	r3, r0, lsr #20
    c600:	11a03a03 	movne	r3, r3, lsl #20
    c604:	15935000 	ldrne	r5, [r3]
    c608:	e59f3050 	ldr	r3, [pc, #80]	; c660 <__libc_free+0xa8>
    c60c:	059f5050 	ldreq	r5, [pc, #80]	; c664 <__libc_free+0xac>
    c610:	e3530000 	cmp	r3, #0	; 0x0
    c614:	03a03001 	moveq	r3, #1	; 0x1
    c618:	05853000 	streq	r3, [r5]
    c61c:	11a00005 	movne	r0, r5
    c620:	11a0e00f 	movne	lr, pc
    c624:	11a0f003 	movne	pc, r3
    c628:	e1a01004 	mov	r1, r4
    c62c:	e1a00005 	mov	r0, r5
    c630:	eb0003fd 	bl	d62c <_int_free>
    c634:	e59f302c 	ldr	r3, [pc, #44]	; c668 <__libc_free+0xb0>
    c638:	e3530000 	cmp	r3, #0	; 0x0
    c63c:	0a000002 	beq	c64c <__libc_free+0x94>
    c640:	e1a00005 	mov	r0, r5
    c644:	e8bd4030 	ldmia	sp!, {r4, r5, lr}
    c648:	eaffce6c 	b	0 <.text-0x80e0>
    c64c:	e5853000 	str	r3, [r5]
    c650:	e8bd8030 	ldmia	sp!, {r4, r5, pc}
    c654:	e8bd4030 	ldmia	sp!, {r4, r5, lr}
    c658:	eaffff35 	b	c334 <munmap_chunk>
    c65c:	00072fec 	andeq	r2, r7, ip, ror #31
    c660:	00000000 	andeq	r0, r0, r0
    c664:	00072ff8 	streqd	r2, [r7], -r8
    c668:	00000000 	andeq	r0, r0, r0

0000c66c <__libc_realloc>:
    c66c:	e92d45f0 	stmdb	sp!, {r4, r5, r6, r7, r8, sl, lr}
    c670:	e59f3184 	ldr	r3, [pc, #388]	; c7fc <__libc_realloc+0x190>
    c674:	e1a0200e 	mov	r2, lr
    c678:	e5934000 	ldr	r4, [r3]
    c67c:	e1a06000 	mov	r6, r0
    c680:	e3540000 	cmp	r4, #0	; 0x0
    c684:	e1a05001 	mov	r5, r1
    c688:	0a000004 	beq	c6a0 <__libc_realloc+0x34>
    c68c:	e1a0e00f 	mov	lr, pc
    c690:	e1a0f004 	mov	pc, r4
    c694:	e1a01000 	mov	r1, r0
    c698:	e1a00001 	mov	r0, r1
    c69c:	e8bd85f0 	ldmia	sp!, {r4, r5, r6, r7, r8, sl, pc}
    c6a0:	e2503000 	subs	r3, r0, #0	; 0x0
    c6a4:	13a03001 	movne	r3, #1	; 0x1
    c6a8:	e3510000 	cmp	r1, #0	; 0x0
    c6ac:	13a07000 	movne	r7, #0	; 0x0
    c6b0:	02037001 	andeq	r7, r3, #1	; 0x1
    c6b4:	e3570000 	cmp	r7, #0	; 0x0
    c6b8:	1a00004d 	bne	c7f4 <__libc_realloc+0x188>
    c6bc:	e3500000 	cmp	r0, #0	; 0x0
    c6c0:	0a000048 	beq	c7e8 <__libc_realloc+0x17c>
    c6c4:	e2408008 	sub	r8, r0, #8	; 0x8
    c6c8:	e5983004 	ldr	r3, [r8, #4]
    c6cc:	e3710021 	cmn	r1, #33	; 0x21
    c6d0:	e3c3a007 	bic	sl, r3, #7	; 0x7
    c6d4:	8a00003e 	bhi	c7d4 <__libc_realloc+0x168>
    c6d8:	e281100b 	add	r1, r1, #11	; 0xb
    c6dc:	e351000f 	cmp	r1, #15	; 0xf
    c6e0:	83c14007 	bichi	r4, r1, #7	; 0x7
    c6e4:	93a04010 	movls	r4, #16	; 0x10
    c6e8:	e3130002 	tst	r3, #2	; 0x2
    c6ec:	1a000021 	bne	c778 <__libc_realloc+0x10c>
    c6f0:	e3130004 	tst	r3, #4	; 0x4
    c6f4:	11a03a28 	movne	r3, r8, lsr #20
    c6f8:	11a03a03 	movne	r3, r3, lsl #20
    c6fc:	15934000 	ldrne	r4, [r3]
    c700:	e59f30f8 	ldr	r3, [pc, #248]	; c800 <__libc_realloc+0x194>
    c704:	059f40f8 	ldreq	r4, [pc, #248]	; c804 <__libc_realloc+0x198>
    c708:	e3530000 	cmp	r3, #0	; 0x0
    c70c:	03a03001 	moveq	r3, #1	; 0x1
    c710:	05843000 	streq	r3, [r4]
    c714:	11a00004 	movne	r0, r4
    c718:	11a0e00f 	movne	lr, pc
    c71c:	11a0f003 	movne	pc, r3
    c720:	e59f30e0 	ldr	r3, [pc, #224]	; c808 <__libc_realloc+0x19c>
    c724:	e3530000 	cmp	r3, #0	; 0x0
    c728:	059f30dc 	ldreq	r3, [pc, #220]	; c80c <__libc_realloc+0x1a0>
    c72c:	05834000 	streq	r4, [r3]
    c730:	0a000003 	beq	c744 <__libc_realloc+0xd8>
    c734:	e1a01004 	mov	r1, r4
    c738:	e3a00000 	mov	r0, #0	; 0x0
    c73c:	e1a0e00f 	mov	lr, pc
    c740:	e1a0f003 	mov	pc, r3
    c744:	e1a01006 	mov	r1, r6
    c748:	e1a02005 	mov	r2, r5
    c74c:	e1a00004 	mov	r0, r4
    c750:	eb00045a 	bl	d8c0 <_int_realloc>
    c754:	e59f30b4 	ldr	r3, [pc, #180]	; c810 <__libc_realloc+0x1a4>
    c758:	e1a07000 	mov	r7, r0
    c75c:	e3530000 	cmp	r3, #0	; 0x0
    c760:	05843000 	streq	r3, [r4]
    c764:	11a00004 	movne	r0, r4
    c768:	11a0e00f 	movne	lr, pc
    c76c:	11a0f003 	movne	pc, r3
    c770:	e1a01007 	mov	r1, r7
    c774:	eaffffc7 	b	c698 <__libc_realloc+0x2c>
    c778:	e1a01004 	mov	r1, r4
    c77c:	e1a00008 	mov	r0, r8
    c780:	ebfffefb 	bl	c374 <mremap_chunk>
    c784:	e3500000 	cmp	r0, #0	; 0x0
    c788:	e1a07000 	mov	r7, r0
    c78c:	12801008 	addne	r1, r0, #8	; 0x8
    c790:	1affffc0 	bne	c698 <__libc_realloc+0x2c>
    c794:	e24a3004 	sub	r3, sl, #4	; 0x4
    c798:	e1530004 	cmp	r3, r4
    c79c:	21a01006 	movcs	r1, r6
    c7a0:	2affffbc 	bcs	c698 <__libc_realloc+0x2c>
    c7a4:	e1a00005 	mov	r0, r5
    c7a8:	ebffff14 	bl	c400 <__libc_malloc>
    c7ac:	e3500000 	cmp	r0, #0	; 0x0
    c7b0:	e1a04000 	mov	r4, r0
    c7b4:	0affffed 	beq	c770 <__libc_realloc+0x104>
    c7b8:	e24a2008 	sub	r2, sl, #8	; 0x8
    c7bc:	e1a01006 	mov	r1, r6
    c7c0:	eb000908 	bl	ebe8 <memcpy>
    c7c4:	e1a00008 	mov	r0, r8
    c7c8:	ebfffed9 	bl	c334 <munmap_chunk>
    c7cc:	e1a01004 	mov	r1, r4
    c7d0:	eaffffb0 	b	c698 <__libc_realloc+0x2c>
    c7d4:	ebffef4b 	bl	8508 <__errno_location>
    c7d8:	e3a0300c 	mov	r3, #12	; 0xc
    c7dc:	e1a01007 	mov	r1, r7
    c7e0:	e5803000 	str	r3, [r0]
    c7e4:	eaffffab 	b	c698 <__libc_realloc+0x2c>
    c7e8:	e1a00001 	mov	r0, r1
    c7ec:	e8bd45f0 	ldmia	sp!, {r4, r5, r6, r7, r8, sl, lr}
    c7f0:	eaffff02 	b	c400 <__libc_malloc>
    c7f4:	ebffff6f 	bl	c5b8 <__libc_free>
    c7f8:	eafffff3 	b	c7cc <__libc_realloc+0x160>
    c7fc:	000724c4 	andeq	r2, r7, r4, asr #9
    c800:	00000000 	andeq	r0, r0, r0
    c804:	00072ff8 	streqd	r2, [r7], -r8
    c808:	00000000 	andeq	r0, r0, r0
    c80c:	00072ff4 	streqd	r2, [r7], -r4
    c810:	00000000 	andeq	r0, r0, r0

0000c814 <__libc_memalign>:
    c814:	e92d41f0 	stmdb	sp!, {r4, r5, r6, r7, r8, lr}
    c818:	e59f3188 	ldr	r3, [pc, #392]	; c9a8 <__libc_memalign+0x194>
    c81c:	e1a0200e 	mov	r2, lr
    c820:	e5933000 	ldr	r3, [r3]
    c824:	e1a05000 	mov	r5, r0
    c828:	e3530000 	cmp	r3, #0	; 0x0
    c82c:	e1a07001 	mov	r7, r1
    c830:	0a000002 	beq	c840 <__libc_memalign+0x2c>
    c834:	e1a0e00f 	mov	lr, pc
    c838:	e1a0f003 	mov	pc, r3
    c83c:	e8bd81f0 	ldmia	sp!, {r4, r5, r6, r7, r8, pc}
    c840:	e3500008 	cmp	r0, #8	; 0x8
    c844:	9a000054 	bls	c99c <__libc_memalign+0x188>
    c848:	e59f215c 	ldr	r2, [pc, #348]	; c9ac <__libc_memalign+0x198>
    c84c:	e350000f 	cmp	r0, #15	; 0xf
    c850:	93a05010 	movls	r5, #16	; 0x10
    c854:	e3520000 	cmp	r2, #0	; 0x0
    c858:	059f3150 	ldreq	r3, [pc, #336]	; c9b0 <__libc_memalign+0x19c>
    c85c:	05936000 	ldreq	r6, [r3]
    c860:	0a000003 	beq	c874 <__libc_memalign+0x60>
    c864:	e1a00003 	mov	r0, r3
    c868:	e1a0e00f 	mov	lr, pc
    c86c:	e1a0f002 	mov	pc, r2
    c870:	e1a06000 	mov	r6, r0
    c874:	e2564000 	subs	r4, r6, #0	; 0x0
    c878:	0a000007 	beq	c89c <__libc_memalign+0x88>
    c87c:	e59f3130 	ldr	r3, [pc, #304]	; c9b4 <__libc_memalign+0x1a0>
    c880:	e3530000 	cmp	r3, #0	; 0x0
    c884:	0a00003f 	beq	c988 <__libc_memalign+0x174>
    c888:	e1a00004 	mov	r0, r4
    c88c:	e1a0e00f 	mov	lr, pc
    c890:	e1a0f003 	mov	pc, r3
    c894:	e3500000 	cmp	r0, #0	; 0x0
    c898:	0a000004 	beq	c8b0 <__libc_memalign+0x9c>
    c89c:	e0871005 	add	r1, r7, r5
    c8a0:	e2811010 	add	r1, r1, #16	; 0x10
    c8a4:	e1a00006 	mov	r0, r6
    c8a8:	ebfff8e3 	bl	ac3c <arena_get2>
    c8ac:	e1a04000 	mov	r4, r0
    c8b0:	e3540000 	cmp	r4, #0	; 0x0
    c8b4:	0a000031 	beq	c980 <__libc_memalign+0x16c>
    c8b8:	e1a00004 	mov	r0, r4
    c8bc:	e1a01005 	mov	r1, r5
    c8c0:	e1a02007 	mov	r2, r7
    c8c4:	eb0004d7 	bl	dc28 <_int_memalign>
    c8c8:	e59f80e8 	ldr	r8, [pc, #232]	; c9b8 <__libc_memalign+0x1a4>
    c8cc:	e1a06000 	mov	r6, r0
    c8d0:	e3580000 	cmp	r8, #0	; 0x0
    c8d4:	05848000 	streq	r8, [r4]
    c8d8:	11a00004 	movne	r0, r4
    c8dc:	11a0e00f 	movne	lr, pc
    c8e0:	11a0f008 	movne	pc, r8
    c8e4:	e3560000 	cmp	r6, #0	; 0x0
    c8e8:	0a000001 	beq	c8f4 <__libc_memalign+0xe0>
    c8ec:	e1a00006 	mov	r0, r6
    c8f0:	e8bd81f0 	ldmia	sp!, {r4, r5, r6, r7, r8, pc}
    c8f4:	e59f00c0 	ldr	r0, [pc, #192]	; c9bc <__libc_memalign+0x1a8>
    c8f8:	e1540000 	cmp	r4, r0
    c8fc:	0a000013 	beq	c950 <__libc_memalign+0x13c>
    c900:	e59f30b8 	ldr	r3, [pc, #184]	; c9c0 <__libc_memalign+0x1ac>
    c904:	e3530000 	cmp	r3, #0	; 0x0
    c908:	03a03001 	moveq	r3, #1	; 0x1
    c90c:	05803000 	streq	r3, [r0]
    c910:	11a0e00f 	movne	lr, pc
    c914:	11a0f003 	movne	pc, r3
    c918:	e59f409c 	ldr	r4, [pc, #156]	; c9bc <__libc_memalign+0x1a8>
    c91c:	e1a01005 	mov	r1, r5
    c920:	e1a02007 	mov	r2, r7
    c924:	e1a00004 	mov	r0, r4
    c928:	eb0004be 	bl	dc28 <_int_memalign>
    c92c:	e3580000 	cmp	r8, #0	; 0x0
    c930:	059f3080 	ldreq	r3, [pc, #128]	; c9b8 <__libc_memalign+0x1a4>
    c934:	e1a06000 	mov	r6, r0
    c938:	05843000 	streq	r3, [r4]
    c93c:	0affffea 	beq	c8ec <__libc_memalign+0xd8>
    c940:	e1a00004 	mov	r0, r4
    c944:	e1a0e00f 	mov	lr, pc
    c948:	e1a0f008 	mov	pc, r8
    c94c:	eaffffe6 	b	c8ec <__libc_memalign+0xd8>
    c950:	e594046c 	ldr	r0, [r4, #1132]
    c954:	e1a01007 	mov	r1, r7
    c958:	e3500000 	cmp	r0, #0	; 0x0
    c95c:	11a00004 	movne	r0, r4
    c960:	03a00000 	moveq	r0, #0	; 0x0
    c964:	ebfff8b4 	bl	ac3c <arena_get2>
    c968:	e3500000 	cmp	r0, #0	; 0x0
    c96c:	e1a04000 	mov	r4, r0
    c970:	0affffdd 	beq	c8ec <__libc_memalign+0xd8>
    c974:	e1a01005 	mov	r1, r5
    c978:	e1a02007 	mov	r2, r7
    c97c:	eaffffe9 	b	c928 <__libc_memalign+0x114>
    c980:	e1a00004 	mov	r0, r4
    c984:	e8bd81f0 	ldmia	sp!, {r4, r5, r6, r7, r8, pc}
    c988:	e5943000 	ldr	r3, [r4]
    c98c:	e3530000 	cmp	r3, #0	; 0x0
    c990:	03a03001 	moveq	r3, #1	; 0x1
    c994:	05843000 	streq	r3, [r4]
    c998:	eaffffbe 	b	c898 <__libc_memalign+0x84>
    c99c:	e1a00001 	mov	r0, r1
    c9a0:	e8bd41f0 	ldmia	sp!, {r4, r5, r6, r7, r8, lr}
    c9a4:	eafffe95 	b	c400 <__libc_malloc>
    c9a8:	000724c8 	andeq	r2, r7, r8, asr #9
    c9ac:	00000000 	andeq	r0, r0, r0
    c9b0:	00072ff4 	streqd	r2, [r7], -r4
	...
    c9bc:	00072ff8 	streqd	r2, [r7], -r8
    c9c0:	00000000 	andeq	r0, r0, r0

0000c9c4 <__libc_valloc>:
    c9c4:	e92d4070 	stmdb	sp!, {r4, r5, r6, lr}
    c9c8:	e59f30d4 	ldr	r3, [pc, #212]	; caa4 <__libc_valloc+0xe0>
    c9cc:	e1a06000 	mov	r6, r0
    c9d0:	e5932000 	ldr	r2, [r3]
    c9d4:	e3520000 	cmp	r2, #0	; 0x0
    c9d8:	ba00002f 	blt	ca9c <__libc_valloc+0xd8>
    c9dc:	e59f30c4 	ldr	r3, [pc, #196]	; caa8 <__libc_valloc+0xe4>
    c9e0:	e3a05000 	mov	r5, #0	; 0x0
    c9e4:	e1530005 	cmp	r3, r5
    c9e8:	059f30bc 	ldreq	r3, [pc, #188]	; caac <__libc_valloc+0xe8>
    c9ec:	05935000 	ldreq	r5, [r3]
    c9f0:	0a000003 	beq	ca04 <__libc_valloc+0x40>
    c9f4:	e1a00005 	mov	r0, r5
    c9f8:	e1a0e00f 	mov	lr, pc
    c9fc:	e1a0f003 	mov	pc, r3
    ca00:	e1a05000 	mov	r5, r0
    ca04:	e2554000 	subs	r4, r5, #0	; 0x0
    ca08:	0a000007 	beq	ca2c <__libc_valloc+0x68>
    ca0c:	e59f309c 	ldr	r3, [pc, #156]	; cab0 <__libc_valloc+0xec>
    ca10:	e3530000 	cmp	r3, #0	; 0x0
    ca14:	0a00001b 	beq	ca88 <__libc_valloc+0xc4>
    ca18:	e1a00004 	mov	r0, r4
    ca1c:	e1a0e00f 	mov	lr, pc
    ca20:	e1a0f003 	mov	pc, r3
    ca24:	e3500000 	cmp	r0, #0	; 0x0
    ca28:	0a000006 	beq	ca48 <__libc_valloc+0x84>
    ca2c:	e59f3080 	ldr	r3, [pc, #128]	; cab4 <__libc_valloc+0xf0>
    ca30:	e1a00005 	mov	r0, r5
    ca34:	e5931018 	ldr	r1, [r3, #24]
    ca38:	e0861001 	add	r1, r6, r1
    ca3c:	e2811010 	add	r1, r1, #16	; 0x10
    ca40:	ebfff87d 	bl	ac3c <arena_get2>
    ca44:	e1a04000 	mov	r4, r0
    ca48:	e3540000 	cmp	r4, #0	; 0x0
    ca4c:	0a00000b 	beq	ca80 <__libc_valloc+0xbc>
    ca50:	e1a01006 	mov	r1, r6
    ca54:	e1a00004 	mov	r0, r4
    ca58:	eb00056d 	bl	e014 <_int_valloc>
    ca5c:	e59f3054 	ldr	r3, [pc, #84]	; cab8 <__libc_valloc+0xf4>
    ca60:	e1a05000 	mov	r5, r0
    ca64:	e3530000 	cmp	r3, #0	; 0x0
    ca68:	05843000 	streq	r3, [r4]
    ca6c:	11a00004 	movne	r0, r4
    ca70:	11a0e00f 	movne	lr, pc
    ca74:	11a0f003 	movne	pc, r3
    ca78:	e1a00005 	mov	r0, r5
    ca7c:	e8bd8070 	ldmia	sp!, {r4, r5, r6, pc}
    ca80:	e1a00004 	mov	r0, r4
    ca84:	e8bd8070 	ldmia	sp!, {r4, r5, r6, pc}
    ca88:	e5943000 	ldr	r3, [r4]
    ca8c:	e3530000 	cmp	r3, #0	; 0x0
    ca90:	03a03001 	moveq	r3, #1	; 0x1
    ca94:	05843000 	streq	r3, [r4]
    ca98:	eaffffe2 	b	ca28 <__libc_valloc+0x64>
    ca9c:	ebfff6a5 	bl	a538 <ptmalloc_init>
    caa0:	eaffffcd 	b	c9dc <__libc_valloc+0x18>
    caa4:	000724cc 	andeq	r2, r7, ip, asr #9
    caa8:	00000000 	andeq	r0, r0, r0
    caac:	00072ff4 	streqd	r2, [r7], -r4
    cab0:	00000000 	andeq	r0, r0, r0
    cab4:	00073470 	andeq	r3, r7, r0, ror r4
    cab8:	00000000 	andeq	r0, r0, r0

0000cabc <__libc_pvalloc>:
    cabc:	e92d4070 	stmdb	sp!, {r4, r5, r6, lr}
    cac0:	e59f30c4 	ldr	r3, [pc, #196]	; cb8c <__libc_pvalloc+0xd0>
    cac4:	e1a06000 	mov	r6, r0
    cac8:	e5932000 	ldr	r2, [r3]
    cacc:	e3520000 	cmp	r2, #0	; 0x0
    cad0:	ba00002b 	blt	cb84 <__libc_pvalloc+0xc8>
    cad4:	e59f30b4 	ldr	r3, [pc, #180]	; cb90 <__libc_pvalloc+0xd4>
    cad8:	e3a05000 	mov	r5, #0	; 0x0
    cadc:	e1530005 	cmp	r3, r5
    cae0:	059f30ac 	ldreq	r3, [pc, #172]	; cb94 <__libc_pvalloc+0xd8>
    cae4:	05935000 	ldreq	r5, [r3]
    cae8:	0a000003 	beq	cafc <__libc_pvalloc+0x40>
    caec:	e1a00005 	mov	r0, r5
    caf0:	e1a0e00f 	mov	lr, pc
    caf4:	e1a0f003 	mov	pc, r3
    caf8:	e1a05000 	mov	r5, r0
    cafc:	e2554000 	subs	r4, r5, #0	; 0x0
    cb00:	0a000007 	beq	cb24 <__libc_pvalloc+0x68>
    cb04:	e59f308c 	ldr	r3, [pc, #140]	; cb98 <__libc_pvalloc+0xdc>
    cb08:	e3530000 	cmp	r3, #0	; 0x0
    cb0c:	0a000017 	beq	cb70 <__libc_pvalloc+0xb4>
    cb10:	e1a00004 	mov	r0, r4
    cb14:	e1a0e00f 	mov	lr, pc
    cb18:	e1a0f003 	mov	pc, r3
    cb1c:	e3500000 	cmp	r0, #0	; 0x0
    cb20:	0a000006 	beq	cb40 <__libc_pvalloc+0x84>
    cb24:	e59f3070 	ldr	r3, [pc, #112]	; cb9c <__libc_pvalloc+0xe0>
    cb28:	e1a00005 	mov	r0, r5
    cb2c:	e5931018 	ldr	r1, [r3, #24]
    cb30:	e0861081 	add	r1, r6, r1, lsl #1
    cb34:	e2811010 	add	r1, r1, #16	; 0x10
    cb38:	ebfff83f 	bl	ac3c <arena_get2>
    cb3c:	e1a04000 	mov	r4, r0
    cb40:	e1a01006 	mov	r1, r6
    cb44:	e1a00004 	mov	r0, r4
    cb48:	eb000540 	bl	e050 <_int_pvalloc>
    cb4c:	e59f304c 	ldr	r3, [pc, #76]	; cba0 <__libc_pvalloc+0xe4>
    cb50:	e1a05000 	mov	r5, r0
    cb54:	e3530000 	cmp	r3, #0	; 0x0
    cb58:	05843000 	streq	r3, [r4]
    cb5c:	11a00004 	movne	r0, r4
    cb60:	11a0e00f 	movne	lr, pc
    cb64:	11a0f003 	movne	pc, r3
    cb68:	e1a00005 	mov	r0, r5
    cb6c:	e8bd8070 	ldmia	sp!, {r4, r5, r6, pc}
    cb70:	e5943000 	ldr	r3, [r4]
    cb74:	e3530000 	cmp	r3, #0	; 0x0
    cb78:	03a03001 	moveq	r3, #1	; 0x1
    cb7c:	05843000 	streq	r3, [r4]
    cb80:	eaffffe6 	b	cb20 <__libc_pvalloc+0x64>
    cb84:	ebfff66b 	bl	a538 <ptmalloc_init>
    cb88:	eaffffd1 	b	cad4 <__libc_pvalloc+0x18>
    cb8c:	000724cc 	andeq	r2, r7, ip, asr #9
    cb90:	00000000 	andeq	r0, r0, r0
    cb94:	00072ff4 	streqd	r2, [r7], -r4
    cb98:	00000000 	andeq	r0, r0, r0
    cb9c:	00073470 	andeq	r3, r7, r0, ror r4
    cba0:	00000000 	andeq	r0, r0, r0

0000cba4 <__libc_calloc>:
    cba4:	e92d47f0 	stmdb	sp!, {r4, r5, r6, r7, r8, r9, sl, lr}
    cba8:	e1803001 	orr	r3, r0, r1
    cbac:	e3530801 	cmp	r3, #65536	; 0x10000
    cbb0:	e59f327c 	ldr	r3, [pc, #636]	; ce34 <__libc_calloc+0x290>
    cbb4:	e1a04000 	mov	r4, r0
    cbb8:	e1a0600e 	mov	r6, lr
    cbbc:	e5935000 	ldr	r5, [r3]
    cbc0:	e0070091 	mul	r7, r1, r0
    cbc4:	2a00008f 	bcs	ce08 <__libc_calloc+0x264>
    cbc8:	e3550000 	cmp	r5, #0	; 0x0
    cbcc:	0a00000d 	beq	cc08 <__libc_calloc+0x64>
    cbd0:	e1a01006 	mov	r1, r6
    cbd4:	e1a00007 	mov	r0, r7
    cbd8:	e1a0e00f 	mov	lr, pc
    cbdc:	e1a0f005 	mov	pc, r5
    cbe0:	e3500000 	cmp	r0, #0	; 0x0
    cbe4:	e1a05000 	mov	r5, r0
    cbe8:	0a000003 	beq	cbfc <__libc_calloc+0x58>
    cbec:	e1a02007 	mov	r2, r7
    cbf0:	e3a01000 	mov	r1, #0	; 0x0
    cbf4:	e8bd47f0 	ldmia	sp!, {r4, r5, r6, r7, r8, r9, sl, lr}
    cbf8:	ea0007ac 	b	eab0 <memset>
    cbfc:	e1a02005 	mov	r2, r5
    cc00:	e1a00002 	mov	r0, r2
    cc04:	e8bd87f0 	ldmia	sp!, {r4, r5, r6, r7, r8, r9, sl, pc}
    cc08:	e59f3228 	ldr	r3, [pc, #552]	; ce38 <__libc_calloc+0x294>
    cc0c:	e3530000 	cmp	r3, #0	; 0x0
    cc10:	059f3224 	ldreq	r3, [pc, #548]	; ce3c <__libc_calloc+0x298>
    cc14:	05935000 	ldreq	r5, [r3]
    cc18:	0a000003 	beq	cc2c <__libc_calloc+0x88>
    cc1c:	e1a00005 	mov	r0, r5
    cc20:	e1a0e00f 	mov	lr, pc
    cc24:	e1a0f003 	mov	pc, r3
    cc28:	e1a05000 	mov	r5, r0
    cc2c:	e2554000 	subs	r4, r5, #0	; 0x0
    cc30:	0a000007 	beq	cc54 <__libc_calloc+0xb0>
    cc34:	e59f3204 	ldr	r3, [pc, #516]	; ce40 <__libc_calloc+0x29c>
    cc38:	e3530000 	cmp	r3, #0	; 0x0
    cc3c:	0a00006c 	beq	cdf4 <__libc_calloc+0x250>
    cc40:	e1a00004 	mov	r0, r4
    cc44:	e1a0e00f 	mov	lr, pc
    cc48:	e1a0f003 	mov	pc, r3
    cc4c:	e3500000 	cmp	r0, #0	; 0x0
    cc50:	0a000003 	beq	cc64 <__libc_calloc+0xc0>
    cc54:	e1a00005 	mov	r0, r5
    cc58:	e1a01007 	mov	r1, r7
    cc5c:	ebfff7f6 	bl	ac3c <arena_get2>
    cc60:	e1a04000 	mov	r4, r0
    cc64:	e3540000 	cmp	r4, #0	; 0x0
    cc68:	01a02004 	moveq	r2, r4
    cc6c:	0affffe3 	beq	cc00 <__libc_calloc+0x5c>
    cc70:	e5948054 	ldr	r8, [r4, #84]
    cc74:	e1a00004 	mov	r0, r4
    cc78:	e5983004 	ldr	r3, [r8, #4]
    cc7c:	e1a01007 	mov	r1, r7
    cc80:	e3c3a007 	bic	sl, r3, #7	; 0x7
    cc84:	eb00011f 	bl	d108 <_int_malloc>
    cc88:	e59f61b4 	ldr	r6, [pc, #436]	; ce44 <__libc_calloc+0x2a0>
    cc8c:	e1a05000 	mov	r5, r0
    cc90:	e3560000 	cmp	r6, #0	; 0x0
    cc94:	05846000 	streq	r6, [r4]
    cc98:	11a00004 	movne	r0, r4
    cc9c:	11a0e00f 	movne	lr, pc
    cca0:	11a0f006 	movne	pc, r6
    cca4:	e3550000 	cmp	r5, #0	; 0x0
    cca8:	0a000022 	beq	cd38 <__libc_calloc+0x194>
    ccac:	e2450008 	sub	r0, r5, #8	; 0x8
    ccb0:	e5902004 	ldr	r2, [r0, #4]
    ccb4:	e2121002 	ands	r1, r2, #2	; 0x2
    ccb8:	1affffcf 	bne	cbfc <__libc_calloc+0x58>
    ccbc:	e3c22007 	bic	r2, r2, #7	; 0x7
    ccc0:	e152000a 	cmp	r2, sl
    ccc4:	93a03000 	movls	r3, #0	; 0x0
    ccc8:	83a03001 	movhi	r3, #1	; 0x1
    cccc:	e1500008 	cmp	r0, r8
    ccd0:	13a03000 	movne	r3, #0	; 0x0
    ccd4:	02033001 	andeq	r3, r3, #1	; 0x1
    ccd8:	e3530000 	cmp	r3, #0	; 0x0
    ccdc:	11a0200a 	movne	r2, sl
    cce0:	e2422004 	sub	r2, r2, #4	; 0x4
    cce4:	e1a03122 	mov	r3, r2, lsr #2
    cce8:	e3530009 	cmp	r3, #9	; 0x9
    ccec:	8a00000e 	bhi	cd2c <__libc_calloc+0x188>
    ccf0:	e3530004 	cmp	r3, #4	; 0x4
    ccf4:	e5851000 	str	r1, [r5]
    ccf8:	e5851004 	str	r1, [r5, #4]
    ccfc:	e5851008 	str	r1, [r5, #8]
    cd00:	9affffbd 	bls	cbfc <__libc_calloc+0x58>
    cd04:	e3530006 	cmp	r3, #6	; 0x6
    cd08:	e585100c 	str	r1, [r5, #12]
    cd0c:	e5851010 	str	r1, [r5, #16]
    cd10:	9affffb9 	bls	cbfc <__libc_calloc+0x58>
    cd14:	e3530008 	cmp	r3, #8	; 0x8
    cd18:	e5851014 	str	r1, [r5, #20]
    cd1c:	e5851018 	str	r1, [r5, #24]
    cd20:	85851020 	strhi	r1, [r5, #32]
    cd24:	8585101c 	strhi	r1, [r5, #28]
    cd28:	eaffffb3 	b	cbfc <__libc_calloc+0x58>
    cd2c:	e1a00005 	mov	r0, r5
    cd30:	eb00075e 	bl	eab0 <memset>
    cd34:	eaffffb0 	b	cbfc <__libc_calloc+0x58>
    cd38:	e59f9108 	ldr	r9, [pc, #264]	; ce48 <__libc_calloc+0x2a4>
    cd3c:	e1540009 	cmp	r4, r9
    cd40:	0a000014 	beq	cd98 <__libc_calloc+0x1f4>
    cd44:	e59f3100 	ldr	r3, [pc, #256]	; ce4c <__libc_calloc+0x2a8>
    cd48:	e3530000 	cmp	r3, #0	; 0x0
    cd4c:	03a03001 	moveq	r3, #1	; 0x1
    cd50:	05893000 	streq	r3, [r9]
    cd54:	11a00009 	movne	r0, r9
    cd58:	11a0e00f 	movne	lr, pc
    cd5c:	11a0f003 	movne	pc, r3
    cd60:	e59f40e0 	ldr	r4, [pc, #224]	; ce48 <__libc_calloc+0x2a4>
    cd64:	e1a01007 	mov	r1, r7
    cd68:	e1a00004 	mov	r0, r4
    cd6c:	eb0000e5 	bl	d108 <_int_malloc>
    cd70:	e3560000 	cmp	r6, #0	; 0x0
    cd74:	059f30c8 	ldreq	r3, [pc, #200]	; ce44 <__libc_calloc+0x2a0>
    cd78:	e1a05000 	mov	r5, r0
    cd7c:	05843000 	streq	r3, [r4]
    cd80:	11a00004 	movne	r0, r4
    cd84:	11a0e00f 	movne	lr, pc
    cd88:	11a0f006 	movne	pc, r6
    cd8c:	e3550000 	cmp	r5, #0	; 0x0
    cd90:	1affffc5 	bne	ccac <__libc_calloc+0x108>
    cd94:	eaffff98 	b	cbfc <__libc_calloc+0x58>
    cd98:	e59f30ac 	ldr	r3, [pc, #172]	; ce4c <__libc_calloc+0x2a8>
    cd9c:	e3530000 	cmp	r3, #0	; 0x0
    cda0:	03a03001 	moveq	r3, #1	; 0x1
    cda4:	05843000 	streq	r3, [r4]
    cda8:	11a00004 	movne	r0, r4
    cdac:	11a0e00f 	movne	lr, pc
    cdb0:	11a0f003 	movne	pc, r3
    cdb4:	e594046c 	ldr	r0, [r4, #1132]
    cdb8:	e1a01007 	mov	r1, r7
    cdbc:	e3500000 	cmp	r0, #0	; 0x0
    cdc0:	11a00004 	movne	r0, r4
    cdc4:	03a00000 	moveq	r0, #0	; 0x0
    cdc8:	ebfff79b 	bl	ac3c <arena_get2>
    cdcc:	e3560000 	cmp	r6, #0	; 0x0
    cdd0:	059f306c 	ldreq	r3, [pc, #108]	; ce44 <__libc_calloc+0x2a0>
    cdd4:	e1a04000 	mov	r4, r0
    cdd8:	05893000 	streq	r3, [r9]
    cddc:	159f0064 	ldrne	r0, [pc, #100]	; ce48 <__libc_calloc+0x2a4>
    cde0:	11a0e00f 	movne	lr, pc
    cde4:	11a0f006 	movne	pc, r6
    cde8:	e3540000 	cmp	r4, #0	; 0x0
    cdec:	1affffdc 	bne	cd64 <__libc_calloc+0x1c0>
    cdf0:	eaffffe5 	b	cd8c <__libc_calloc+0x1e8>
    cdf4:	e5943000 	ldr	r3, [r4]
    cdf8:	e3530000 	cmp	r3, #0	; 0x0
    cdfc:	03a03001 	moveq	r3, #1	; 0x1
    ce00:	05843000 	streq	r3, [r4]
    ce04:	eaffff91 	b	cc50 <__libc_calloc+0xac>
    ce08:	e3510000 	cmp	r1, #0	; 0x0
    ce0c:	0affff6d 	beq	cbc8 <__libc_calloc+0x24>
    ce10:	e1a00007 	mov	r0, r7
    ce14:	eb012339 	bl	55b00 <__aeabi_uidiv>
    ce18:	e1500004 	cmp	r0, r4
    ce1c:	0affff69 	beq	cbc8 <__libc_calloc+0x24>
    ce20:	ebffedb8 	bl	8508 <__errno_location>
    ce24:	e3a0300c 	mov	r3, #12	; 0xc
    ce28:	e3a02000 	mov	r2, #0	; 0x0
    ce2c:	e5803000 	str	r3, [r0]
    ce30:	eaffff72 	b	cc00 <__libc_calloc+0x5c>
    ce34:	000724c0 	andeq	r2, r7, r0, asr #9
    ce38:	00000000 	andeq	r0, r0, r0
    ce3c:	00072ff4 	streqd	r2, [r7], -r4
	...
    ce48:	00072ff8 	streqd	r2, [r7], -r8
    ce4c:	00000000 	andeq	r0, r0, r0

0000ce50 <__libc_independent_calloc>:
    ce50:	e92d41f0 	stmdb	sp!, {r4, r5, r6, r7, r8, lr}
    ce54:	e59f30c0 	ldr	r3, [pc, #192]	; cf1c <__libc_independent_calloc+0xcc>
    ce58:	e3a05000 	mov	r5, #0	; 0x0
    ce5c:	e3530000 	cmp	r3, #0	; 0x0
    ce60:	059f30b8 	ldreq	r3, [pc, #184]	; cf20 <__libc_independent_calloc+0xd0>
    ce64:	e1a07000 	mov	r7, r0
    ce68:	e1a06001 	mov	r6, r1
    ce6c:	e1a08002 	mov	r8, r2
    ce70:	05935000 	ldreq	r5, [r3]
    ce74:	0a000003 	beq	ce88 <__libc_independent_calloc+0x38>
    ce78:	e1a00005 	mov	r0, r5
    ce7c:	e1a0e00f 	mov	lr, pc
    ce80:	e1a0f003 	mov	pc, r3
    ce84:	e1a05000 	mov	r5, r0
    ce88:	e2554000 	subs	r4, r5, #0	; 0x0
    ce8c:	0a000007 	beq	ceb0 <__libc_independent_calloc+0x60>
    ce90:	e59f308c 	ldr	r3, [pc, #140]	; cf24 <__libc_independent_calloc+0xd4>
    ce94:	e3530000 	cmp	r3, #0	; 0x0
    ce98:	0a00001a 	beq	cf08 <__libc_independent_calloc+0xb8>
    ce9c:	e1a00004 	mov	r0, r4
    cea0:	e1a0e00f 	mov	lr, pc
    cea4:	e1a0f003 	mov	pc, r3
    cea8:	e3500000 	cmp	r0, #0	; 0x0
    ceac:	0a000003 	beq	cec0 <__libc_independent_calloc+0x70>
    ceb0:	e0010796 	mul	r1, r6, r7
    ceb4:	e1a00005 	mov	r0, r5
    ceb8:	ebfff75f 	bl	ac3c <arena_get2>
    cebc:	e1a04000 	mov	r4, r0
    cec0:	e3540000 	cmp	r4, #0	; 0x0
    cec4:	0a00000d 	beq	cf00 <__libc_independent_calloc+0xb0>
    cec8:	e1a03008 	mov	r3, r8
    cecc:	e1a01007 	mov	r1, r7
    ced0:	e1a02006 	mov	r2, r6
    ced4:	e1a00004 	mov	r0, r4
    ced8:	eb0003c1 	bl	dde4 <_int_icalloc>
    cedc:	e59f3044 	ldr	r3, [pc, #68]	; cf28 <__libc_independent_calloc+0xd8>
    cee0:	e1a05000 	mov	r5, r0
    cee4:	e3530000 	cmp	r3, #0	; 0x0
    cee8:	05843000 	streq	r3, [r4]
    ceec:	11a00004 	movne	r0, r4
    cef0:	11a0e00f 	movne	lr, pc
    cef4:	11a0f003 	movne	pc, r3
    cef8:	e1a00005 	mov	r0, r5
    cefc:	e8bd81f0 	ldmia	sp!, {r4, r5, r6, r7, r8, pc}
    cf00:	e1a00004 	mov	r0, r4
    cf04:	e8bd81f0 	ldmia	sp!, {r4, r5, r6, r7, r8, pc}
    cf08:	e5943000 	ldr	r3, [r4]
    cf0c:	e3530000 	cmp	r3, #0	; 0x0
    cf10:	03a03001 	moveq	r3, #1	; 0x1
    cf14:	05843000 	streq	r3, [r4]
    cf18:	eaffffe3 	b	ceac <__libc_independent_calloc+0x5c>
    cf1c:	00000000 	andeq	r0, r0, r0
    cf20:	00072ff4 	streqd	r2, [r7], -r4
	...

0000cf2c <__libc_independent_comalloc>:
    cf2c:	e92d41f0 	stmdb	sp!, {r4, r5, r6, r7, r8, lr}
    cf30:	e59f30c0 	ldr	r3, [pc, #192]	; cff8 <__libc_independent_comalloc+0xcc>
    cf34:	e3a05000 	mov	r5, #0	; 0x0
    cf38:	e3530000 	cmp	r3, #0	; 0x0
    cf3c:	059f30b8 	ldreq	r3, [pc, #184]	; cffc <__libc_independent_comalloc+0xd0>
    cf40:	e1a08000 	mov	r8, r0
    cf44:	e1a06001 	mov	r6, r1
    cf48:	e1a07002 	mov	r7, r2
    cf4c:	05935000 	ldreq	r5, [r3]
    cf50:	0a000003 	beq	cf64 <__libc_independent_comalloc+0x38>
    cf54:	e1a00005 	mov	r0, r5
    cf58:	e1a0e00f 	mov	lr, pc
    cf5c:	e1a0f003 	mov	pc, r3
    cf60:	e1a05000 	mov	r5, r0
    cf64:	e2554000 	subs	r4, r5, #0	; 0x0
    cf68:	0a000007 	beq	cf8c <__libc_independent_comalloc+0x60>
    cf6c:	e59f308c 	ldr	r3, [pc, #140]	; d000 <__libc_independent_comalloc+0xd4>
    cf70:	e3530000 	cmp	r3, #0	; 0x0
    cf74:	0a00001a 	beq	cfe4 <__libc_independent_comalloc+0xb8>
    cf78:	e1a00004 	mov	r0, r4
    cf7c:	e1a0e00f 	mov	lr, pc
    cf80:	e1a0f003 	mov	pc, r3
    cf84:	e3500000 	cmp	r0, #0	; 0x0
    cf88:	0a000003 	beq	cf9c <__libc_independent_comalloc+0x70>
    cf8c:	e1a00005 	mov	r0, r5
    cf90:	e3a01000 	mov	r1, #0	; 0x0
    cf94:	ebfff728 	bl	ac3c <arena_get2>
    cf98:	e1a04000 	mov	r4, r0
    cf9c:	e3540000 	cmp	r4, #0	; 0x0
    cfa0:	0a00000d 	beq	cfdc <__libc_independent_comalloc+0xb0>
    cfa4:	e1a03007 	mov	r3, r7
    cfa8:	e1a01008 	mov	r1, r8
    cfac:	e1a02006 	mov	r2, r6
    cfb0:	e1a00004 	mov	r0, r4
    cfb4:	eb000395 	bl	de10 <_int_icomalloc>
    cfb8:	e59f3044 	ldr	r3, [pc, #68]	; d004 <__libc_independent_comalloc+0xd8>
    cfbc:	e1a05000 	mov	r5, r0
    cfc0:	e3530000 	cmp	r3, #0	; 0x0
    cfc4:	05843000 	streq	r3, [r4]
    cfc8:	11a00004 	movne	r0, r4
    cfcc:	11a0e00f 	movne	lr, pc
    cfd0:	11a0f003 	movne	pc, r3
    cfd4:	e1a00005 	mov	r0, r5
    cfd8:	e8bd81f0 	ldmia	sp!, {r4, r5, r6, r7, r8, pc}
    cfdc:	e1a00004 	mov	r0, r4
    cfe0:	e8bd81f0 	ldmia	sp!, {r4, r5, r6, r7, r8, pc}
    cfe4:	e5943000 	ldr	r3, [r4]
    cfe8:	e3530000 	cmp	r3, #0	; 0x0
    cfec:	03a03001 	moveq	r3, #1	; 0x1
    cff0:	05843000 	streq	r3, [r4]
    cff4:	eaffffe3 	b	cf88 <__libc_independent_comalloc+0x5c>
    cff8:	00000000 	andeq	r0, r0, r0
    cffc:	00072ff4 	streqd	r2, [r7], -r4
	...

0000d008 <__malloc_trim>:
    d008:	e59f3050 	ldr	r3, [pc, #80]	; d060 <__malloc_trim+0x58>
    d00c:	e92d4030 	stmdb	sp!, {r4, r5, lr}
    d010:	e59f504c 	ldr	r5, [pc, #76]	; d064 <__malloc_trim+0x5c>
    d014:	e3530000 	cmp	r3, #0	; 0x0
    d018:	e1a04000 	mov	r4, r0
    d01c:	e1a00005 	mov	r0, r5
    d020:	059f503c 	ldreq	r5, [pc, #60]	; d064 <__malloc_trim+0x5c>
    d024:	03a03001 	moveq	r3, #1	; 0x1
    d028:	05853000 	streq	r3, [r5]
    d02c:	11a0e00f 	movne	lr, pc
    d030:	11a0f003 	movne	pc, r3
    d034:	e1a00004 	mov	r0, r4
    d038:	eb000416 	bl	e098 <mTRIm>
    d03c:	e59f3024 	ldr	r3, [pc, #36]	; d068 <__malloc_trim+0x60>
    d040:	e1a04000 	mov	r4, r0
    d044:	e3530000 	cmp	r3, #0	; 0x0
    d048:	e59f0014 	ldr	r0, [pc, #20]	; d064 <__malloc_trim+0x5c>
    d04c:	05853000 	streq	r3, [r5]
    d050:	11a0e00f 	movne	lr, pc
    d054:	11a0f003 	movne	pc, r3
    d058:	e1a00004 	mov	r0, r4
    d05c:	e8bd8030 	ldmia	sp!, {r4, r5, pc}
    d060:	00000000 	andeq	r0, r0, r0
    d064:	00072ff8 	streqd	r2, [r7], -r8
    d068:	00000000 	andeq	r0, r0, r0

0000d06c <__malloc_usable_size>:
    d06c:	ea000413 	b	e0c0 <mUSABLe>

0000d070 <__malloc_stats>:
    d070:	ea000470 	b	e238 <mSTATs>

0000d074 <__libc_mallinfo>:
    d074:	e92d4070 	stmdb	sp!, {r4, r5, r6, lr}
    d078:	e59f3078 	ldr	r3, [pc, #120]	; d0f8 <__libc_mallinfo+0x84>
    d07c:	e1a06000 	mov	r6, r0
    d080:	e3530000 	cmp	r3, #0	; 0x0
    d084:	059f3070 	ldreq	r3, [pc, #112]	; d0fc <__libc_mallinfo+0x88>
    d088:	03a02001 	moveq	r2, #1	; 0x1
    d08c:	e24dd028 	sub	sp, sp, #40	; 0x28
    d090:	e59f0064 	ldr	r0, [pc, #100]	; d0fc <__libc_mallinfo+0x88>
    d094:	05832000 	streq	r2, [r3]
    d098:	11a0e00f 	movne	lr, pc
    d09c:	11a0f003 	movne	pc, r3
    d0a0:	e59f4054 	ldr	r4, [pc, #84]	; d0fc <__libc_mallinfo+0x88>
    d0a4:	e1a0000d 	mov	r0, sp
    d0a8:	e1a01004 	mov	r1, r4
    d0ac:	e1a0500d 	mov	r5, sp
    d0b0:	eb000412 	bl	e100 <mALLINFo>
    d0b4:	e59f3044 	ldr	r3, [pc, #68]	; d100 <__libc_mallinfo+0x8c>
    d0b8:	e1a00004 	mov	r0, r4
    d0bc:	e3530000 	cmp	r3, #0	; 0x0
    d0c0:	05843000 	streq	r3, [r4]
    d0c4:	11a0e00f 	movne	lr, pc
    d0c8:	11a0f003 	movne	pc, r3
    d0cc:	e1a0c005 	mov	ip, r5
    d0d0:	e8bc000f 	ldmia	ip!, {r0, r1, r2, r3}
    d0d4:	e1a0e006 	mov	lr, r6
    d0d8:	e8ae000f 	stmia	lr!, {r0, r1, r2, r3}
    d0dc:	e8bc000f 	ldmia	ip!, {r0, r1, r2, r3}
    d0e0:	e8ae000f 	stmia	lr!, {r0, r1, r2, r3}
    d0e4:	e89c0003 	ldmia	ip, {r0, r1}
    d0e8:	e88e0003 	stmia	lr, {r0, r1}
    d0ec:	e1a00006 	mov	r0, r6
    d0f0:	e28dd028 	add	sp, sp, #40	; 0x28
    d0f4:	e8bd8070 	ldmia	sp!, {r4, r5, r6, pc}
    d0f8:	00000000 	andeq	r0, r0, r0
    d0fc:	00072ff8 	streqd	r2, [r7], -r8
    d100:	00000000 	andeq	r0, r0, r0

0000d104 <__libc_mallopt>:
    d104:	ea00049e 	b	e384 <mALLOPt>

0000d108 <_int_malloc>:
    d108:	e3710021 	cmn	r1, #33	; 0x21
    d10c:	e92d47f0 	stmdb	sp!, {r4, r5, r6, r7, r8, r9, sl, lr}
    d110:	e1a07000 	mov	r7, r0
    d114:	8a00013d 	bhi	d610 <_int_malloc+0x508>
    d118:	e281000b 	add	r0, r1, #11	; 0xb
    d11c:	e350000f 	cmp	r0, #15	; 0xf
    d120:	e5973028 	ldr	r3, [r7, #40]
    d124:	83c08007 	bichi	r8, r0, #7	; 0x7
    d128:	93a08010 	movls	r8, #16	; 0x10
    d12c:	e1580003 	cmp	r8, r3
    d130:	8a000008 	bhi	d158 <_int_malloc+0x50>
    d134:	e08720a8 	add	r2, r7, r8, lsr #1
    d138:	e5925024 	ldr	r5, [r2, #36]
    d13c:	e3550000 	cmp	r5, #0	; 0x0
    d140:	15953008 	ldrne	r3, [r5, #8]
    d144:	1285c008 	addne	ip, r5, #8	; 0x8
    d148:	15823024 	strne	r3, [r2, #36]
    d14c:	0a000001 	beq	d158 <_int_malloc+0x50>
    d150:	e1a0000c 	mov	r0, ip
    d154:	e8bd87f0 	ldmia	sp!, {r4, r5, r6, r7, r8, r9, sl, pc}
    d158:	e3580c02 	cmp	r8, #512	; 0x200
    d15c:	2a000114 	bcs	d5b4 <_int_malloc+0x4ac>
    d160:	e1a091a8 	mov	r9, r8, lsr #3
    d164:	e0873189 	add	r3, r7, r9, lsl #3
    d168:	e2830054 	add	r0, r3, #84	; 0x54
    d16c:	e590500c 	ldr	r5, [r0, #12]
    d170:	e1550000 	cmp	r5, r0
    d174:	0a000011 	beq	d1c0 <_int_malloc+0xb8>
    d178:	e3550000 	cmp	r5, #0	; 0x0
    d17c:	0a00000d 	beq	d1b8 <_int_malloc+0xb0>
    d180:	e0851008 	add	r1, r5, r8
    d184:	e5912004 	ldr	r2, [r1, #4]
    d188:	e59f3494 	ldr	r3, [pc, #1172]	; d624 <_int_malloc+0x51c>
    d18c:	e595c00c 	ldr	ip, [r5, #12]
    d190:	e3822001 	orr	r2, r2, #1	; 0x1
    d194:	e1570003 	cmp	r7, r3
    d198:	e5812004 	str	r2, [r1, #4]
    d19c:	e58c0008 	str	r0, [ip, #8]
    d1a0:	e580c00c 	str	ip, [r0, #12]
    d1a4:	15953004 	ldrne	r3, [r5, #4]
    d1a8:	e285c008 	add	ip, r5, #8	; 0x8
    d1ac:	13833004 	orrne	r3, r3, #4	; 0x4
    d1b0:	15853004 	strne	r3, [r5, #4]
    d1b4:	eaffffe5 	b	d150 <_int_malloc+0x48>
    d1b8:	e1a00007 	mov	r0, r7
    d1bc:	eb00017e 	bl	d7bc <malloc_consolidate>
    d1c0:	e287a05c 	add	sl, r7, #92	; 0x5c
    d1c4:	e5975068 	ldr	r5, [r7, #104]
    d1c8:	e155000a 	cmp	r5, sl
    d1cc:	0a000048 	beq	d2f4 <_int_malloc+0x1ec>
    d1d0:	e59f4450 	ldr	r4, [pc, #1104]	; d628 <_int_malloc+0x520>
    d1d4:	e5953004 	ldr	r3, [r5, #4]
    d1d8:	e1580004 	cmp	r8, r4
    d1dc:	e3c3e007 	bic	lr, r3, #7	; 0x7
    d1e0:	e595c00c 	ldr	ip, [r5, #12]
    d1e4:	8a000001 	bhi	d1f0 <_int_malloc+0xe8>
    d1e8:	e15c000a 	cmp	ip, sl
    d1ec:	0a0000dc 	beq	d564 <_int_malloc+0x45c>
    d1f0:	e15e0008 	cmp	lr, r8
    d1f4:	e58ca008 	str	sl, [ip, #8]
    d1f8:	e587c068 	str	ip, [r7, #104]
    d1fc:	00853008 	addeq	r3, r5, r8
    d200:	0a0000c1 	beq	d50c <_int_malloc+0x404>
    d204:	e15e0004 	cmp	lr, r4
    d208:	91a011ae 	movls	r1, lr, lsr #3
    d20c:	90873181 	addls	r3, r7, r1, lsl #3
    d210:	9283c054 	addls	ip, r3, #84	; 0x54
    d214:	959c2008 	ldrls	r2, [ip, #8]
    d218:	9a000027 	bls	d2bc <_int_malloc+0x1b4>
    d21c:	e1a0032e 	mov	r0, lr, lsr #6
    d220:	e3500020 	cmp	r0, #32	; 0x20
    d224:	92801038 	addls	r1, r0, #56	; 0x38
    d228:	9a00000f 	bls	d26c <_int_malloc+0x164>
    d22c:	e1a004ae 	mov	r0, lr, lsr #9
    d230:	e3500014 	cmp	r0, #20	; 0x14
    d234:	9280105b 	addls	r1, r0, #91	; 0x5b
    d238:	9a00000b 	bls	d26c <_int_malloc+0x164>
    d23c:	e1a0062e 	mov	r0, lr, lsr #12
    d240:	e350000a 	cmp	r0, #10	; 0xa
    d244:	9280106e 	addls	r1, r0, #110	; 0x6e
    d248:	9a000007 	bls	d26c <_int_malloc+0x164>
    d24c:	e1a007ae 	mov	r0, lr, lsr #15
    d250:	e3500004 	cmp	r0, #4	; 0x4
    d254:	92801077 	addls	r1, r0, #119	; 0x77
    d258:	9a000003 	bls	d26c <_int_malloc+0x164>
    d25c:	e1a0092e 	mov	r0, lr, lsr #18
    d260:	e3500002 	cmp	r0, #2	; 0x2
    d264:	9280107c 	addls	r1, r0, #124	; 0x7c
    d268:	83a0107e 	movhi	r1, #126	; 0x7e
    d26c:	e0873181 	add	r3, r7, r1, lsl #3
    d270:	e283c054 	add	ip, r3, #84	; 0x54
    d274:	e59c2008 	ldr	r2, [ip, #8]
    d278:	e152000c 	cmp	r2, ip
    d27c:	0a00000e 	beq	d2bc <_int_malloc+0x1b4>
    d280:	e59c000c 	ldr	r0, [ip, #12]
    d284:	e38ee001 	orr	lr, lr, #1	; 0x1
    d288:	e5903004 	ldr	r3, [r0, #4]
    d28c:	e15e0003 	cmp	lr, r3
    d290:	91a0200c 	movls	r2, ip
    d294:	91a0c000 	movls	ip, r0
    d298:	9a000007 	bls	d2bc <_int_malloc+0x1b4>
    d29c:	e5923004 	ldr	r3, [r2, #4]
    d2a0:	e15e0003 	cmp	lr, r3
    d2a4:	2a000003 	bcs	d2b8 <_int_malloc+0x1b0>
    d2a8:	e5922008 	ldr	r2, [r2, #8]
    d2ac:	e5923004 	ldr	r3, [r2, #4]
    d2b0:	e15e0003 	cmp	lr, r3
    d2b4:	3afffffb 	bcc	d2a8 <_int_malloc+0x1a0>
    d2b8:	e592c00c 	ldr	ip, [r2, #12]
    d2bc:	e1a002c1 	mov	r0, r1, asr #5
    d2c0:	e0870100 	add	r0, r7, r0, lsl #2
    d2c4:	e585c00c 	str	ip, [r5, #12]
    d2c8:	e582500c 	str	r5, [r2, #12]
    d2cc:	e5852008 	str	r2, [r5, #8]
    d2d0:	e590245c 	ldr	r2, [r0, #1116]
    d2d4:	e58c5008 	str	r5, [ip, #8]
    d2d8:	e5975068 	ldr	r5, [r7, #104]
    d2dc:	e201101f 	and	r1, r1, #31	; 0x1f
    d2e0:	e3a03001 	mov	r3, #1	; 0x1
    d2e4:	e1822113 	orr	r2, r2, r3, lsl r1
    d2e8:	e155000a 	cmp	r5, sl
    d2ec:	e580245c 	str	r2, [r0, #1116]
    d2f0:	1affffb7 	bne	d1d4 <_int_malloc+0xcc>
    d2f4:	e3580c02 	cmp	r8, #512	; 0x200
    d2f8:	3a000008 	bcc	d320 <_int_malloc+0x218>
    d2fc:	e0873189 	add	r3, r7, r9, lsl #3
    d300:	e2830054 	add	r0, r3, #84	; 0x54
    d304:	e590500c 	ldr	r5, [r0, #12]
    d308:	e1550000 	cmp	r5, r0
    d30c:	0a000003 	beq	d320 <_int_malloc+0x218>
    d310:	e5903008 	ldr	r3, [r0, #8]
    d314:	e5932004 	ldr	r2, [r3, #4]
    d318:	e1520008 	cmp	r2, r8
    d31c:	2a000069 	bcs	d4c8 <_int_malloc+0x3c0>
    d320:	e2899001 	add	r9, r9, #1	; 0x1
    d324:	e1a042a9 	mov	r4, r9, lsr #5
    d328:	e1a06104 	mov	r6, r4, lsl #2
    d32c:	e0863007 	add	r3, r6, r7
    d330:	e0872189 	add	r2, r7, r9, lsl #3
    d334:	e209101f 	and	r1, r9, #31	; 0x1f
    d338:	e593e45c 	ldr	lr, [r3, #1116]
    d33c:	e59f92e0 	ldr	r9, [pc, #736]	; d624 <_int_malloc+0x51c>
    d340:	e3a03001 	mov	r3, #1	; 0x1
    d344:	e2820054 	add	r0, r2, #84	; 0x54
    d348:	e1a0c113 	mov	ip, r3, lsl r1
    d34c:	e1882003 	orr	r2, r8, r3
    d350:	e35c0000 	cmp	ip, #0	; 0x0
    d354:	13a03000 	movne	r3, #0	; 0x0
    d358:	03a03001 	moveq	r3, #1	; 0x1
    d35c:	e15c000e 	cmp	ip, lr
    d360:	83833001 	orrhi	r3, r3, #1	; 0x1
    d364:	e3530000 	cmp	r3, #0	; 0x0
    d368:	0a00000b 	beq	d39c <_int_malloc+0x294>
    d36c:	e0873104 	add	r3, r7, r4, lsl #2
    d370:	e2844001 	add	r4, r4, #1	; 0x1
    d374:	e3540003 	cmp	r4, #3	; 0x3
    d378:	e1a06104 	mov	r6, r4, lsl #2
    d37c:	e2833004 	add	r3, r3, #4	; 0x4
    d380:	8a000032 	bhi	d450 <_int_malloc+0x348>
    d384:	e593e45c 	ldr	lr, [r3, #1116]
    d388:	e35e0000 	cmp	lr, #0	; 0x0
    d38c:	0afffff7 	beq	d370 <_int_malloc+0x268>
    d390:	e0873404 	add	r3, r7, r4, lsl #8
    d394:	e2830054 	add	r0, r3, #84	; 0x54
    d398:	e3a0c001 	mov	ip, #1	; 0x1
    d39c:	e11c000e 	tst	ip, lr
    d3a0:	1a000003 	bne	d3b4 <_int_malloc+0x2ac>
    d3a4:	e1a0c08c 	mov	ip, ip, lsl #1
    d3a8:	e11c000e 	tst	ip, lr
    d3ac:	e2800008 	add	r0, r0, #8	; 0x8
    d3b0:	0afffffb 	beq	d3a4 <_int_malloc+0x29c>
    d3b4:	e590500c 	ldr	r5, [r0, #12]
    d3b8:	e1550000 	cmp	r5, r0
    d3bc:	1a000005 	bne	d3d8 <_int_malloc+0x2d0>
    d3c0:	e1cee00c 	bic	lr, lr, ip
    d3c4:	e0863007 	add	r3, r6, r7
    d3c8:	e2850008 	add	r0, r5, #8	; 0x8
    d3cc:	e1a0c08c 	mov	ip, ip, lsl #1
    d3d0:	e583e45c 	str	lr, [r3, #1116]
    d3d4:	eaffffdd 	b	d350 <_int_malloc+0x248>
    d3d8:	e5953004 	ldr	r3, [r5, #4]
    d3dc:	e595c00c 	ldr	ip, [r5, #12]
    d3e0:	e3c3e007 	bic	lr, r3, #7	; 0x7
    d3e4:	e068100e 	rsb	r1, r8, lr
    d3e8:	e351000f 	cmp	r1, #15	; 0xf
    d3ec:	e58c0008 	str	r0, [ip, #8]
    d3f0:	e580c00c 	str	ip, [r0, #12]
    d3f4:	8a000005 	bhi	d410 <_int_malloc+0x308>
    d3f8:	e085200e 	add	r2, r5, lr
    d3fc:	e5923004 	ldr	r3, [r2, #4]
    d400:	e1570009 	cmp	r7, r9
    d404:	e3833001 	orr	r3, r3, #1	; 0x1
    d408:	e5823004 	str	r3, [r2, #4]
    d40c:	eaffff64 	b	d1a4 <_int_malloc+0x9c>
    d410:	e0850008 	add	r0, r5, r8
    d414:	e3580c02 	cmp	r8, #512	; 0x200
    d418:	e5870064 	str	r0, [r7, #100]
    d41c:	e5870068 	str	r0, [r7, #104]
    d420:	e580a008 	str	sl, [r0, #8]
    d424:	e580a00c 	str	sl, [r0, #12]
    d428:	35870058 	strcc	r0, [r7, #88]
    d42c:	e0573009 	subs	r3, r7, r9
    d430:	13a03001 	movne	r3, #1	; 0x1
    d434:	e1823103 	orr	r3, r2, r3, lsl #2
    d438:	e285c008 	add	ip, r5, #8	; 0x8
    d43c:	e3812001 	orr	r2, r1, #1	; 0x1
    d440:	e5853004 	str	r3, [r5, #4]
    d444:	e7801001 	str	r1, [r0, r1]
    d448:	e5802004 	str	r2, [r0, #4]
    d44c:	eaffff3f 	b	d150 <_int_malloc+0x48>
    d450:	e5975054 	ldr	r5, [r7, #84]
    d454:	e2882010 	add	r2, r8, #16	; 0x10
    d458:	e5953004 	ldr	r3, [r5, #4]
    d45c:	e3c3e007 	bic	lr, r3, #7	; 0x7
    d460:	e15e0002 	cmp	lr, r2
    d464:	2a00000a 	bcs	d494 <_int_malloc+0x38c>
    d468:	e5973028 	ldr	r3, [r7, #40]
    d46c:	e3130001 	tst	r3, #1	; 0x1
    d470:	1a000003 	bne	d484 <_int_malloc+0x37c>
    d474:	e1a00007 	mov	r0, r7
    d478:	eb0000cf 	bl	d7bc <malloc_consolidate>
    d47c:	e1a091a8 	mov	r9, r8, lsr #3
    d480:	eaffff4f 	b	d1c4 <_int_malloc+0xbc>
    d484:	e1a00008 	mov	r0, r8
    d488:	e1a01007 	mov	r1, r7
    d48c:	e8bd47f0 	ldmia	sp!, {r4, r5, r6, r7, r8, r9, sl, lr}
    d490:	eafffa2c 	b	bd48 <sYSMALLOc>
    d494:	e59f3188 	ldr	r3, [pc, #392]	; d624 <_int_malloc+0x51c>
    d498:	e068100e 	rsb	r1, r8, lr
    d49c:	e0573003 	subs	r3, r7, r3
    d4a0:	13a03001 	movne	r3, #1	; 0x1
    d4a4:	e3882001 	orr	r2, r8, #1	; 0x1
    d4a8:	e0850008 	add	r0, r5, r8
    d4ac:	e1822103 	orr	r2, r2, r3, lsl #2
    d4b0:	e3811001 	orr	r1, r1, #1	; 0x1
    d4b4:	e285c008 	add	ip, r5, #8	; 0x8
    d4b8:	e5852004 	str	r2, [r5, #4]
    d4bc:	e5870054 	str	r0, [r7, #84]
    d4c0:	e5801004 	str	r1, [r0, #4]
    d4c4:	eaffff21 	b	d150 <_int_malloc+0x48>
    d4c8:	e5953004 	ldr	r3, [r5, #4]
    d4cc:	e3c3e007 	bic	lr, r3, #7	; 0x7
    d4d0:	e15e0008 	cmp	lr, r8
    d4d4:	2a000004 	bcs	d4ec <_int_malloc+0x3e4>
    d4d8:	e595500c 	ldr	r5, [r5, #12]
    d4dc:	e5953004 	ldr	r3, [r5, #4]
    d4e0:	e3c3e007 	bic	lr, r3, #7	; 0x7
    d4e4:	e15e0008 	cmp	lr, r8
    d4e8:	3afffffa 	bcc	d4d8 <_int_malloc+0x3d0>
    d4ec:	e5952008 	ldr	r2, [r5, #8]
    d4f0:	e595c00c 	ldr	ip, [r5, #12]
    d4f4:	e068100e 	rsb	r1, r8, lr
    d4f8:	e351000f 	cmp	r1, #15	; 0xf
    d4fc:	e58c2008 	str	r2, [ip, #8]
    d500:	e582c00c 	str	ip, [r2, #12]
    d504:	8a000006 	bhi	d524 <_int_malloc+0x41c>
    d508:	e085300e 	add	r3, r5, lr
    d50c:	e5932004 	ldr	r2, [r3, #4]
    d510:	e59f110c 	ldr	r1, [pc, #268]	; d624 <_int_malloc+0x51c>
    d514:	e3822001 	orr	r2, r2, #1	; 0x1
    d518:	e1570001 	cmp	r7, r1
    d51c:	e5832004 	str	r2, [r3, #4]
    d520:	eaffff1f 	b	d1a4 <_int_malloc+0x9c>
    d524:	e59f20f8 	ldr	r2, [pc, #248]	; d624 <_int_malloc+0x51c>
    d528:	e3883001 	orr	r3, r8, #1	; 0x1
    d52c:	e0572002 	subs	r2, r7, r2
    d530:	13a02001 	movne	r2, #1	; 0x1
    d534:	e1833102 	orr	r3, r3, r2, lsl #2
    d538:	e0850008 	add	r0, r5, r8
    d53c:	e3812001 	orr	r2, r1, #1	; 0x1
    d540:	e5853004 	str	r3, [r5, #4]
    d544:	e285c008 	add	ip, r5, #8	; 0x8
    d548:	e7801001 	str	r1, [r0, r1]
    d54c:	e5802004 	str	r2, [r0, #4]
    d550:	e5870064 	str	r0, [r7, #100]
    d554:	e5870068 	str	r0, [r7, #104]
    d558:	e580a008 	str	sl, [r0, #8]
    d55c:	e580a00c 	str	sl, [r0, #12]
    d560:	eafffefa 	b	d150 <_int_malloc+0x48>
    d564:	e5973058 	ldr	r3, [r7, #88]
    d568:	e1550003 	cmp	r5, r3
    d56c:	1affff1f 	bne	d1f0 <_int_malloc+0xe8>
    d570:	e2883010 	add	r3, r8, #16	; 0x10
    d574:	e15e0003 	cmp	lr, r3
    d578:	9affff1c 	bls	d1f0 <_int_malloc+0xe8>
    d57c:	e59f30a0 	ldr	r3, [pc, #160]	; d624 <_int_malloc+0x51c>
    d580:	e068100e 	rsb	r1, r8, lr
    d584:	e0573003 	subs	r3, r7, r3
    d588:	13a03001 	movne	r3, #1	; 0x1
    d58c:	e3882001 	orr	r2, r8, #1	; 0x1
    d590:	e0850008 	add	r0, r5, r8
    d594:	e1822103 	orr	r2, r2, r3, lsl #2
    d598:	e285c008 	add	ip, r5, #8	; 0x8
    d59c:	e3813001 	orr	r3, r1, #1	; 0x1
    d5a0:	e5852004 	str	r2, [r5, #4]
    d5a4:	e7801001 	str	r1, [r0, r1]
    d5a8:	e5803004 	str	r3, [r0, #4]
    d5ac:	e5870058 	str	r0, [r7, #88]
    d5b0:	eaffffe6 	b	d550 <_int_malloc+0x448>
    d5b4:	e1a01328 	mov	r1, r8, lsr #6
    d5b8:	e3510020 	cmp	r1, #32	; 0x20
    d5bc:	92819038 	addls	r9, r1, #56	; 0x38
    d5c0:	9a00000f 	bls	d604 <_int_malloc+0x4fc>
    d5c4:	e1a014a8 	mov	r1, r8, lsr #9
    d5c8:	e3510014 	cmp	r1, #20	; 0x14
    d5cc:	9281905b 	addls	r9, r1, #91	; 0x5b
    d5d0:	9a00000b 	bls	d604 <_int_malloc+0x4fc>
    d5d4:	e1a01628 	mov	r1, r8, lsr #12
    d5d8:	e351000a 	cmp	r1, #10	; 0xa
    d5dc:	9281906e 	addls	r9, r1, #110	; 0x6e
    d5e0:	9a000007 	bls	d604 <_int_malloc+0x4fc>
    d5e4:	e1a017a8 	mov	r1, r8, lsr #15
    d5e8:	e3510004 	cmp	r1, #4	; 0x4
    d5ec:	92819077 	addls	r9, r1, #119	; 0x77
    d5f0:	9a000003 	bls	d604 <_int_malloc+0x4fc>
    d5f4:	e1a01928 	mov	r1, r8, lsr #18
    d5f8:	e3510002 	cmp	r1, #2	; 0x2
    d5fc:	9281907c 	addls	r9, r1, #124	; 0x7c
    d600:	83a0907e 	movhi	r9, #126	; 0x7e
    d604:	e3130001 	tst	r3, #1	; 0x1
    d608:	1afffeec 	bne	d1c0 <_int_malloc+0xb8>
    d60c:	eafffee9 	b	d1b8 <_int_malloc+0xb0>
    d610:	ebffebbc 	bl	8508 <__errno_location>
    d614:	e3a0300c 	mov	r3, #12	; 0xc
    d618:	e3a0c000 	mov	ip, #0	; 0x0
    d61c:	e5803000 	str	r3, [r0]
    d620:	eafffeca 	b	d150 <_int_malloc+0x48>
    d624:	00072ff8 	streqd	r2, [r7], -r8
    d628:	000001ff 	streqd	r0, [r0], -pc

0000d62c <_int_free>:
    d62c:	e3510000 	cmp	r1, #0	; 0x0
    d630:	e92d40f0 	stmdb	sp!, {r4, r5, r6, r7, lr}
    d634:	e1a04000 	mov	r4, r0
    d638:	0a000049 	beq	d764 <_int_free+0x138>
    d63c:	e2410008 	sub	r0, r1, #8	; 0x8
    d640:	e5903004 	ldr	r3, [r0, #4]
    d644:	e594c028 	ldr	ip, [r4, #40]
    d648:	e3c3e007 	bic	lr, r3, #7	; 0x7
    d64c:	e15e000c 	cmp	lr, ip
    d650:	8a000006 	bhi	d670 <_int_free+0x44>
    d654:	e08430ae 	add	r3, r4, lr, lsr #1
    d658:	e5932024 	ldr	r2, [r3, #36]
    d65c:	e3cc1001 	bic	r1, ip, #1	; 0x1
    d660:	e5802008 	str	r2, [r0, #8]
    d664:	e5841028 	str	r1, [r4, #40]
    d668:	e5830024 	str	r0, [r3, #36]
    d66c:	e8bd80f0 	ldmia	sp!, {r4, r5, r6, r7, pc}
    d670:	e3130002 	tst	r3, #2	; 0x2
    d674:	1a000042 	bne	d784 <_int_free+0x158>
    d678:	e080500e 	add	r5, r0, lr
    d67c:	e5957004 	ldr	r7, [r5, #4]
    d680:	e3130001 	tst	r3, #1	; 0x1
    d684:	e3c76007 	bic	r6, r7, #7	; 0x7
    d688:	1a000006 	bne	d6a8 <_int_free+0x7c>
    d68c:	e5113008 	ldr	r3, [r1, #-8]
    d690:	e0630000 	rsb	r0, r3, r0
    d694:	e590c008 	ldr	ip, [r0, #8]
    d698:	e590200c 	ldr	r2, [r0, #12]
    d69c:	e08ee003 	add	lr, lr, r3
    d6a0:	e582c008 	str	ip, [r2, #8]
    d6a4:	e58c200c 	str	r2, [ip, #12]
    d6a8:	e5943054 	ldr	r3, [r4, #84]
    d6ac:	e1550003 	cmp	r5, r3
    d6b0:	008ee006 	addeq	lr, lr, r6
    d6b4:	038e3001 	orreq	r3, lr, #1	; 0x1
    d6b8:	05803004 	streq	r3, [r0, #4]
    d6bc:	05840054 	streq	r0, [r4, #84]
    d6c0:	0a000011 	beq	d70c <_int_free+0xe0>
    d6c4:	e0853006 	add	r3, r5, r6
    d6c8:	e5932004 	ldr	r2, [r3, #4]
    d6cc:	e3120001 	tst	r2, #1	; 0x1
    d6d0:	0595200c 	ldreq	r2, [r5, #12]
    d6d4:	0595c008 	ldreq	ip, [r5, #8]
    d6d8:	008ee006 	addeq	lr, lr, r6
    d6dc:	0582c008 	streq	ip, [r2, #8]
    d6e0:	058c200c 	streq	r2, [ip, #12]
    d6e4:	e284205c 	add	r2, r4, #92	; 0x5c
    d6e8:	e592c008 	ldr	ip, [r2, #8]
    d6ec:	13c73001 	bicne	r3, r7, #1	; 0x1
    d6f0:	15853004 	strne	r3, [r5, #4]
    d6f4:	e38e3001 	orr	r3, lr, #1	; 0x1
    d6f8:	e580200c 	str	r2, [r0, #12]
    d6fc:	e9801008 	stmib	r0, {r3, ip}
    d700:	e780e00e 	str	lr, [r0, lr]
    d704:	e58c000c 	str	r0, [ip, #12]
    d708:	e5820008 	str	r0, [r2, #8]
    d70c:	e35e0801 	cmp	lr, #65536	; 0x10000
    d710:	3a000013 	bcc	d764 <_int_free+0x138>
    d714:	e5943028 	ldr	r3, [r4, #40]
    d718:	e3130001 	tst	r3, #1	; 0x1
    d71c:	0a000015 	beq	d778 <_int_free+0x14c>
    d720:	e59f308c 	ldr	r3, [pc, #140]	; d7b4 <_int_free+0x188>
    d724:	e1540003 	cmp	r4, r3
    d728:	0a000006 	beq	d748 <_int_free+0x11c>
    d72c:	e5940054 	ldr	r0, [r4, #84]
    d730:	e59f3080 	ldr	r3, [pc, #128]	; d7b8 <_int_free+0x18c>
    d734:	e1a00a20 	mov	r0, r0, lsr #20
    d738:	e5931004 	ldr	r1, [r3, #4]
    d73c:	e1a00a00 	mov	r0, r0, lsl #20
    d740:	e8bd40f0 	ldmia	sp!, {r4, r5, r6, r7, lr}
    d744:	eafff4e2 	b	aad4 <heap_trim>
    d748:	e5943054 	ldr	r3, [r4, #84]
    d74c:	e59f0064 	ldr	r0, [pc, #100]	; d7b8 <_int_free+0x18c>
    d750:	e5932004 	ldr	r2, [r3, #4]
    d754:	e5901000 	ldr	r1, [r0]
    d758:	e3c22007 	bic	r2, r2, #7	; 0x7
    d75c:	e1520001 	cmp	r2, r1
    d760:	2a000000 	bcs	d768 <_int_free+0x13c>
    d764:	e8bd80f0 	ldmia	sp!, {r4, r5, r6, r7, pc}
    d768:	e5900004 	ldr	r0, [r0, #4]
    d76c:	e1a01004 	mov	r1, r4
    d770:	e8bd40f0 	ldmia	sp!, {r4, r5, r6, r7, lr}
    d774:	eafffab6 	b	c254 <sYSTRIm>
    d778:	e1a00004 	mov	r0, r4
    d77c:	eb00000e 	bl	d7bc <malloc_consolidate>
    d780:	eaffffe6 	b	d720 <_int_free+0xf4>
    d784:	e59f202c 	ldr	r2, [pc, #44]	; d7b8 <_int_free+0x18c>
    d788:	e5111008 	ldr	r1, [r1, #-8]
    d78c:	e592c00c 	ldr	ip, [r2, #12]
    d790:	e592301c 	ldr	r3, [r2, #28]
    d794:	e0610000 	rsb	r0, r1, r0
    d798:	e08e1001 	add	r1, lr, r1
    d79c:	e24cc001 	sub	ip, ip, #1	; 0x1
    d7a0:	e0613003 	rsb	r3, r1, r3
    d7a4:	e582301c 	str	r3, [r2, #28]
    d7a8:	e582c00c 	str	ip, [r2, #12]
    d7ac:	e8bd40f0 	ldmia	sp!, {r4, r5, r6, r7, lr}
    d7b0:	ea0007b2 	b	f680 <__munmap>
    d7b4:	00072ff8 	streqd	r2, [r7], -r8
    d7b8:	00073470 	andeq	r3, r7, r0, ror r4

0000d7bc <malloc_consolidate>:
    d7bc:	e92d47f0 	stmdb	sp!, {r4, r5, r6, r7, r8, r9, sl, lr}
    d7c0:	e5902028 	ldr	r2, [r0, #40]
    d7c4:	e1a07000 	mov	r7, r0
    d7c8:	e3520000 	cmp	r2, #0	; 0x0
    d7cc:	0a000039 	beq	d8b8 <malloc_consolidate+0xfc>
    d7d0:	e3822001 	orr	r2, r2, #1	; 0x1
    d7d4:	e1a031a2 	mov	r3, r2, lsr #3
    d7d8:	e0803103 	add	r3, r0, r3, lsl #2
    d7dc:	e5802028 	str	r2, [r0, #40]
    d7e0:	e2839024 	add	r9, r3, #36	; 0x24
    d7e4:	e280605c 	add	r6, r0, #92	; 0x5c
    d7e8:	e280a02c 	add	sl, r0, #44	; 0x2c
    d7ec:	e59a1000 	ldr	r1, [sl]
    d7f0:	e3510000 	cmp	r1, #0	; 0x0
    d7f4:	0a00002b 	beq	d8a8 <malloc_consolidate+0xec>
    d7f8:	e3a03000 	mov	r3, #0	; 0x0
    d7fc:	e58a3000 	str	r3, [sl]
    d800:	e9910108 	ldmib	r1, {r3, r8}
    d804:	e3c30005 	bic	r0, r3, #5	; 0x5
    d808:	e081c000 	add	ip, r1, r0
    d80c:	e59c4004 	ldr	r4, [ip, #4]
    d810:	e3130001 	tst	r3, #1	; 0x1
    d814:	e3c4e007 	bic	lr, r4, #7	; 0x7
    d818:	e08c500e 	add	r5, ip, lr
    d81c:	1a000006 	bne	d83c <malloc_consolidate+0x80>
    d820:	e5913000 	ldr	r3, [r1]
    d824:	e0631001 	rsb	r1, r3, r1
    d828:	e5912008 	ldr	r2, [r1, #8]
    d82c:	e0800003 	add	r0, r0, r3
    d830:	e591300c 	ldr	r3, [r1, #12]
    d834:	e5832008 	str	r2, [r3, #8]
    d838:	e582300c 	str	r3, [r2, #12]
    d83c:	e5973054 	ldr	r3, [r7, #84]
    d840:	e15c0003 	cmp	ip, r3
    d844:	0080000e 	addeq	r0, r0, lr
    d848:	03803001 	orreq	r3, r0, #1	; 0x1
    d84c:	05871054 	streq	r1, [r7, #84]
    d850:	05813004 	streq	r3, [r1, #4]
    d854:	0a000010 	beq	d89c <malloc_consolidate+0xe0>
    d858:	e5953004 	ldr	r3, [r5, #4]
    d85c:	e3c42001 	bic	r2, r4, #1	; 0x1
    d860:	e3130001 	tst	r3, #1	; 0x1
    d864:	059c300c 	ldreq	r3, [ip, #12]
    d868:	059c2008 	ldreq	r2, [ip, #8]
    d86c:	0080000e 	addeq	r0, r0, lr
    d870:	05832008 	streq	r2, [r3, #8]
    d874:	0582300c 	streq	r3, [r2, #12]
    d878:	158c2004 	strne	r2, [ip, #4]
    d87c:	e5962008 	ldr	r2, [r6, #8]
    d880:	e3803001 	orr	r3, r0, #1	; 0x1
    d884:	e5861008 	str	r1, [r6, #8]
    d888:	e582100c 	str	r1, [r2, #12]
    d88c:	e7810000 	str	r0, [r1, r0]
    d890:	e5813004 	str	r3, [r1, #4]
    d894:	e5812008 	str	r2, [r1, #8]
    d898:	e581600c 	str	r6, [r1, #12]
    d89c:	e3580000 	cmp	r8, #0	; 0x0
    d8a0:	e1a01008 	mov	r1, r8
    d8a4:	1affffd5 	bne	d800 <malloc_consolidate+0x44>
    d8a8:	e15a0009 	cmp	sl, r9
    d8ac:	e28aa004 	add	sl, sl, #4	; 0x4
    d8b0:	1affffcd 	bne	d7ec <malloc_consolidate+0x30>
    d8b4:	e8bd87f0 	ldmia	sp!, {r4, r5, r6, r7, r8, r9, sl, pc}
    d8b8:	e8bd47f0 	ldmia	sp!, {r4, r5, r6, r7, r8, r9, sl, lr}
    d8bc:	eafff1b3 	b	9f90 <malloc_init_state>

0000d8c0 <_int_realloc>:
    d8c0:	e92d4ff0 	stmdb	sp!, {r4, r5, r6, r7, r8, r9, sl, fp, lr}
    d8c4:	e3520000 	cmp	r2, #0	; 0x0
    d8c8:	e24dd008 	sub	sp, sp, #8	; 0x8
    d8cc:	e1a04002 	mov	r4, r2
    d8d0:	e58d0004 	str	r0, [sp, #4]
    d8d4:	e1a06001 	mov	r6, r1
    d8d8:	0a0000cd 	beq	dc14 <_int_realloc+0x354>
    d8dc:	e3510000 	cmp	r1, #0	; 0x0
    d8e0:	0a0000c7 	beq	dc04 <_int_realloc+0x344>
    d8e4:	e3720021 	cmn	r2, #33	; 0x21
    d8e8:	8a0000c0 	bhi	dbf0 <_int_realloc+0x330>
    d8ec:	e282000b 	add	r0, r2, #11	; 0xb
    d8f0:	e350000f 	cmp	r0, #15	; 0xf
    d8f4:	e2468008 	sub	r8, r6, #8	; 0x8
    d8f8:	83c0a007 	bichi	sl, r0, #7	; 0x7
    d8fc:	e5980004 	ldr	r0, [r8, #4]
    d900:	93a0a010 	movls	sl, #16	; 0x10
    d904:	e3100002 	tst	r0, #2	; 0x2
    d908:	e3c07007 	bic	r7, r0, #7	; 0x7
    d90c:	1a000085 	bne	db28 <_int_realloc+0x268>
    d910:	e157000a 	cmp	r7, sl
    d914:	21a04007 	movcs	r4, r7
    d918:	2a000046 	bcs	da38 <_int_realloc+0x178>
    d91c:	e59d1004 	ldr	r1, [sp, #4]
    d920:	e0885007 	add	r5, r8, r7
    d924:	e5913054 	ldr	r3, [r1, #84]
    d928:	e1550003 	cmp	r5, r3
    d92c:	0a000068 	beq	dad4 <_int_realloc+0x214>
    d930:	e5953004 	ldr	r3, [r5, #4]
    d934:	e3c31007 	bic	r1, r3, #7	; 0x7
    d938:	e0852001 	add	r2, r5, r1
    d93c:	e5923004 	ldr	r3, [r2, #4]
    d940:	e3130001 	tst	r3, #1	; 0x1
    d944:	1a000006 	bne	d964 <_int_realloc+0xa4>
    d948:	e0874001 	add	r4, r7, r1
    d94c:	e154000a 	cmp	r4, sl
    d950:	2595200c 	ldrcs	r2, [r5, #12]
    d954:	25953008 	ldrcs	r3, [r5, #8]
    d958:	25823008 	strcs	r3, [r2, #8]
    d95c:	2583200c 	strcs	r2, [r3, #12]
    d960:	2a000034 	bcs	da38 <_int_realloc+0x178>
    d964:	e24a1007 	sub	r1, sl, #7	; 0x7
    d968:	e59d0004 	ldr	r0, [sp, #4]
    d96c:	ebfffde5 	bl	d108 <_int_malloc>
    d970:	e3500000 	cmp	r0, #0	; 0x0
    d974:	e1a09000 	mov	r9, r0
    d978:	0a000053 	beq	dacc <_int_realloc+0x20c>
    d97c:	e2403008 	sub	r3, r0, #8	; 0x8
    d980:	e58d3000 	str	r3, [sp]
    d984:	e59d1000 	ldr	r1, [sp]
    d988:	e5933004 	ldr	r3, [r3, #4]
    d98c:	e1510005 	cmp	r1, r5
    d990:	e3c34007 	bic	r4, r3, #7	; 0x7
    d994:	05980004 	ldreq	r0, [r8, #4]
    d998:	00844007 	addeq	r4, r4, r7
    d99c:	0a000025 	beq	da38 <_int_realloc+0x178>
    d9a0:	e2472004 	sub	r2, r7, #4	; 0x4
    d9a4:	e1a01122 	mov	r1, r2, lsr #2
    d9a8:	e3510009 	cmp	r1, #9	; 0x9
    d9ac:	8a00001e 	bhi	da2c <_int_realloc+0x16c>
    d9b0:	e5963000 	ldr	r3, [r6]
    d9b4:	e3510004 	cmp	r1, #4	; 0x4
    d9b8:	e5803000 	str	r3, [r0]
    d9bc:	e5962004 	ldr	r2, [r6, #4]
    d9c0:	e5802004 	str	r2, [r0, #4]
    d9c4:	e5963008 	ldr	r3, [r6, #8]
    d9c8:	e5803008 	str	r3, [r0, #8]
    d9cc:	9a00000e 	bls	da0c <_int_realloc+0x14c>
    d9d0:	e596200c 	ldr	r2, [r6, #12]
    d9d4:	e3510006 	cmp	r1, #6	; 0x6
    d9d8:	e580200c 	str	r2, [r0, #12]
    d9dc:	e5963010 	ldr	r3, [r6, #16]
    d9e0:	e5803010 	str	r3, [r0, #16]
    d9e4:	9a000008 	bls	da0c <_int_realloc+0x14c>
    d9e8:	e5962014 	ldr	r2, [r6, #20]
    d9ec:	e3510008 	cmp	r1, #8	; 0x8
    d9f0:	e5802014 	str	r2, [r0, #20]
    d9f4:	e5963018 	ldr	r3, [r6, #24]
    d9f8:	e5803018 	str	r3, [r0, #24]
    d9fc:	8596301c 	ldrhi	r3, [r6, #28]
    da00:	8580301c 	strhi	r3, [r0, #28]
    da04:	85962020 	ldrhi	r2, [r6, #32]
    da08:	85802020 	strhi	r2, [r0, #32]
    da0c:	e59d0004 	ldr	r0, [sp, #4]
    da10:	e1a01006 	mov	r1, r6
    da14:	ebffff04 	bl	d62c <_int_free>
    da18:	e59d2000 	ldr	r2, [sp]
    da1c:	e282c008 	add	ip, r2, #8	; 0x8
    da20:	e1a0000c 	mov	r0, ip
    da24:	e28dd008 	add	sp, sp, #8	; 0x8
    da28:	e8bd8ff0 	ldmia	sp!, {r4, r5, r6, r7, r8, r9, sl, fp, pc}
    da2c:	e1a01006 	mov	r1, r6
    da30:	eb00046c 	bl	ebe8 <memcpy>
    da34:	eafffff4 	b	da0c <_int_realloc+0x14c>
    da38:	e06ac004 	rsb	ip, sl, r4
    da3c:	e35c000f 	cmp	ip, #15	; 0xf
    da40:	8a00000d 	bhi	da7c <_int_realloc+0x1bc>
    da44:	e59f21d4 	ldr	r2, [pc, #468]	; dc20 <_int_realloc+0x360>
    da48:	e59d1004 	ldr	r1, [sp, #4]
    da4c:	e2003007 	and	r3, r0, #7	; 0x7
    da50:	e0512002 	subs	r2, r1, r2
    da54:	13a02001 	movne	r2, #1	; 0x1
    da58:	e1833004 	orr	r3, r3, r4
    da5c:	e1833102 	orr	r3, r3, r2, lsl #2
    da60:	e5883004 	str	r3, [r8, #4]
    da64:	e0882004 	add	r2, r8, r4
    da68:	e5923004 	ldr	r3, [r2, #4]
    da6c:	e3833001 	orr	r3, r3, #1	; 0x1
    da70:	e5823004 	str	r3, [r2, #4]
    da74:	e288c008 	add	ip, r8, #8	; 0x8
    da78:	eaffffe8 	b	da20 <_int_realloc+0x160>
    da7c:	e59d2004 	ldr	r2, [sp, #4]
    da80:	e59f3198 	ldr	r3, [pc, #408]	; dc20 <_int_realloc+0x360>
    da84:	e2000007 	and	r0, r0, #7	; 0x7
    da88:	e0523003 	subs	r3, r2, r3
    da8c:	13a03001 	movne	r3, #1	; 0x1
    da90:	e180000a 	orr	r0, r0, sl
    da94:	e38c2001 	orr	r2, ip, #1	; 0x1
    da98:	e1800103 	orr	r0, r0, r3, lsl #2
    da9c:	e088100a 	add	r1, r8, sl
    daa0:	e1822103 	orr	r2, r2, r3, lsl #2
    daa4:	e5880004 	str	r0, [r8, #4]
    daa8:	e081000c 	add	r0, r1, ip
    daac:	e5812004 	str	r2, [r1, #4]
    dab0:	e5903004 	ldr	r3, [r0, #4]
    dab4:	e2811008 	add	r1, r1, #8	; 0x8
    dab8:	e3833001 	orr	r3, r3, #1	; 0x1
    dabc:	e5803004 	str	r3, [r0, #4]
    dac0:	e59d0004 	ldr	r0, [sp, #4]
    dac4:	ebfffed8 	bl	d62c <_int_free>
    dac8:	eaffffe9 	b	da74 <_int_realloc+0x1b4>
    dacc:	e1a0c009 	mov	ip, r9
    dad0:	eaffffd2 	b	da20 <_int_realloc+0x160>
    dad4:	e5953004 	ldr	r3, [r5, #4]
    dad8:	e28a2010 	add	r2, sl, #16	; 0x10
    dadc:	e3c33007 	bic	r3, r3, #7	; 0x7
    dae0:	e0874003 	add	r4, r7, r3
    dae4:	e1540002 	cmp	r4, r2
    dae8:	3affff9d 	bcc	d964 <_int_realloc+0xa4>
    daec:	e59f312c 	ldr	r3, [pc, #300]	; dc20 <_int_realloc+0x360>
    daf0:	e2002007 	and	r2, r0, #7	; 0x7
    daf4:	e0513003 	subs	r3, r1, r3
    daf8:	13a03001 	movne	r3, #1	; 0x1
    dafc:	e182200a 	orr	r2, r2, sl
    db00:	e1822103 	orr	r2, r2, r3, lsl #2
    db04:	e5882004 	str	r2, [r8, #4]
    db08:	e06a1004 	rsb	r1, sl, r4
    db0c:	e59d2004 	ldr	r2, [sp, #4]
    db10:	e088000a 	add	r0, r8, sl
    db14:	e3811001 	orr	r1, r1, #1	; 0x1
    db18:	e1a0c006 	mov	ip, r6
    db1c:	e5801004 	str	r1, [r0, #4]
    db20:	e5820054 	str	r0, [r2, #84]
    db24:	eaffffbd 	b	da20 <_int_realloc+0x160>
    db28:	e59fb0f4 	ldr	fp, [pc, #244]	; dc24 <_int_realloc+0x364>
    db2c:	e5165008 	ldr	r5, [r6, #-8]
    db30:	e59b2018 	ldr	r2, [fp, #24]
    db34:	e08a3005 	add	r3, sl, r5
    db38:	e2422001 	sub	r2, r2, #1	; 0x1
    db3c:	e0833002 	add	r3, r3, r2
    db40:	e2833004 	add	r3, r3, #4	; 0x4
    db44:	e1c34002 	bic	r4, r3, r2
    db48:	e0659004 	rsb	r9, r5, r4
    db4c:	e1570009 	cmp	r7, r9
    db50:	01a0c006 	moveq	ip, r6
    db54:	0affffb1 	beq	da20 <_int_realloc+0x160>
    db58:	e0650008 	rsb	r0, r5, r8
    db5c:	e0871005 	add	r1, r7, r5
    db60:	e1a02004 	mov	r2, r4
    db64:	e3a03001 	mov	r3, #1	; 0x1
    db68:	eb0006cc 	bl	f6a0 <__mremap>
    db6c:	e3700001 	cmn	r0, #1	; 0x1
    db70:	0a00000d 	beq	dbac <_int_realloc+0x2ec>
    db74:	e0800005 	add	r0, r0, r5
    db78:	e3893002 	orr	r3, r9, #2	; 0x2
    db7c:	e5803004 	str	r3, [r0, #4]
    db80:	e59b101c 	ldr	r1, [fp, #28]
    db84:	e0673004 	rsb	r3, r7, r4
    db88:	e58d0000 	str	r0, [sp]
    db8c:	e0811003 	add	r1, r1, r3
    db90:	e59b2020 	ldr	r2, [fp, #32]
    db94:	e59d3000 	ldr	r3, [sp]
    db98:	e1510002 	cmp	r1, r2
    db9c:	e283c008 	add	ip, r3, #8	; 0x8
    dba0:	e58b101c 	str	r1, [fp, #28]
    dba4:	858b1020 	strhi	r1, [fp, #32]
    dba8:	eaffff9c 	b	da20 <_int_realloc+0x160>
    dbac:	e28a3004 	add	r3, sl, #4	; 0x4
    dbb0:	e1570003 	cmp	r7, r3
    dbb4:	21a09006 	movcs	r9, r6
    dbb8:	2affffc3 	bcs	dacc <_int_realloc+0x20c>
    dbbc:	e24a1007 	sub	r1, sl, #7	; 0x7
    dbc0:	e59d0004 	ldr	r0, [sp, #4]
    dbc4:	ebfffd4f 	bl	d108 <_int_malloc>
    dbc8:	e3500000 	cmp	r0, #0	; 0x0
    dbcc:	e1a09000 	mov	r9, r0
    dbd0:	0affffbd 	beq	dacc <_int_realloc+0x20c>
    dbd4:	e1a01006 	mov	r1, r6
    dbd8:	e2472008 	sub	r2, r7, #8	; 0x8
    dbdc:	eb000401 	bl	ebe8 <memcpy>
    dbe0:	e1a01006 	mov	r1, r6
    dbe4:	e59d0004 	ldr	r0, [sp, #4]
    dbe8:	ebfffe8f 	bl	d62c <_int_free>
    dbec:	eaffffb6 	b	dacc <_int_realloc+0x20c>
    dbf0:	ebffea44 	bl	8508 <__errno_location>
    dbf4:	e3a0300c 	mov	r3, #12	; 0xc
    dbf8:	e3a0c000 	mov	ip, #0	; 0x0
    dbfc:	e5803000 	str	r3, [r0]
    dc00:	eaffff86 	b	da20 <_int_realloc+0x160>
    dc04:	e1a01002 	mov	r1, r2
    dc08:	e28dd008 	add	sp, sp, #8	; 0x8
    dc0c:	e8bd4ff0 	ldmia	sp!, {r4, r5, r6, r7, r8, r9, sl, fp, lr}
    dc10:	eafffd3c 	b	d108 <_int_malloc>
    dc14:	ebfffe84 	bl	d62c <_int_free>
    dc18:	e1a0c004 	mov	ip, r4
    dc1c:	eaffff7f 	b	da20 <_int_realloc+0x160>
    dc20:	00072ff8 	streqd	r2, [r7], -r8
    dc24:	00073470 	andeq	r3, r7, r0, ror r4

0000dc28 <_int_memalign>:
    dc28:	e3510008 	cmp	r1, #8	; 0x8
    dc2c:	e92d45f0 	stmdb	sp!, {r4, r5, r6, r7, r8, sl, lr}
    dc30:	e1a04001 	mov	r4, r1
    dc34:	e1a08000 	mov	r8, r0
    dc38:	e1a01002 	mov	r1, r2
    dc3c:	9a000065 	bls	ddd8 <_int_memalign+0x1b0>
    dc40:	e354000f 	cmp	r4, #15	; 0xf
    dc44:	93a04010 	movls	r4, #16	; 0x10
    dc48:	e2443001 	sub	r3, r4, #1	; 0x1
    dc4c:	e1140003 	tst	r4, r3
    dc50:	0a000006 	beq	dc70 <_int_memalign+0x48>
    dc54:	e3a03010 	mov	r3, #16	; 0x10
    dc58:	e1530004 	cmp	r3, r4
    dc5c:	2a000002 	bcs	dc6c <_int_memalign+0x44>
    dc60:	e1a03083 	mov	r3, r3, lsl #1
    dc64:	e1530004 	cmp	r3, r4
    dc68:	3afffffc 	bcc	dc60 <_int_memalign+0x38>
    dc6c:	e1a04003 	mov	r4, r3
    dc70:	e3710021 	cmn	r1, #33	; 0x21
    dc74:	8a000052 	bhi	ddc4 <_int_memalign+0x19c>
    dc78:	e281100b 	add	r1, r1, #11	; 0xb
    dc7c:	e351000f 	cmp	r1, #15	; 0xf
    dc80:	83c1a007 	bichi	sl, r1, #7	; 0x7
    dc84:	93a0a010 	movls	sl, #16	; 0x10
    dc88:	e08a1004 	add	r1, sl, r4
    dc8c:	e2811010 	add	r1, r1, #16	; 0x10
    dc90:	e1a00008 	mov	r0, r8
    dc94:	ebfffd1b 	bl	d108 <_int_malloc>
    dc98:	e3500000 	cmp	r0, #0	; 0x0
    dc9c:	e1a06000 	mov	r6, r0
    dca0:	01a01000 	moveq	r1, r0
    dca4:	0a000018 	beq	dd0c <_int_memalign+0xe4>
    dca8:	e1a01004 	mov	r1, r4
    dcac:	eb012027 	bl	55d50 <__umodsi3>
    dcb0:	e3500000 	cmp	r0, #0	; 0x0
    dcb4:	e2467008 	sub	r7, r6, #8	; 0x8
    dcb8:	0a000028 	beq	dd60 <_int_memalign+0x138>
    dcbc:	e0863004 	add	r3, r6, r4
    dcc0:	e2642000 	rsb	r2, r4, #0	; 0x0
    dcc4:	e2433001 	sub	r3, r3, #1	; 0x1
    dcc8:	e0033002 	and	r3, r3, r2
    dccc:	e2435008 	sub	r5, r3, #8	; 0x8
    dcd0:	e067e005 	rsb	lr, r7, r5
    dcd4:	e35e000f 	cmp	lr, #15	; 0xf
    dcd8:	e5973004 	ldr	r3, [r7, #4]
    dcdc:	90855004 	addls	r5, r5, r4
    dce0:	9067e005 	rsbls	lr, r7, r5
    dce4:	e3130002 	tst	r3, #2	; 0x2
    dce8:	e3c33007 	bic	r3, r3, #7	; 0x7
    dcec:	e06e2003 	rsb	r2, lr, r3
    dcf0:	0a000007 	beq	dd14 <_int_memalign+0xec>
    dcf4:	e5163008 	ldr	r3, [r6, #-8]
    dcf8:	e3822002 	orr	r2, r2, #2	; 0x2
    dcfc:	e083300e 	add	r3, r3, lr
    dd00:	e2851008 	add	r1, r5, #8	; 0x8
    dd04:	e5853000 	str	r3, [r5]
    dd08:	e5852004 	str	r2, [r5, #4]
    dd0c:	e1a00001 	mov	r0, r1
    dd10:	e8bd85f0 	ldmia	sp!, {r4, r5, r6, r7, r8, sl, pc}
    dd14:	e59fc0c4 	ldr	ip, [pc, #196]	; dde0 <_int_memalign+0x1b8>
    dd18:	e3823001 	orr	r3, r2, #1	; 0x1
    dd1c:	e058c00c 	subs	ip, r8, ip
    dd20:	13a0c001 	movne	ip, #1	; 0x1
    dd24:	e183310c 	orr	r3, r3, ip, lsl #2
    dd28:	e5853004 	str	r3, [r5, #4]
    dd2c:	e0850002 	add	r0, r5, r2
    dd30:	e5902004 	ldr	r2, [r0, #4]
    dd34:	e1a01006 	mov	r1, r6
    dd38:	e3822001 	orr	r2, r2, #1	; 0x1
    dd3c:	e5802004 	str	r2, [r0, #4]
    dd40:	e5973004 	ldr	r3, [r7, #4]
    dd44:	e1a00008 	mov	r0, r8
    dd48:	e2033007 	and	r3, r3, #7	; 0x7
    dd4c:	e183300e 	orr	r3, r3, lr
    dd50:	e183310c 	orr	r3, r3, ip, lsl #2
    dd54:	e5873004 	str	r3, [r7, #4]
    dd58:	ebfffe33 	bl	d62c <_int_free>
    dd5c:	e1a07005 	mov	r7, r5
    dd60:	e5972004 	ldr	r2, [r7, #4]
    dd64:	e3120002 	tst	r2, #2	; 0x2
    dd68:	1a000003 	bne	dd7c <_int_memalign+0x154>
    dd6c:	e3c22007 	bic	r2, r2, #7	; 0x7
    dd70:	e28a3010 	add	r3, sl, #16	; 0x10
    dd74:	e1520003 	cmp	r2, r3
    dd78:	8a000001 	bhi	dd84 <_int_memalign+0x15c>
    dd7c:	e2871008 	add	r1, r7, #8	; 0x8
    dd80:	eaffffe1 	b	dd0c <_int_memalign+0xe4>
    dd84:	e59f3054 	ldr	r3, [pc, #84]	; dde0 <_int_memalign+0x1b8>
    dd88:	e06a2002 	rsb	r2, sl, r2
    dd8c:	e0583003 	subs	r3, r8, r3
    dd90:	13a03001 	movne	r3, #1	; 0x1
    dd94:	e3822001 	orr	r2, r2, #1	; 0x1
    dd98:	e1822103 	orr	r2, r2, r3, lsl #2
    dd9c:	e087100a 	add	r1, r7, sl
    dda0:	e5812004 	str	r2, [r1, #4]
    dda4:	e5973004 	ldr	r3, [r7, #4]
    dda8:	e2811008 	add	r1, r1, #8	; 0x8
    ddac:	e2033007 	and	r3, r3, #7	; 0x7
    ddb0:	e183300a 	orr	r3, r3, sl
    ddb4:	e5873004 	str	r3, [r7, #4]
    ddb8:	e1a00008 	mov	r0, r8
    ddbc:	ebfffe1a 	bl	d62c <_int_free>
    ddc0:	eaffffed 	b	dd7c <_int_memalign+0x154>
    ddc4:	ebffe9cf 	bl	8508 <__errno_location>
    ddc8:	e3a0300c 	mov	r3, #12	; 0xc
    ddcc:	e3a01000 	mov	r1, #0	; 0x0
    ddd0:	e5803000 	str	r3, [r0]
    ddd4:	eaffffcc 	b	dd0c <_int_memalign+0xe4>
    ddd8:	e8bd45f0 	ldmia	sp!, {r4, r5, r6, r7, r8, sl, lr}
    dddc:	eafffcc9 	b	d108 <_int_malloc>
    dde0:	00072ff8 	streqd	r2, [r7], -r8

0000dde4 <_int_icalloc>:
    dde4:	e92d4010 	stmdb	sp!, {r4, lr}
    dde8:	e24dd008 	sub	sp, sp, #8	; 0x8
    ddec:	e28dc008 	add	ip, sp, #8	; 0x8
    ddf0:	e52c2004 	str	r2, [ip, #-4]!
    ddf4:	e1a04003 	mov	r4, r3
    ddf8:	e1a0200c 	mov	r2, ip
    ddfc:	e3a03003 	mov	r3, #3	; 0x3
    de00:	e58d4000 	str	r4, [sp]
    de04:	eb000009 	bl	de30 <iALLOc>
    de08:	e28dd008 	add	sp, sp, #8	; 0x8
    de0c:	e8bd8010 	ldmia	sp!, {r4, pc}

0000de10 <_int_icomalloc>:
    de10:	e52de004 	str	lr, [sp, #-4]!
    de14:	e1a0c003 	mov	ip, r3
    de18:	e24dd004 	sub	sp, sp, #4	; 0x4
    de1c:	e3a03000 	mov	r3, #0	; 0x0
    de20:	e58dc000 	str	ip, [sp]
    de24:	eb000001 	bl	de30 <iALLOc>
