
hello.exe:     file format elf32-tradbigmips

Disassembly of section .text:

80400000 <_ftext>:
80400000:	00000000 	nop

80400004 <_start>:
80400004:	04110001 	bal	8040000c <_branch>
80400008:	00000000 	nop

8040000c <_branch>:
8040000c:	03e02821 	move	a1,ra
80400010:	3c068800 	lui	a2,0x8800
80400014:	34c6000c 	ori	a2,a2,0xc
80400018:	3c022410 	lui	v0,0x2410
8040001c:	344200e0 	ori	v0,v0,0xe0
80400020:	40826000 	mtc0	v0,c0_status
80400024:	40806800 	mtc0	zero,c0_cause
80400028:	3c020410 	lui	v0,0x410
8040002c:	344200e0 	ori	v0,v0,0xe0
80400030:	40826000 	mtc0	v0,c0_status
80400034:	3c028040 	lui	v0,0x8040
80400038:	24420044 	addiu	v0,v0,68
8040003c:	00400008 	jr	v0
80400040:	00000000 	nop
80400044:	3c1c8042 	lui	gp,0x8042
80400048:	279cb150 	addiu	gp,gp,-20144

8040004c <zerobss>:
8040004c:	3c028041 	lui	v0,0x8041
80400050:	24424118 	addiu	v0,v0,16664
80400054:	3c038042 	lui	v1,0x8042
80400058:	24639000 	addiu	v1,v1,-28672
8040005c:	ac400000 	sw	zero,0(v0)
80400060:	0043082b 	sltu	at,v0,v1
80400064:	1420fffd 	bnez	at,8040005c <zerobss+0x10>
80400068:	24420004 	addiu	v0,v0,4
8040006c:	3c088042 	lui	t0,0x8042
80400070:	25089000 	addiu	t0,t0,-28672
80400074:	2508ffe0 	addiu	t0,t0,-32
80400078:	0100e821 	move	sp,t0

8040007c <init>:
8040007c:	00002021 	move	a0,zero
80400080:	0c1000a8 	jal	804002a0 <boot_card>
80400084:	00000000 	nop
80400088:	0c100024 	jal	80400090 <_sys_exit>
8040008c:	00402021 	move	a0,v0

80400090 <_sys_exit>:
80400090:	03ff000d 	break	0xffc00
80400094:	00000000 	nop
80400098:	1000fffd 	b	80400090 <_sys_exit>
8040009c:	00000000 	nop

804000a0 <__do_global_dtors_aux>:
804000a0:	27bdffd8 	addiu	sp,sp,-40
804000a4:	afb30020 	sw	s3,32(sp)
804000a8:	3c138041 	lui	s3,0x8041
804000ac:	92624120 	lbu	v0,16672(s3)
804000b0:	afbf0024 	sw	ra,36(sp)
804000b4:	afb2001c 	sw	s2,28(sp)
804000b8:	afb10018 	sw	s1,24(sp)
804000bc:	14400021 	bnez	v0,80400144 <__do_global_dtors_aux+0xa4>
804000c0:	afb00014 	sw	s0,20(sp)
804000c4:	3c028041 	lui	v0,0x8041
804000c8:	3c038041 	lui	v1,0x8041
804000cc:	24522494 	addiu	s2,v0,9364
804000d0:	24632498 	addiu	v1,v1,9368
804000d4:	00721823 	subu	v1,v1,s2
804000d8:	3c108041 	lui	s0,0x8041
804000dc:	00031883 	sra	v1,v1,0x2
804000e0:	8e044124 	lw	a0,16676(s0)
804000e4:	2471ffff 	addiu	s1,v1,-1
804000e8:	0091102b 	sltu	v0,a0,s1
804000ec:	1040000d 	beqz	v0,80400124 <__do_global_dtors_aux+0x84>
804000f0:	3c020000 	lui	v0,0x0
804000f4:	24840001 	addiu	a0,a0,1
804000f8:	00041080 	sll	v0,a0,0x2
804000fc:	02421021 	addu	v0,s2,v0
80400100:	8c430000 	lw	v1,0(v0)
80400104:	0060f809 	jalr	v1
80400108:	ae044124 	sw	a0,16676(s0)
8040010c:	8e044124 	lw	a0,16676(s0)
80400110:	0091102b 	sltu	v0,a0,s1
80400114:	1440fff8 	bnez	v0,804000f8 <__do_global_dtors_aux+0x58>
80400118:	24840001 	addiu	a0,a0,1
8040011c:	2484ffff 	addiu	a0,a0,-1
80400120:	3c020000 	lui	v0,0x0
80400124:	24420000 	addiu	v0,v0,0
80400128:	10400005 	beqz	v0,80400140 <__do_global_dtors_aux+0xa0>
8040012c:	24020001 	li	v0,1
80400130:	3c048041 	lui	a0,0x8041
80400134:	0c000000 	jal	80000000 <_sdram_size+0x7f400000>
80400138:	24842440 	addiu	a0,a0,9280
8040013c:	24020001 	li	v0,1
80400140:	a2624120 	sb	v0,16672(s3)
80400144:	8fbf0024 	lw	ra,36(sp)
80400148:	8fb30020 	lw	s3,32(sp)
8040014c:	8fb2001c 	lw	s2,28(sp)
80400150:	8fb10018 	lw	s1,24(sp)
80400154:	8fb00014 	lw	s0,20(sp)
80400158:	03e00008 	jr	ra
8040015c:	27bd0028 	addiu	sp,sp,40

80400160 <frame_dummy>:
80400160:	3c020000 	lui	v0,0x0
80400164:	27bdffe8 	addiu	sp,sp,-24
80400168:	24420000 	addiu	v0,v0,0
8040016c:	10400006 	beqz	v0,80400188 <frame_dummy+0x28>
80400170:	afbf0014 	sw	ra,20(sp)
80400174:	3c048041 	lui	a0,0x8041
80400178:	3c058041 	lui	a1,0x8041
8040017c:	24842440 	addiu	a0,a0,9280
80400180:	0c000000 	jal	80000000 <_sdram_size+0x7f400000>
80400184:	24a54128 	addiu	a1,a1,16680
80400188:	3c048041 	lui	a0,0x8041
8040018c:	8c823d00 	lw	v0,15616(a0)
80400190:	10400007 	beqz	v0,804001b0 <frame_dummy+0x50>
80400194:	3c020000 	lui	v0,0x0
80400198:	24590000 	addiu	t9,v0,0
8040019c:	13200004 	beqz	t9,804001b0 <frame_dummy+0x50>
804001a0:	8fbf0014 	lw	ra,20(sp)
804001a4:	24843d00 	addiu	a0,a0,15616
804001a8:	03200008 	jr	t9
804001ac:	27bd0018 	addiu	sp,sp,24
804001b0:	8fbf0014 	lw	ra,20(sp)
804001b4:	03e00008 	jr	ra
804001b8:	27bd0018 	addiu	sp,sp,24
804001bc:	00000000 	nop

804001c0 <Init>:
804001c0:	3c048041 	lui	a0,0x8041
804001c4:	27bdffe8 	addiu	sp,sp,-24
804001c8:	afbf0014 	sw	ra,20(sp)
804001cc:	0c1040c2 	jal	80410308 <puts>
804001d0:	24843050 	addiu	a0,a0,12368
804001d4:	3c048041 	lui	a0,0x8041
804001d8:	0c1040c2 	jal	80410308 <puts>
804001dc:	2484306c 	addiu	a0,a0,12396
804001e0:	3c048041 	lui	a0,0x8041
804001e4:	0c1040c2 	jal	80410308 <puts>
804001e8:	24843078 	addiu	a0,a0,12408
804001ec:	0c103b38 	jal	8040ece0 <exit>
804001f0:	00002021 	move	a0,zero
	...

80400200 <_Barrier_Manager_initialization>:
80400200:	03e00008 	jr	ra
80400204:	00000000 	nop
	...

80400210 <_Dual_ported_memory_Manager_initialization>:
80400210:	03e00008 	jr	ra
80400214:	00000000 	nop
	...

80400220 <_Event_Manager_initialization>:
80400220:	03e00008 	jr	ra
80400224:	00000000 	nop
	...

80400230 <_Message_queue_Manager_initialization>:
80400230:	03e00008 	jr	ra
80400234:	00000000 	nop
	...

80400240 <_Partition_Manager_initialization>:
80400240:	03e00008 	jr	ra
80400244:	00000000 	nop
	...

80400250 <_Region_Manager_initialization>:
80400250:	03e00008 	jr	ra
80400254:	00000000 	nop
	...

80400260 <_Signal_Manager_initialization>:
80400260:	03e00008 	jr	ra
80400264:	00000000 	nop
	...

80400270 <_Timer_Manager_initialization>:
80400270:	03e00008 	jr	ra
80400274:	00000000 	nop
	...

80400280 <_Rate_monotonic_Manager_initialization>:
80400280:	03e00008 	jr	ra
80400284:	00000000 	nop
	...

80400290 <_Extension_Manager_initialization>:
80400290:	03e00008 	jr	ra
80400294:	00000000 	nop
	...

804002a0 <boot_card>:
804002a0:	27bdffe8 	addiu	sp,sp,-24
804002a4:	afbf0014 	sw	ra,20(sp)
804002a8:	40026000 	mfc0	v0,c0_status
804002ac:	00000000 	nop
804002b0:	2403fffe 	li	v1,-2
804002b4:	00431024 	and	v0,v0,v1
804002b8:	40826000 	mtc0	v0,c0_status
804002bc:	00000000 	nop
804002c0:	18800009 	blez	a0,804002e8 <boot_card+0x48>
804002c4:	3c028041 	lui	v0,0x8041
804002c8:	10a00007 	beqz	a1,804002e8 <boot_card+0x48>
804002cc:	00000000 	nop
804002d0:	8ca50000 	lw	a1,0(a1)
804002d4:	10a00003 	beqz	a1,804002e4 <boot_card+0x44>
804002d8:	3c028041 	lui	v0,0x8041
804002dc:	081000bd 	j	804002f4 <boot_card+0x54>
804002e0:	ac454388 	sw	a1,17288(v0)
804002e4:	3c028041 	lui	v0,0x8041
804002e8:	24423098 	addiu	v0,v0,12440
804002ec:	3c038041 	lui	v1,0x8041
804002f0:	ac624388 	sw	v0,17288(v1)
804002f4:	0c1000f0 	jal	804003c0 <bsp_start>
804002f8:	00000000 	nop
804002fc:	3c048041 	lui	a0,0x8041
80400300:	0c10167d 	jal	804059f4 <rtems_initialize_data_structures>
80400304:	24843728 	addiu	a0,a0,14120
80400308:	0c100106 	jal	80400418 <bsp_pretasking_hook>
8040030c:	00000000 	nop
80400310:	0c10167b 	jal	804059ec <rtems_initialize_before_drivers>
80400314:	00000000 	nop
80400318:	0c1000e8 	jal	804003a0 <bsp_predriver_hook>
8040031c:	00000000 	nop
80400320:	0c101674 	jal	804059d0 <rtems_initialize_device_drivers>
80400324:	00000000 	nop
80400328:	0c1000e4 	jal	80400390 <bsp_postdriver_hook>
8040032c:	00000000 	nop
80400330:	0c101670 	jal	804059c0 <rtems_initialize_start_multitasking>
80400334:	00000000 	nop
80400338:	0c1000d4 	jal	80400350 <bsp_cleanup>
8040033c:	00000000 	nop
80400340:	8fbf0014 	lw	ra,20(sp)
80400344:	00001021 	move	v0,zero
80400348:	03e00008 	jr	ra
8040034c:	27bd0018 	addiu	sp,sp,24

80400350 <bsp_cleanup>:
80400350:	27bdffe8 	addiu	sp,sp,-24
80400354:	afbf0014 	sw	ra,20(sp)
80400358:	3c020020 	lui	v0,0x20
8040035c:	40826000 	mtc0	v0,c0_status
80400360:	00000000 	nop
80400364:	3c048041 	lui	a0,0x8041
80400368:	0c100789 	jal	80401e24 <printk>
8040036c:	248430a0 	addiu	a0,a0,12448
80400370:	0c100123 	jal	8040048c <console_inbyte_nonblocking>
80400374:	00002021 	move	a0,zero
80400378:	0440fffd 	bltz	v0,80400370 <bsp_cleanup+0x20>
8040037c:	8fbf0014 	lw	ra,20(sp)
80400380:	3c19bfc0 	lui	t9,0xbfc0
80400384:	03200008 	jr	t9
80400388:	27bd0018 	addiu	sp,sp,24
8040038c:	00000000 	nop

80400390 <bsp_postdriver_hook>:
80400390:	081005bc 	j	804016f0 <open_dev_console>
80400394:	00000000 	nop
	...

804003a0 <bsp_predriver_hook>:
804003a0:	03e00008 	jr	ra
804003a4:	00000000 	nop
	...

804003b0 <_init>:
804003b0:	03e00008 	jr	ra
804003b4:	00000000 	nop

804003b8 <_fini>:
804003b8:	03e00008 	jr	ra
804003bc:	00000000 	nop

804003c0 <bsp_start>:
804003c0:	3c078041 	lui	a3,0x8041
804003c4:	24e23728 	addiu	v0,a3,14120
804003c8:	8c460004 	lw	a2,4(v0)
804003cc:	3c058042 	lui	a1,0x8042
804003d0:	3c028040 	lui	v0,0x8040
804003d4:	3c0300c0 	lui	v1,0xc0
804003d8:	24a59000 	addiu	a1,a1,-28672
804003dc:	24420000 	addiu	v0,v0,0
804003e0:	24630000 	addiu	v1,v1,0
804003e4:	00621821 	addu	v1,v1,v0
804003e8:	00a63021 	addu	a2,a1,a2
804003ec:	3c048041 	lui	a0,0x8041
804003f0:	3c028041 	lui	v0,0x8041
804003f4:	ac434390 	sw	v1,17296(v0)
804003f8:	ac86438c 	sw	a2,17292(a0)
804003fc:	ace53728 	sw	a1,14120(a3)
80400400:	24027f00 	li	v0,32512
80400404:	40826000 	mtc0	v0,c0_status
80400408:	00000000 	nop
8040040c:	00001821 	move	v1,zero
80400410:	08100194 	j	80400650 <mips_install_isr_entries>
80400414:	40835800 	mtc0	v1,c0_compare

80400418 <bsp_pretasking_hook>:
80400418:	3c028041 	lui	v0,0x8041
8040041c:	3c038041 	lui	v1,0x8041
80400420:	8c44438c 	lw	a0,17292(v0)
80400424:	8c654390 	lw	a1,17296(v1)
80400428:	00003021 	move	a2,zero
8040042c:	08100288 	j	80400a20 <bsp_libc_init>
80400430:	00a42823 	subu	a1,a1,a0
	...

80400440 <console_initialize_hardware>:
80400440:	3c028041 	lui	v0,0x8041
80400444:	8c443780 	lw	a0,14208(v0)
80400448:	240300f1 	li	v1,241
8040044c:	ac830010 	sw	v1,16(a0)
80400450:	0000000f 	sync
80400454:	03e00008 	jr	ra
80400458:	00000000 	nop

8040045c <console_outbyte_polled>:
8040045c:	3c028041 	lui	v0,0x8041
80400460:	00052e00 	sll	a1,a1,0x18
80400464:	8c433780 	lw	v1,14208(v0)
80400468:	00052e03 	sra	a1,a1,0x18
8040046c:	8c62001c 	lw	v0,28(v1)
80400470:	30420020 	andi	v0,v0,0x20
80400474:	1040fffd 	beqz	v0,8040046c <console_outbyte_polled+0x10>
80400478:	00000000 	nop
8040047c:	ac650004 	sw	a1,4(v1)
80400480:	0000000f 	sync
80400484:	03e00008 	jr	ra
80400488:	00000000 	nop

8040048c <console_inbyte_nonblocking>:
8040048c:	3c038041 	lui	v1,0x8041
80400490:	8c633780 	lw	v1,14208(v1)
80400494:	8c62001c 	lw	v0,28(v1)
80400498:	30420001 	andi	v0,v0,0x1
8040049c:	10400004 	beqz	v0,804004b0 <console_inbyte_nonblocking+0x24>
804004a0:	00000000 	nop
804004a4:	8c620000 	lw	v0,0(v1)
804004a8:	03e00008 	jr	ra
804004ac:	304200ff 	andi	v0,v0,0xff
804004b0:	03e00008 	jr	ra
804004b4:	2402ffff 	li	v0,-1

804004b8 <csb250_output_char>:
804004b8:	3c028041 	lui	v0,0x8041
804004bc:	00042600 	sll	a0,a0,0x18
804004c0:	8c433780 	lw	v1,14208(v0)
804004c4:	00042603 	sra	a0,a0,0x18
804004c8:	8c62001c 	lw	v0,28(v1)
804004cc:	30420020 	andi	v0,v0,0x20
804004d0:	1040fffd 	beqz	v0,804004c8 <csb250_output_char+0x10>
804004d4:	00000000 	nop
804004d8:	ac640004 	sw	a0,4(v1)
804004dc:	0000000f 	sync
804004e0:	2402000a 	li	v0,10
804004e4:	10820003 	beq	a0,v0,804004f4 <csb250_output_char+0x3c>
804004e8:	00000000 	nop
804004ec:	03e00008 	jr	ra
804004f0:	00000000 	nop
804004f4:	8c62001c 	lw	v0,28(v1)
804004f8:	30420020 	andi	v0,v0,0x20
804004fc:	1040fffd 	beqz	v0,804004f4 <csb250_output_char+0x3c>
80400500:	2402000d 	li	v0,13
80400504:	ac620004 	sw	v0,4(v1)
80400508:	0000000f 	sync
8040050c:	03e00008 	jr	ra
80400510:	00000000 	nop
	...

80400520 <console_control>:
80400520:	08100d98 	j	80403660 <rtems_termios_ioctl>
80400524:	00c02021 	move	a0,a2

80400528 <console_write>:
80400528:	08100bec 	j	80402fb0 <rtems_termios_write>
8040052c:	00c02021 	move	a0,a2

80400530 <console_read>:
80400530:	08100c6e 	j	804031b8 <rtems_termios_read>
80400534:	00c02021 	move	a0,a2

80400538 <console_close>:
80400538:	08100ec8 	j	80403b20 <rtems_termios_close>
8040053c:	00c02021 	move	a0,a2

80400540 <console_open>:
80400540:	27bdffe8 	addiu	sp,sp,-24
80400544:	2ca20002 	sltiu	v0,a1,2
80400548:	10400008 	beqz	v0,8040056c <console_open+0x2c>
8040054c:	afbf0014 	sw	ra,20(sp)
80400550:	3c078041 	lui	a3,0x8041
80400554:	0c100f38 	jal	80403ce0 <rtems_termios_open>
80400558:	24e724d0 	addiu	a3,a3,9424
8040055c:	8fbf0014 	lw	ra,20(sp)
80400560:	00001021 	move	v0,zero
80400564:	03e00008 	jr	ra
80400568:	27bd0018 	addiu	sp,sp,24
8040056c:	3c048041 	lui	a0,0x8041
80400570:	3c068041 	lui	a2,0x8041
80400574:	3c078041 	lui	a3,0x8041
80400578:	248430cc 	addiu	a0,a0,12492
8040057c:	24c624c0 	addiu	a2,a2,9408
80400580:	24e73128 	addiu	a3,a3,12584
80400584:	0c10031c 	jal	80400c70 <__assert_func>
80400588:	24050069 	li	a1,105

8040058c <console_initialize>:
8040058c:	27bdffe8 	addiu	sp,sp,-24
80400590:	afbf0014 	sw	ra,20(sp)
80400594:	afb00010 	sw	s0,16(sp)
80400598:	0c100798 	jal	80401e60 <rtems_termios_initialize>
8040059c:	00808021 	move	s0,a0
804005a0:	0c100110 	jal	80400440 <console_initialize_hardware>
804005a4:	00000000 	nop
804005a8:	3c048041 	lui	a0,0x8041
804005ac:	24843134 	addiu	a0,a0,12596
804005b0:	02002821 	move	a1,s0
804005b4:	0c100310 	jal	80400c40 <rtems_io_register_name>
804005b8:	00003021 	move	a2,zero
804005bc:	14400005 	bnez	v0,804005d4 <console_initialize+0x48>
804005c0:	00402021 	move	a0,v0
804005c4:	8fbf0014 	lw	ra,20(sp)
804005c8:	8fb00010 	lw	s0,16(sp)
804005cc:	03e00008 	jr	ra
804005d0:	27bd0018 	addiu	sp,sp,24
804005d4:	0c1016d4 	jal	80405b50 <rtems_fatal_error_occurred>
804005d8:	00000000 	nop

804005dc <console_write_support>:
804005dc:	27bdffd8 	addiu	sp,sp,-40
804005e0:	afb30020 	sw	s3,32(sp)
804005e4:	afb2001c 	sw	s2,28(sp)
804005e8:	afbf0024 	sw	ra,36(sp)
804005ec:	afb10018 	sw	s1,24(sp)
804005f0:	afb00014 	sw	s0,20(sp)
804005f4:	00c09021 	move	s2,a2
804005f8:	18c00012 	blez	a2,80400644 <console_write_support+0x68>
804005fc:	00809821 	move	s3,a0
80400600:	00a08821 	move	s1,a1
80400604:	00008021 	move	s0,zero
80400608:	82250000 	lb	a1,0(s1)
8040060c:	26100001 	addiu	s0,s0,1
80400610:	0c100117 	jal	8040045c <console_outbyte_polled>
80400614:	02602021 	move	a0,s3
80400618:	0212102a 	slt	v0,s0,s2
8040061c:	1440fffa 	bnez	v0,80400608 <console_write_support+0x2c>
80400620:	26310001 	addiu	s1,s1,1
80400624:	02401021 	move	v0,s2
80400628:	8fbf0024 	lw	ra,36(sp)
8040062c:	8fb30020 	lw	s3,32(sp)
80400630:	8fb2001c 	lw	s2,28(sp)
80400634:	8fb10018 	lw	s1,24(sp)
80400638:	8fb00014 	lw	s0,20(sp)
8040063c:	03e00008 	jr	ra
80400640:	27bd0028 	addiu	sp,sp,40
80400644:	0810018a 	j	80400628 <console_write_support+0x4c>
80400648:	00001021 	move	v0,zero
8040064c:	00000000 	nop

80400650 <mips_install_isr_entries>:
80400650:	3c028040 	lui	v0,0x8040
80400654:	244709d0 	addiu	a3,v0,2512
80400658:	3c068000 	lui	a2,0x8000
8040065c:	24e80020 	addiu	t0,a3,32
80400660:	8ce20000 	lw	v0,0(a3)
80400664:	8ce30004 	lw	v1,4(a3)
80400668:	8ce40008 	lw	a0,8(a3)
8040066c:	8ce5000c 	lw	a1,12(a3)
80400670:	a8c20000 	swl	v0,0(a2)
80400674:	b8c20003 	swr	v0,3(a2)
80400678:	a8c30004 	swl	v1,4(a2)
8040067c:	b8c30007 	swr	v1,7(a2)
80400680:	a8c40008 	swl	a0,8(a2)
80400684:	b8c4000b 	swr	a0,11(a2)
80400688:	a8c5000c 	swl	a1,12(a2)
8040068c:	24e70010 	addiu	a3,a3,16
80400690:	b8c5000f 	swr	a1,15(a2)
80400694:	14e8fff2 	bne	a3,t0,80400660 <mips_install_isr_entries+0x10>
80400698:	24c60010 	addiu	a2,a2,16
8040069c:	8ce20000 	lw	v0,0(a3)
804006a0:	8ce30004 	lw	v1,4(a3)
804006a4:	a8c20000 	swl	v0,0(a2)
804006a8:	b8c20003 	swr	v0,3(a2)
804006ac:	3c028040 	lui	v0,0x8040
804006b0:	a8c30004 	swl	v1,4(a2)
804006b4:	244709e4 	addiu	a3,v0,2532
804006b8:	3c028000 	lui	v0,0x8000
804006bc:	b8c30007 	swr	v1,7(a2)
804006c0:	24e80020 	addiu	t0,a3,32
804006c4:	34460080 	ori	a2,v0,0x80
804006c8:	8ce20000 	lw	v0,0(a3)
804006cc:	8ce30004 	lw	v1,4(a3)
804006d0:	8ce40008 	lw	a0,8(a3)
804006d4:	8ce5000c 	lw	a1,12(a3)
804006d8:	a8c20000 	swl	v0,0(a2)
804006dc:	b8c20003 	swr	v0,3(a2)
804006e0:	a8c30004 	swl	v1,4(a2)
804006e4:	b8c30007 	swr	v1,7(a2)
804006e8:	a8c40008 	swl	a0,8(a2)
804006ec:	b8c4000b 	swr	a0,11(a2)
804006f0:	a8c5000c 	swl	a1,12(a2)
804006f4:	24e70010 	addiu	a3,a3,16
804006f8:	b8c5000f 	swr	a1,15(a2)
804006fc:	14e8fff2 	bne	a3,t0,804006c8 <mips_install_isr_entries+0x78>
80400700:	24c60010 	addiu	a2,a2,16
80400704:	8ce20000 	lw	v0,0(a3)
80400708:	8ce30004 	lw	v1,4(a3)
8040070c:	a8c20000 	swl	v0,0(a2)
80400710:	b8c20003 	swr	v0,3(a2)
80400714:	3c028040 	lui	v0,0x8040
80400718:	a8c30004 	swl	v1,4(a2)
8040071c:	244709f8 	addiu	a3,v0,2552
80400720:	3c028000 	lui	v0,0x8000
80400724:	b8c30007 	swr	v1,7(a2)
80400728:	24e80020 	addiu	t0,a3,32
8040072c:	34460100 	ori	a2,v0,0x100
80400730:	8ce20000 	lw	v0,0(a3)
80400734:	8ce30004 	lw	v1,4(a3)
80400738:	8ce40008 	lw	a0,8(a3)
8040073c:	8ce5000c 	lw	a1,12(a3)
80400740:	a8c20000 	swl	v0,0(a2)
80400744:	b8c20003 	swr	v0,3(a2)
80400748:	a8c30004 	swl	v1,4(a2)
8040074c:	b8c30007 	swr	v1,7(a2)
80400750:	a8c40008 	swl	a0,8(a2)
80400754:	b8c4000b 	swr	a0,11(a2)
80400758:	a8c5000c 	swl	a1,12(a2)
8040075c:	24e70010 	addiu	a3,a3,16
80400760:	b8c5000f 	swr	a1,15(a2)
80400764:	14e8fff2 	bne	a3,t0,80400730 <mips_install_isr_entries+0xe0>
80400768:	24c60010 	addiu	a2,a2,16
8040076c:	8ce20000 	lw	v0,0(a3)
80400770:	8ce30004 	lw	v1,4(a3)
80400774:	a8c20000 	swl	v0,0(a2)
80400778:	b8c20003 	swr	v0,3(a2)
8040077c:	3c028040 	lui	v0,0x8040
80400780:	a8c30004 	swl	v1,4(a2)
80400784:	24470a0c 	addiu	a3,v0,2572
80400788:	3c028000 	lui	v0,0x8000
8040078c:	b8c30007 	swr	v1,7(a2)
80400790:	24e80020 	addiu	t0,a3,32
80400794:	34460180 	ori	a2,v0,0x180
80400798:	8ce20000 	lw	v0,0(a3)
8040079c:	8ce30004 	lw	v1,4(a3)
804007a0:	8ce40008 	lw	a0,8(a3)
804007a4:	8ce5000c 	lw	a1,12(a3)
804007a8:	a8c20000 	swl	v0,0(a2)
804007ac:	b8c20003 	swr	v0,3(a2)
804007b0:	a8c30004 	swl	v1,4(a2)
804007b4:	b8c30007 	swr	v1,7(a2)
804007b8:	a8c40008 	swl	a0,8(a2)
804007bc:	b8c4000b 	swr	a0,11(a2)
804007c0:	a8c5000c 	swl	a1,12(a2)
804007c4:	24e70010 	addiu	a3,a3,16
804007c8:	b8c5000f 	swr	a1,15(a2)
804007cc:	14e8fff2 	bne	a3,t0,80400798 <mips_install_isr_entries+0x148>
804007d0:	24c60010 	addiu	a2,a2,16
804007d4:	8ce20000 	lw	v0,0(a3)
804007d8:	8ce30004 	lw	v1,4(a3)
804007dc:	a8c20000 	swl	v0,0(a2)
804007e0:	b8c20003 	swr	v0,3(a2)
804007e4:	a8c30004 	swl	v1,4(a2)
804007e8:	0810029c 	j	80400a70 <rtems_cache_flush_entire_data>
804007ec:	b8c30007 	swr	v1,7(a2)

804007f0 <mips_dump_exception_frame>:
804007f0:	27bdffc8 	addiu	sp,sp,-56
804007f4:	3c028041 	lui	v0,0x8041
804007f8:	afb40020 	sw	s4,32(sp)
804007fc:	24542574 	addiu	s4,v0,9588
80400800:	3c028041 	lui	v0,0x8041
80400804:	afbe0030 	sw	s8,48(sp)
80400808:	afb7002c 	sw	s7,44(sp)
8040080c:	afb60028 	sw	s6,40(sp)
80400810:	afb50024 	sw	s5,36(sp)
80400814:	afb3001c 	sw	s3,28(sp)
80400818:	afb20018 	sw	s2,24(sp)
8040081c:	afbf0034 	sw	ra,52(sp)
80400820:	afb10014 	sw	s1,20(sp)
80400824:	afb00010 	sw	s0,16(sp)
80400828:	0080b821 	move	s7,a0
8040082c:	2456314c 	addiu	s6,v0,12620
80400830:	00009021 	move	s2,zero
80400834:	2413001f 	li	s3,31
80400838:	24150007 	li	s5,7
8040083c:	241e000a 	li	s8,10
80400840:	8e910000 	lw	s1,0(s4)
80400844:	3c048041 	lui	a0,0x8041
80400848:	24843144 	addiu	a0,a0,12612
8040084c:	0c100789 	jal	80401e24 <printk>
80400850:	02202821 	move	a1,s1
80400854:	08100219 	j	80400864 <mips_dump_exception_frame+0x74>
80400858:	00008021 	move	s0,zero
8040085c:	0c100789 	jal	80401e24 <printk>
80400860:	00000000 	nop
80400864:	0c104164 	jal	80410590 <strlen>
80400868:	02202021 	move	a0,s1
8040086c:	02a21023 	subu	v0,s5,v0
80400870:	0202102b 	sltu	v0,s0,v0
80400874:	02c02021 	move	a0,s6
80400878:	1440fff8 	bnez	v0,8040085c <mips_dump_exception_frame+0x6c>
8040087c:	26100001 	addiu	s0,s0,1
80400880:	3c025555 	lui	v0,0x5555
80400884:	34425556 	ori	v0,v0,0x5556
80400888:	02420018 	mult	s2,v0
8040088c:	001217c3 	sra	v0,s2,0x1f
80400890:	00001810 	mfhi	v1
80400894:	00132080 	sll	a0,s3,0x2
80400898:	00621823 	subu	v1,v1,v0
8040089c:	00031040 	sll	v0,v1,0x1
804008a0:	00431021 	addu	v0,v0,v1
804008a4:	02e42021 	addu	a0,s7,a0
804008a8:	02421023 	subu	v0,s2,v0
804008ac:	8c850000 	lw	a1,0(a0)
804008b0:	24060009 	li	a2,9
804008b4:	3c048041 	lui	a0,0x8041
804008b8:	03c2300a 	movz	a2,s8,v0
804008bc:	0c100789 	jal	80401e24 <printk>
804008c0:	24843150 	addiu	a0,a0,12624
804008c4:	8e930004 	lw	s3,4(s4)
804008c8:	26520001 	addiu	s2,s2,1
804008cc:	0661ffdc 	bgez	s3,80400840 <mips_dump_exception_frame+0x50>
804008d0:	26940008 	addiu	s4,s4,8
804008d4:	3c048041 	lui	a0,0x8041
804008d8:	8fbf0034 	lw	ra,52(sp)
804008dc:	8fbe0030 	lw	s8,48(sp)
804008e0:	8fb7002c 	lw	s7,44(sp)
804008e4:	8fb60028 	lw	s6,40(sp)
804008e8:	8fb50024 	lw	s5,36(sp)
804008ec:	8fb40020 	lw	s4,32(sp)
804008f0:	8fb3001c 	lw	s3,28(sp)
804008f4:	8fb20018 	lw	s2,24(sp)
804008f8:	8fb10014 	lw	s1,20(sp)
804008fc:	8fb00010 	lw	s0,16(sp)
80400900:	24843194 	addiu	a0,a0,12692
80400904:	08100789 	j	80401e24 <printk>
80400908:	27bd0038 	addiu	sp,sp,56

8040090c <mips_default_exception_code_handler>:
8040090c:	27bdffe0 	addiu	sp,sp,-32
80400910:	afb20018 	sw	s2,24(sp)
80400914:	afbf001c 	sw	ra,28(sp)
80400918:	afb10014 	sw	s1,20(sp)
8040091c:	afb00010 	sw	s0,16(sp)
80400920:	00801021 	move	v0,a0
80400924:	00a09021 	move	s2,a1
80400928:	40116000 	mfc0	s1,c0_status
8040092c:	00000000 	nop
80400930:	40106800 	mfc0	s0,c0_cause
80400934:	00000000 	nop
80400938:	3c048041 	lui	a0,0x8041
8040093c:	00402821 	move	a1,v0
80400940:	0c100789 	jal	80401e24 <printk>
80400944:	2484315c 	addiu	a0,a0,12636
80400948:	3c028041 	lui	v0,0x8041
8040094c:	244224f0 	addiu	v0,v0,9456
80400950:	3203007c 	andi	v1,s0,0x7c
80400954:	00621821 	addu	v1,v1,v0
80400958:	8c670000 	lw	a3,0(v1)
8040095c:	3c048041 	lui	a0,0x8041
80400960:	02202821 	move	a1,s1
80400964:	02003021 	move	a2,s0
80400968:	0c100789 	jal	80401e24 <printk>
8040096c:	24843174 	addiu	a0,a0,12660
80400970:	0c1001fc 	jal	804007f0 <mips_dump_exception_frame>
80400974:	02402021 	move	a0,s2
80400978:	0c1016d4 	jal	80405b50 <rtems_fatal_error_occurred>
8040097c:	24040001 	li	a0,1

80400980 <mips_vector_exceptions>:
80400980:	00802821 	move	a1,a0
80400984:	40026800 	mfc0	v0,c0_cause
80400988:	00000000 	nop
8040098c:	3c038041 	lui	v1,0x8041
80400990:	00021082 	srl	v0,v0,0x2
80400994:	3046001f 	andi	a2,v0,0x1f
80400998:	8c624590 	lw	v0,17808(v1)
8040099c:	00062080 	sll	a0,a2,0x2
804009a0:	00441021 	addu	v0,v0,a0
804009a4:	8c590000 	lw	t9,0(v0)
804009a8:	13200003 	beqz	t9,804009b8 <mips_vector_exceptions+0x38>
804009ac:	00000000 	nop
804009b0:	03200008 	jr	t9
804009b4:	00c02021 	move	a0,a2
804009b8:	08100243 	j	8040090c <mips_default_exception_code_handler>
804009bc:	00c02021 	move	a0,a2

804009c0 <mips_interrupt_mask>:
804009c0:	03e00008 	jr	ra
804009c4:	3402fc00 	li	v0,0xfc00
	...

804009d0 <exc_tlb_code>:
804009d0:	3c1a8041 	lui	k0,0x8041
804009d4:	275a9b18 	addiu	k0,k0,-25832
804009d8:	03400008 	jr	k0
804009dc:	00000000 	nop
804009e0:	00000000 	nop

804009e4 <exc_xtlb_code>:
804009e4:	3c1a8041 	lui	k0,0x8041
804009e8:	275a9b18 	addiu	k0,k0,-25832
804009ec:	03400008 	jr	k0
804009f0:	00000000 	nop
804009f4:	00000000 	nop

804009f8 <exc_cache_code>:
804009f8:	3c1a8041 	lui	k0,0x8041
804009fc:	275a9b18 	addiu	k0,k0,-25832
80400a00:	03400008 	jr	k0
80400a04:	00000000 	nop
80400a08:	00000000 	nop

80400a0c <exc_norm_code>:
80400a0c:	3c1a8041 	lui	k0,0x8041
80400a10:	275a9b18 	addiu	k0,k0,-25832
80400a14:	03400008 	jr	k0
80400a18:	00000000 	nop
80400a1c:	00000000 	nop

80400a20 <bsp_libc_init>:
80400a20:	27bdffe8 	addiu	sp,sp,-24
80400a24:	afbf0014 	sw	ra,20(sp)
80400a28:	0c100414 	jal	80401050 <RTEMS_Malloc_Initialize>
80400a2c:	00000000 	nop
80400a30:	0c1003e0 	jal	80400f80 <rtems_libio_init>
80400a34:	00000000 	nop
80400a38:	8fbf0014 	lw	ra,20(sp)
80400a3c:	08100500 	j	80401400 <libc_init>
80400a40:	27bd0018 	addiu	sp,sp,24
	...

80400a50 <rtems_cache_aligned_malloc>:
80400a50:	0810044c 	j	80401130 <malloc>
80400a54:	00000000 	nop
	...

80400a60 <rtems_cache_flush_multiple_data_lines>:
80400a60:	03e00008 	jr	ra
80400a64:	00000000 	nop

80400a68 <rtems_cache_invalidate_multiple_data_lines>:
80400a68:	03e00008 	jr	ra
80400a6c:	00000000 	nop

80400a70 <rtems_cache_flush_entire_data>:
80400a70:	03e00008 	jr	ra
80400a74:	00000000 	nop

80400a78 <rtems_cache_invalidate_entire_data>:
80400a78:	03e00008 	jr	ra
80400a7c:	00000000 	nop

80400a80 <rtems_cache_get_data_line_size>:
80400a80:	03e00008 	jr	ra
80400a84:	00001021 	move	v0,zero

80400a88 <rtems_cache_freeze_data>:
80400a88:	03e00008 	jr	ra
80400a8c:	00000000 	nop

80400a90 <rtems_cache_unfreeze_data>:
80400a90:	03e00008 	jr	ra
80400a94:	00000000 	nop

80400a98 <rtems_cache_enable_data>:
80400a98:	03e00008 	jr	ra
80400a9c:	00000000 	nop

80400aa0 <rtems_cache_disable_data>:
80400aa0:	03e00008 	jr	ra
80400aa4:	00000000 	nop

80400aa8 <rtems_cache_invalidate_multiple_instruction_lines>:
80400aa8:	03e00008 	jr	ra
80400aac:	00000000 	nop

80400ab0 <rtems_cache_invalidate_entire_instruction>:
80400ab0:	03e00008 	jr	ra
80400ab4:	00000000 	nop

80400ab8 <rtems_cache_get_instruction_line_size>:
80400ab8:	03e00008 	jr	ra
80400abc:	00001021 	move	v0,zero

80400ac0 <rtems_cache_freeze_instruction>:
80400ac0:	03e00008 	jr	ra
80400ac4:	00000000 	nop

80400ac8 <rtems_cache_unfreeze_instruction>:
80400ac8:	03e00008 	jr	ra
80400acc:	00000000 	nop

80400ad0 <rtems_cache_enable_instruction>:
80400ad0:	03e00008 	jr	ra
80400ad4:	00000000 	nop

80400ad8 <rtems_cache_disable_instruction>:
80400ad8:	03e00008 	jr	ra
80400adc:	00000000 	nop

80400ae0 <rtems_io_lookup_name>:
80400ae0:	27bdffc8 	addiu	sp,sp,-56
80400ae4:	afb10024 	sw	s1,36(sp)
80400ae8:	27b10010 	addiu	s1,sp,16
80400aec:	afb3002c 	sw	s3,44(sp)
80400af0:	02203021 	move	a2,s1
80400af4:	00a09821 	move	s3,a1
80400af8:	24070001 	li	a3,1
80400afc:	00002821 	move	a1,zero
80400b00:	afb40030 	sw	s4,48(sp)
80400b04:	afb20028 	sw	s2,40(sp)
80400b08:	afb00020 	sw	s0,32(sp)
80400b0c:	afbf0034 	sw	ra,52(sp)
80400b10:	0c100370 	jal	80400dc0 <rtems_filesystem_evaluate_path>
80400b14:	0080a021 	move	s4,a0
80400b18:	8fa30018 	lw	v1,24(sp)
80400b1c:	00408021 	move	s0,v0
80400b20:	8c620010 	lw	v0,16(v1)
80400b24:	10400016 	beqz	v0,80400b80 <rtems_io_lookup_name+0xa0>
80400b28:	8fb20010 	lw	s2,16(sp)
80400b2c:	0040f809 	jalr	v0
80400b30:	02202021 	move	a0,s1
80400b34:	12000024 	beqz	s0,80400bc8 <rtems_io_lookup_name+0xe8>
80400b38:	00401821 	move	v1,v0
80400b3c:	8fa20018 	lw	v0,24(sp)
80400b40:	10400035 	beqz	v0,80400c18 <rtems_io_lookup_name+0x138>
80400b44:	8fbf0034 	lw	ra,52(sp)
80400b48:	8c42001c 	lw	v0,28(v0)
80400b4c:	10400032 	beqz	v0,80400c18 <rtems_io_lookup_name+0x138>
80400b50:	00000000 	nop
80400b54:	0040f809 	jalr	v0
80400b58:	02202021 	move	a0,s1
80400b5c:	2402000d 	li	v0,13
80400b60:	8fbf0034 	lw	ra,52(sp)
80400b64:	8fb40030 	lw	s4,48(sp)
80400b68:	8fb3002c 	lw	s3,44(sp)
80400b6c:	8fb20028 	lw	s2,40(sp)
80400b70:	8fb10024 	lw	s1,36(sp)
80400b74:	8fb00020 	lw	s0,32(sp)
80400b78:	03e00008 	jr	ra
80400b7c:	27bd0038 	addiu	sp,sp,56
80400b80:	8c62001c 	lw	v0,28(v1)
80400b84:	10400003 	beqz	v0,80400b94 <rtems_io_lookup_name+0xb4>
80400b88:	00000000 	nop
80400b8c:	0040f809 	jalr	v0
80400b90:	02202021 	move	a0,s1
80400b94:	0c103b34 	jal	8040ecd0 <__errno>
80400b98:	00000000 	nop
80400b9c:	8fbf0034 	lw	ra,52(sp)
80400ba0:	24030086 	li	v1,134
80400ba4:	ac430000 	sw	v1,0(v0)
80400ba8:	8fb40030 	lw	s4,48(sp)
80400bac:	2402ffff 	li	v0,-1
80400bb0:	8fb3002c 	lw	s3,44(sp)
80400bb4:	8fb20028 	lw	s2,40(sp)
80400bb8:	8fb10024 	lw	s1,36(sp)
80400bbc:	8fb00020 	lw	s0,32(sp)
80400bc0:	03e00008 	jr	ra
80400bc4:	27bd0038 	addiu	sp,sp,56
80400bc8:	24020002 	li	v0,2
80400bcc:	1462ffdc 	bne	v1,v0,80400b40 <rtems_io_lookup_name+0x60>
80400bd0:	8fa20018 	lw	v0,24(sp)
80400bd4:	02802021 	move	a0,s4
80400bd8:	0c104164 	jal	80410590 <strlen>
80400bdc:	ae740000 	sw	s4,0(s3)
80400be0:	ae620004 	sw	v0,4(s3)
80400be4:	8e430050 	lw	v1,80(s2)
80400be8:	8fa40018 	lw	a0,24(sp)
80400bec:	ae630008 	sw	v1,8(s3)
80400bf0:	8e420054 	lw	v0,84(s2)
80400bf4:	10800010 	beqz	a0,80400c38 <rtems_io_lookup_name+0x158>
80400bf8:	ae62000c 	sw	v0,12(s3)
80400bfc:	8c82001c 	lw	v0,28(a0)
80400c00:	1040000d 	beqz	v0,80400c38 <rtems_io_lookup_name+0x158>
80400c04:	00000000 	nop
80400c08:	0040f809 	jalr	v0
80400c0c:	02202021 	move	a0,s1
80400c10:	081002d8 	j	80400b60 <rtems_io_lookup_name+0x80>
80400c14:	00001021 	move	v0,zero
80400c18:	2402000d 	li	v0,13
80400c1c:	8fb40030 	lw	s4,48(sp)
80400c20:	8fb3002c 	lw	s3,44(sp)
80400c24:	8fb20028 	lw	s2,40(sp)
80400c28:	8fb10024 	lw	s1,36(sp)
80400c2c:	8fb00020 	lw	s0,32(sp)
80400c30:	03e00008 	jr	ra
80400c34:	27bd0038 	addiu	sp,sp,56
80400c38:	081002d8 	j	80400b60 <rtems_io_lookup_name+0x80>
80400c3c:	00001021 	move	v0,zero

80400c40 <rtems_io_register_name>:
80400c40:	27bdffe8 	addiu	sp,sp,-24
80400c44:	00c03821 	move	a3,a2
80400c48:	00a03021 	move	a2,a1
80400c4c:	afbf0014 	sw	ra,20(sp)
80400c50:	0c100494 	jal	80401250 <mknod>
80400c54:	240521ff 	li	a1,8703
80400c58:	24030005 	li	v1,5
80400c5c:	8fbf0014 	lw	ra,20(sp)
80400c60:	0002180a 	movz	v1,zero,v0
80400c64:	00601021 	move	v0,v1
80400c68:	03e00008 	jr	ra
80400c6c:	27bd0018 	addiu	sp,sp,24

80400c70 <__assert_func>:
80400c70:	27bdffe0 	addiu	sp,sp,-32
80400c74:	00c01821 	move	v1,a2
80400c78:	00a04021 	move	t0,a1
80400c7c:	afbf001c 	sw	ra,28(sp)
80400c80:	00803021 	move	a2,a0
80400c84:	1060000b 	beqz	v1,80400cb4 <__assert_func+0x44>
80400c88:	00e02821 	move	a1,a3
80400c8c:	3c028041 	lui	v0,0x8041
80400c90:	24423414 	addiu	v0,v0,13332
80400c94:	3c048041 	lui	a0,0x8041
80400c98:	24843424 	addiu	a0,a0,13348
80400c9c:	01003821 	move	a3,t0
80400ca0:	afa20010 	sw	v0,16(sp)
80400ca4:	0c100789 	jal	80401e24 <printk>
80400ca8:	afa30014 	sw	v1,20(sp)
80400cac:	0c1016d4 	jal	80405b50 <rtems_fatal_error_occurred>
80400cb0:	00002021 	move	a0,zero
80400cb4:	3c028041 	lui	v0,0x8041
80400cb8:	24433684 	addiu	v1,v0,13956
80400cbc:	08100325 	j	80400c94 <__assert_func+0x24>
80400cc0:	00601021 	move	v0,v1

80400cc4 <__assert>:
80400cc4:	00c03821 	move	a3,a2
80400cc8:	0810031c 	j	80400c70 <__assert_func>
80400ccc:	00003021 	move	a2,zero

80400cd0 <rtems_filesystem_evaluate_parent>:
80400cd0:	27bdffd0 	addiu	sp,sp,-48
80400cd4:	afbf002c 	sw	ra,44(sp)
80400cd8:	afb10028 	sw	s1,40(sp)
80400cdc:	afb00024 	sw	s0,36(sp)
80400ce0:	10a00032 	beqz	a1,80400dac <rtems_filesystem_evaluate_parent+0xdc>
80400ce4:	00804021 	move	t0,a0
80400ce8:	8ca60008 	lw	a2,8(a1)
80400cec:	8cc70000 	lw	a3,0(a2)
80400cf0:	10e00024 	beqz	a3,80400d84 <rtems_filesystem_evaluate_parent+0xb4>
80400cf4:	27b10010 	addiu	s1,sp,16
80400cf8:	8ca4000c 	lw	a0,12(a1)
80400cfc:	8ca20000 	lw	v0,0(a1)
80400d00:	8ca30004 	lw	v1,4(a1)
80400d04:	afa4001c 	sw	a0,28(sp)
80400d08:	3c048041 	lui	a0,0x8041
80400d0c:	afa60018 	sw	a2,24(sp)
80400d10:	afa20010 	sw	v0,16(sp)
80400d14:	afa30014 	sw	v1,20(sp)
80400d18:	24843454 	addiu	a0,a0,13396
80400d1c:	01002821 	move	a1,t0
80400d20:	00e0f809 	jalr	a3
80400d24:	02203021 	move	a2,s1
80400d28:	1440000f 	bnez	v0,80400d68 <rtems_filesystem_evaluate_parent+0x98>
80400d2c:	00408021 	move	s0,v0
80400d30:	8fa20018 	lw	v0,24(sp)
80400d34:	10400007 	beqz	v0,80400d54 <rtems_filesystem_evaluate_parent+0x84>
80400d38:	8fbf002c 	lw	ra,44(sp)
80400d3c:	8c42001c 	lw	v0,28(v0)
80400d40:	10400004 	beqz	v0,80400d54 <rtems_filesystem_evaluate_parent+0x84>
80400d44:	00000000 	nop
80400d48:	0040f809 	jalr	v0
80400d4c:	02202021 	move	a0,s1
80400d50:	8fbf002c 	lw	ra,44(sp)
80400d54:	02001021 	move	v0,s0
80400d58:	8fb10028 	lw	s1,40(sp)
80400d5c:	8fb00024 	lw	s0,36(sp)
80400d60:	03e00008 	jr	ra
80400d64:	27bd0030 	addiu	sp,sp,48
80400d68:	8fbf002c 	lw	ra,44(sp)
80400d6c:	2410ffff 	li	s0,-1
80400d70:	02001021 	move	v0,s0
80400d74:	8fb10028 	lw	s1,40(sp)
80400d78:	8fb00024 	lw	s0,36(sp)
80400d7c:	03e00008 	jr	ra
80400d80:	27bd0030 	addiu	sp,sp,48
80400d84:	0c103b34 	jal	8040ecd0 <__errno>
80400d88:	2410ffff 	li	s0,-1
80400d8c:	8fbf002c 	lw	ra,44(sp)
80400d90:	24030086 	li	v1,134
80400d94:	ac430000 	sw	v1,0(v0)
80400d98:	8fb10028 	lw	s1,40(sp)
80400d9c:	02001021 	move	v0,s0
80400da0:	8fb00024 	lw	s0,36(sp)
80400da4:	03e00008 	jr	ra
80400da8:	27bd0030 	addiu	sp,sp,48
80400dac:	0c103b34 	jal	8040ecd0 <__errno>
80400db0:	2410ffff 	li	s0,-1
80400db4:	24030005 	li	v1,5
80400db8:	08100354 	j	80400d50 <rtems_filesystem_evaluate_parent+0x80>
80400dbc:	ac430000 	sw	v1,0(v0)

80400dc0 <rtems_filesystem_evaluate_path>:
80400dc0:	27bdffd8 	addiu	sp,sp,-40
80400dc4:	afb30020 	sw	s3,32(sp)
80400dc8:	afb2001c 	sw	s2,28(sp)
80400dcc:	afb00014 	sw	s0,20(sp)
80400dd0:	afbf0024 	sw	ra,36(sp)
80400dd4:	afb10018 	sw	s1,24(sp)
80400dd8:	00804021 	move	t0,a0
80400ddc:	00a09021 	move	s2,a1
80400de0:	00c08021 	move	s0,a2
80400de4:	10800059 	beqz	a0,80400f4c <rtems_filesystem_evaluate_path+0x18c>
80400de8:	00e09821 	move	s3,a3
80400dec:	10c00052 	beqz	a2,80400f38 <rtems_filesystem_evaluate_path+0x178>
80400df0:	2402002f 	li	v0,47
80400df4:	80830000 	lb	v1,0(a0)
80400df8:	10620011 	beq	v1,v0,80400e40 <rtems_filesystem_evaluate_path+0x80>
80400dfc:	2402005c 	li	v0,92
80400e00:	10620010 	beq	v1,v0,80400e44 <rtems_filesystem_evaluate_path+0x84>
80400e04:	3c028041 	lui	v0,0x8041
80400e08:	1060000f 	beqz	v1,80400e48 <rtems_filesystem_evaluate_path+0x88>
80400e0c:	8c4337c0 	lw	v1,14272(v0)
80400e10:	3c028041 	lui	v0,0x8041
80400e14:	8c4337c0 	lw	v1,14272(v0)
80400e18:	00003821 	move	a3,zero
80400e1c:	8c660010 	lw	a2,16(v1)
80400e20:	8c620004 	lw	v0,4(v1)
80400e24:	8c640008 	lw	a0,8(v1)
80400e28:	8c65000c 	lw	a1,12(v1)
80400e2c:	ae020000 	sw	v0,0(s0)
80400e30:	ae040004 	sw	a0,4(s0)
80400e34:	ae050008 	sw	a1,8(s0)
80400e38:	0810039b 	j	80400e6c <rtems_filesystem_evaluate_path+0xac>
80400e3c:	ae06000c 	sw	a2,12(s0)
80400e40:	3c028041 	lui	v0,0x8041
80400e44:	8c4337c0 	lw	v1,14272(v0)
80400e48:	24070001 	li	a3,1
80400e4c:	8c660020 	lw	a2,32(v1)
80400e50:	8c620014 	lw	v0,20(v1)
80400e54:	8c640018 	lw	a0,24(v1)
80400e58:	8c65001c 	lw	a1,28(v1)
80400e5c:	ae020000 	sw	v0,0(s0)
80400e60:	ae040004 	sw	a0,4(s0)
80400e64:	ae050008 	sw	a1,8(s0)
80400e68:	ae06000c 	sw	a2,12(s0)
80400e6c:	8e020008 	lw	v0,8(s0)
80400e70:	8c420000 	lw	v0,0(v0)
80400e74:	1040002b 	beqz	v0,80400f24 <rtems_filesystem_evaluate_path+0x164>
80400e78:	02402821 	move	a1,s2
80400e7c:	01072021 	addu	a0,t0,a3
80400e80:	0040f809 	jalr	v0
80400e84:	02003021 	move	a2,s0
80400e88:	1440000d 	bnez	v0,80400ec0 <rtems_filesystem_evaluate_path+0x100>
80400e8c:	00408821 	move	s1,v0
80400e90:	1260000c 	beqz	s3,80400ec4 <rtems_filesystem_evaluate_path+0x104>
80400e94:	8fbf0024 	lw	ra,36(sp)
80400e98:	8e030008 	lw	v1,8(s0)
80400e9c:	8c620010 	lw	v0,16(v1)
80400ea0:	1040001b 	beqz	v0,80400f10 <rtems_filesystem_evaluate_path+0x150>
80400ea4:	00000000 	nop
80400ea8:	0040f809 	jalr	v0
80400eac:	02002021 	move	a0,s0
80400eb0:	2442fffd 	addiu	v0,v0,-3
80400eb4:	2c420002 	sltiu	v0,v0,2
80400eb8:	14400009 	bnez	v0,80400ee0 <rtems_filesystem_evaluate_path+0x120>
80400ebc:	00000000 	nop
80400ec0:	8fbf0024 	lw	ra,36(sp)
80400ec4:	02201021 	move	v0,s1
80400ec8:	8fb30020 	lw	s3,32(sp)
80400ecc:	8fb2001c 	lw	s2,28(sp)
80400ed0:	8fb10018 	lw	s1,24(sp)
80400ed4:	8fb00014 	lw	s0,20(sp)
80400ed8:	03e00008 	jr	ra
80400edc:	27bd0028 	addiu	sp,sp,40
80400ee0:	8e020008 	lw	v0,8(s0)
80400ee4:	8c590034 	lw	t9,52(v0)
80400ee8:	1320001d 	beqz	t9,80400f60 <rtems_filesystem_evaluate_path+0x1a0>
80400eec:	02002021 	move	a0,s0
80400ef0:	02402821 	move	a1,s2
80400ef4:	8fbf0024 	lw	ra,36(sp)
80400ef8:	8fb30020 	lw	s3,32(sp)
80400efc:	8fb2001c 	lw	s2,28(sp)
80400f00:	8fb10018 	lw	s1,24(sp)
80400f04:	8fb00014 	lw	s0,20(sp)
80400f08:	03200008 	jr	t9
80400f0c:	27bd0028 	addiu	sp,sp,40
80400f10:	8c62001c 	lw	v0,28(v1)
80400f14:	10400003 	beqz	v0,80400f24 <rtems_filesystem_evaluate_path+0x164>
80400f18:	00000000 	nop
80400f1c:	0040f809 	jalr	v0
80400f20:	02002021 	move	a0,s0
80400f24:	0c103b34 	jal	8040ecd0 <__errno>
80400f28:	2411ffff 	li	s1,-1
80400f2c:	24030086 	li	v1,134
80400f30:	081003b0 	j	80400ec0 <rtems_filesystem_evaluate_path+0x100>
80400f34:	ac430000 	sw	v1,0(v0)
80400f38:	0c103b34 	jal	8040ecd0 <__errno>
80400f3c:	2411ffff 	li	s1,-1
80400f40:	24030005 	li	v1,5
80400f44:	081003b0 	j	80400ec0 <rtems_filesystem_evaluate_path+0x100>
80400f48:	ac430000 	sw	v1,0(v0)
80400f4c:	0c103b34 	jal	8040ecd0 <__errno>
80400f50:	2411ffff 	li	s1,-1
80400f54:	2403000e 	li	v1,14
80400f58:	081003b0 	j	80400ec0 <rtems_filesystem_evaluate_path+0x100>
80400f5c:	ac430000 	sw	v1,0(v0)
80400f60:	8c42001c 	lw	v0,28(v0)
80400f64:	1440ffed 	bnez	v0,80400f1c <rtems_filesystem_evaluate_path+0x15c>
80400f68:	00000000 	nop
80400f6c:	081003c9 	j	80400f24 <rtems_filesystem_evaluate_path+0x164>
80400f70:	00000000 	nop
	...

80400f80 <rtems_libio_init>:
80400f80:	27bdffe0 	addiu	sp,sp,-32
80400f84:	afb00018 	sw	s0,24(sp)
80400f88:	3c108041 	lui	s0,0x8041
80400f8c:	8e043690 	lw	a0,13968(s0)
80400f90:	1080001b 	beqz	a0,80401000 <rtems_libio_init+0x80>
80400f94:	afbf001c 	sw	ra,28(sp)
80400f98:	0c102c48 	jal	8040b120 <calloc>
80400f9c:	24050034 	li	a1,52
80400fa0:	00403021 	move	a2,v0
80400fa4:	3c028041 	lui	v0,0x8041
80400fa8:	ac464394 	sw	a2,17300(v0)
80400fac:	10c00022 	beqz	a2,80401038 <rtems_libio_init+0xb8>
80400fb0:	00c02021 	move	a0,a2
80400fb4:	8e053690 	lw	a1,13968(s0)
80400fb8:	3c028041 	lui	v0,0x8041
80400fbc:	24030001 	li	v1,1
80400fc0:	10a3000e 	beq	a1,v1,80400ffc <rtems_libio_init+0x7c>
80400fc4:	ac464398 	sw	a2,17304(v0)
80400fc8:	24c20034 	addiu	v0,a2,52
80400fcc:	24040001 	li	a0,1
80400fd0:	24840001 	addiu	a0,a0,1
80400fd4:	ac42fff4 	sw	v0,-12(v0)
80400fd8:	1485fffd 	bne	a0,a1,80400fd0 <rtems_libio_init+0x50>
80400fdc:	24420034 	addiu	v0,v0,52
80400fe0:	00041880 	sll	v1,a0,0x2
80400fe4:	00041100 	sll	v0,a0,0x4
80400fe8:	00431023 	subu	v0,v0,v1
80400fec:	00441021 	addu	v0,v0,a0
80400ff0:	00021080 	sll	v0,v0,0x2
80400ff4:	2442ffcc 	addiu	v0,v0,-52
80400ff8:	00c22021 	addu	a0,a2,v0
80400ffc:	ac800028 	sw	zero,40(a0)
80401000:	3c044c42 	lui	a0,0x4c42
80401004:	3c028041 	lui	v0,0x8041
80401008:	2442439c 	addiu	v0,v0,17308
8040100c:	3484494f 	ori	a0,a0,0x494f
80401010:	24050001 	li	a1,1
80401014:	24060054 	li	a2,84
80401018:	00003821 	move	a3,zero
8040101c:	0c101318 	jal	80404c60 <rtems_semaphore_create>
80401020:	afa20010 	sw	v0,16(sp)
80401024:	14400006 	bnez	v0,80401040 <rtems_libio_init+0xc0>
80401028:	8fbf001c 	lw	ra,28(sp)
8040102c:	8fb00018 	lw	s0,24(sp)
80401030:	08102bf0 	j	8040afc0 <rtems_filesystem_initialize>
80401034:	27bd0020 	addiu	sp,sp,32
80401038:	0c1016d4 	jal	80405b50 <rtems_fatal_error_occurred>
8040103c:	2404001a 	li	a0,26
80401040:	0c1016d4 	jal	80405b50 <rtems_fatal_error_occurred>
80401044:	00402021 	move	a0,v0
	...

80401050 <RTEMS_Malloc_Initialize>:
80401050:	3c028041 	lui	v0,0x8041
80401054:	8c424144 	lw	v0,16708(v0)
80401058:	27bdffe0 	addiu	sp,sp,-32
8040105c:	afb20018 	sw	s2,24(sp)
80401060:	afb10014 	sw	s1,20(sp)
80401064:	afb00010 	sw	s0,16(sp)
80401068:	afbf001c 	sw	ra,28(sp)
8040106c:	00809021 	move	s2,a0
80401070:	00a08821 	move	s1,a1
80401074:	10400004 	beqz	v0,80401088 <RTEMS_Malloc_Initialize+0x38>
80401078:	00c08021 	move	s0,a2
8040107c:	8c420000 	lw	v0,0(v0)
80401080:	0040f809 	jalr	v0
80401084:	00000000 	nop
80401088:	0c102e52 	jal	8040b948 <malloc_deferred_frees_initialize>
8040108c:	00000000 	nop
80401090:	3c028041 	lui	v0,0x8041
80401094:	8c434148 	lw	v1,16712(v0)
80401098:	10600020 	beqz	v1,8040111c <RTEMS_Malloc_Initialize+0xcc>
8040109c:	02002821 	move	a1,s0
804010a0:	8c630000 	lw	v1,0(v1)
804010a4:	0060f809 	jalr	v1
804010a8:	02402021 	move	a0,s2
804010ac:	00408021 	move	s0,v0
804010b0:	3c028041 	lui	v0,0x8041
804010b4:	8c4345ac 	lw	v1,17836(v0)
804010b8:	90640028 	lbu	a0,40(v1)
804010bc:	14800012 	bnez	a0,80401108 <RTEMS_Malloc_Initialize+0xb8>
804010c0:	02002021 	move	a0,s0
804010c4:	3c048041 	lui	a0,0x8041
804010c8:	248443a0 	addiu	a0,a0,17312
804010cc:	02002821 	move	a1,s0
804010d0:	02203021 	move	a2,s1
804010d4:	0c101a24 	jal	80406890 <_Heap_Initialize>
804010d8:	24070008 	li	a3,8
804010dc:	10400011 	beqz	v0,80401124 <RTEMS_Malloc_Initialize+0xd4>
804010e0:	3c038041 	lui	v1,0x8041
804010e4:	8c6243f8 	lw	v0,17400(v1)
804010e8:	8fbf001c 	lw	ra,28(sp)
804010ec:	02221021 	addu	v0,s1,v0
804010f0:	8fb20018 	lw	s2,24(sp)
804010f4:	8fb10014 	lw	s1,20(sp)
804010f8:	8fb00010 	lw	s0,16(sp)
804010fc:	ac6243f8 	sw	v0,17400(v1)
80401100:	03e00008 	jr	ra
80401104:	27bd0020 	addiu	sp,sp,32
80401108:	00002821 	move	a1,zero
8040110c:	0c103dd8 	jal	8040f760 <memset>
80401110:	02203021 	move	a2,s1
80401114:	08100432 	j	804010c8 <RTEMS_Malloc_Initialize+0x78>
80401118:	3c048041 	lui	a0,0x8041
8040111c:	0810042c 	j	804010b0 <RTEMS_Malloc_Initialize+0x60>
80401120:	02408021 	move	s0,s2
80401124:	0c1016d4 	jal	80405b50 <rtems_fatal_error_occurred>
80401128:	00002021 	move	a0,zero
8040112c:	00000000 	nop

80401130 <malloc>:
80401130:	3c038041 	lui	v1,0x8041
80401134:	246343f8 	addiu	v1,v1,17400
80401138:	8c620004 	lw	v0,4(v1)
8040113c:	27bdffe0 	addiu	sp,sp,-32
80401140:	24420001 	addiu	v0,v0,1
80401144:	afb20018 	sw	s2,24(sp)
80401148:	ac620004 	sw	v0,4(v1)
8040114c:	00809021 	move	s2,a0
80401150:	afbf001c 	sw	ra,28(sp)
80401154:	afb10014 	sw	s1,20(sp)
80401158:	0c102e5e 	jal	8040b978 <malloc_deferred_frees_process>
8040115c:	afb00010 	sw	s0,16(sp)
80401160:	12400025 	beqz	s2,804011f8 <malloc+0xc8>
80401164:	3c028041 	lui	v0,0x8041
80401168:	8c4446b4 	lw	a0,18100(v0)
8040116c:	24030003 	li	v1,3
80401170:	1083001d 	beq	a0,v1,804011e8 <malloc+0xb8>
80401174:	3c048041 	lui	a0,0x8041
80401178:	248443a0 	addiu	a0,a0,17312
8040117c:	0c101d54 	jal	80407550 <_Protected_heap_Allocate>
80401180:	02402821 	move	a1,s2
80401184:	10400024 	beqz	v0,80401218 <malloc+0xe8>
80401188:	00408021 	move	s0,v0
8040118c:	00408821 	move	s1,v0
80401190:	3c028041 	lui	v0,0x8041
80401194:	8c42414c 	lw	v0,16716(v0)
80401198:	10400004 	beqz	v0,804011ac <malloc+0x7c>
8040119c:	02402821 	move	a1,s2
804011a0:	8c420000 	lw	v0,0(v0)
804011a4:	0040f809 	jalr	v0
804011a8:	02202021 	move	a0,s1
804011ac:	3c028041 	lui	v0,0x8041
804011b0:	8c424144 	lw	v0,16708(v0)
804011b4:	10400005 	beqz	v0,804011cc <malloc+0x9c>
804011b8:	02208021 	move	s0,s1
804011bc:	8c420004 	lw	v0,4(v0)
804011c0:	0040f809 	jalr	v0
804011c4:	02202021 	move	a0,s1
804011c8:	02208021 	move	s0,s1
804011cc:	8fbf001c 	lw	ra,28(sp)
804011d0:	02001021 	move	v0,s0
804011d4:	8fb20018 	lw	s2,24(sp)
804011d8:	8fb10014 	lw	s1,20(sp)
804011dc:	8fb00010 	lw	s0,16(sp)
804011e0:	03e00008 	jr	ra
804011e4:	27bd0020 	addiu	sp,sp,32
804011e8:	0c102e48 	jal	8040b920 <malloc_is_system_state_OK>
804011ec:	00000000 	nop
804011f0:	1440ffe1 	bnez	v0,80401178 <malloc+0x48>
804011f4:	3c048041 	lui	a0,0x8041
804011f8:	8fbf001c 	lw	ra,28(sp)
804011fc:	00008021 	move	s0,zero
80401200:	02001021 	move	v0,s0
80401204:	8fb20018 	lw	s2,24(sp)
80401208:	8fb10014 	lw	s1,20(sp)
8040120c:	8fb00010 	lw	s0,16(sp)
80401210:	03e00008 	jr	ra
80401214:	27bd0020 	addiu	sp,sp,32
80401218:	3c028041 	lui	v0,0x8041
8040121c:	8c424148 	lw	v0,16712(v0)
80401220:	10400006 	beqz	v0,8040123c <malloc+0x10c>
80401224:	00000000 	nop
80401228:	8c430004 	lw	v1,4(v0)
8040122c:	0060f809 	jalr	v1
80401230:	02402021 	move	a0,s2
80401234:	1440ffd6 	bnez	v0,80401190 <malloc+0x60>
80401238:	00408821 	move	s1,v0
8040123c:	0c103b34 	jal	8040ecd0 <__errno>
80401240:	00000000 	nop
80401244:	2403000c 	li	v1,12
80401248:	08100473 	j	804011cc <malloc+0x9c>
8040124c:	ac430000 	sw	v1,0(v0)

80401250 <mknod>:
80401250:	27bdffb8 	addiu	sp,sp,-72
80401254:	30a3f000 	andi	v1,a1,0xf000
80401258:	afb30040 	sw	s3,64(sp)
8040125c:	afb2003c 	sw	s2,60(sp)
80401260:	afb00034 	sw	s0,52(sp)
80401264:	afbf0044 	sw	ra,68(sp)
80401268:	afb10038 	sw	s1,56(sp)
8040126c:	00a08021 	move	s0,a1
80401270:	00804021 	move	t0,a0
80401274:	00e09821 	move	s3,a3
80401278:	10600054 	beqz	v1,804013cc <mknod+0x17c>
8040127c:	00c09021 	move	s2,a2
80401280:	24021000 	li	v0,4096
80401284:	10620016 	beq	v1,v0,804012e0 <mknod+0x90>
80401288:	2402002f 	li	v0,47
8040128c:	80830000 	lb	v1,0(a0)
80401290:	10620020 	beq	v1,v0,80401314 <mknod+0xc4>
80401294:	2402005c 	li	v0,92
80401298:	1062001f 	beq	v1,v0,80401318 <mknod+0xc8>
8040129c:	3c028041 	lui	v0,0x8041
804012a0:	1060001e 	beqz	v1,8040131c <mknod+0xcc>
804012a4:	8c4337c0 	lw	v1,14272(v0)
804012a8:	3c028041 	lui	v0,0x8041
804012ac:	8c4337c0 	lw	v1,14272(v0)
804012b0:	00003821 	move	a3,zero
804012b4:	8c65000c 	lw	a1,12(v1)
804012b8:	8c620004 	lw	v0,4(v1)
804012bc:	8c660010 	lw	a2,16(v1)
804012c0:	8c640008 	lw	a0,8(v1)
804012c4:	afa50024 	sw	a1,36(sp)
804012c8:	afa2001c 	sw	v0,28(sp)
804012cc:	8fa20024 	lw	v0,36(sp)
804012d0:	afa40020 	sw	a0,32(sp)
804012d4:	8c420004 	lw	v0,4(v0)
804012d8:	1440001c 	bnez	v0,8040134c <mknod+0xfc>
804012dc:	afa60028 	sw	a2,40(sp)
804012e0:	0c103b34 	jal	8040ecd0 <__errno>
804012e4:	00000000 	nop
804012e8:	24030086 	li	v1,134
804012ec:	ac430000 	sw	v1,0(v0)
804012f0:	2410ffff 	li	s0,-1
804012f4:	8fbf0044 	lw	ra,68(sp)
804012f8:	02001021 	move	v0,s0
804012fc:	8fb30040 	lw	s3,64(sp)
80401300:	8fb2003c 	lw	s2,60(sp)
80401304:	8fb10038 	lw	s1,56(sp)
80401308:	8fb00034 	lw	s0,52(sp)
8040130c:	03e00008 	jr	ra
80401310:	27bd0048 	addiu	sp,sp,72
80401314:	3c028041 	lui	v0,0x8041
80401318:	8c4337c0 	lw	v1,14272(v0)
8040131c:	24070001 	li	a3,1
80401320:	8c65001c 	lw	a1,28(v1)
80401324:	8c620014 	lw	v0,20(v1)
80401328:	8c660020 	lw	a2,32(v1)
8040132c:	8c640018 	lw	a0,24(v1)
80401330:	afa50024 	sw	a1,36(sp)
80401334:	afa2001c 	sw	v0,28(sp)
80401338:	8fa20024 	lw	v0,36(sp)
8040133c:	afa40020 	sw	a0,32(sp)
80401340:	8c420004 	lw	v0,4(v0)
80401344:	1040ffe6 	beqz	v0,804012e0 <mknod+0x90>
80401348:	afa60028 	sw	a2,40(sp)
8040134c:	27b1001c 	addiu	s1,sp,28
80401350:	01072021 	addu	a0,t0,a3
80401354:	02202821 	move	a1,s1
80401358:	0040f809 	jalr	v0
8040135c:	27a60018 	addiu	a2,sp,24
80401360:	1440ffe3 	bnez	v0,804012f0 <mknod+0xa0>
80401364:	8fa20024 	lw	v0,36(sp)
80401368:	8c430014 	lw	v1,20(v0)
8040136c:	1060001c 	beqz	v1,804013e0 <mknod+0x190>
80401370:	8fa40018 	lw	a0,24(sp)
80401374:	02002821 	move	a1,s0
80401378:	afb10010 	sw	s1,16(sp)
8040137c:	02603821 	move	a3,s3
80401380:	0060f809 	jalr	v1
80401384:	02403021 	move	a2,s2
80401388:	00408021 	move	s0,v0
8040138c:	8fa20024 	lw	v0,36(sp)
80401390:	1040ffd9 	beqz	v0,804012f8 <mknod+0xa8>
80401394:	8fbf0044 	lw	ra,68(sp)
80401398:	8c42001c 	lw	v0,28(v0)
8040139c:	1040ffd6 	beqz	v0,804012f8 <mknod+0xa8>
804013a0:	00000000 	nop
804013a4:	0040f809 	jalr	v0
804013a8:	02202021 	move	a0,s1
804013ac:	8fbf0044 	lw	ra,68(sp)
804013b0:	02001021 	move	v0,s0
804013b4:	8fb30040 	lw	s3,64(sp)
804013b8:	8fb2003c 	lw	s2,60(sp)
804013bc:	8fb10038 	lw	s1,56(sp)
804013c0:	8fb00034 	lw	s0,52(sp)
804013c4:	03e00008 	jr	ra
804013c8:	27bd0048 	addiu	sp,sp,72
804013cc:	0c103b34 	jal	8040ecd0 <__errno>
804013d0:	2410ffff 	li	s0,-1
804013d4:	24030016 	li	v1,22
804013d8:	081004bd 	j	804012f4 <mknod+0xa4>
804013dc:	ac430000 	sw	v1,0(v0)
804013e0:	8c42001c 	lw	v0,28(v0)
804013e4:	1040ffbe 	beqz	v0,804012e0 <mknod+0x90>
804013e8:	00000000 	nop
804013ec:	0040f809 	jalr	v0
804013f0:	02202021 	move	a0,s1
804013f4:	081004b8 	j	804012e0 <mknod+0x90>
804013f8:	00000000 	nop
804013fc:	00000000 	nop

80401400 <libc_init>:
80401400:	27828fc0 	addiu	v0,gp,-28736
80401404:	3c038041 	lui	v1,0x8041
80401408:	27848bc0 	addiu	a0,gp,-29760
8040140c:	ac62459c 	sw	v0,17820(v1)
80401410:	03e00008 	jr	ra
80401414:	af848fc0 	sw	a0,-28736(gp)
	...

80401420 <libc_delete_hook>:
80401420:	27bdffe0 	addiu	sp,sp,-32
80401424:	afb20018 	sw	s2,24(sp)
80401428:	afb10014 	sw	s1,20(sp)
8040142c:	afbf001c 	sw	ra,28(sp)
80401430:	afb00010 	sw	s0,16(sp)
80401434:	00809021 	move	s2,a0
80401438:	1085001a 	beq	a0,a1,804014a4 <libc_delete_hook+0x84>
8040143c:	00a08821 	move	s1,a1
80401440:	8cb00104 	lw	s0,260(a1)
80401444:	12000008 	beqz	s0,80401468 <libc_delete_hook+0x48>
80401448:	27828bc0 	addiu	v0,gp,-29760
8040144c:	12020006 	beq	s0,v0,80401468 <libc_delete_hook+0x48>
80401450:	3c058040 	lui	a1,0x8040
80401454:	02002021 	move	a0,s0
80401458:	0c103d30 	jal	8040f4c0 <_fwalk>
8040145c:	24a514ac 	addiu	a1,a1,5292
80401460:	0c10264c 	jal	80409930 <_Workspace_Free>
80401464:	02002021 	move	a0,s0
80401468:	12510007 	beq	s2,s1,80401488 <libc_delete_hook+0x68>
8040146c:	ae200104 	sw	zero,260(s1)
80401470:	8fbf001c 	lw	ra,28(sp)
80401474:	8fb20018 	lw	s2,24(sp)
80401478:	8fb10014 	lw	s1,20(sp)
8040147c:	8fb00010 	lw	s0,16(sp)
80401480:	03e00008 	jr	ra
80401484:	27bd0020 	addiu	sp,sp,32
80401488:	8fbf001c 	lw	ra,28(sp)
8040148c:	8fb20018 	lw	s2,24(sp)
80401490:	8fb10014 	lw	s1,20(sp)
80401494:	8fb00010 	lw	s0,16(sp)
80401498:	af808fc0 	sw	zero,-28736(gp)
8040149c:	03e00008 	jr	ra
804014a0:	27bd0020 	addiu	sp,sp,32
804014a4:	08100511 	j	80401444 <libc_delete_hook+0x24>
804014a8:	8f908fc0 	lw	s0,-28736(gp)

804014ac <newlib_free_buffers>:
804014ac:	27bdffe8 	addiu	sp,sp,-24
804014b0:	afb00010 	sw	s0,16(sp)
804014b4:	afbf0014 	sw	ra,20(sp)
804014b8:	0c103c28 	jal	8040f0a0 <fileno>
804014bc:	00808021 	move	s0,a0
804014c0:	2c420003 	sltiu	v0,v0,3
804014c4:	14400008 	bnez	v0,804014e8 <newlib_free_buffers+0x3c>
804014c8:	00000000 	nop
804014cc:	0c103b97 	jal	8040ee5c <fclose>
804014d0:	02002021 	move	a0,s0
804014d4:	8fbf0014 	lw	ra,20(sp)
804014d8:	00001021 	move	v0,zero
804014dc:	8fb00010 	lw	s0,16(sp)
804014e0:	03e00008 	jr	ra
804014e4:	27bd0018 	addiu	sp,sp,24
804014e8:	9602000c 	lhu	v0,12(s0)
804014ec:	30420080 	andi	v0,v0,0x80
804014f0:	1040fff9 	beqz	v0,804014d8 <newlib_free_buffers+0x2c>
804014f4:	8fbf0014 	lw	ra,20(sp)
804014f8:	0c102c9c 	jal	8040b270 <free>
804014fc:	8e040010 	lw	a0,16(s0)
80401500:	9602000c 	lhu	v0,12(s0)
80401504:	8fbf0014 	lw	ra,20(sp)
80401508:	3042ff7f 	andi	v0,v0,0xff7f
8040150c:	a602000c 	sh	v0,12(s0)
80401510:	ae000010 	sw	zero,16(s0)
80401514:	ae000000 	sw	zero,0(s0)
80401518:	00001021 	move	v0,zero
8040151c:	8fb00010 	lw	s0,16(sp)
80401520:	03e00008 	jr	ra
80401524:	27bd0018 	addiu	sp,sp,24

80401528 <libc_create_hook>:
80401528:	27bdffe0 	addiu	sp,sp,-32
8040152c:	24040400 	li	a0,1024
80401530:	afb10018 	sw	s1,24(sp)
80401534:	afb00014 	sw	s0,20(sp)
80401538:	afbf001c 	sw	ra,28(sp)
8040153c:	0c102650 	jal	80409940 <_Workspace_Allocate>
80401540:	00a08821 	move	s1,a1
80401544:	10400064 	beqz	v0,804016d8 <libc_create_hook+0x1b0>
80401548:	00408021 	move	s0,v0
8040154c:	2446007c 	addiu	a2,v0,124
80401550:	24450014 	addiu	a1,v0,20
80401554:	244402ec 	addiu	a0,v0,748
80401558:	24420348 	addiu	v0,v0,840
8040155c:	ae020008 	sw	v0,8(s0)
80401560:	3c028041 	lui	v0,0x8041
80401564:	260303a4 	addiu	v1,s0,932
80401568:	24423410 	addiu	v0,v0,13328
8040156c:	ae03000c 	sw	v1,12(s0)
80401570:	ae040004 	sw	a0,4(s0)
80401574:	ae000000 	sw	zero,0(s0)
80401578:	ae000010 	sw	zero,16(s0)
8040157c:	ae000014 	sw	zero,20(s0)
80401580:	24030001 	li	v1,1
80401584:	a0a00018 	sb	zero,24(a1)
80401588:	aca00004 	sw	zero,4(a1)
8040158c:	aca00008 	sw	zero,8(a1)
80401590:	aca0000c 	sw	zero,12(a1)
80401594:	aca00010 	sw	zero,16(a1)
80401598:	aca00014 	sw	zero,20(a1)
8040159c:	ae020034 	sw	v0,52(s0)
804015a0:	00001021 	move	v0,zero
804015a4:	ae000030 	sw	zero,48(s0)
804015a8:	ae000038 	sw	zero,56(s0)
804015ac:	ae00003c 	sw	zero,60(s0)
804015b0:	ae000040 	sw	zero,64(s0)
804015b4:	ae000044 	sw	zero,68(s0)
804015b8:	ae000048 	sw	zero,72(s0)
804015bc:	ae00004c 	sw	zero,76(s0)
804015c0:	ae000050 	sw	zero,80(s0)
804015c4:	ae000054 	sw	zero,84(s0)
804015c8:	ae000058 	sw	zero,88(s0)
804015cc:	ae00005c 	sw	zero,92(s0)
804015d0:	a2000060 	sb	zero,96(s0)
804015d4:	ae00007c 	sw	zero,124(s0)
804015d8:	acc00004 	sw	zero,4(a2)
804015dc:	acc00008 	sw	zero,8(a2)
804015e0:	acc0000c 	sw	zero,12(a2)
804015e4:	acc00010 	sw	zero,16(a2)
804015e8:	acc00014 	sw	zero,20(a2)
804015ec:	acc00018 	sw	zero,24(a2)
804015f0:	acc0001c 	sw	zero,28(a2)
804015f4:	acc00020 	sw	zero,32(a2)
804015f8:	ae0300ac 	sw	v1,172(s0)
804015fc:	ae0200a8 	sw	v0,168(s0)
80401600:	24031234 	li	v1,4660
80401604:	2402abcd 	li	v0,-21555
80401608:	a60200b2 	sh	v0,178(s0)
8040160c:	a60300b4 	sh	v1,180(s0)
80401610:	2402e66d 	li	v0,-6547
80401614:	2403deec 	li	v1,-8468
80401618:	a60200b6 	sh	v0,182(s0)
8040161c:	a60300b8 	sh	v1,184(s0)
80401620:	2405330e 	li	a1,13070
80401624:	24020005 	li	v0,5
80401628:	2403000b 	li	v1,11
8040162c:	a60500b0 	sh	a1,176(s0)
80401630:	a60200ba 	sh	v0,186(s0)
80401634:	a60300bc 	sh	v1,188(s0)
80401638:	ae0000a0 	sw	zero,160(s0)
8040163c:	ae0000c0 	sw	zero,192(s0)
80401640:	ae0000c4 	sw	zero,196(s0)
80401644:	ae0000c8 	sw	zero,200(s0)
80401648:	ae0000cc 	sw	zero,204(s0)
8040164c:	ae0000d0 	sw	zero,208(s0)
80401650:	ae0000d4 	sw	zero,212(s0)
80401654:	ae0000fc 	sw	zero,252(s0)
80401658:	ae000100 	sw	zero,256(s0)
8040165c:	ae000104 	sw	zero,260(s0)
80401660:	ae000108 	sw	zero,264(s0)
80401664:	ae00010c 	sw	zero,268(s0)
80401668:	ae000110 	sw	zero,272(s0)
8040166c:	ae000114 	sw	zero,276(s0)
80401670:	ae000118 	sw	zero,280(s0)
80401674:	ae00011c 	sw	zero,284(s0)
80401678:	ae000120 	sw	zero,288(s0)
8040167c:	a20000d8 	sb	zero,216(s0)
80401680:	a20000e0 	sb	zero,224(s0)
80401684:	ae0000f8 	sw	zero,248(s0)
80401688:	ae000148 	sw	zero,328(s0)
8040168c:	ae00014c 	sw	zero,332(s0)
80401690:	ae000150 	sw	zero,336(s0)
80401694:	ae000154 	sw	zero,340(s0)
80401698:	00002821 	move	a1,zero
8040169c:	ae0002d4 	sw	zero,724(s0)
804016a0:	24060114 	li	a2,276
804016a4:	ae0001d4 	sw	zero,468(s0)
804016a8:	ae0002dc 	sw	zero,732(s0)
804016ac:	ae0002e0 	sw	zero,736(s0)
804016b0:	ae0002e4 	sw	zero,740(s0)
804016b4:	0c103dd8 	jal	8040f760 <memset>
804016b8:	ae0002e8 	sw	zero,744(s0)
804016bc:	8fbf001c 	lw	ra,28(sp)
804016c0:	ae300104 	sw	s0,260(s1)
804016c4:	24020001 	li	v0,1
804016c8:	8fb10018 	lw	s1,24(sp)
804016cc:	8fb00014 	lw	s0,20(sp)
804016d0:	03e00008 	jr	ra
804016d4:	27bd0020 	addiu	sp,sp,32
804016d8:	8fbf001c 	lw	ra,28(sp)
804016dc:	00001021 	move	v0,zero
804016e0:	8fb10018 	lw	s1,24(sp)
804016e4:	8fb00014 	lw	s0,20(sp)
804016e8:	03e00008 	jr	ra
804016ec:	27bd0020 	addiu	sp,sp,32

804016f0 <open_dev_console>:
804016f0:	27bdffe0 	addiu	sp,sp,-32
804016f4:	afb10018 	sw	s1,24(sp)
804016f8:	3c118041 	lui	s1,0x8041
804016fc:	26243134 	addiu	a0,s1,12596
80401700:	00002821 	move	a1,zero
80401704:	00003021 	move	a2,zero
80401708:	afb00014 	sw	s0,20(sp)
8040170c:	afbf001c 	sw	ra,28(sp)
80401710:	0c1005dc 	jal	80401770 <open>
80401714:	2410ffff 	li	s0,-1
80401718:	1050000b 	beq	v0,s0,80401748 <open_dev_console+0x58>
8040171c:	26243134 	addiu	a0,s1,12596
80401720:	24050001 	li	a1,1
80401724:	0c1005dc 	jal	80401770 <open>
80401728:	00003021 	move	a2,zero
8040172c:	1050000b 	beq	v0,s0,8040175c <open_dev_console+0x6c>
80401730:	24050001 	li	a1,1
80401734:	26243134 	addiu	a0,s1,12596
80401738:	0c1005dc 	jal	80401770 <open>
8040173c:	00003021 	move	a2,zero
80401740:	10500009 	beq	v0,s0,80401768 <open_dev_console+0x78>
80401744:	3c045354 	lui	a0,0x5354
80401748:	8fbf001c 	lw	ra,28(sp)
8040174c:	8fb10018 	lw	s1,24(sp)
80401750:	8fb00014 	lw	s0,20(sp)
80401754:	03e00008 	jr	ra
80401758:	27bd0020 	addiu	sp,sp,32
8040175c:	3c045354 	lui	a0,0x5354
80401760:	0c1016d4 	jal	80405b50 <rtems_fatal_error_occurred>
80401764:	34844431 	ori	a0,a0,0x4431
80401768:	0c1016d4 	jal	80405b50 <rtems_fatal_error_occurred>
8040176c:	34844432 	ori	a0,a0,0x4432

80401770 <open>:
80401770:	27bdffb8 	addiu	sp,sp,-72
80401774:	24a30001 	addiu	v1,a1,1
80401778:	afb30038 	sw	s3,56(sp)
8040177c:	afb0002c 	sw	s0,44(sp)
80401780:	24020004 	li	v0,4
80401784:	00a09821 	move	s3,a1
80401788:	00008021 	move	s0,zero
8040178c:	30650001 	andi	a1,v1,0x1
80401790:	0045800b 	movn	s0,v0,a1
80401794:	30630002 	andi	v1,v1,0x2
80401798:	27a20054 	addiu	v0,sp,84
8040179c:	afb50040 	sw	s5,64(sp)
804017a0:	afb20034 	sw	s2,52(sp)
804017a4:	afb10030 	sw	s1,48(sp)
804017a8:	afbf0044 	sw	ra,68(sp)
804017ac:	afb4003c 	sw	s4,60(sp)
804017b0:	afa70054 	sw	a3,84(sp)
804017b4:	02038025 	or	s0,s0,v1
804017b8:	afa20010 	sw	v0,16(sp)
804017bc:	00809021 	move	s2,a0
804017c0:	afa60050 	sw	a2,80(sp)
804017c4:	0c102df5 	jal	8040b7d4 <rtems_libio_allocate>
804017c8:	00c0a821 	move	s5,a2
804017cc:	10400037 	beqz	v0,804018ac <open+0x13c>
804017d0:	00408821 	move	s1,v0
804017d4:	27b40014 	addiu	s4,sp,20
804017d8:	02002821 	move	a1,s0
804017dc:	02402021 	move	a0,s2
804017e0:	02803021 	move	a2,s4
804017e4:	0c100370 	jal	80400dc0 <rtems_filesystem_evaluate_path>
804017e8:	24070001 	li	a3,1
804017ec:	2403ffff 	li	v1,-1
804017f0:	10430054 	beq	v0,v1,80401944 <open+0x1d4>
804017f4:	32630a00 	andi	v1,s3,0xa00
804017f8:	24020a00 	li	v0,2560
804017fc:	10620039 	beq	v1,v0,804018e4 <open+0x174>
80401800:	02808021 	move	s0,s4
80401804:	8fa30014 	lw	v1,20(sp)
80401808:	8fa20018 	lw	v0,24(sp)
8040180c:	ae23002c 	sw	v1,44(s1)
80401810:	02602021 	move	a0,s3
80401814:	8e30000c 	lw	s0,12(s1)
80401818:	0c102e32 	jal	8040b8c8 <rtems_libio_fcntl_flags>
8040181c:	ae220030 	sw	v0,48(s1)
80401820:	8e230030 	lw	v1,48(s1)
80401824:	00501025 	or	v0,v0,s0
80401828:	8fa40018 	lw	a0,24(sp)
8040182c:	8fa50020 	lw	a1,32(sp)
80401830:	8c680000 	lw	t0,0(v1)
80401834:	ae22000c 	sw	v0,12(s1)
80401838:	8fa3001c 	lw	v1,28(sp)
8040183c:	8fa20014 	lw	v0,20(sp)
80401840:	ae240014 	sw	a0,20(s1)
80401844:	ae220010 	sw	v0,16(s1)
80401848:	ae230018 	sw	v1,24(s1)
8040184c:	11000047 	beqz	t0,8040196c <open+0x1fc>
80401850:	ae25001c 	sw	a1,28(s1)
80401854:	02402821 	move	a1,s2
80401858:	02a03821 	move	a3,s5
8040185c:	02202021 	move	a0,s1
80401860:	0100f809 	jalr	t0
80401864:	02603021 	move	a2,s3
80401868:	10400023 	beqz	v0,804018f8 <open+0x188>
8040186c:	00409021 	move	s2,v0
80401870:	02808021 	move	s0,s4
80401874:	0c102dd8 	jal	8040b760 <rtems_libio_free>
80401878:	02202021 	move	a0,s1
8040187c:	1200000c 	beqz	s0,804018b0 <open+0x140>
80401880:	00000000 	nop
80401884:	8e020008 	lw	v0,8(s0)
80401888:	10400009 	beqz	v0,804018b0 <open+0x140>
8040188c:	00000000 	nop
80401890:	8c42001c 	lw	v0,28(v0)
80401894:	10400006 	beqz	v0,804018b0 <open+0x140>
80401898:	00000000 	nop
8040189c:	0040f809 	jalr	v0
804018a0:	02002021 	move	a0,s0
804018a4:	0810062c 	j	804018b0 <open+0x140>
804018a8:	00000000 	nop
804018ac:	24120017 	li	s2,23
804018b0:	0c103b34 	jal	8040ecd0 <__errno>
804018b4:	00000000 	nop
804018b8:	8fbf0044 	lw	ra,68(sp)
804018bc:	ac520000 	sw	s2,0(v0)
804018c0:	8fb50040 	lw	s5,64(sp)
804018c4:	2402ffff 	li	v0,-1
804018c8:	8fb4003c 	lw	s4,60(sp)
804018cc:	8fb30038 	lw	s3,56(sp)
804018d0:	8fb20034 	lw	s2,52(sp)
804018d4:	8fb10030 	lw	s1,48(sp)
804018d8:	8fb0002c 	lw	s0,44(sp)
804018dc:	03e00008 	jr	ra
804018e0:	27bd0048 	addiu	sp,sp,72
804018e4:	24120011 	li	s2,17
804018e8:	1220ffe4 	beqz	s1,8040187c <open+0x10c>
804018ec:	00000000 	nop
804018f0:	0810061d 	j	80401874 <open+0x104>
804018f4:	00000000 	nop
804018f8:	32620400 	andi	v0,s3,0x400
804018fc:	14400025 	bnez	v0,80401994 <open+0x224>
80401900:	3c108041 	lui	s0,0x8041
80401904:	3c108041 	lui	s0,0x8041
80401908:	8e034394 	lw	v1,17300(s0)
8040190c:	3c02c4ec 	lui	v0,0xc4ec
80401910:	02231823 	subu	v1,s1,v1
80401914:	8fbf0044 	lw	ra,68(sp)
80401918:	00031883 	sra	v1,v1,0x2
8040191c:	34424ec5 	ori	v0,v0,0x4ec5
80401920:	70621002 	mul	v0,v1,v0
80401924:	8fb50040 	lw	s5,64(sp)
80401928:	8fb4003c 	lw	s4,60(sp)
8040192c:	8fb30038 	lw	s3,56(sp)
80401930:	8fb20034 	lw	s2,52(sp)
80401934:	8fb10030 	lw	s1,48(sp)
80401938:	8fb0002c 	lw	s0,44(sp)
8040193c:	03e00008 	jr	ra
80401940:	27bd0048 	addiu	sp,sp,72
80401944:	0c103b34 	jal	8040ecd0 <__errno>
80401948:	00000000 	nop
8040194c:	8c430000 	lw	v1,0(v0)
80401950:	24020002 	li	v0,2
80401954:	14620008 	bne	v1,v0,80401978 <open+0x208>
80401958:	32620200 	andi	v0,s3,0x200
8040195c:	14400028 	bnez	v0,80401a00 <open+0x290>
80401960:	00008021 	move	s0,zero
80401964:	0810063a 	j	804018e8 <open+0x178>
80401968:	24120002 	li	s2,2
8040196c:	02808021 	move	s0,s4
80401970:	0810063a 	j	804018e8 <open+0x178>
80401974:	24120086 	li	s2,134
80401978:	0c103b34 	jal	8040ecd0 <__errno>
8040197c:	00000000 	nop
80401980:	8c520000 	lw	s2,0(v0)
80401984:	1240ffdf 	beqz	s2,80401904 <open+0x194>
80401988:	00008021 	move	s0,zero
8040198c:	0810063a 	j	804018e8 <open+0x178>
80401990:	00000000 	nop
80401994:	8e024394 	lw	v0,17300(s0)
80401998:	3c04c4ec 	lui	a0,0xc4ec
8040199c:	02221023 	subu	v0,s1,v0
804019a0:	00021083 	sra	v0,v0,0x2
804019a4:	34844ec5 	ori	a0,a0,0x4ec5
804019a8:	70442002 	mul	a0,v0,a0
804019ac:	0c102cd4 	jal	8040b350 <ftruncate>
804019b0:	00002821 	move	a1,zero
804019b4:	1040ffd4 	beqz	v0,80401908 <open+0x198>
804019b8:	00409021 	move	s2,v0
804019bc:	0c103b34 	jal	8040ecd0 <__errno>
804019c0:	00000000 	nop
804019c4:	8c430000 	lw	v1,0(v0)
804019c8:	1460001d 	bnez	v1,80401a40 <open+0x2d0>
804019cc:	00000000 	nop
804019d0:	8e024394 	lw	v0,17300(s0)
804019d4:	3c04c4ec 	lui	a0,0xc4ec
804019d8:	02221023 	subu	v0,s1,v0
804019dc:	00021083 	sra	v0,v0,0x2
804019e0:	34844ec5 	ori	a0,a0,0x4ec5
804019e4:	70442002 	mul	a0,v0,a0
804019e8:	0c102c68 	jal	8040b1a0 <close>
804019ec:	00008821 	move	s1,zero
804019f0:	1240ffc4 	beqz	s2,80401904 <open+0x194>
804019f4:	00008021 	move	s0,zero
804019f8:	0810063a 	j	804018e8 <open+0x178>
804019fc:	00000000 	nop
80401a00:	02402021 	move	a0,s2
80401a04:	36a58000 	ori	a1,s5,0x8000
80401a08:	00003821 	move	a3,zero
80401a0c:	0c100494 	jal	80401250 <mknod>
80401a10:	00003021 	move	a2,zero
80401a14:	1440ffd8 	bnez	v0,80401978 <open+0x208>
80401a18:	02402021 	move	a0,s2
80401a1c:	00002821 	move	a1,zero
80401a20:	02803021 	move	a2,s4
80401a24:	0c100370 	jal	80400dc0 <rtems_filesystem_evaluate_path>
80401a28:	24070001 	li	a3,1
80401a2c:	1040ff76 	beqz	v0,80401808 <open+0x98>
80401a30:	8fa30014 	lw	v1,20(sp)
80401a34:	2412000d 	li	s2,13
80401a38:	0810063a 	j	804018e8 <open+0x178>
80401a3c:	00008021 	move	s0,zero
80401a40:	0c103b34 	jal	8040ecd0 <__errno>
80401a44:	00000000 	nop
80401a48:	08100674 	j	804019d0 <open+0x260>
80401a4c:	8c520000 	lw	s2,0(v0)

80401a50 <_open_r>:
80401a50:	00a02021 	move	a0,a1
80401a54:	00c02821 	move	a1,a2
80401a58:	081005dc 	j	80401770 <open>
80401a5c:	00e03021 	move	a2,a3

80401a60 <vprintk>:
80401a60:	27bdffa8 	addiu	sp,sp,-88
80401a64:	afb40040 	sw	s4,64(sp)
80401a68:	afb20038 	sw	s2,56(sp)
80401a6c:	afbf0054 	sw	ra,84(sp)
80401a70:	afbe0050 	sw	s8,80(sp)
80401a74:	afb7004c 	sw	s7,76(sp)
80401a78:	afb60048 	sw	s6,72(sp)
80401a7c:	afb50044 	sw	s5,68(sp)
80401a80:	afb3003c 	sw	s3,60(sp)
80401a84:	afb10034 	sw	s1,52(sp)
80401a88:	afb00030 	sw	s0,48(sp)
80401a8c:	0080a021 	move	s4,a0
80401a90:	80840000 	lb	a0,0(a0)
80401a94:	10800072 	beqz	a0,80401c60 <vprintk+0x200>
80401a98:	00a09021 	move	s2,a1
80401a9c:	3c158041 	lui	s5,0x8041
80401aa0:	27be0010 	addiu	s8,sp,16
80401aa4:	24020025 	li	v0,37
80401aa8:	14820028 	bne	a0,v0,80401b4c <vprintk+0xec>
80401aac:	24030030 	li	v1,48
80401ab0:	82840001 	lb	a0,1(s4)
80401ab4:	108300c9 	beq	a0,v1,80401ddc <vprintk+0x37c>
80401ab8:	26850001 	addiu	a1,s4,1
80401abc:	24130020 	li	s3,32
80401ac0:	2406002d 	li	a2,45
80401ac4:	108600b8 	beq	a0,a2,80401da8 <vprintk+0x348>
80401ac8:	2482ffd0 	addiu	v0,a0,-48
80401acc:	304200ff 	andi	v0,v0,0xff
80401ad0:	2c42000a 	sltiu	v0,v0,10
80401ad4:	104000bd 	beqz	v0,80401dcc <vprintk+0x36c>
80401ad8:	afa00028 	sw	zero,40(sp)
80401adc:	00008021 	move	s0,zero
80401ae0:	001010c0 	sll	v0,s0,0x3
80401ae4:	00101840 	sll	v1,s0,0x1
80401ae8:	00621821 	addu	v1,v1,v0
80401aec:	24a50001 	addiu	a1,a1,1
80401af0:	00641821 	addu	v1,v1,a0
80401af4:	80a40000 	lb	a0,0(a1)
80401af8:	2482ffd0 	addiu	v0,a0,-48
80401afc:	304200ff 	andi	v0,v0,0xff
80401b00:	2c42000a 	sltiu	v0,v0,10
80401b04:	1440fff6 	bnez	v0,80401ae0 <vprintk+0x80>
80401b08:	2470ffd0 	addiu	s0,v1,-48
80401b0c:	00a0a021 	move	s4,a1
80401b10:	0200b021 	move	s6,s0
80401b14:	2403006c 	li	v1,108
80401b18:	108300a0 	beq	a0,v1,80401d9c <vprintk+0x33c>
80401b1c:	00000000 	nop
80401b20:	2482ffbc 	addiu	v0,a0,-68
80401b24:	304200ff 	andi	v0,v0,0xff
80401b28:	2c430035 	sltiu	v1,v0,53
80401b2c:	10600007 	beqz	v1,80401b4c <vprintk+0xec>
80401b30:	3c068041 	lui	a2,0x8041
80401b34:	00021080 	sll	v0,v0,0x2
80401b38:	24c62630 	addiu	a2,a2,9776
80401b3c:	00c21021 	addu	v0,a2,v0
80401b40:	8c430000 	lw	v1,0(v0)
80401b44:	00600008 	jr	v1
80401b48:	00000000 	nop
80401b4c:	8ea23790 	lw	v0,14224(s5)
80401b50:	0040f809 	jalr	v0
80401b54:	0240b821 	move	s7,s2
80401b58:	26940001 	addiu	s4,s4,1
80401b5c:	82840000 	lb	a0,0(s4)
80401b60:	10800040 	beqz	a0,80401c64 <vprintk+0x204>
80401b64:	8fbf0054 	lw	ra,84(sp)
80401b68:	081006a9 	j	80401aa4 <vprintk+0x44>
80401b6c:	02e09021 	move	s2,s7
80401b70:	00001021 	move	v0,zero
80401b74:	24110008 	li	s1,8
80401b78:	24060001 	li	a2,1
80401b7c:	8e500000 	lw	s0,0(s2)
80401b80:	10460049 	beq	v0,a2,80401ca8 <vprintk+0x248>
80401b84:	26570004 	addiu	s7,s2,4
80401b88:	0211001b 	divu	zero,s0,s1
80401b8c:	022001f4 	teq	s1,zero,0x7
80401b90:	00001012 	mflo	v0
80401b94:	10400050 	beqz	v0,80401cd8 <vprintk+0x278>
80401b98:	02003821 	move	a3,s0
80401b9c:	00002021 	move	a0,zero
80401ba0:	081006ec 	j	80401bb0 <vprintk+0x150>
80401ba4:	00408021 	move	s0,v0
80401ba8:	02003821 	move	a3,s0
80401bac:	00a08021 	move	s0,a1
80401bb0:	0211001b 	divu	zero,s0,s1
80401bb4:	022001f4 	teq	s1,zero,0x7
80401bb8:	03c41821 	addu	v1,s8,a0
80401bbc:	24840001 	addiu	a0,a0,1
80401bc0:	00002812 	mflo	a1
80401bc4:	72113002 	mul	a2,s0,s1
80401bc8:	00e61023 	subu	v0,a3,a2
80401bcc:	14a0fff6 	bnez	a1,80401ba8 <vprintk+0x148>
80401bd0:	a0620000 	sb	v0,0(v1)
80401bd4:	24920001 	addiu	s2,a0,1
80401bd8:	03c41021 	addu	v0,s8,a0
80401bdc:	0256182b 	sltu	v1,s2,s6
80401be0:	02c08821 	move	s1,s6
80401be4:	1060000a 	beqz	v1,80401c10 <vprintk+0x1b0>
80401be8:	a0500000 	sb	s0,0(v0)
80401bec:	00138600 	sll	s0,s3,0x18
80401bf0:	00108603 	sra	s0,s0,0x18
80401bf4:	8ea33790 	lw	v1,14224(s5)
80401bf8:	2631ffff 	addiu	s1,s1,-1
80401bfc:	0060f809 	jalr	v1
80401c00:	02002021 	move	a0,s0
80401c04:	0251102b 	sltu	v0,s2,s1
80401c08:	1440fffb 	bnez	v0,80401bf8 <vprintk+0x198>
80401c0c:	8ea33790 	lw	v1,14224(s5)
80401c10:	1240ffd1 	beqz	s2,80401b58 <vprintk+0xf8>
80401c14:	00008021 	move	s0,zero
80401c18:	03d28821 	addu	s1,s8,s2
80401c1c:	00101027 	nor	v0,zero,s0
80401c20:	02221021 	addu	v0,s1,v0
80401c24:	80430000 	lb	v1,0(v0)
80401c28:	3c028041 	lui	v0,0x8041
80401c2c:	24423458 	addiu	v0,v0,13400
80401c30:	00431821 	addu	v1,v0,v1
80401c34:	8ea53790 	lw	a1,14224(s5)
80401c38:	80640000 	lb	a0,0(v1)
80401c3c:	00a0f809 	jalr	a1
80401c40:	26100001 	addiu	s0,s0,1
80401c44:	0212102b 	sltu	v0,s0,s2
80401c48:	1440fff4 	bnez	v0,80401c1c <vprintk+0x1bc>
80401c4c:	00000000 	nop
80401c50:	26940001 	addiu	s4,s4,1
80401c54:	82840000 	lb	a0,0(s4)
80401c58:	1480ff92 	bnez	a0,80401aa4 <vprintk+0x44>
80401c5c:	02e09021 	move	s2,s7
80401c60:	8fbf0054 	lw	ra,84(sp)
80401c64:	8fbe0050 	lw	s8,80(sp)
80401c68:	8fb7004c 	lw	s7,76(sp)
80401c6c:	8fb60048 	lw	s6,72(sp)
80401c70:	8fb50044 	lw	s5,68(sp)
80401c74:	8fb40040 	lw	s4,64(sp)
80401c78:	8fb3003c 	lw	s3,60(sp)
80401c7c:	8fb20038 	lw	s2,56(sp)
80401c80:	8fb10034 	lw	s1,52(sp)
80401c84:	8fb00030 	lw	s0,48(sp)
80401c88:	03e00008 	jr	ra
80401c8c:	27bd0058 	addiu	sp,sp,88
80401c90:	24020001 	li	v0,1
80401c94:	24060001 	li	a2,1
80401c98:	2411000a 	li	s1,10
80401c9c:	8e500000 	lw	s0,0(s2)
80401ca0:	1446ffb9 	bne	v0,a2,80401b88 <vprintk+0x128>
80401ca4:	26570004 	addiu	s7,s2,4
80401ca8:	0601ffb7 	bgez	s0,80401b88 <vprintk+0x128>
80401cac:	8ea33790 	lw	v1,14224(s5)
80401cb0:	2404002d 	li	a0,45
80401cb4:	0060f809 	jalr	v1
80401cb8:	00108023 	negu	s0,s0
80401cbc:	0211001b 	divu	zero,s0,s1
80401cc0:	022001f4 	teq	s1,zero,0x7
80401cc4:	26c2ffff 	addiu	v0,s6,-1
80401cc8:	0056b00b 	movn	s6,v0,s6
80401ccc:	00001012 	mflo	v0
80401cd0:	1440ffb2 	bnez	v0,80401b9c <vprintk+0x13c>
80401cd4:	02003821 	move	a3,s0
80401cd8:	00002021 	move	a0,zero
80401cdc:	081006f6 	j	80401bd8 <vprintk+0x178>
80401ce0:	24120001 	li	s2,1
80401ce4:	00001021 	move	v0,zero
80401ce8:	081006de 	j	80401b78 <vprintk+0x118>
80401cec:	2411000a 	li	s1,10
80401cf0:	8e530000 	lw	s3,0(s2)
80401cf4:	82620000 	lb	v0,0(s3)
80401cf8:	10400045 	beqz	v0,80401e10 <vprintk+0x3b0>
80401cfc:	26570004 	addiu	s7,s2,4
80401d00:	02601821 	move	v1,s3
80401d04:	00009021 	move	s2,zero
80401d08:	24630001 	addiu	v1,v1,1
80401d0c:	80620000 	lb	v0,0(v1)
80401d10:	1440fffd 	bnez	v0,80401d08 <vprintk+0x2a8>
80401d14:	26520001 	addiu	s2,s2,1
80401d18:	8fa20028 	lw	v0,40(sp)
80401d1c:	14400033 	bnez	v0,80401dec <vprintk+0x38c>
80401d20:	0250102a 	slt	v0,s2,s0
80401d24:	10400031 	beqz	v0,80401dec <vprintk+0x38c>
80401d28:	8ea33790 	lw	v1,14224(s5)
80401d2c:	02408821 	move	s1,s2
80401d30:	26310001 	addiu	s1,s1,1
80401d34:	0060f809 	jalr	v1
80401d38:	24040020 	li	a0,32
80401d3c:	0230102a 	slt	v0,s1,s0
80401d40:	1440fffb 	bnez	v0,80401d30 <vprintk+0x2d0>
80401d44:	8ea33790 	lw	v1,14224(s5)
80401d48:	1ec0002c 	bgtz	s6,80401dfc <vprintk+0x39c>
80401d4c:	8fa30028 	lw	v1,40(sp)
80401d50:	1060ff81 	beqz	v1,80401b58 <vprintk+0xf8>
80401d54:	0256102a 	slt	v0,s2,s6
80401d58:	1040ff7f 	beqz	v0,80401b58 <vprintk+0xf8>
80401d5c:	02408021 	move	s0,s2
80401d60:	8ea33790 	lw	v1,14224(s5)
80401d64:	26100001 	addiu	s0,s0,1
80401d68:	0060f809 	jalr	v1
80401d6c:	24040020 	li	a0,32
80401d70:	0216102a 	slt	v0,s0,s6
80401d74:	1440fffb 	bnez	v0,80401d64 <vprintk+0x304>
80401d78:	8ea33790 	lw	v1,14224(s5)
80401d7c:	081006d7 	j	80401b5c <vprintk+0xfc>
80401d80:	26940001 	addiu	s4,s4,1
80401d84:	82440003 	lb	a0,3(s2)
80401d88:	8ea23790 	lw	v0,14224(s5)
80401d8c:	0040f809 	jalr	v0
80401d90:	26570004 	addiu	s7,s2,4
80401d94:	081006d7 	j	80401b5c <vprintk+0xfc>
80401d98:	26940001 	addiu	s4,s4,1
80401d9c:	80a40001 	lb	a0,1(a1)
80401da0:	081006c8 	j	80401b20 <vprintk+0xc0>
80401da4:	24b40001 	addiu	s4,a1,1
80401da8:	24a50001 	addiu	a1,a1,1
80401dac:	80a40000 	lb	a0,0(a1)
80401db0:	24020001 	li	v0,1
80401db4:	afa20028 	sw	v0,40(sp)
80401db8:	2482ffd0 	addiu	v0,a0,-48
80401dbc:	304200ff 	andi	v0,v0,0xff
80401dc0:	2c42000a 	sltiu	v0,v0,10
80401dc4:	1440ff45 	bnez	v0,80401adc <vprintk+0x7c>
80401dc8:	00000000 	nop
80401dcc:	00a0a021 	move	s4,a1
80401dd0:	00008021 	move	s0,zero
80401dd4:	081006c5 	j	80401b14 <vprintk+0xb4>
80401dd8:	0000b021 	move	s6,zero
80401ddc:	82840002 	lb	a0,2(s4)
80401de0:	26850002 	addiu	a1,s4,2
80401de4:	081006b0 	j	80401ac0 <vprintk+0x60>
80401de8:	24130030 	li	s3,48
80401dec:	08100752 	j	80401d48 <vprintk+0x2e8>
80401df0:	0250b00a 	movz	s6,s2,s0
80401df4:	0040f809 	jalr	v0
80401df8:	26730001 	addiu	s3,s3,1
80401dfc:	82640000 	lb	a0,0(s3)
80401e00:	1480fffc 	bnez	a0,80401df4 <vprintk+0x394>
80401e04:	8ea23790 	lw	v0,14224(s5)
80401e08:	08100754 	j	80401d50 <vprintk+0x2f0>
80401e0c:	8fa30028 	lw	v1,40(sp)
80401e10:	08100746 	j	80401d18 <vprintk+0x2b8>
80401e14:	00009021 	move	s2,zero
80401e18:	00001021 	move	v0,zero
80401e1c:	081006de 	j	80401b78 <vprintk+0x118>
80401e20:	24110010 	li	s1,16

80401e24 <printk>:
80401e24:	27bdffe0 	addiu	sp,sp,-32
80401e28:	27a20024 	addiu	v0,sp,36
80401e2c:	afa50024 	sw	a1,36(sp)
80401e30:	00402821 	move	a1,v0
80401e34:	afbf001c 	sw	ra,28(sp)
80401e38:	afa60028 	sw	a2,40(sp)
80401e3c:	afa7002c 	sw	a3,44(sp)
80401e40:	0c100698 	jal	80401a60 <vprintk>
80401e44:	afa20010 	sw	v0,16(sp)
80401e48:	8fbf001c 	lw	ra,28(sp)
80401e4c:	03e00008 	jr	ra
80401e50:	27bd0020 	addiu	sp,sp,32
	...

80401e60 <rtems_termios_initialize>:
80401e60:	3c038041 	lui	v1,0x8041
80401e64:	8c624428 	lw	v0,17448(v1)
80401e68:	27bdffe0 	addiu	sp,sp,-32
80401e6c:	10400004 	beqz	v0,80401e80 <rtems_termios_initialize+0x20>
80401e70:	afbf001c 	sw	ra,28(sp)
80401e74:	8fbf001c 	lw	ra,28(sp)
80401e78:	03e00008 	jr	ra
80401e7c:	27bd0020 	addiu	sp,sp,32
80401e80:	3c045452 	lui	a0,0x5452
80401e84:	24624428 	addiu	v0,v1,17448
80401e88:	34846d69 	ori	a0,a0,0x6d69
80401e8c:	24050001 	li	a1,1
80401e90:	24060054 	li	a2,84
80401e94:	00003821 	move	a3,zero
80401e98:	0c101318 	jal	80404c60 <rtems_semaphore_create>
80401e9c:	afa20010 	sw	v0,16(sp)
80401ea0:	1040fff5 	beqz	v0,80401e78 <rtems_termios_initialize+0x18>
80401ea4:	8fbf001c 	lw	ra,28(sp)
80401ea8:	0c1016d4 	jal	80405b50 <rtems_fatal_error_occurred>
80401eac:	00402021 	move	a0,v0

80401eb0 <rtems_termios_bufsize>:
80401eb0:	3c028041 	lui	v0,0x8041
80401eb4:	ac4437a4 	sw	a0,14244(v0)
80401eb8:	3c038041 	lui	v1,0x8041
80401ebc:	3c028041 	lui	v0,0x8041
80401ec0:	ac4637ac 	sw	a2,14252(v0)
80401ec4:	ac6537a8 	sw	a1,14248(v1)
80401ec8:	03e00008 	jr	ra
80401ecc:	00001021 	move	v0,zero

80401ed0 <rtems_termios_rxirq_occured>:
80401ed0:	8c8400c4 	lw	a0,196(a0)
80401ed4:	08101224 	j	80404890 <rtems_event_send>
80401ed8:	24050002 	li	a1,2

80401edc <rtems_termios_refill_transmitter>:
80401edc:	8c8200b8 	lw	v0,184(a0)
80401ee0:	27bdffe0 	addiu	sp,sp,-32
80401ee4:	30420403 	andi	v0,v0,0x403
80401ee8:	24030401 	li	v1,1025
80401eec:	afb00010 	sw	s0,16(sp)
80401ef0:	afbf001c 	sw	ra,28(sp)
80401ef4:	afb20018 	sw	s2,24(sp)
80401ef8:	afb10014 	sw	s1,20(sp)
80401efc:	10430053 	beq	v0,v1,8040204c <rtems_termios_refill_transmitter+0x170>
80401f00:	00808021 	move	s0,a0
80401f04:	8c8200b8 	lw	v0,184(a0)
80401f08:	24040002 	li	a0,2
80401f0c:	30420003 	andi	v0,v0,0x3
80401f10:	10440079 	beq	v0,a0,804020f8 <rtems_termios_refill_transmitter+0x21c>
80401f14:	26050049 	addiu	a1,s0,73
80401f18:	8e030080 	lw	v1,128(s0)
80401f1c:	8e020084 	lw	v0,132(s0)
80401f20:	1062003c 	beq	v1,v0,80402014 <rtems_termios_refill_transmitter+0x138>
80401f24:	00000000 	nop
80401f28:	40046000 	mfc0	a0,c0_status
80401f2c:	00000000 	nop
80401f30:	2402fffe 	li	v0,-2
80401f34:	00821024 	and	v0,a0,v0
80401f38:	40826000 	mtc0	v0,c0_status
80401f3c:	00000000 	nop
80401f40:	8e050090 	lw	a1,144(s0)
80401f44:	ae000090 	sw	zero,144(s0)
80401f48:	40026000 	mfc0	v0,c0_status
80401f4c:	00000000 	nop
80401f50:	2403fffe 	li	v1,-2
80401f54:	00431024 	and	v0,v0,v1
80401f58:	30840001 	andi	a0,a0,0x1
80401f5c:	00822025 	or	a0,a0,v0
80401f60:	40846000 	mtc0	a0,c0_status
80401f64:	00000000 	nop
80401f68:	8e030084 	lw	v1,132(s0)
80401f6c:	8e020088 	lw	v0,136(s0)
80401f70:	00a32821 	addu	a1,a1,v1
80401f74:	00a2001b 	divu	zero,a1,v0
80401f78:	004001f4 	teq	v0,zero,0x7
80401f7c:	8e030094 	lw	v1,148(s0)
80401f80:	24020002 	li	v0,2
80401f84:	00009010 	mfhi	s2
80401f88:	10620093 	beq	v1,v0,804021d8 <rtems_termios_refill_transmitter+0x2fc>
80401f8c:	ae120084 	sw	s2,132(s0)
80401f90:	8e020080 	lw	v0,128(s0)
80401f94:	1052004e 	beq	v0,s2,804020d0 <rtems_termios_refill_transmitter+0x1f4>
80401f98:	00000000 	nop
80401f9c:	8e0200b8 	lw	v0,184(s0)
80401fa0:	24030210 	li	v1,528
80401fa4:	30420210 	andi	v0,v0,0x210
80401fa8:	10430074 	beq	v0,v1,8040217c <rtems_termios_refill_transmitter+0x2a0>
80401fac:	00000000 	nop
80401fb0:	8e020080 	lw	v0,128(s0)
80401fb4:	0052102b 	sltu	v0,v0,s2
80401fb8:	14400021 	bnez	v0,80402040 <rtems_termios_refill_transmitter+0x164>
80401fbc:	00000000 	nop
80401fc0:	8e020080 	lw	v0,128(s0)
80401fc4:	00528823 	subu	s1,v0,s2
80401fc8:	8e0200b8 	lw	v0,184(s0)
80401fcc:	24030001 	li	v1,1
80401fd0:	30420600 	andi	v0,v0,0x600
80401fd4:	8e05007c 	lw	a1,124(s0)
80401fd8:	0062880b 	movn	s1,v1,v0
80401fdc:	8e0700a4 	lw	a3,164(s0)
80401fe0:	8e040010 	lw	a0,16(s0)
80401fe4:	ae030094 	sw	v1,148(s0)
80401fe8:	00b22821 	addu	a1,a1,s2
80401fec:	00e0f809 	jalr	a3
80401ff0:	02203021 	move	a2,s1
80401ff4:	ae120084 	sw	s2,132(s0)
80401ff8:	8fbf001c 	lw	ra,28(sp)
80401ffc:	02201021 	move	v0,s1
80402000:	8fb20018 	lw	s2,24(sp)
80402004:	8fb10014 	lw	s1,20(sp)
80402008:	8fb00010 	lw	s0,16(sp)
8040200c:	03e00008 	jr	ra
80402010:	27bd0020 	addiu	sp,sp,32
80402014:	8e020094 	lw	v0,148(s0)
80402018:	10440073 	beq	v0,a0,804021e8 <rtems_termios_refill_transmitter+0x30c>
8040201c:	00000000 	nop
80402020:	00008821 	move	s1,zero
80402024:	8fbf001c 	lw	ra,28(sp)
80402028:	02201021 	move	v0,s1
8040202c:	8fb20018 	lw	s2,24(sp)
80402030:	8fb10014 	lw	s1,20(sp)
80402034:	8fb00010 	lw	s0,16(sp)
80402038:	03e00008 	jr	ra
8040203c:	27bd0020 	addiu	sp,sp,32
80402040:	8e020088 	lw	v0,136(s0)
80402044:	081007f2 	j	80401fc8 <rtems_termios_refill_transmitter+0xec>
80402048:	00528823 	subu	s1,v0,s2
8040204c:	8c8300a4 	lw	v1,164(a0)
80402050:	8c840010 	lw	a0,16(a0)
80402054:	2605004a 	addiu	a1,s0,74
80402058:	0060f809 	jalr	v1
8040205c:	24060001 	li	a2,1
80402060:	40046000 	mfc0	a0,c0_status
80402064:	00000000 	nop
80402068:	2402fffe 	li	v0,-2
8040206c:	00821024 	and	v0,a0,v0
80402070:	40826000 	mtc0	v0,c0_status
80402074:	00000000 	nop
80402078:	8e030090 	lw	v1,144(s0)
8040207c:	8e0200b8 	lw	v0,184(s0)
80402080:	2463ffff 	addiu	v1,v1,-1
80402084:	34420002 	ori	v0,v0,0x2
80402088:	ae0200b8 	sw	v0,184(s0)
8040208c:	ae030090 	sw	v1,144(s0)
80402090:	40026000 	mfc0	v0,c0_status
80402094:	00000000 	nop
80402098:	2403fffe 	li	v1,-2
8040209c:	00431024 	and	v0,v0,v1
804020a0:	30840001 	andi	a0,a0,0x1
804020a4:	00822025 	or	a0,a0,v0
804020a8:	40846000 	mtc0	a0,c0_status
804020ac:	00000000 	nop
804020b0:	8fbf001c 	lw	ra,28(sp)
804020b4:	24110001 	li	s1,1
804020b8:	02201021 	move	v0,s1
804020bc:	8fb20018 	lw	s2,24(sp)
804020c0:	8fb10014 	lw	s1,20(sp)
804020c4:	8fb00010 	lw	s0,16(sp)
804020c8:	03e00008 	jr	ra
804020cc:	27bd0020 	addiu	sp,sp,32
804020d0:	8e0200d4 	lw	v0,212(s0)
804020d4:	10400004 	beqz	v0,804020e8 <rtems_termios_refill_transmitter+0x20c>
804020d8:	ae000094 	sw	zero,148(s0)
804020dc:	8e0500d8 	lw	a1,216(s0)
804020e0:	0040f809 	jalr	v0
804020e4:	26040030 	addiu	a0,s0,48
804020e8:	00008821 	move	s1,zero
804020ec:	ae120084 	sw	s2,132(s0)
804020f0:	081007ff 	j	80401ffc <rtems_termios_refill_transmitter+0x120>
804020f4:	8fbf001c 	lw	ra,28(sp)
804020f8:	8e0300a4 	lw	v1,164(s0)
804020fc:	8e040010 	lw	a0,16(s0)
80402100:	0060f809 	jalr	v1
80402104:	24060001 	li	a2,1
80402108:	40056000 	mfc0	a1,c0_status
8040210c:	00000000 	nop
80402110:	2402fffe 	li	v0,-2
80402114:	00a21024 	and	v0,a1,v0
80402118:	40826000 	mtc0	v0,c0_status
8040211c:	00000000 	nop
80402120:	8e040090 	lw	a0,144(s0)
80402124:	8e0200b8 	lw	v0,184(s0)
80402128:	2403fffd 	li	v1,-3
8040212c:	00431024 	and	v0,v0,v1
80402130:	2484ffff 	addiu	a0,a0,-1
80402134:	ae0200b8 	sw	v0,184(s0)
80402138:	ae040090 	sw	a0,144(s0)
8040213c:	40026000 	mfc0	v0,c0_status
80402140:	00000000 	nop
80402144:	2403fffe 	li	v1,-2
80402148:	00431024 	and	v0,v0,v1
8040214c:	30a50001 	andi	a1,a1,0x1
80402150:	00a22825 	or	a1,a1,v0
80402154:	40856000 	mtc0	a1,c0_status
80402158:	00000000 	nop
8040215c:	8fbf001c 	lw	ra,28(sp)
80402160:	24110001 	li	s1,1
80402164:	02201021 	move	v0,s1
80402168:	8fb20018 	lw	s2,24(sp)
8040216c:	8fb10014 	lw	s1,20(sp)
80402170:	8fb00010 	lw	s0,16(sp)
80402174:	03e00008 	jr	ra
80402178:	27bd0020 	addiu	sp,sp,32
8040217c:	40046000 	mfc0	a0,c0_status
80402180:	00000000 	nop
80402184:	2402fffe 	li	v0,-2
80402188:	00821024 	and	v0,a0,v0
8040218c:	40826000 	mtc0	v0,c0_status
80402190:	00000000 	nop
80402194:	8e0200b8 	lw	v0,184(s0)
80402198:	24030001 	li	v1,1
8040219c:	34420020 	ori	v0,v0,0x20
804021a0:	ae0200b8 	sw	v0,184(s0)
804021a4:	ae030094 	sw	v1,148(s0)
804021a8:	40026000 	mfc0	v0,c0_status
804021ac:	00000000 	nop
804021b0:	2403fffe 	li	v1,-2
804021b4:	00431024 	and	v0,v0,v1
804021b8:	30840001 	andi	a0,a0,0x1
804021bc:	00822025 	or	a0,a0,v0
804021c0:	40846000 	mtc0	a0,c0_status
804021c4:	00000000 	nop
804021c8:	00008821 	move	s1,zero
804021cc:	ae120084 	sw	s2,132(s0)
804021d0:	081007ff 	j	80401ffc <rtems_termios_refill_transmitter+0x120>
804021d4:	8fbf001c 	lw	ra,28(sp)
804021d8:	0c101504 	jal	80405410 <rtems_semaphore_release>
804021dc:	8e04008c 	lw	a0,140(s0)
804021e0:	081007e4 	j	80401f90 <rtems_termios_refill_transmitter+0xb4>
804021e4:	00000000 	nop
804021e8:	8e04008c 	lw	a0,140(s0)
804021ec:	0c101504 	jal	80405410 <rtems_semaphore_release>
804021f0:	00008821 	move	s1,zero
804021f4:	0810080a 	j	80402028 <rtems_termios_refill_transmitter+0x14c>
804021f8:	8fbf001c 	lw	ra,28(sp)

804021fc <rtems_termios_dequeue_characters>:
804021fc:	8c820090 	lw	v0,144(a0)
80402200:	8c8600b4 	lw	a2,180(a0)
80402204:	27bdffe8 	addiu	sp,sp,-24
80402208:	00451021 	addu	v0,v0,a1
8040220c:	24030002 	li	v1,2
80402210:	afbf0014 	sw	ra,20(sp)
80402214:	10c30011 	beq	a2,v1,8040225c <rtems_termios_dequeue_characters+0x60>
80402218:	ac820090 	sw	v0,144(a0)
8040221c:	8c8300cc 	lw	v1,204(a0)
80402220:	24020005 	li	v0,5
80402224:	1462000b 	bne	v1,v0,80402254 <rtems_termios_dequeue_characters+0x58>
80402228:	8fbf0014 	lw	ra,20(sp)
8040222c:	3c028041 	lui	v0,0x8041
80402230:	8c424284 	lw	v0,17028(v0)
80402234:	10400004 	beqz	v0,80402248 <rtems_termios_dequeue_characters+0x4c>
80402238:	00000000 	nop
8040223c:	0040f809 	jalr	v0
80402240:	00000000 	nop
80402244:	8fbf0014 	lw	ra,20(sp)
80402248:	00001021 	move	v0,zero
8040224c:	03e00008 	jr	ra
80402250:	27bd0018 	addiu	sp,sp,24
80402254:	081007b7 	j	80401edc <rtems_termios_refill_transmitter>
80402258:	27bd0018 	addiu	sp,sp,24
8040225c:	8c8400c8 	lw	a0,200(a0)
80402260:	0c101224 	jal	80404890 <rtems_event_send>
80402264:	24050002 	li	a1,2
80402268:	1040fff7 	beqz	v0,80402248 <rtems_termios_dequeue_characters+0x4c>
8040226c:	8fbf0014 	lw	ra,20(sp)
80402270:	0c1016d4 	jal	80405b50 <rtems_fatal_error_occurred>
80402274:	00402021 	move	a0,v0

80402278 <rtems_termios_enqueue_raw_characters>:
80402278:	8c8200cc 	lw	v0,204(a0)
8040227c:	27bdffb8 	addiu	sp,sp,-72
80402280:	3c038041 	lui	v1,0x8041
80402284:	afb3002c 	sw	s3,44(sp)
80402288:	00021140 	sll	v0,v0,0x5
8040228c:	247341d0 	addiu	s3,v1,16848
80402290:	02621021 	addu	v0,s3,v0
80402294:	8c420010 	lw	v0,16(v0)
80402298:	afb40030 	sw	s4,48(sp)
8040229c:	afb20028 	sw	s2,40(sp)
804022a0:	afb10024 	sw	s1,36(sp)
804022a4:	afbf0044 	sw	ra,68(sp)
804022a8:	afbe0040 	sw	s8,64(sp)
804022ac:	afb7003c 	sw	s7,60(sp)
804022b0:	afb60038 	sw	s6,56(sp)
804022b4:	afb50034 	sw	s5,52(sp)
804022b8:	afb00020 	sw	s0,32(sp)
804022bc:	00808821 	move	s1,a0
804022c0:	00a09021 	move	s2,a1
804022c4:	10400035 	beqz	v0,8040239c <rtems_termios_enqueue_raw_characters+0x124>
804022c8:	00c0a021 	move	s4,a2
804022cc:	10c0000d 	beqz	a2,80402304 <rtems_termios_enqueue_raw_characters+0x8c>
804022d0:	00000000 	nop
804022d4:	081008bb 	j	804022ec <rtems_termios_enqueue_raw_characters+0x74>
804022d8:	00c08021 	move	s0,a2
804022dc:	8e2200cc 	lw	v0,204(s1)
804022e0:	00021140 	sll	v0,v0,0x5
804022e4:	02621021 	addu	v0,s3,v0
804022e8:	8c420010 	lw	v0,16(v0)
804022ec:	82440000 	lb	a0,0(s2)
804022f0:	02202821 	move	a1,s1
804022f4:	0040f809 	jalr	v0
804022f8:	2610ffff 	addiu	s0,s0,-1
804022fc:	1600fff7 	bnez	s0,804022dc <rtems_termios_enqueue_raw_characters+0x64>
80402300:	26520001 	addiu	s2,s2,1
80402304:	8e2200e4 	lw	v0,228(s1)
80402308:	14400017 	bnez	v0,80402368 <rtems_termios_enqueue_raw_characters+0xf0>
8040230c:	8fbf0044 	lw	ra,68(sp)
80402310:	8e2200dc 	lw	v0,220(s1)
80402314:	10400015 	beqz	v0,8040236c <rtems_termios_enqueue_raw_characters+0xf4>
80402318:	0000b821 	move	s7,zero
8040231c:	8e2500e0 	lw	a1,224(s1)
80402320:	0040f809 	jalr	v0
80402324:	26240030 	addiu	a0,s1,48
80402328:	8fbf0044 	lw	ra,68(sp)
8040232c:	24020001 	li	v0,1
80402330:	0000b821 	move	s7,zero
80402334:	ae2200e4 	sw	v0,228(s1)
80402338:	8fbe0040 	lw	s8,64(sp)
8040233c:	02e01021 	move	v0,s7
80402340:	8fb7003c 	lw	s7,60(sp)
80402344:	8fb60038 	lw	s6,56(sp)
80402348:	8fb50034 	lw	s5,52(sp)
8040234c:	8fb40030 	lw	s4,48(sp)
80402350:	8fb3002c 	lw	s3,44(sp)
80402354:	8fb20028 	lw	s2,40(sp)
80402358:	8fb10024 	lw	s1,36(sp)
8040235c:	8fb00020 	lw	s0,32(sp)
80402360:	03e00008 	jr	ra
80402364:	27bd0048 	addiu	sp,sp,72
80402368:	0000b821 	move	s7,zero
8040236c:	02e01021 	move	v0,s7
80402370:	8fbe0040 	lw	s8,64(sp)
80402374:	8fb7003c 	lw	s7,60(sp)
80402378:	8fb60038 	lw	s6,56(sp)
8040237c:	8fb50034 	lw	s5,52(sp)
80402380:	8fb40030 	lw	s4,48(sp)
80402384:	8fb3002c 	lw	s3,44(sp)
80402388:	8fb20028 	lw	s2,40(sp)
8040238c:	8fb10024 	lw	s1,36(sp)
80402390:	8fb00020 	lw	s0,32(sp)
80402394:	03e00008 	jr	ra
80402398:	27bd0048 	addiu	sp,sp,72
8040239c:	2482004a 	addiu	v0,a0,74
804023a0:	24830030 	addiu	v1,a0,48
804023a4:	2407ffff 	li	a3,-1
804023a8:	2694ffff 	addiu	s4,s4,-1
804023ac:	afa20014 	sw	v0,20(sp)
804023b0:	afa30010 	sw	v1,16(sp)
804023b4:	0000b821 	move	s7,zero
804023b8:	0000b021 	move	s6,zero
804023bc:	12870052 	beq	s4,a3,80402508 <rtems_termios_enqueue_raw_characters+0x290>
804023c0:	241efffe 	li	s8,-2
804023c4:	8e2200b8 	lw	v0,184(s1)
804023c8:	30420200 	andi	v0,v0,0x200
804023cc:	10400007 	beqz	v0,804023ec <rtems_termios_enqueue_raw_characters+0x174>
804023d0:	82530000 	lb	s3,0(s2)
804023d4:	9222004a 	lbu	v0,74(s1)
804023d8:	1262007c 	beq	s3,v0,804025cc <rtems_termios_enqueue_raw_characters+0x354>
804023dc:	00000000 	nop
804023e0:	92220049 	lbu	v0,73(s1)
804023e4:	1262005a 	beq	s3,v0,80402550 <rtems_termios_enqueue_raw_characters+0x2d8>
804023e8:	00000000 	nop
804023ec:	16c0005c 	bnez	s6,80402560 <rtems_termios_enqueue_raw_characters+0x2e8>
804023f0:	00000000 	nop
804023f4:	8e220060 	lw	v0,96(s1)
804023f8:	8e230064 	lw	v1,100(s1)
804023fc:	24420001 	addiu	v0,v0,1
80402400:	0043001b 	divu	zero,v0,v1
80402404:	006001f4 	teq	v1,zero,0x7
80402408:	00008010 	mfhi	s0
8040240c:	40156000 	mfc0	s5,c0_status
80402410:	00000000 	nop
80402414:	02be1024 	and	v0,s5,s8
80402418:	40826000 	mtc0	v0,c0_status
8040241c:	00000000 	nop
80402420:	8e22005c 	lw	v0,92(s1)
80402424:	8e230064 	lw	v1,100(s1)
80402428:	8e250064 	lw	a1,100(s1)
8040242c:	00621823 	subu	v1,v1,v0
80402430:	00701821 	addu	v1,v1,s0
80402434:	0065001b 	divu	zero,v1,a1
80402438:	00a001f4 	teq	a1,zero,0x7
8040243c:	8e2400c0 	lw	a0,192(s1)
80402440:	00001010 	mfhi	v0
80402444:	0082102b 	sltu	v0,a0,v0
80402448:	10400012 	beqz	v0,80402494 <rtems_termios_enqueue_raw_characters+0x21c>
8040244c:	00000000 	nop
80402450:	8e2200b8 	lw	v0,184(s1)
80402454:	30420001 	andi	v0,v0,0x1
80402458:	1440000e 	bnez	v0,80402494 <rtems_termios_enqueue_raw_characters+0x21c>
8040245c:	00000000 	nop
80402460:	8e2200b8 	lw	v0,184(s1)
80402464:	34420001 	ori	v0,v0,0x1
80402468:	ae2200b8 	sw	v0,184(s1)
8040246c:	8e2300b8 	lw	v1,184(s1)
80402470:	24020400 	li	v0,1024
80402474:	30630402 	andi	v1,v1,0x402
80402478:	1062006c 	beq	v1,v0,8040262c <rtems_termios_enqueue_raw_characters+0x3b4>
8040247c:	00000000 	nop
80402480:	8e2200b8 	lw	v0,184(s1)
80402484:	24030100 	li	v1,256
80402488:	30420104 	andi	v0,v0,0x104
8040248c:	10430079 	beq	v0,v1,80402674 <rtems_termios_enqueue_raw_characters+0x3fc>
80402490:	00000000 	nop
80402494:	40026000 	mfc0	v0,c0_status
80402498:	00000000 	nop
8040249c:	005e1024 	and	v0,v0,s8
804024a0:	32a30001 	andi	v1,s5,0x1
804024a4:	00431025 	or	v0,v0,v1
804024a8:	40826000 	mtc0	v0,c0_status
804024ac:	00000000 	nop
804024b0:	8e23005c 	lw	v1,92(s1)
804024b4:	1070004c 	beq	v1,s0,804025e8 <rtems_termios_enqueue_raw_characters+0x370>
804024b8:	00000000 	nop
804024bc:	8e220058 	lw	v0,88(s1)
804024c0:	00501021 	addu	v0,v0,s0
804024c4:	a0530000 	sb	s3,0(v0)
804024c8:	8e2300e4 	lw	v1,228(s1)
804024cc:	1460000a 	bnez	v1,804024f8 <rtems_termios_enqueue_raw_characters+0x280>
804024d0:	ae300060 	sw	s0,96(s1)
804024d4:	8e2200dc 	lw	v0,220(s1)
804024d8:	10400007 	beqz	v0,804024f8 <rtems_termios_enqueue_raw_characters+0x280>
804024dc:	8fa40010 	lw	a0,16(sp)
804024e0:	8e2500e0 	lw	a1,224(s1)
804024e4:	0040f809 	jalr	v0
804024e8:	afa70018 	sw	a3,24(sp)
804024ec:	24040001 	li	a0,1
804024f0:	8fa70018 	lw	a3,24(sp)
804024f4:	ae2400e4 	sw	a0,228(s1)
804024f8:	26520001 	addiu	s2,s2,1
804024fc:	2694ffff 	addiu	s4,s4,-1
80402500:	1687ffb0 	bne	s4,a3,804023c4 <rtems_termios_enqueue_raw_characters+0x14c>
80402504:	00000000 	nop
80402508:	8e220078 	lw	v0,120(s1)
8040250c:	8e240068 	lw	a0,104(s1)
80402510:	00571021 	addu	v0,v0,s7
80402514:	0c101504 	jal	80405410 <rtems_semaphore_release>
80402518:	ae220078 	sw	v0,120(s1)
8040251c:	8fbf0044 	lw	ra,68(sp)
80402520:	02e01021 	move	v0,s7
80402524:	8fbe0040 	lw	s8,64(sp)
80402528:	8fb7003c 	lw	s7,60(sp)
8040252c:	8fb60038 	lw	s6,56(sp)
80402530:	8fb50034 	lw	s5,52(sp)
80402534:	8fb40030 	lw	s4,48(sp)
80402538:	8fb3002c 	lw	s3,44(sp)
8040253c:	8fb20028 	lw	s2,40(sp)
80402540:	8fb10024 	lw	s1,36(sp)
80402544:	8fb00020 	lw	s0,32(sp)
80402548:	03e00008 	jr	ra
8040254c:	27bd0048 	addiu	sp,sp,72
80402550:	8e2200b8 	lw	v0,184(s1)
80402554:	2404ffef 	li	a0,-17
80402558:	00441024 	and	v0,v0,a0
8040255c:	ae2200b8 	sw	v0,184(s1)
80402560:	8e2200b8 	lw	v0,184(s1)
80402564:	24030020 	li	v1,32
80402568:	30420030 	andi	v0,v0,0x30
8040256c:	10430003 	beq	v0,v1,8040257c <rtems_termios_enqueue_raw_characters+0x304>
80402570:	24160001 	li	s6,1
80402574:	0810093f 	j	804024fc <rtems_termios_enqueue_raw_characters+0x284>
80402578:	26520001 	addiu	s2,s2,1
8040257c:	40106000 	mfc0	s0,c0_status
80402580:	00000000 	nop
80402584:	021e1024 	and	v0,s0,s8
80402588:	40826000 	mtc0	v0,c0_status
8040258c:	00000000 	nop
80402590:	8e2200b8 	lw	v0,184(s1)
80402594:	2404ffdf 	li	a0,-33
80402598:	8e230094 	lw	v1,148(s1)
8040259c:	00441024 	and	v0,v0,a0
804025a0:	14600014 	bnez	v1,804025f4 <rtems_termios_enqueue_raw_characters+0x37c>
804025a4:	ae2200b8 	sw	v0,184(s1)
804025a8:	40026000 	mfc0	v0,c0_status
804025ac:	00000000 	nop
804025b0:	005e1024 	and	v0,v0,s8
804025b4:	32030001 	andi	v1,s0,0x1
804025b8:	00431025 	or	v0,v0,v1
804025bc:	40826000 	mtc0	v0,c0_status
804025c0:	00000000 	nop
804025c4:	0810095d 	j	80402574 <rtems_termios_enqueue_raw_characters+0x2fc>
804025c8:	24160001 	li	s6,1
804025cc:	92220049 	lbu	v0,73(s1)
804025d0:	12620012 	beq	s3,v0,8040261c <rtems_termios_enqueue_raw_characters+0x3a4>
804025d4:	00000000 	nop
804025d8:	8e2200b8 	lw	v0,184(s1)
804025dc:	34420010 	ori	v0,v0,0x10
804025e0:	08100958 	j	80402560 <rtems_termios_enqueue_raw_characters+0x2e8>
804025e4:	ae2200b8 	sw	v0,184(s1)
804025e8:	26f70001 	addiu	s7,s7,1
804025ec:	0810093f 	j	804024fc <rtems_termios_enqueue_raw_characters+0x284>
804025f0:	26520001 	addiu	s2,s2,1
804025f4:	8e220084 	lw	v0,132(s1)
804025f8:	8e25007c 	lw	a1,124(s1)
804025fc:	8e2300a4 	lw	v1,164(s1)
80402600:	8e240010 	lw	a0,16(s1)
80402604:	afa70018 	sw	a3,24(sp)
80402608:	00a22821 	addu	a1,a1,v0
8040260c:	0060f809 	jalr	v1
80402610:	24060001 	li	a2,1
80402614:	0810096a 	j	804025a8 <rtems_termios_enqueue_raw_characters+0x330>
80402618:	8fa70018 	lw	a3,24(sp)
8040261c:	8e2200b8 	lw	v0,184(s1)
80402620:	38420010 	xori	v0,v0,0x10
80402624:	08100958 	j	80402560 <rtems_termios_enqueue_raw_characters+0x2e8>
80402628:	ae2200b8 	sw	v0,184(s1)
8040262c:	8e2200b8 	lw	v0,184(s1)
80402630:	30420020 	andi	v0,v0,0x20
80402634:	14400004 	bnez	v0,80402648 <rtems_termios_enqueue_raw_characters+0x3d0>
80402638:	00000000 	nop
8040263c:	8e220094 	lw	v0,148(s1)
80402640:	1440ff94 	bnez	v0,80402494 <rtems_termios_enqueue_raw_characters+0x21c>
80402644:	00000000 	nop
80402648:	8e2200b8 	lw	v0,184(s1)
8040264c:	8e2300a4 	lw	v1,164(s1)
80402650:	34420002 	ori	v0,v0,0x2
80402654:	8e240010 	lw	a0,16(s1)
80402658:	8fa50014 	lw	a1,20(sp)
8040265c:	afa70018 	sw	a3,24(sp)
80402660:	ae2200b8 	sw	v0,184(s1)
80402664:	0060f809 	jalr	v1
80402668:	24060001 	li	a2,1
8040266c:	08100925 	j	80402494 <rtems_termios_enqueue_raw_characters+0x21c>
80402670:	8fa70018 	lw	a3,24(sp)
80402674:	8e2200b8 	lw	v0,184(s1)
80402678:	8e2300ac 	lw	v1,172(s1)
8040267c:	34420004 	ori	v0,v0,0x4
80402680:	1060ff84 	beqz	v1,80402494 <rtems_termios_enqueue_raw_characters+0x21c>
80402684:	ae2200b8 	sw	v0,184(s1)
80402688:	8e240010 	lw	a0,16(s1)
8040268c:	0060f809 	jalr	v1
80402690:	afa70018 	sw	a3,24(sp)
80402694:	08100925 	j	80402494 <rtems_termios_enqueue_raw_characters+0x21c>
80402698:	8fa70018 	lw	a3,24(sp)

8040269c <rtems_termios_puts>:
8040269c:	8cc200b4 	lw	v0,180(a2)
804026a0:	27bdffc8 	addiu	sp,sp,-56
804026a4:	afbe0030 	sw	s8,48(sp)
804026a8:	afb60028 	sw	s6,40(sp)
804026ac:	afb00010 	sw	s0,16(sp)
804026b0:	afbf0034 	sw	ra,52(sp)
804026b4:	afb7002c 	sw	s7,44(sp)
804026b8:	afb50024 	sw	s5,36(sp)
804026bc:	afb40020 	sw	s4,32(sp)
804026c0:	afb3001c 	sw	s3,28(sp)
804026c4:	afb20018 	sw	s2,24(sp)
804026c8:	afb10014 	sw	s1,20(sp)
804026cc:	00c08021 	move	s0,a2
804026d0:	00801821 	move	v1,a0
804026d4:	00a0b021 	move	s6,a1
804026d8:	10400052 	beqz	v0,80402824 <rtems_termios_puts+0x188>
804026dc:	0080f021 	move	s8,a0
804026e0:	8cd50080 	lw	s5,128(a2)
804026e4:	10a0005f 	beqz	a1,80402864 <rtems_termios_puts+0x1c8>
804026e8:	2413fffe 	li	s3,-2
804026ec:	24140002 	li	s4,2
804026f0:	8e030088 	lw	v1,136(s0)
804026f4:	26a20001 	addiu	v0,s5,1
804026f8:	0043001b 	divu	zero,v0,v1
804026fc:	006001f4 	teq	v1,zero,0x7
80402700:	0000b810 	mfhi	s7
80402704:	02e0a821 	move	s5,s7
80402708:	40036000 	mfc0	v1,c0_status
8040270c:	00000000 	nop
80402710:	00731024 	and	v0,v1,s3
80402714:	40826000 	mtc0	v0,c0_status
80402718:	00000000 	nop
8040271c:	30710001 	andi	s1,v1,0x1
80402720:	8e120084 	lw	s2,132(s0)
80402724:	16570017 	bne	s2,s7,80402784 <rtems_termios_puts+0xe8>
80402728:	00000000 	nop
8040272c:	ae140094 	sw	s4,148(s0)
80402730:	40026000 	mfc0	v0,c0_status
80402734:	00000000 	nop
80402738:	00531024 	and	v0,v0,s3
8040273c:	02221025 	or	v0,s1,v0
80402740:	40826000 	mtc0	v0,c0_status
80402744:	00000000 	nop
80402748:	8e04008c 	lw	a0,140(s0)
8040274c:	00002821 	move	a1,zero
80402750:	0c1013f0 	jal	80404fc0 <rtems_semaphore_obtain>
80402754:	00003021 	move	a2,zero
80402758:	14400027 	bnez	v0,804027f8 <rtems_termios_puts+0x15c>
8040275c:	00000000 	nop
80402760:	40026000 	mfc0	v0,c0_status
80402764:	00000000 	nop
80402768:	00531824 	and	v1,v0,s3
8040276c:	40836000 	mtc0	v1,c0_status
80402770:	00000000 	nop
80402774:	30510001 	andi	s1,v0,0x1
80402778:	8e020084 	lw	v0,132(s0)
8040277c:	1052ffeb 	beq	v0,s2,8040272c <rtems_termios_puts+0x90>
80402780:	00000000 	nop
80402784:	8e040080 	lw	a0,128(s0)
80402788:	8e02007c 	lw	v0,124(s0)
8040278c:	93c30000 	lbu	v1,0(s8)
80402790:	00441021 	addu	v0,v0,a0
80402794:	a0430000 	sb	v1,0(v0)
80402798:	8e040094 	lw	a0,148(s0)
8040279c:	ae170080 	sw	s7,128(s0)
804027a0:	1480000a 	bnez	a0,804027cc <rtems_termios_puts+0x130>
804027a4:	00000000 	nop
804027a8:	8e0200b8 	lw	v0,184(s0)
804027ac:	30420010 	andi	v0,v0,0x10
804027b0:	10400013 	beqz	v0,80402800 <rtems_termios_puts+0x164>
804027b4:	00000000 	nop
804027b8:	8e0200b8 	lw	v0,184(s0)
804027bc:	34420020 	ori	v0,v0,0x20
804027c0:	ae0200b8 	sw	v0,184(s0)
804027c4:	24020001 	li	v0,1
804027c8:	ae020094 	sw	v0,148(s0)
804027cc:	40026000 	mfc0	v0,c0_status
804027d0:	00000000 	nop
804027d4:	00531024 	and	v0,v0,s3
804027d8:	00511025 	or	v0,v0,s1
804027dc:	40826000 	mtc0	v0,c0_status
804027e0:	00000000 	nop
804027e4:	26d6ffff 	addiu	s6,s6,-1
804027e8:	12c0001e 	beqz	s6,80402864 <rtems_termios_puts+0x1c8>
804027ec:	27de0001 	addiu	s8,s8,1
804027f0:	081009bc 	j	804026f0 <rtems_termios_puts+0x54>
804027f4:	00000000 	nop
804027f8:	0c1016d4 	jal	80405b50 <rtems_fatal_error_occurred>
804027fc:	00402021 	move	a0,v0
80402800:	8e020084 	lw	v0,132(s0)
80402804:	8e05007c 	lw	a1,124(s0)
80402808:	8e0300a4 	lw	v1,164(s0)
8040280c:	8e040010 	lw	a0,16(s0)
80402810:	00a22821 	addu	a1,a1,v0
80402814:	0060f809 	jalr	v1
80402818:	24060001 	li	a2,1
8040281c:	081009f2 	j	804027c8 <rtems_termios_puts+0x12c>
80402820:	24020001 	li	v0,1
80402824:	8cc40010 	lw	a0,16(a2)
80402828:	8cd900a4 	lw	t9,164(a2)
8040282c:	8fbf0034 	lw	ra,52(sp)
80402830:	02c03021 	move	a2,s6
80402834:	8fbe0030 	lw	s8,48(sp)
80402838:	8fb7002c 	lw	s7,44(sp)
8040283c:	8fb60028 	lw	s6,40(sp)
80402840:	8fb50024 	lw	s5,36(sp)
80402844:	8fb40020 	lw	s4,32(sp)
80402848:	8fb3001c 	lw	s3,28(sp)
8040284c:	8fb20018 	lw	s2,24(sp)
80402850:	8fb10014 	lw	s1,20(sp)
80402854:	8fb00010 	lw	s0,16(sp)
80402858:	00602821 	move	a1,v1
8040285c:	03200008 	jr	t9
80402860:	27bd0038 	addiu	sp,sp,56
80402864:	8fbf0034 	lw	ra,52(sp)
80402868:	8fbe0030 	lw	s8,48(sp)
8040286c:	8fb7002c 	lw	s7,44(sp)
80402870:	8fb60028 	lw	s6,40(sp)
80402874:	8fb50024 	lw	s5,36(sp)
80402878:	8fb40020 	lw	s4,32(sp)
8040287c:	8fb3001c 	lw	s3,28(sp)
80402880:	8fb20018 	lw	s2,24(sp)
80402884:	8fb10014 	lw	s1,20(sp)
80402888:	8fb00010 	lw	s0,16(sp)
8040288c:	03e00008 	jr	ra
80402890:	27bd0038 	addiu	sp,sp,56

80402894 <oproc>:
80402894:	8ca30034 	lw	v1,52(a1)
80402898:	27bdffe8 	addiu	sp,sp,-24
8040289c:	30620001 	andi	v0,v1,0x1
804028a0:	afb00010 	sw	s0,16(sp)
804028a4:	afbf0014 	sw	ra,20(sp)
804028a8:	00a08021 	move	s0,a1
804028ac:	1040000e 	beqz	v0,804028e8 <oproc+0x54>
804028b0:	a3a40018 	sb	a0,24(sp)
804028b4:	308600ff 	andi	a2,a0,0xff
804028b8:	24020009 	li	v0,9
804028bc:	10c20022 	beq	a2,v0,80402948 <oproc+0xb4>
804028c0:	2cc2000a 	sltiu	v0,a2,10
804028c4:	10400010 	beqz	v0,80402908 <oproc+0x74>
804028c8:	2402000a 	li	v0,10
804028cc:	24020008 	li	v0,8
804028d0:	14c20011 	bne	a2,v0,80402918 <oproc+0x84>
804028d4:	30620002 	andi	v0,v1,0x2
804028d8:	8ca20028 	lw	v0,40(a1)
804028dc:	18400002 	blez	v0,804028e8 <oproc+0x54>
804028e0:	2442ffff 	addiu	v0,v0,-1
804028e4:	aca20028 	sw	v0,40(a1)
804028e8:	02003021 	move	a2,s0
804028ec:	27a40018 	addiu	a0,sp,24
804028f0:	0c1009a7 	jal	8040269c <rtems_termios_puts>
804028f4:	24050001 	li	a1,1
804028f8:	8fbf0014 	lw	ra,20(sp)
804028fc:	8fb00010 	lw	s0,16(sp)
80402900:	03e00008 	jr	ra
80402904:	27bd0018 	addiu	sp,sp,24
80402908:	10c20019 	beq	a2,v0,80402970 <oproc+0xdc>
8040290c:	2402000d 	li	v0,13
80402910:	10c20024 	beq	a2,v0,804029a4 <oproc+0x110>
80402914:	30620002 	andi	v0,v1,0x2
80402918:	1440002f 	bnez	v0,804029d8 <oproc+0x144>
8040291c:	3c058041 	lui	a1,0x8041
80402920:	8ca23890 	lw	v0,14480(a1)
80402924:	00461021 	addu	v0,v0,a2
80402928:	90430000 	lbu	v1,0(v0)
8040292c:	30630020 	andi	v1,v1,0x20
80402930:	1460ffee 	bnez	v1,804028ec <oproc+0x58>
80402934:	02003021 	move	a2,s0
80402938:	8e020028 	lw	v0,40(s0)
8040293c:	24420001 	addiu	v0,v0,1
80402940:	08100a3b 	j	804028ec <oproc+0x58>
80402944:	ae020028 	sw	v0,40(s0)
80402948:	8ca60028 	lw	a2,40(a1)
8040294c:	24020008 	li	v0,8
80402950:	30651800 	andi	a1,v1,0x1800
80402954:	30c40007 	andi	a0,a2,0x7
80402958:	24031800 	li	v1,6144
8040295c:	10a30027 	beq	a1,v1,804029fc <oproc+0x168>
80402960:	00443823 	subu	a3,v0,a0
80402964:	00e61021 	addu	v0,a3,a2
80402968:	08100a3a 	j	804028e8 <oproc+0x54>
8040296c:	ae020028 	sw	v0,40(s0)
80402970:	30620020 	andi	v0,v1,0x20
80402974:	10400002 	beqz	v0,80402980 <oproc+0xec>
80402978:	30620004 	andi	v0,v1,0x4
8040297c:	aca00028 	sw	zero,40(a1)
80402980:	1040ffda 	beqz	v0,804028ec <oproc+0x58>
80402984:	02003021 	move	a2,s0
80402988:	3c048041 	lui	a0,0x8041
8040298c:	2484346c 	addiu	a0,a0,13420
80402990:	24050001 	li	a1,1
80402994:	0c1009a7 	jal	8040269c <rtems_termios_puts>
80402998:	02003021 	move	a2,s0
8040299c:	08100a3a 	j	804028e8 <oproc+0x54>
804029a0:	ae000028 	sw	zero,40(s0)
804029a4:	30620010 	andi	v0,v1,0x10
804029a8:	10400004 	beqz	v0,804029bc <oproc+0x128>
804029ac:	30620008 	andi	v0,v1,0x8
804029b0:	8ca20028 	lw	v0,40(a1)
804029b4:	1040ffd0 	beqz	v0,804028f8 <oproc+0x64>
804029b8:	30620008 	andi	v0,v1,0x8
804029bc:	10400004 	beqz	v0,804029d0 <oproc+0x13c>
804029c0:	2402000a 	li	v0,10
804029c4:	30630020 	andi	v1,v1,0x20
804029c8:	1060ffc7 	beqz	v1,804028e8 <oproc+0x54>
804029cc:	a3a20018 	sb	v0,24(sp)
804029d0:	08100a3a 	j	804028e8 <oproc+0x54>
804029d4:	ae000028 	sw	zero,40(s0)
804029d8:	8ca23890 	lw	v0,14480(a1)
804029dc:	24c4ffe0 	addiu	a0,a2,-32
804029e0:	00461021 	addu	v0,v0,a2
804029e4:	90430000 	lbu	v1,0(v0)
804029e8:	30630002 	andi	v1,v1,0x2
804029ec:	0083300b 	movn	a2,a0,v1
804029f0:	a3a60018 	sb	a2,24(sp)
804029f4:	08100a48 	j	80402920 <oproc+0x8c>
804029f8:	30c600ff 	andi	a2,a2,0xff
804029fc:	00e61021 	addu	v0,a3,a2
80402a00:	3c048041 	lui	a0,0x8041
80402a04:	ae020028 	sw	v0,40(s0)
80402a08:	24843470 	addiu	a0,a0,13424
80402a0c:	00e02821 	move	a1,a3
80402a10:	0c1009a7 	jal	8040269c <rtems_termios_puts>
80402a14:	02003021 	move	a2,s0
80402a18:	08100a3f 	j	804028fc <oproc+0x68>
80402a1c:	8fbf0014 	lw	ra,20(sp)

80402a20 <echo>:
80402a20:	8ca2003c 	lw	v0,60(a1)
80402a24:	27bdffe0 	addiu	sp,sp,-32
80402a28:	30420200 	andi	v0,v0,0x200
80402a2c:	afb00018 	sw	s0,24(sp)
80402a30:	afbf001c 	sw	ra,28(sp)
80402a34:	00a08021 	move	s0,a1
80402a38:	10400008 	beqz	v0,80402a5c <echo+0x3c>
80402a3c:	308400ff 	andi	a0,a0,0xff
80402a40:	3c028041 	lui	v0,0x8041
80402a44:	8c433890 	lw	v1,14480(v0)
80402a48:	00641821 	addu	v1,v1,a0
80402a4c:	90620000 	lbu	v0,0(v1)
80402a50:	30420020 	andi	v0,v0,0x20
80402a54:	14400007 	bnez	v0,80402a74 <echo+0x54>
80402a58:	24020009 	li	v0,9
80402a5c:	0c100a25 	jal	80402894 <oproc>
80402a60:	02002821 	move	a1,s0
80402a64:	8fbf001c 	lw	ra,28(sp)
80402a68:	8fb00018 	lw	s0,24(sp)
80402a6c:	03e00008 	jr	ra
80402a70:	27bd0020 	addiu	sp,sp,32
80402a74:	1082fff9 	beq	a0,v0,80402a5c <echo+0x3c>
80402a78:	2402000a 	li	v0,10
80402a7c:	1082fff7 	beq	a0,v0,80402a5c <echo+0x3c>
80402a80:	38830040 	xori	v1,a0,0x40
80402a84:	2402005e 	li	v0,94
80402a88:	27a40010 	addiu	a0,sp,16
80402a8c:	02003021 	move	a2,s0
80402a90:	24050002 	li	a1,2
80402a94:	a3a20010 	sb	v0,16(sp)
80402a98:	0c1009a7 	jal	8040269c <rtems_termios_puts>
80402a9c:	a3a30011 	sb	v1,17(sp)
80402aa0:	8e020028 	lw	v0,40(s0)
80402aa4:	8fbf001c 	lw	ra,28(sp)
80402aa8:	24420002 	addiu	v0,v0,2
80402aac:	ae020028 	sw	v0,40(s0)
80402ab0:	8fb00018 	lw	s0,24(sp)
80402ab4:	03e00008 	jr	ra
80402ab8:	27bd0020 	addiu	sp,sp,32

80402abc <erase>:
80402abc:	8c860020 	lw	a2,32(a0)
80402ac0:	27bdffd0 	addiu	sp,sp,-48
80402ac4:	afb20018 	sw	s2,24(sp)
80402ac8:	afb10014 	sw	s1,20(sp)
80402acc:	afbf002c 	sw	ra,44(sp)
80402ad0:	afb60028 	sw	s6,40(sp)
80402ad4:	afb50024 	sw	s5,36(sp)
80402ad8:	afb40020 	sw	s4,32(sp)
80402adc:	afb3001c 	sw	s3,28(sp)
80402ae0:	afb00010 	sw	s0,16(sp)
80402ae4:	00808821 	move	s1,a0
80402ae8:	10c00030 	beqz	a2,80402bac <erase+0xf0>
80402aec:	00a09021 	move	s2,a1
80402af0:	14a00029 	bnez	a1,80402b98 <erase+0xdc>
80402af4:	3c028041 	lui	v0,0x8041
80402af8:	8c87003c 	lw	a3,60(a0)
80402afc:	3c038041 	lui	v1,0x8041
80402b00:	24563480 	addiu	s6,v0,13440
80402b04:	2474347c 	addiu	s4,v1,13436
80402b08:	24130009 	li	s3,9
80402b0c:	3c158041 	lui	s5,0x8041
80402b10:	8e28001c 	lw	t0,28(s1)
80402b14:	24c5ffff 	addiu	a1,a2,-1
80402b18:	ae250020 	sw	a1,32(s1)
80402b1c:	01051021 	addu	v0,t0,a1
80402b20:	30e30008 	andi	v1,a3,0x8
80402b24:	10600015 	beqz	v1,80402b7c <erase+0xc0>
80402b28:	80440000 	lb	a0,0(v0)
80402b2c:	16400004 	bnez	s2,80402b40 <erase+0x84>
80402b30:	309000ff 	andi	s0,a0,0xff
80402b34:	30e20010 	andi	v0,a3,0x10
80402b38:	10400076 	beqz	v0,80402d14 <erase+0x258>
80402b3c:	8fbf002c 	lw	ra,44(sp)
80402b40:	1213003f 	beq	s0,s3,80402c40 <erase+0x184>
80402b44:	8ea23890 	lw	v0,14480(s5)
80402b48:	00501021 	addu	v0,v0,s0
80402b4c:	90430000 	lbu	v1,0(v0)
80402b50:	30630020 	andi	v1,v1,0x20
80402b54:	1460001f 	bnez	v1,80402bd4 <erase+0x118>
80402b58:	30e20200 	andi	v0,a3,0x200
80402b5c:	3c048041 	lui	a0,0x8041
80402b60:	24843480 	addiu	a0,a0,13440
80402b64:	24050003 	li	a1,3
80402b68:	0c1009a7 	jal	8040269c <rtems_termios_puts>
80402b6c:	02203021 	move	a2,s1
80402b70:	8e220028 	lw	v0,40(s1)
80402b74:	1440002f 	bnez	v0,80402c34 <erase+0x178>
80402b78:	00000000 	nop
80402b7c:	1240000c 	beqz	s2,80402bb0 <erase+0xf4>
80402b80:	8fbf002c 	lw	ra,44(sp)
80402b84:	8e260020 	lw	a2,32(s1)
80402b88:	10c00009 	beqz	a2,80402bb0 <erase+0xf4>
80402b8c:	00000000 	nop
80402b90:	08100ac4 	j	80402b10 <erase+0x54>
80402b94:	8e27003c 	lw	a3,60(s1)
80402b98:	8c87003c 	lw	a3,60(a0)
80402b9c:	30e20008 	andi	v0,a3,0x8
80402ba0:	1440004f 	bnez	v0,80402ce0 <erase+0x224>
80402ba4:	30e20010 	andi	v0,a3,0x10
80402ba8:	ac800020 	sw	zero,32(a0)
80402bac:	8fbf002c 	lw	ra,44(sp)
80402bb0:	8fb60028 	lw	s6,40(sp)
80402bb4:	8fb50024 	lw	s5,36(sp)
80402bb8:	8fb40020 	lw	s4,32(sp)
80402bbc:	8fb3001c 	lw	s3,28(sp)
80402bc0:	8fb20018 	lw	s2,24(sp)
80402bc4:	8fb10014 	lw	s1,20(sp)
80402bc8:	8fb00010 	lw	s0,16(sp)
80402bcc:	03e00008 	jr	ra
80402bd0:	27bd0030 	addiu	sp,sp,48
80402bd4:	1040ffe9 	beqz	v0,80402b7c <erase+0xc0>
80402bd8:	02c02021 	move	a0,s6
80402bdc:	24050003 	li	a1,3
80402be0:	0c1009a7 	jal	8040269c <rtems_termios_puts>
80402be4:	02203021 	move	a2,s1
80402be8:	8e220028 	lw	v0,40(s1)
80402bec:	14400054 	bnez	v0,80402d40 <erase+0x284>
80402bf0:	3c048041 	lui	a0,0x8041
80402bf4:	8ea23890 	lw	v0,14480(s5)
80402bf8:	00501021 	addu	v0,v0,s0
80402bfc:	90430000 	lbu	v1,0(v0)
80402c00:	30630020 	andi	v1,v1,0x20
80402c04:	1060ffd6 	beqz	v1,80402b60 <erase+0xa4>
80402c08:	00000000 	nop
80402c0c:	8e27003c 	lw	a3,60(s1)
80402c10:	30e20200 	andi	v0,a3,0x200
80402c14:	1040ffd9 	beqz	v0,80402b7c <erase+0xc0>
80402c18:	24843480 	addiu	a0,a0,13440
80402c1c:	24050003 	li	a1,3
80402c20:	0c1009a7 	jal	8040269c <rtems_termios_puts>
80402c24:	02203021 	move	a2,s1
80402c28:	8e220028 	lw	v0,40(s1)
80402c2c:	1040ffd3 	beqz	v0,80402b7c <erase+0xc0>
80402c30:	00000000 	nop
80402c34:	2442ffff 	addiu	v0,v0,-1
80402c38:	08100adf 	j	80402b7c <erase+0xc0>
80402c3c:	ae220028 	sw	v0,40(s1)
80402c40:	10a0000f 	beqz	a1,80402c80 <erase+0x1c4>
80402c44:	8e30002c 	lw	s0,44(s1)
80402c48:	8ea63890 	lw	a2,14480(s5)
80402c4c:	30e70200 	andi	a3,a3,0x200
80402c50:	00002021 	move	a0,zero
80402c54:	01041021 	addu	v0,t0,a0
80402c58:	90430000 	lbu	v1,0(v0)
80402c5c:	24840001 	addiu	a0,a0,1
80402c60:	1073001a 	beq	v1,s3,80402ccc <erase+0x210>
80402c64:	00c31021 	addu	v0,a2,v1
80402c68:	90420000 	lbu	v0,0(v0)
80402c6c:	30420020 	andi	v0,v0,0x20
80402c70:	10400012 	beqz	v0,80402cbc <erase+0x200>
80402c74:	26030002 	addiu	v1,s0,2
80402c78:	14a4fff6 	bne	a1,a0,80402c54 <erase+0x198>
80402c7c:	0067800b 	movn	s0,v1,a3
80402c80:	8e220028 	lw	v0,40(s1)
80402c84:	0202102a 	slt	v0,s0,v0
80402c88:	1040ffbc 	beqz	v0,80402b7c <erase+0xc0>
80402c8c:	00000000 	nop
80402c90:	02802021 	move	a0,s4
80402c94:	24050001 	li	a1,1
80402c98:	0c1009a7 	jal	8040269c <rtems_termios_puts>
80402c9c:	02203021 	move	a2,s1
80402ca0:	8e220028 	lw	v0,40(s1)
80402ca4:	2442ffff 	addiu	v0,v0,-1
80402ca8:	0202182a 	slt	v1,s0,v0
80402cac:	1460fff8 	bnez	v1,80402c90 <erase+0x1d4>
80402cb0:	ae220028 	sw	v0,40(s1)
80402cb4:	08100adf 	j	80402b7c <erase+0xc0>
80402cb8:	00000000 	nop
80402cbc:	14a4ffe5 	bne	a1,a0,80402c54 <erase+0x198>
80402cc0:	26100001 	addiu	s0,s0,1
80402cc4:	08100b21 	j	80402c84 <erase+0x1c8>
80402cc8:	8e220028 	lw	v0,40(s1)
80402ccc:	36020007 	ori	v0,s0,0x7
80402cd0:	14a4ffe0 	bne	a1,a0,80402c54 <erase+0x198>
80402cd4:	24500001 	addiu	s0,v0,1
80402cd8:	08100b21 	j	80402c84 <erase+0x1c8>
80402cdc:	8e220028 	lw	v0,40(s1)
80402ce0:	1440ff86 	bnez	v0,80402afc <erase+0x40>
80402ce4:	3c028041 	lui	v0,0x8041
80402ce8:	90840044 	lbu	a0,68(a0)
80402cec:	ae200020 	sw	zero,32(s1)
80402cf0:	0c100a88 	jal	80402a20 <echo>
80402cf4:	02202821 	move	a1,s1
80402cf8:	8e22003c 	lw	v0,60(s1)
80402cfc:	30420020 	andi	v0,v0,0x20
80402d00:	1040ffab 	beqz	v0,80402bb0 <erase+0xf4>
80402d04:	8fbf002c 	lw	ra,44(sp)
80402d08:	02202821 	move	a1,s1
80402d0c:	08100b47 	j	80402d1c <erase+0x260>
80402d10:	2404000a 	li	a0,10
80402d14:	92240043 	lbu	a0,67(s1)
80402d18:	02202821 	move	a1,s1
80402d1c:	8fb60028 	lw	s6,40(sp)
80402d20:	8fb50024 	lw	s5,36(sp)
80402d24:	8fb40020 	lw	s4,32(sp)
80402d28:	8fb3001c 	lw	s3,28(sp)
80402d2c:	8fb20018 	lw	s2,24(sp)
80402d30:	8fb10014 	lw	s1,20(sp)
80402d34:	8fb00010 	lw	s0,16(sp)
80402d38:	08100a88 	j	80402a20 <echo>
80402d3c:	27bd0030 	addiu	sp,sp,48
80402d40:	2442ffff 	addiu	v0,v0,-1
80402d44:	08100afd 	j	80402bf4 <erase+0x138>
80402d48:	ae220028 	sw	v0,40(s1)

80402d4c <iproc>:
80402d4c:	27bdffe0 	addiu	sp,sp,-32
80402d50:	afb10018 	sw	s1,24(sp)
80402d54:	00a08821 	move	s1,a1
80402d58:	8ca50030 	lw	a1,48(a1)
80402d5c:	afb00014 	sw	s0,20(sp)
80402d60:	309000ff 	andi	s0,a0,0xff
80402d64:	30a20020 	andi	v0,a1,0x20
80402d68:	3203007f 	andi	v1,s0,0x7f
80402d6c:	30a40200 	andi	a0,a1,0x200
80402d70:	afbf001c 	sw	ra,28(sp)
80402d74:	10800009 	beqz	a0,80402d9c <iproc+0x50>
80402d78:	0062800b 	movn	s0,v1,v0
80402d7c:	3c028041 	lui	v0,0x8041
80402d80:	8c433890 	lw	v1,14480(v0)
80402d84:	26040020 	addiu	a0,s0,32
80402d88:	00701821 	addu	v1,v1,s0
80402d8c:	90620000 	lbu	v0,0(v1)
80402d90:	30420001 	andi	v0,v0,0x1
80402d94:	0202200a 	movz	a0,s0,v0
80402d98:	309000ff 	andi	s0,a0,0xff
80402d9c:	2403000d 	li	v1,13
80402da0:	1203003e 	beq	s0,v1,80402e9c <iproc+0x150>
80402da4:	2402000a 	li	v0,10
80402da8:	12020019 	beq	s0,v0,80402e10 <iproc+0xc4>
80402dac:	30a20040 	andi	v0,a1,0x40
80402db0:	16000018 	bnez	s0,80402e14 <iproc+0xc8>
80402db4:	00000000 	nop
80402db8:	3c038041 	lui	v1,0x8041
80402dbc:	8c6237a4 	lw	v0,14244(v1)
80402dc0:	8e240020 	lw	a0,32(s1)
80402dc4:	2442ffff 	addiu	v0,v0,-1
80402dc8:	0082102a 	slt	v0,a0,v0
80402dcc:	10400037 	beqz	v0,80402eac <iproc+0x160>
80402dd0:	8fbf001c 	lw	ra,28(sp)
80402dd4:	8e22003c 	lw	v0,60(s1)
80402dd8:	30420008 	andi	v0,v0,0x8
80402ddc:	1440003b 	bnez	v0,80402ecc <iproc+0x180>
80402de0:	00000000 	nop
80402de4:	8e22001c 	lw	v0,28(s1)
80402de8:	24830001 	addiu	v1,a0,1
80402dec:	00441021 	addu	v0,v0,a0
80402df0:	a0500000 	sb	s0,0(v0)
80402df4:	ae230020 	sw	v1,32(s1)
80402df8:	00001021 	move	v0,zero
80402dfc:	8fbf001c 	lw	ra,28(sp)
80402e00:	8fb10018 	lw	s1,24(sp)
80402e04:	8fb00014 	lw	s0,20(sp)
80402e08:	03e00008 	jr	ra
80402e0c:	27bd0020 	addiu	sp,sp,32
80402e10:	0062800b 	movn	s0,v1,v0
80402e14:	8e23003c 	lw	v1,60(s1)
80402e18:	30620002 	andi	v0,v1,0x2
80402e1c:	1040ffe6 	beqz	v0,80402db8 <iproc+0x6c>
80402e20:	00000000 	nop
80402e24:	92220043 	lbu	v0,67(s1)
80402e28:	1050002d 	beq	v0,s0,80402ee0 <iproc+0x194>
80402e2c:	02202021 	move	a0,s1
80402e30:	92220044 	lbu	v0,68(s1)
80402e34:	1050003b 	beq	v0,s0,80402f24 <iproc+0x1d8>
80402e38:	00000000 	nop
80402e3c:	92220045 	lbu	v0,69(s1)
80402e40:	1050ffee 	beq	v0,s0,80402dfc <iproc+0xb0>
80402e44:	24020001 	li	v0,1
80402e48:	2402000a 	li	v0,10
80402e4c:	12020028 	beq	s0,v0,80402ef0 <iproc+0x1a4>
80402e50:	30620048 	andi	v0,v1,0x48
80402e54:	9222004c 	lbu	v0,76(s1)
80402e58:	10500004 	beq	v0,s0,80402e6c <iproc+0x120>
80402e5c:	30620008 	andi	v0,v1,0x8
80402e60:	92220051 	lbu	v0,81(s1)
80402e64:	1450ffd4 	bne	v0,s0,80402db8 <iproc+0x6c>
80402e68:	30620008 	andi	v0,v1,0x8
80402e6c:	10400003 	beqz	v0,80402e7c <iproc+0x130>
80402e70:	02002021 	move	a0,s0
80402e74:	0c100a88 	jal	80402a20 <echo>
80402e78:	02202821 	move	a1,s1
80402e7c:	8e220020 	lw	v0,32(s1)
80402e80:	8e23001c 	lw	v1,28(s1)
80402e84:	24440001 	addiu	a0,v0,1
80402e88:	00621821 	addu	v1,v1,v0
80402e8c:	a0700000 	sb	s0,0(v1)
80402e90:	ae240020 	sw	a0,32(s1)
80402e94:	08100b7f 	j	80402dfc <iproc+0xb0>
80402e98:	24020001 	li	v0,1
80402e9c:	30a20080 	andi	v0,a1,0x80
80402ea0:	10400007 	beqz	v0,80402ec0 <iproc+0x174>
80402ea4:	30a30100 	andi	v1,a1,0x100
80402ea8:	8fbf001c 	lw	ra,28(sp)
80402eac:	00001021 	move	v0,zero
80402eb0:	8fb10018 	lw	s1,24(sp)
80402eb4:	8fb00014 	lw	s0,20(sp)
80402eb8:	03e00008 	jr	ra
80402ebc:	27bd0020 	addiu	sp,sp,32
80402ec0:	2402000a 	li	v0,10
80402ec4:	08100b85 	j	80402e14 <iproc+0xc8>
80402ec8:	0043800b 	movn	s0,v0,v1
80402ecc:	02002021 	move	a0,s0
80402ed0:	0c100a88 	jal	80402a20 <echo>
80402ed4:	02202821 	move	a1,s1
80402ed8:	08100b79 	j	80402de4 <iproc+0x98>
80402edc:	8e240020 	lw	a0,32(s1)
80402ee0:	0c100aaf 	jal	80402abc <erase>
80402ee4:	00002821 	move	a1,zero
80402ee8:	08100b7f 	j	80402dfc <iproc+0xb0>
80402eec:	00001021 	move	v0,zero
80402ef0:	10400003 	beqz	v0,80402f00 <iproc+0x1b4>
80402ef4:	2404000a 	li	a0,10
80402ef8:	0c100a88 	jal	80402a20 <echo>
80402efc:	02202821 	move	a1,s1
80402f00:	8e240020 	lw	a0,32(s1)
80402f04:	8e22001c 	lw	v0,28(s1)
80402f08:	24850001 	addiu	a1,a0,1
80402f0c:	00441021 	addu	v0,v0,a0
80402f10:	2403000a 	li	v1,10
80402f14:	a0430000 	sb	v1,0(v0)
80402f18:	ae250020 	sw	a1,32(s1)
80402f1c:	08100b7f 	j	80402dfc <iproc+0xb0>
80402f20:	24020001 	li	v0,1
80402f24:	0c100aaf 	jal	80402abc <erase>
80402f28:	24050001 	li	a1,1
80402f2c:	08100b7f 	j	80402dfc <iproc+0xb0>
80402f30:	00001021 	move	v0,zero

80402f34 <siproc>:
80402f34:	8ca2003c 	lw	v0,60(a1)
80402f38:	27bdffe0 	addiu	sp,sp,-32
80402f3c:	30420e78 	andi	v0,v0,0xe78
80402f40:	afb10018 	sw	s1,24(sp)
80402f44:	afb00014 	sw	s0,20(sp)
80402f48:	afbf001c 	sw	ra,28(sp)
80402f4c:	00a08821 	move	s1,a1
80402f50:	14400007 	bnez	v0,80402f70 <siproc+0x3c>
80402f54:	309000ff 	andi	s0,a0,0xff
80402f58:	02002021 	move	a0,s0
80402f5c:	8fbf001c 	lw	ra,28(sp)
80402f60:	8fb10018 	lw	s1,24(sp)
80402f64:	8fb00014 	lw	s0,20(sp)
80402f68:	08100b53 	j	80402d4c <iproc>
80402f6c:	27bd0020 	addiu	sp,sp,32
80402f70:	8ca40018 	lw	a0,24(a1)
80402f74:	00003021 	move	a2,zero
80402f78:	0c1013f0 	jal	80404fc0 <rtems_semaphore_obtain>
80402f7c:	00002821 	move	a1,zero
80402f80:	02002021 	move	a0,s0
80402f84:	0c100b53 	jal	80402d4c <iproc>
80402f88:	02202821 	move	a1,s1
80402f8c:	8e240018 	lw	a0,24(s1)
80402f90:	0c101504 	jal	80405410 <rtems_semaphore_release>
80402f94:	00408021 	move	s0,v0
80402f98:	8fbf001c 	lw	ra,28(sp)
80402f9c:	02001021 	move	v0,s0
80402fa0:	8fb10018 	lw	s1,24(sp)
80402fa4:	8fb00014 	lw	s0,20(sp)
80402fa8:	03e00008 	jr	ra
80402fac:	27bd0020 	addiu	sp,sp,32

80402fb0 <rtems_termios_write>:
80402fb0:	8c820000 	lw	v0,0(a0)
80402fb4:	27bdffd8 	addiu	sp,sp,-40
80402fb8:	afb20018 	sw	s2,24(sp)
80402fbc:	8c520028 	lw	s2,40(v0)
80402fc0:	afb40020 	sw	s4,32(sp)
80402fc4:	0080a021 	move	s4,a0
80402fc8:	8e440018 	lw	a0,24(s2)
80402fcc:	00002821 	move	a1,zero
80402fd0:	00003021 	move	a2,zero
80402fd4:	afb3001c 	sw	s3,28(sp)
80402fd8:	afbf0024 	sw	ra,36(sp)
80402fdc:	afb10014 	sw	s1,20(sp)
80402fe0:	0c1013f0 	jal	80404fc0 <rtems_semaphore_obtain>
80402fe4:	afb00010 	sw	s0,16(sp)
80402fe8:	1440000e 	bnez	v0,80403024 <rtems_termios_write+0x74>
80402fec:	00409821 	move	s3,v0
80402ff0:	8e4300cc 	lw	v1,204(s2)
80402ff4:	3c028041 	lui	v0,0x8041
80402ff8:	00031940 	sll	v1,v1,0x5
80402ffc:	244241d0 	addiu	v0,v0,16848
80403000:	00431021 	addu	v0,v0,v1
80403004:	8c42000c 	lw	v0,12(v0)
80403008:	1040000f 	beqz	v0,80403048 <rtems_termios_write+0x98>
8040300c:	02402021 	move	a0,s2
80403010:	0040f809 	jalr	v0
80403014:	02802821 	move	a1,s4
80403018:	8e440018 	lw	a0,24(s2)
8040301c:	0c101504 	jal	80405410 <rtems_semaphore_release>
80403020:	00409821 	move	s3,v0
80403024:	8fbf0024 	lw	ra,36(sp)
80403028:	02601021 	move	v0,s3
8040302c:	8fb40020 	lw	s4,32(sp)
80403030:	8fb3001c 	lw	s3,28(sp)
80403034:	8fb20018 	lw	s2,24(sp)
80403038:	8fb10014 	lw	s1,20(sp)
8040303c:	8fb00010 	lw	s0,16(sp)
80403040:	03e00008 	jr	ra
80403044:	27bd0028 	addiu	sp,sp,40
80403048:	8e420034 	lw	v0,52(s2)
8040304c:	30420001 	andi	v0,v0,0x1
80403050:	10400017 	beqz	v0,804030b0 <rtems_termios_write+0x100>
80403054:	00000000 	nop
80403058:	8e91000c 	lw	s1,12(s4)
8040305c:	1220001a 	beqz	s1,804030c8 <rtems_termios_write+0x118>
80403060:	8e900008 	lw	s0,8(s4)
80403064:	92040000 	lbu	a0,0(s0)
80403068:	02402821 	move	a1,s2
8040306c:	0c100a25 	jal	80402894 <oproc>
80403070:	2631ffff 	addiu	s1,s1,-1
80403074:	1620fffb 	bnez	s1,80403064 <rtems_termios_write+0xb4>
80403078:	26100001 	addiu	s0,s0,1
8040307c:	8e82000c 	lw	v0,12(s4)
80403080:	ae820014 	sw	v0,20(s4)
80403084:	0c101504 	jal	80405410 <rtems_semaphore_release>
80403088:	8e440018 	lw	a0,24(s2)
8040308c:	8fbf0024 	lw	ra,36(sp)
80403090:	02601021 	move	v0,s3
80403094:	8fb40020 	lw	s4,32(sp)
80403098:	8fb3001c 	lw	s3,28(sp)
8040309c:	8fb20018 	lw	s2,24(sp)
804030a0:	8fb10014 	lw	s1,20(sp)
804030a4:	8fb00010 	lw	s0,16(sp)
804030a8:	03e00008 	jr	ra
804030ac:	27bd0028 	addiu	sp,sp,40
804030b0:	8e840008 	lw	a0,8(s4)
804030b4:	8e85000c 	lw	a1,12(s4)
804030b8:	0c1009a7 	jal	8040269c <rtems_termios_puts>
804030bc:	02403021 	move	a2,s2
804030c0:	08100c20 	j	80403080 <rtems_termios_write+0xd0>
804030c4:	8e82000c 	lw	v0,12(s4)
804030c8:	08100c20 	j	80403080 <rtems_termios_write+0xd0>
804030cc:	00001021 	move	v0,zero

804030d0 <drainOutput>:
804030d0:	8c8200b4 	lw	v0,180(a0)
804030d4:	27bdffe0 	addiu	sp,sp,-32
804030d8:	afb00010 	sw	s0,16(sp)
804030dc:	afbf001c 	sw	ra,28(sp)
804030e0:	afb20018 	sw	s2,24(sp)
804030e4:	afb10014 	sw	s1,20(sp)
804030e8:	1040002b 	beqz	v0,80403198 <drainOutput+0xc8>
804030ec:	00808021 	move	s0,a0
804030f0:	40036000 	mfc0	v1,c0_status
804030f4:	00000000 	nop
804030f8:	2402fffe 	li	v0,-2
804030fc:	00621024 	and	v0,v1,v0
80403100:	40826000 	mtc0	v0,c0_status
80403104:	00000000 	nop
80403108:	30640001 	andi	a0,v1,0x1
8040310c:	8e030084 	lw	v1,132(s0)
80403110:	8e020080 	lw	v0,128(s0)
80403114:	10620019 	beq	v1,v0,8040317c <drainOutput+0xac>
80403118:	24120002 	li	s2,2
8040311c:	2411fffe 	li	s1,-2
80403120:	ae120094 	sw	s2,148(s0)
80403124:	40026000 	mfc0	v0,c0_status
80403128:	00000000 	nop
8040312c:	00511024 	and	v0,v0,s1
80403130:	00821025 	or	v0,a0,v0
80403134:	40826000 	mtc0	v0,c0_status
80403138:	00000000 	nop
8040313c:	8e04008c 	lw	a0,140(s0)
80403140:	00002821 	move	a1,zero
80403144:	0c1013f0 	jal	80404fc0 <rtems_semaphore_obtain>
80403148:	00003021 	move	a2,zero
8040314c:	14400018 	bnez	v0,804031b0 <drainOutput+0xe0>
80403150:	00000000 	nop
80403154:	40036000 	mfc0	v1,c0_status
80403158:	00000000 	nop
8040315c:	00711024 	and	v0,v1,s1
80403160:	40826000 	mtc0	v0,c0_status
80403164:	00000000 	nop
80403168:	30640001 	andi	a0,v1,0x1
8040316c:	8e030084 	lw	v1,132(s0)
80403170:	8e020080 	lw	v0,128(s0)
80403174:	1462ffea 	bne	v1,v0,80403120 <drainOutput+0x50>
80403178:	00000000 	nop
8040317c:	40026000 	mfc0	v0,c0_status
80403180:	00000000 	nop
80403184:	2403fffe 	li	v1,-2
80403188:	00431024 	and	v0,v0,v1
8040318c:	00821025 	or	v0,a0,v0
80403190:	40826000 	mtc0	v0,c0_status
80403194:	00000000 	nop
80403198:	8fbf001c 	lw	ra,28(sp)
8040319c:	8fb20018 	lw	s2,24(sp)
804031a0:	8fb10014 	lw	s1,20(sp)
804031a4:	8fb00010 	lw	s0,16(sp)
804031a8:	03e00008 	jr	ra
804031ac:	27bd0020 	addiu	sp,sp,32
804031b0:	0c1016d4 	jal	80405b50 <rtems_fatal_error_occurred>
804031b4:	00402021 	move	a0,v0

804031b8 <rtems_termios_read>:
804031b8:	8c820000 	lw	v0,0(a0)
804031bc:	27bdffb8 	addiu	sp,sp,-72
804031c0:	afb00020 	sw	s0,32(sp)
804031c4:	8c500028 	lw	s0,40(v0)
804031c8:	afb7003c 	sw	s7,60(sp)
804031cc:	0080b821 	move	s7,a0
804031d0:	8e040014 	lw	a0,20(s0)
804031d4:	00002821 	move	a1,zero
804031d8:	00003021 	move	a2,zero
804031dc:	afb60038 	sw	s6,56(sp)
804031e0:	afb40030 	sw	s4,48(sp)
804031e4:	afb3002c 	sw	s3,44(sp)
804031e8:	afbf0044 	sw	ra,68(sp)
804031ec:	afbe0040 	sw	s8,64(sp)
804031f0:	afb50034 	sw	s5,52(sp)
804031f4:	afb20028 	sw	s2,40(sp)
804031f8:	afb10024 	sw	s1,36(sp)
804031fc:	8ef3000c 	lw	s3,12(s7)
80403200:	0c1013f0 	jal	80404fc0 <rtems_semaphore_obtain>
80403204:	8ef40008 	lw	s4,8(s7)
80403208:	1440000f 	bnez	v0,80403248 <rtems_termios_read+0x90>
8040320c:	0040b021 	move	s6,v0
80403210:	8e0300cc 	lw	v1,204(s0)
80403214:	3c028041 	lui	v0,0x8041
80403218:	00031940 	sll	v1,v1,0x5
8040321c:	244241d0 	addiu	v0,v0,16848
80403220:	00431021 	addu	v0,v0,v1
80403224:	8c420008 	lw	v0,8(v0)
80403228:	10400014 	beqz	v0,8040327c <rtems_termios_read+0xc4>
8040322c:	02002021 	move	a0,s0
80403230:	0040f809 	jalr	v0
80403234:	02e02821 	move	a1,s7
80403238:	8e040014 	lw	a0,20(s0)
8040323c:	ae0000e4 	sw	zero,228(s0)
80403240:	0c101504 	jal	80405410 <rtems_semaphore_release>
80403244:	0040b021 	move	s6,v0
80403248:	8fbf0044 	lw	ra,68(sp)
8040324c:	02c01021 	move	v0,s6
80403250:	8fbe0040 	lw	s8,64(sp)
80403254:	8fb7003c 	lw	s7,60(sp)
80403258:	8fb60038 	lw	s6,56(sp)
8040325c:	8fb50034 	lw	s5,52(sp)
80403260:	8fb40030 	lw	s4,48(sp)
80403264:	8fb3002c 	lw	s3,44(sp)
80403268:	8fb20028 	lw	s2,40(sp)
8040326c:	8fb10024 	lw	s1,36(sp)
80403270:	8fb00020 	lw	s0,32(sp)
80403274:	03e00008 	jr	ra
80403278:	27bd0048 	addiu	sp,sp,72
8040327c:	8e030024 	lw	v1,36(s0)
80403280:	8e020020 	lw	v0,32(s0)
80403284:	1062002a 	beq	v1,v0,80403330 <rtems_termios_read+0x178>
80403288:	00000000 	nop
8040328c:	12600015 	beqz	s3,804032e4 <rtems_termios_read+0x12c>
80403290:	00000000 	nop
80403294:	8e040024 	lw	a0,36(s0)
80403298:	8e020020 	lw	v0,32(s0)
8040329c:	0082102a 	slt	v0,a0,v0
804032a0:	14400007 	bnez	v0,804032c0 <rtems_termios_read+0x108>
804032a4:	00000000 	nop
804032a8:	08100cba 	j	804032e8 <rtems_termios_read+0x130>
804032ac:	8ee2000c 	lw	v0,12(s7)
804032b0:	8e020020 	lw	v0,32(s0)
804032b4:	0082102a 	slt	v0,a0,v0
804032b8:	1040000a 	beqz	v0,804032e4 <rtems_termios_read+0x12c>
804032bc:	00000000 	nop
804032c0:	8e02001c 	lw	v0,28(s0)
804032c4:	2673ffff 	addiu	s3,s3,-1
804032c8:	00441021 	addu	v0,v0,a0
804032cc:	90430000 	lbu	v1,0(v0)
804032d0:	24840001 	addiu	a0,a0,1
804032d4:	a2830000 	sb	v1,0(s4)
804032d8:	ae040024 	sw	a0,36(s0)
804032dc:	1660fff4 	bnez	s3,804032b0 <rtems_termios_read+0xf8>
804032e0:	26940001 	addiu	s4,s4,1
804032e4:	8ee2000c 	lw	v0,12(s7)
804032e8:	ae0000e4 	sw	zero,228(s0)
804032ec:	00531023 	subu	v0,v0,s3
804032f0:	aee20014 	sw	v0,20(s7)
804032f4:	0c101504 	jal	80405410 <rtems_semaphore_release>
804032f8:	8e040014 	lw	a0,20(s0)
804032fc:	8fbf0044 	lw	ra,68(sp)
80403300:	02c01021 	move	v0,s6
80403304:	8fbe0040 	lw	s8,64(sp)
80403308:	8fb7003c 	lw	s7,60(sp)
8040330c:	8fb60038 	lw	s6,56(sp)
80403310:	8fb50034 	lw	s5,52(sp)
80403314:	8fb40030 	lw	s4,48(sp)
80403318:	8fb3002c 	lw	s3,44(sp)
8040331c:	8fb20028 	lw	s2,40(sp)
80403320:	8fb10024 	lw	s1,36(sp)
80403324:	8fb00020 	lw	s0,32(sp)
80403328:	03e00008 	jr	ra
8040332c:	27bd0048 	addiu	sp,sp,72
80403330:	8e020028 	lw	v0,40(s0)
80403334:	8e0300a0 	lw	v1,160(s0)
80403338:	ae02002c 	sw	v0,44(s0)
8040333c:	ae000020 	sw	zero,32(s0)
80403340:	ae000024 	sw	zero,36(s0)
80403344:	10600004 	beqz	v1,80403358 <rtems_termios_read+0x1a0>
80403348:	00602821 	move	a1,v1
8040334c:	8e0200b4 	lw	v0,180(s0)
80403350:	10400070 	beqz	v0,80403514 <rtems_termios_read+0x35c>
80403354:	00000000 	nop
80403358:	26020049 	addiu	v0,s0,73
8040335c:	8e110074 	lw	s1,116(s0)
80403360:	afa20018 	sw	v0,24(sp)
80403364:	24120001 	li	s2,1
80403368:	3c158041 	lui	s5,0x8041
8040336c:	241e0202 	li	s8,514
80403370:	8e03005c 	lw	v1,92(s0)
80403374:	8e020060 	lw	v0,96(s0)
80403378:	1062003f 	beq	v1,v0,80403478 <rtems_termios_read+0x2c0>
8040337c:	00000000 	nop
80403380:	8ea237a4 	lw	v0,14244(s5)
80403384:	8e030020 	lw	v1,32(s0)
80403388:	2442ffff 	addiu	v0,v0,-1
8040338c:	0062182a 	slt	v1,v1,v0
80403390:	10600039 	beqz	v1,80403478 <rtems_termios_read+0x2c0>
80403394:	00000000 	nop
80403398:	8e02005c 	lw	v0,92(s0)
8040339c:	8e040064 	lw	a0,100(s0)
804033a0:	24420001 	addiu	v0,v0,1
804033a4:	0044001b 	divu	zero,v0,a0
804033a8:	008001f4 	teq	a0,zero,0x7
804033ac:	8e030058 	lw	v1,88(s0)
804033b0:	8e0600bc 	lw	a2,188(s0)
804033b4:	00002810 	mfhi	a1
804033b8:	00651821 	addu	v1,v1,a1
804033bc:	90710000 	lbu	s1,0(v1)
804033c0:	ae05005c 	sw	a1,92(s0)
804033c4:	8e020060 	lw	v0,96(s0)
804033c8:	8e030064 	lw	v1,100(s0)
804033cc:	8e040064 	lw	a0,100(s0)
804033d0:	00621821 	addu	v1,v1,v0
804033d4:	00651823 	subu	v1,v1,a1
804033d8:	0064001b 	divu	zero,v1,a0
804033dc:	008001f4 	teq	a0,zero,0x7
804033e0:	00001010 	mfhi	v0
804033e4:	0046102b 	sltu	v0,v0,a2
804033e8:	10400016 	beqz	v0,80403444 <rtems_termios_read+0x28c>
804033ec:	00000000 	nop
804033f0:	8e0200b8 	lw	v0,184(s0)
804033f4:	2403fffe 	li	v1,-2
804033f8:	00431024 	and	v0,v0,v1
804033fc:	ae0200b8 	sw	v0,184(s0)
80403400:	8e0300b8 	lw	v1,184(s0)
80403404:	30630202 	andi	v1,v1,0x202
80403408:	107e0034 	beq	v1,s8,804034dc <rtems_termios_read+0x324>
8040340c:	00000000 	nop
80403410:	8e0200b8 	lw	v0,184(s0)
80403414:	30420100 	andi	v0,v0,0x100
80403418:	1040000a 	beqz	v0,80403444 <rtems_termios_read+0x28c>
8040341c:	00000000 	nop
80403420:	8e0200b8 	lw	v0,184(s0)
80403424:	2404fffb 	li	a0,-5
80403428:	8e0300b0 	lw	v1,176(s0)
8040342c:	00441024 	and	v0,v0,a0
80403430:	ae0200b8 	sw	v0,184(s0)
80403434:	10600003 	beqz	v1,80403444 <rtems_termios_read+0x28c>
80403438:	00000000 	nop
8040343c:	0060f809 	jalr	v1
80403440:	8e040010 	lw	a0,16(s0)
80403444:	8e02003c 	lw	v0,60(s0)
80403448:	30420002 	andi	v0,v0,0x2
8040344c:	1040001a 	beqz	v0,804034b8 <rtems_termios_read+0x300>
80403450:	02202021 	move	a0,s1
80403454:	0c100bcd 	jal	80402f34 <siproc>
80403458:	02002821 	move	a1,s0
8040345c:	10400002 	beqz	v0,80403468 <rtems_termios_read+0x2b0>
80403460:	00000000 	nop
80403464:	00009021 	move	s2,zero
80403468:	8e03005c 	lw	v1,92(s0)
8040346c:	8e020060 	lw	v0,96(s0)
80403470:	1462ffc3 	bne	v1,v0,80403380 <rtems_termios_read+0x1c8>
80403474:	8e110070 	lw	s1,112(s0)
80403478:	16400005 	bnez	s2,80403490 <rtems_termios_read+0x2d8>
8040347c:	00000000 	nop
80403480:	1640ffbb 	bnez	s2,80403370 <rtems_termios_read+0x1b8>
80403484:	00000000 	nop
80403488:	08100ca3 	j	8040328c <rtems_termios_read+0xd4>
8040348c:	00000000 	nop
80403490:	8e040068 	lw	a0,104(s0)
80403494:	8e05006c 	lw	a1,108(s0)
80403498:	0c1013f0 	jal	80404fc0 <rtems_semaphore_obtain>
8040349c:	02203021 	move	a2,s1
804034a0:	1440ff7a 	bnez	v0,8040328c <rtems_termios_read+0xd4>
804034a4:	00000000 	nop
804034a8:	1640ffb1 	bnez	s2,80403370 <rtems_termios_read+0x1b8>
804034ac:	00000000 	nop
804034b0:	08100ca3 	j	8040328c <rtems_termios_read+0xd4>
804034b4:	00000000 	nop
804034b8:	0c100bcd 	jal	80402f34 <siproc>
804034bc:	02002821 	move	a1,s0
804034c0:	92030047 	lbu	v1,71(s0)
804034c4:	8e020020 	lw	v0,32(s0)
804034c8:	0043102a 	slt	v0,v0,v1
804034cc:	1440ffe6 	bnez	v0,80403468 <rtems_termios_read+0x2b0>
804034d0:	00000000 	nop
804034d4:	08100d1a 	j	80403468 <rtems_termios_read+0x2b0>
804034d8:	00009021 	move	s2,zero
804034dc:	8e020094 	lw	v0,148(s0)
804034e0:	10400005 	beqz	v0,804034f8 <rtems_termios_read+0x340>
804034e4:	00000000 	nop
804034e8:	8e0200b8 	lw	v0,184(s0)
804034ec:	30420020 	andi	v0,v0,0x20
804034f0:	1040ffc7 	beqz	v0,80403410 <rtems_termios_read+0x258>
804034f4:	00000000 	nop
804034f8:	8e0300a4 	lw	v1,164(s0)
804034fc:	8e040010 	lw	a0,16(s0)
80403500:	8fa50018 	lw	a1,24(sp)
80403504:	0060f809 	jalr	v1
80403508:	24060001 	li	a2,1
8040350c:	08100d12 	j	80403448 <rtems_termios_read+0x290>
80403510:	8e02003c 	lw	v0,60(s0)
80403514:	8e02003c 	lw	v0,60(s0)
80403518:	30420002 	andi	v0,v0,0x2
8040351c:	1440002f 	bnez	v0,804035dc <rtems_termios_read+0x424>
80403520:	00000000 	nop
80403524:	92020047 	lbu	v0,71(s0)
80403528:	14400005 	bnez	v0,80403540 <rtems_termios_read+0x388>
8040352c:	27b20010 	addiu	s2,sp,16
80403530:	92020046 	lbu	v0,70(s0)
80403534:	14400038 	bnez	v0,80403618 <rtems_termios_read+0x460>
80403538:	24040002 	li	a0,2
8040353c:	27b20010 	addiu	s2,sp,16
80403540:	27b10014 	addiu	s1,sp,20
80403544:	0060f809 	jalr	v1
80403548:	8e040010 	lw	a0,16(s0)
8040354c:	04410011 	bgez	v0,80403594 <rtems_termios_read+0x3dc>
80403550:	00000000 	nop
80403554:	92020047 	lbu	v0,71(s0)
80403558:	10400033 	beqz	v0,80403628 <rtems_termios_read+0x470>
8040355c:	00000000 	nop
80403560:	92020046 	lbu	v0,70(s0)
80403564:	10400004 	beqz	v0,80403578 <rtems_termios_read+0x3c0>
80403568:	00000000 	nop
8040356c:	8e020020 	lw	v0,32(s0)
80403570:	14400030 	bnez	v0,80403634 <rtems_termios_read+0x47c>
80403574:	24040002 	li	a0,2
80403578:	0c101640 	jal	80405900 <rtems_task_wake_after>
8040357c:	24040001 	li	a0,1
80403580:	8e0300a0 	lw	v1,160(s0)
80403584:	0060f809 	jalr	v1
80403588:	8e040010 	lw	a0,16(s0)
8040358c:	0440fff1 	bltz	v0,80403554 <rtems_termios_read+0x39c>
80403590:	00000000 	nop
80403594:	304400ff 	andi	a0,v0,0xff
80403598:	0c100bcd 	jal	80402f34 <siproc>
8040359c:	02002821 	move	a1,s0
804035a0:	92030047 	lbu	v1,71(s0)
804035a4:	8e020020 	lw	v0,32(s0)
804035a8:	0043102a 	slt	v0,v0,v1
804035ac:	1040ff37 	beqz	v0,8040328c <rtems_termios_read+0xd4>
804035b0:	00000000 	nop
804035b4:	10600004 	beqz	v1,804035c8 <rtems_termios_read+0x410>
804035b8:	00000000 	nop
804035bc:	92020046 	lbu	v0,70(s0)
804035c0:	14400011 	bnez	v0,80403608 <rtems_termios_read+0x450>
804035c4:	24040002 	li	a0,2
804035c8:	08100d51 	j	80403544 <rtems_termios_read+0x38c>
804035cc:	8e0300a0 	lw	v1,160(s0)
804035d0:	0c101640 	jal	80405900 <rtems_task_wake_after>
804035d4:	24040001 	li	a0,1
804035d8:	8e0500a0 	lw	a1,160(s0)
804035dc:	00a0f809 	jalr	a1
804035e0:	8e040010 	lw	a0,16(s0)
804035e4:	304400ff 	andi	a0,v0,0xff
804035e8:	0440fff9 	bltz	v0,804035d0 <rtems_termios_read+0x418>
804035ec:	02002821 	move	a1,s0
804035f0:	0c100bcd 	jal	80402f34 <siproc>
804035f4:	00000000 	nop
804035f8:	1440ff24 	bnez	v0,8040328c <rtems_termios_read+0xd4>
804035fc:	00000000 	nop
80403600:	08100d77 	j	804035dc <rtems_termios_read+0x424>
80403604:	8e0500a0 	lw	a1,160(s0)
80403608:	0c1010c0 	jal	80404300 <rtems_clock_get>
8040360c:	02402821 	move	a1,s2
80403610:	08100d51 	j	80403544 <rtems_termios_read+0x38c>
80403614:	8e0300a0 	lw	v1,160(s0)
80403618:	0c1010c0 	jal	80404300 <rtems_clock_get>
8040361c:	27a50010 	addiu	a1,sp,16
80403620:	08100d4f 	j	8040353c <rtems_termios_read+0x384>
80403624:	8e0300a0 	lw	v1,160(s0)
80403628:	92020046 	lbu	v0,70(s0)
8040362c:	1040ff17 	beqz	v0,8040328c <rtems_termios_read+0xd4>
80403630:	24040002 	li	a0,2
80403634:	0c1010c0 	jal	80404300 <rtems_clock_get>
80403638:	02202821 	move	a1,s1
8040363c:	8fa30010 	lw	v1,16(sp)
80403640:	8fa20014 	lw	v0,20(sp)
80403644:	8e040054 	lw	a0,84(s0)
80403648:	00431023 	subu	v0,v0,v1
8040364c:	0082102b 	sltu	v0,a0,v0
80403650:	1040ffc9 	beqz	v0,80403578 <rtems_termios_read+0x3c0>
80403654:	00000000 	nop
80403658:	08100ca3 	j	8040328c <rtems_termios_read+0xd4>
8040365c:	00000000 	nop

80403660 <rtems_termios_ioctl>:
80403660:	8c820000 	lw	v0,0(a0)
80403664:	27bdffd0 	addiu	sp,sp,-48
80403668:	afb1001c 	sw	s1,28(sp)
8040366c:	8c510028 	lw	s1,40(v0)
80403670:	ac80000c 	sw	zero,12(a0)
80403674:	afb30024 	sw	s3,36(sp)
80403678:	00809821 	move	s3,a0
8040367c:	8e240018 	lw	a0,24(s1)
80403680:	00002821 	move	a1,zero
80403684:	00003021 	move	a2,zero
80403688:	afb20020 	sw	s2,32(sp)
8040368c:	afb00018 	sw	s0,24(sp)
80403690:	afbf002c 	sw	ra,44(sp)
80403694:	afb40028 	sw	s4,40(sp)
80403698:	0c1013f0 	jal	80404fc0 <rtems_semaphore_obtain>
8040369c:	8e700008 	lw	s0,8(s3)
804036a0:	14400010 	bnez	v0,804036e4 <rtems_termios_ioctl+0x84>
804036a4:	00409021 	move	s2,v0
804036a8:	8e630004 	lw	v1,4(s3)
804036ac:	24020004 	li	v0,4
804036b0:	1062002b 	beq	v1,v0,80403760 <rtems_termios_ioctl+0x100>
804036b4:	2c620005 	sltiu	v0,v1,5
804036b8:	10400014 	beqz	v0,8040370c <rtems_termios_ioctl+0xac>
804036bc:	3c044004 	lui	a0,0x4004
804036c0:	24020002 	li	v0,2
804036c4:	1062006d 	beq	v1,v0,8040387c <rtems_termios_ioctl+0x21c>
804036c8:	2c620003 	sltiu	v0,v1,3
804036cc:	1440004d 	bnez	v0,80403804 <rtems_termios_ioctl+0x1a4>
804036d0:	24020001 	li	v0,1
804036d4:	0c100c34 	jal	804030d0 <drainOutput>
804036d8:	02202021 	move	a0,s1
804036dc:	0c101504 	jal	80405410 <rtems_semaphore_release>
804036e0:	8e240018 	lw	a0,24(s1)
804036e4:	8fbf002c 	lw	ra,44(sp)
804036e8:	ae72000c 	sw	s2,12(s3)
804036ec:	02401021 	move	v0,s2
804036f0:	8fb40028 	lw	s4,40(sp)
804036f4:	8fb30024 	lw	s3,36(sp)
804036f8:	8fb20020 	lw	s2,32(sp)
804036fc:	8fb1001c 	lw	s1,28(sp)
80403700:	8fb00018 	lw	s0,24(sp)
80403704:	03e00008 	jr	ra
80403708:	27bd0030 	addiu	sp,sp,48
8040370c:	3482667f 	ori	v0,a0,0x667f
80403710:	1062004e 	beq	v1,v0,8040384c <rtems_termios_ioctl+0x1ec>
80403714:	34826680 	ori	v0,a0,0x6680
80403718:	0062102b 	sltu	v0,v1,v0
8040371c:	1040001a 	beqz	v0,80403788 <rtems_termios_ioctl+0x128>
80403720:	3482741a 	ori	v0,a0,0x741a
80403724:	24020005 	li	v0,5
80403728:	10620012 	beq	v1,v0,80403774 <rtems_termios_ioctl+0x114>
8040372c:	00000000 	nop
80403730:	8e2300cc 	lw	v1,204(s1)
80403734:	3c028041 	lui	v0,0x8041
80403738:	244241d0 	addiu	v0,v0,16848
8040373c:	00031940 	sll	v1,v1,0x5
80403740:	00621821 	addu	v1,v1,v0
80403744:	8c620018 	lw	v0,24(v1)
80403748:	104000b7 	beqz	v0,80403a28 <rtems_termios_ioctl+0x3c8>
8040374c:	02202021 	move	a0,s1
80403750:	0040f809 	jalr	v0
80403754:	02602821 	move	a1,s3
80403758:	08100db7 	j	804036dc <rtems_termios_ioctl+0x7c>
8040375c:	00409021 	move	s2,v0
80403760:	8e020004 	lw	v0,4(s0)
80403764:	8e030000 	lw	v1,0(s0)
80403768:	ae2200e0 	sw	v0,224(s1)
8040376c:	08100db7 	j	804036dc <rtems_termios_ioctl+0x7c>
80403770:	ae2300dc 	sw	v1,220(s1)
80403774:	8e020004 	lw	v0,4(s0)
80403778:	8e030000 	lw	v1,0(s0)
8040377c:	ae2200d8 	sw	v0,216(s1)
80403780:	08100db7 	j	804036dc <rtems_termios_ioctl+0x7c>
80403784:	ae2300d4 	sw	v1,212(s1)
80403788:	1062001a 	beq	v1,v0,804037f4 <rtems_termios_ioctl+0x194>
8040378c:	3c028004 	lui	v0,0x8004
80403790:	3442741b 	ori	v0,v0,0x741b
80403794:	1462ffe6 	bne	v1,v0,80403730 <rtems_termios_ioctl+0xd0>
80403798:	3c038041 	lui	v1,0x8041
8040379c:	8e2200cc 	lw	v0,204(s1)
804037a0:	247041d0 	addiu	s0,v1,16848
804037a4:	00021140 	sll	v0,v0,0x5
804037a8:	02021021 	addu	v0,s0,v0
804037ac:	8c420004 	lw	v0,4(v0)
804037b0:	10400004 	beqz	v0,804037c4 <rtems_termios_ioctl+0x164>
804037b4:	00000000 	nop
804037b8:	0040f809 	jalr	v0
804037bc:	02202021 	move	a0,s1
804037c0:	00409021 	move	s2,v0
804037c4:	8e620008 	lw	v0,8(s3)
804037c8:	ae2000d0 	sw	zero,208(s1)
804037cc:	8c440000 	lw	a0,0(v0)
804037d0:	00041940 	sll	v1,a0,0x5
804037d4:	02031821 	addu	v1,s0,v1
804037d8:	8c620000 	lw	v0,0(v1)
804037dc:	1040ffbf 	beqz	v0,804036dc <rtems_termios_ioctl+0x7c>
804037e0:	ae2400cc 	sw	a0,204(s1)
804037e4:	0040f809 	jalr	v0
804037e8:	02202021 	move	a0,s1
804037ec:	08100db7 	j	804036dc <rtems_termios_ioctl+0x7c>
804037f0:	00409021 	move	s2,v0
804037f4:	8e630008 	lw	v1,8(s3)
804037f8:	8e2200cc 	lw	v0,204(s1)
804037fc:	08100db7 	j	804036dc <rtems_termios_ioctl+0x7c>
80403800:	ac620000 	sw	v0,0(v1)
80403804:	1462ffca 	bne	v1,v0,80403730 <rtems_termios_ioctl+0xd0>
80403808:	26260030 	addiu	a2,s1,48
8040380c:	8e670008 	lw	a3,8(s3)
80403810:	26280050 	addiu	t0,s1,80
80403814:	8cc20000 	lw	v0,0(a2)
80403818:	8cc30004 	lw	v1,4(a2)
8040381c:	8cc40008 	lw	a0,8(a2)
80403820:	8cc5000c 	lw	a1,12(a2)
80403824:	24c60010 	addiu	a2,a2,16
80403828:	ace20000 	sw	v0,0(a3)
8040382c:	ace30004 	sw	v1,4(a3)
80403830:	ace40008 	sw	a0,8(a3)
80403834:	ace5000c 	sw	a1,12(a3)
80403838:	14c8fff6 	bne	a2,t0,80403814 <rtems_termios_ioctl+0x1b4>
8040383c:	24e70010 	addiu	a3,a3,16
80403840:	8cc20000 	lw	v0,0(a2)
80403844:	08100db7 	j	804036dc <rtems_termios_ioctl+0x7c>
80403848:	ace20000 	sw	v0,0(a3)
8040384c:	8e230060 	lw	v1,96(s1)
80403850:	8e22005c 	lw	v0,92(s1)
80403854:	00622823 	subu	a1,v1,v0
80403858:	04a00070 	bltz	a1,80403a1c <rtems_termios_ioctl+0x3bc>
8040385c:	00000000 	nop
80403860:	8e220020 	lw	v0,32(s1)
80403864:	8e230024 	lw	v1,36(s1)
80403868:	8e640008 	lw	a0,8(s3)
8040386c:	00431023 	subu	v0,v0,v1
80403870:	00451021 	addu	v0,v0,a1
80403874:	08100db7 	j	804036dc <rtems_termios_ioctl+0x7c>
80403878:	ac820000 	sw	v0,0(a0)
8040387c:	8e660008 	lw	a2,8(s3)
80403880:	26300030 	addiu	s0,s1,48
80403884:	02003821 	move	a3,s0
80403888:	24c80020 	addiu	t0,a2,32
8040388c:	8cc20000 	lw	v0,0(a2)
80403890:	8cc30004 	lw	v1,4(a2)
80403894:	8cc40008 	lw	a0,8(a2)
80403898:	8cc5000c 	lw	a1,12(a2)
8040389c:	24c60010 	addiu	a2,a2,16
804038a0:	ace20000 	sw	v0,0(a3)
804038a4:	ace30004 	sw	v1,4(a3)
804038a8:	ace40008 	sw	a0,8(a3)
804038ac:	ace5000c 	sw	a1,12(a3)
804038b0:	14c8fff6 	bne	a2,t0,8040388c <rtems_termios_ioctl+0x22c>
804038b4:	24e70010 	addiu	a3,a3,16
804038b8:	8cc30000 	lw	v1,0(a2)
804038bc:	ace30000 	sw	v1,0(a3)
804038c0:	8e2200b8 	lw	v0,184(s1)
804038c4:	30420200 	andi	v0,v0,0x200
804038c8:	10400021 	beqz	v0,80403950 <rtems_termios_ioctl+0x2f0>
804038cc:	00000000 	nop
804038d0:	8e220030 	lw	v0,48(s1)
804038d4:	30420400 	andi	v0,v0,0x400
804038d8:	1440001d 	bnez	v0,80403950 <rtems_termios_ioctl+0x2f0>
804038dc:	00000000 	nop
804038e0:	8e2200b8 	lw	v0,184(s1)
804038e4:	2403fdef 	li	v1,-529
804038e8:	00431024 	and	v0,v0,v1
804038ec:	ae2200b8 	sw	v0,184(s1)
804038f0:	8e2300b8 	lw	v1,184(s1)
804038f4:	30630020 	andi	v1,v1,0x20
804038f8:	10600015 	beqz	v1,80403950 <rtems_termios_ioctl+0x2f0>
804038fc:	00000000 	nop
80403900:	40146000 	mfc0	s4,c0_status
80403904:	00000000 	nop
80403908:	2402fffe 	li	v0,-2
8040390c:	02821024 	and	v0,s4,v0
80403910:	40826000 	mtc0	v0,c0_status
80403914:	00000000 	nop
80403918:	8e2200b8 	lw	v0,184(s1)
8040391c:	2403ffdf 	li	v1,-33
80403920:	8e240094 	lw	a0,148(s1)
80403924:	00431024 	and	v0,v0,v1
80403928:	14800074 	bnez	a0,80403afc <rtems_termios_ioctl+0x49c>
8040392c:	ae2200b8 	sw	v0,184(s1)
80403930:	40026000 	mfc0	v0,c0_status
80403934:	00000000 	nop
80403938:	2403fffe 	li	v1,-2
8040393c:	00431024 	and	v0,v0,v1
80403940:	32840001 	andi	a0,s4,0x1
80403944:	00441025 	or	v0,v0,a0
80403948:	40826000 	mtc0	v0,c0_status
8040394c:	00000000 	nop
80403950:	8e2200b8 	lw	v0,184(s1)
80403954:	30420400 	andi	v0,v0,0x400
80403958:	1040000d 	beqz	v0,80403990 <rtems_termios_ioctl+0x330>
8040395c:	00000000 	nop
80403960:	8e220030 	lw	v0,48(s1)
80403964:	30421000 	andi	v0,v0,0x1000
80403968:	14400009 	bnez	v0,80403990 <rtems_termios_ioctl+0x330>
8040396c:	00000000 	nop
80403970:	8e2200b8 	lw	v0,184(s1)
80403974:	2403fbff 	li	v1,-1025
80403978:	00431024 	and	v0,v0,v1
8040397c:	ae2200b8 	sw	v0,184(s1)
80403980:	8e2300b8 	lw	v1,184(s1)
80403984:	2402fffd 	li	v0,-3
80403988:	00621824 	and	v1,v1,v0
8040398c:	ae2300b8 	sw	v1,184(s1)
80403990:	8e2200b8 	lw	v0,184(s1)
80403994:	30420100 	andi	v0,v0,0x100
80403998:	14400025 	bnez	v0,80403a30 <rtems_termios_ioctl+0x3d0>
8040399c:	00000000 	nop
804039a0:	8e240038 	lw	a0,56(s1)
804039a4:	0480004b 	bltz	a0,80403ad4 <rtems_termios_ioctl+0x474>
804039a8:	00000000 	nop
804039ac:	8e230030 	lw	v1,48(s1)
804039b0:	30621000 	andi	v0,v1,0x1000
804039b4:	10400005 	beqz	v0,804039cc <rtems_termios_ioctl+0x36c>
804039b8:	30620400 	andi	v0,v1,0x400
804039bc:	8e2200b8 	lw	v0,184(s1)
804039c0:	34420400 	ori	v0,v0,0x400
804039c4:	ae2200b8 	sw	v0,184(s1)
804039c8:	30620400 	andi	v0,v1,0x400
804039cc:	10400004 	beqz	v0,804039e0 <rtems_termios_ioctl+0x380>
804039d0:	00000000 	nop
804039d4:	8e2200b8 	lw	v0,184(s1)
804039d8:	34420200 	ori	v0,v0,0x200
804039dc:	ae2200b8 	sw	v0,184(s1)
804039e0:	8e22003c 	lw	v0,60(s1)
804039e4:	30420002 	andi	v0,v0,0x2
804039e8:	10400027 	beqz	v0,80403a88 <rtems_termios_ioctl+0x428>
804039ec:	24040003 	li	a0,3
804039f0:	ae20006c 	sw	zero,108(s1)
804039f4:	ae200070 	sw	zero,112(s1)
804039f8:	ae200074 	sw	zero,116(s1)
804039fc:	8e2200a8 	lw	v0,168(s1)
80403a00:	1040ff36 	beqz	v0,804036dc <rtems_termios_ioctl+0x7c>
80403a04:	00000000 	nop
80403a08:	8e240010 	lw	a0,16(s1)
80403a0c:	0040f809 	jalr	v0
80403a10:	02002821 	move	a1,s0
80403a14:	08100db7 	j	804036dc <rtems_termios_ioctl+0x7c>
80403a18:	00000000 	nop
80403a1c:	8e220064 	lw	v0,100(s1)
80403a20:	08100e18 	j	80403860 <rtems_termios_ioctl+0x200>
80403a24:	00a22821 	addu	a1,a1,v0
80403a28:	08100db7 	j	804036dc <rtems_termios_ioctl+0x7c>
80403a2c:	2412000a 	li	s2,10
80403a30:	8e240038 	lw	a0,56(s1)
80403a34:	04800027 	bltz	a0,80403ad4 <rtems_termios_ioctl+0x474>
80403a38:	00000000 	nop
80403a3c:	8e2200b8 	lw	v0,184(s1)
80403a40:	2403feff 	li	v1,-257
80403a44:	00431024 	and	v0,v0,v1
80403a48:	ae2200b8 	sw	v0,184(s1)
80403a4c:	8e2300b8 	lw	v1,184(s1)
80403a50:	30630004 	andi	v1,v1,0x4
80403a54:	10600007 	beqz	v1,80403a74 <rtems_termios_ioctl+0x414>
80403a58:	00000000 	nop
80403a5c:	8e2200b0 	lw	v0,176(s1)
80403a60:	10400004 	beqz	v0,80403a74 <rtems_termios_ioctl+0x414>
80403a64:	00000000 	nop
80403a68:	0040f809 	jalr	v0
80403a6c:	8e240010 	lw	a0,16(s1)
80403a70:	8e240038 	lw	a0,56(s1)
80403a74:	8e2200b8 	lw	v0,184(s1)
80403a78:	2403fffb 	li	v1,-5
80403a7c:	00431024 	and	v0,v0,v1
80403a80:	08100e69 	j	804039a4 <rtems_termios_ioctl+0x344>
80403a84:	ae2200b8 	sw	v0,184(s1)
80403a88:	0c1010c0 	jal	80404300 <rtems_clock_get>
80403a8c:	27a50010 	addiu	a1,sp,16
80403a90:	8fa30010 	lw	v1,16(sp)
80403a94:	92240046 	lbu	a0,70(s1)
80403a98:	3c02cccc 	lui	v0,0xcccc
80403a9c:	70831802 	mul	v1,a0,v1
80403aa0:	3442cccd 	ori	v0,v0,0xcccd
80403aa4:	00620019 	multu	v1,v0
80403aa8:	00001810 	mfhi	v1
80403aac:	000328c2 	srl	a1,v1,0x3
80403ab0:	1080000d 	beqz	a0,80403ae8 <rtems_termios_ioctl+0x488>
80403ab4:	ae250054 	sw	a1,84(s1)
80403ab8:	92230047 	lbu	v1,71(s1)
80403abc:	00001021 	move	v0,zero
80403ac0:	00a3100a 	movz	v0,a1,v1
80403ac4:	ae20006c 	sw	zero,108(s1)
80403ac8:	ae220074 	sw	v0,116(s1)
80403acc:	08100e7f 	j	804039fc <rtems_termios_ioctl+0x39c>
80403ad0:	ae250070 	sw	a1,112(s1)
80403ad4:	8e2200b8 	lw	v0,184(s1)
80403ad8:	34420100 	ori	v0,v0,0x100
80403adc:	ae2200b8 	sw	v0,184(s1)
80403ae0:	08100e6c 	j	804039b0 <rtems_termios_ioctl+0x350>
80403ae4:	8e230030 	lw	v1,48(s1)
80403ae8:	92220047 	lbu	v0,71(s1)
80403aec:	1440ffc0 	bnez	v0,804039f0 <rtems_termios_ioctl+0x390>
80403af0:	24020001 	li	v0,1
80403af4:	08100e7f 	j	804039fc <rtems_termios_ioctl+0x39c>
80403af8:	ae22006c 	sw	v0,108(s1)
80403afc:	8e220084 	lw	v0,132(s1)
80403b00:	8e25007c 	lw	a1,124(s1)
80403b04:	8e2300a4 	lw	v1,164(s1)
80403b08:	8e240010 	lw	a0,16(s1)
80403b0c:	00a22821 	addu	a1,a1,v0
80403b10:	0060f809 	jalr	v1
80403b14:	24060001 	li	a2,1
80403b18:	08100e4c 	j	80403930 <rtems_termios_ioctl+0x2d0>
80403b1c:	00000000 	nop

80403b20 <rtems_termios_close>:
80403b20:	27bdffe0 	addiu	sp,sp,-32
80403b24:	afb20018 	sw	s2,24(sp)
80403b28:	3c128041 	lui	s2,0x8041
80403b2c:	8c820000 	lw	v0,0(a0)
80403b30:	afb10014 	sw	s1,20(sp)
80403b34:	00808821 	move	s1,a0
80403b38:	8e444428 	lw	a0,17448(s2)
80403b3c:	00002821 	move	a1,zero
80403b40:	00003021 	move	a2,zero
80403b44:	afb00010 	sw	s0,16(sp)
80403b48:	afbf001c 	sw	ra,28(sp)
80403b4c:	0c1013f0 	jal	80404fc0 <rtems_semaphore_obtain>
80403b50:	8c500028 	lw	s0,40(v0)
80403b54:	1440004e 	bnez	v0,80403c90 <rtems_termios_close+0x170>
80403b58:	00000000 	nop
80403b5c:	8e020008 	lw	v0,8(s0)
80403b60:	2442ffff 	addiu	v0,v0,-1
80403b64:	14400033 	bnez	v0,80403c34 <rtems_termios_close+0x114>
80403b68:	ae020008 	sw	v0,8(s0)
80403b6c:	8e0300cc 	lw	v1,204(s0)
80403b70:	3c028041 	lui	v0,0x8041
80403b74:	00031940 	sll	v1,v1,0x5
80403b78:	244241d0 	addiu	v0,v0,16848
80403b7c:	00431021 	addu	v0,v0,v1
80403b80:	8c420004 	lw	v0,4(v0)
80403b84:	10400044 	beqz	v0,80403c98 <rtems_termios_close+0x178>
80403b88:	00000000 	nop
80403b8c:	0040f809 	jalr	v0
80403b90:	02002021 	move	a0,s0
80403b94:	8e0300b4 	lw	v1,180(s0)
80403b98:	24020002 	li	v0,2
80403b9c:	10620032 	beq	v1,v0,80403c68 <rtems_termios_close+0x148>
80403ba0:	00000000 	nop
80403ba4:	8e02009c 	lw	v0,156(s0)
80403ba8:	10400005 	beqz	v0,80403bc0 <rtems_termios_close+0xa0>
80403bac:	00000000 	nop
80403bb0:	8e04000c 	lw	a0,12(s0)
80403bb4:	8e050010 	lw	a1,16(s0)
80403bb8:	0040f809 	jalr	v0
80403bbc:	02203021 	move	a2,s1
80403bc0:	8e030000 	lw	v1,0(s0)
80403bc4:	10600038 	beqz	v1,80403ca8 <rtems_termios_close+0x188>
80403bc8:	3c028041 	lui	v0,0x8041
80403bcc:	8e020004 	lw	v0,4(s0)
80403bd0:	ac620004 	sw	v0,4(v1)
80403bd4:	8e020004 	lw	v0,4(s0)
80403bd8:	10400039 	beqz	v0,80403cc0 <rtems_termios_close+0x1a0>
80403bdc:	00000000 	nop
80403be0:	ac430000 	sw	v1,0(v0)
80403be4:	0c1013b4 	jal	80404ed0 <rtems_semaphore_delete>
80403be8:	8e040014 	lw	a0,20(s0)
80403bec:	0c1013b4 	jal	80404ed0 <rtems_semaphore_delete>
80403bf0:	8e040018 	lw	a0,24(s0)
80403bf4:	0c1013b4 	jal	80404ed0 <rtems_semaphore_delete>
80403bf8:	8e04008c 	lw	a0,140(s0)
80403bfc:	8e0300a0 	lw	v1,160(s0)
80403c00:	10600015 	beqz	v1,80403c58 <rtems_termios_close+0x138>
80403c04:	24020002 	li	v0,2
80403c08:	8e0300b4 	lw	v1,180(s0)
80403c0c:	10620012 	beq	v1,v0,80403c58 <rtems_termios_close+0x138>
80403c10:	00000000 	nop
80403c14:	0c102c9c 	jal	8040b270 <free>
80403c18:	8e040058 	lw	a0,88(s0)
80403c1c:	0c102c9c 	jal	8040b270 <free>
80403c20:	8e04007c 	lw	a0,124(s0)
80403c24:	0c102c9c 	jal	8040b270 <free>
80403c28:	8e04001c 	lw	a0,28(s0)
80403c2c:	0c102c9c 	jal	8040b270 <free>
80403c30:	02002021 	move	a0,s0
80403c34:	0c101504 	jal	80405410 <rtems_semaphore_release>
80403c38:	8e444428 	lw	a0,17448(s2)
80403c3c:	8fbf001c 	lw	ra,28(sp)
80403c40:	00001021 	move	v0,zero
80403c44:	8fb20018 	lw	s2,24(sp)
80403c48:	8fb10014 	lw	s1,20(sp)
80403c4c:	8fb00010 	lw	s0,16(sp)
80403c50:	03e00008 	jr	ra
80403c54:	27bd0020 	addiu	sp,sp,32
80403c58:	0c1013b4 	jal	80404ed0 <rtems_semaphore_delete>
80403c5c:	8e040068 	lw	a0,104(s0)
80403c60:	08100f05 	j	80403c14 <rtems_termios_close+0xf4>
80403c64:	00000000 	nop
80403c68:	8e0400c4 	lw	a0,196(s0)
80403c6c:	0c101224 	jal	80404890 <rtems_event_send>
80403c70:	24050001 	li	a1,1
80403c74:	14400006 	bnez	v0,80403c90 <rtems_termios_close+0x170>
80403c78:	00000000 	nop
80403c7c:	8e0400c8 	lw	a0,200(s0)
80403c80:	0c101224 	jal	80404890 <rtems_event_send>
80403c84:	24050001 	li	a1,1
80403c88:	1040ffc6 	beqz	v0,80403ba4 <rtems_termios_close+0x84>
80403c8c:	00000000 	nop
80403c90:	0c1016d4 	jal	80405b50 <rtems_fatal_error_occurred>
80403c94:	00402021 	move	a0,v0
80403c98:	0c100c34 	jal	804030d0 <drainOutput>
80403c9c:	02002021 	move	a0,s0
80403ca0:	08100ee6 	j	80403b98 <rtems_termios_close+0x78>
80403ca4:	8e0300b4 	lw	v1,180(s0)
80403ca8:	8e030004 	lw	v1,4(s0)
80403cac:	10600009 	beqz	v1,80403cd4 <rtems_termios_close+0x1b4>
80403cb0:	ac43442c 	sw	v1,17452(v0)
80403cb4:	ac600000 	sw	zero,0(v1)
80403cb8:	08100ef5 	j	80403bd4 <rtems_termios_close+0xb4>
80403cbc:	8e030000 	lw	v1,0(s0)
80403cc0:	3c028041 	lui	v0,0x8041
80403cc4:	1060ffc7 	beqz	v1,80403be4 <rtems_termios_close+0xc4>
80403cc8:	ac434430 	sw	v1,17456(v0)
80403ccc:	08100ef9 	j	80403be4 <rtems_termios_close+0xc4>
80403cd0:	ac600004 	sw	zero,4(v1)
80403cd4:	3c028041 	lui	v0,0x8041
80403cd8:	08100ef9 	j	80403be4 <rtems_termios_close+0xc4>
80403cdc:	ac404430 	sw	zero,17456(v0)

80403ce0 <rtems_termios_open>:
80403ce0:	27bdffc0 	addiu	sp,sp,-64
80403ce4:	afb70034 	sw	s7,52(sp)
80403ce8:	3c178041 	lui	s7,0x8041
80403cec:	afb20020 	sw	s2,32(sp)
80403cf0:	00809021 	move	s2,a0
80403cf4:	8ee44428 	lw	a0,17448(s7)
80403cf8:	afbe0038 	sw	s8,56(sp)
80403cfc:	afb5002c 	sw	s5,44(sp)
80403d00:	00c0f021 	move	s8,a2
80403d04:	00a0a821 	move	s5,a1
80403d08:	00003021 	move	a2,zero
80403d0c:	00002821 	move	a1,zero
80403d10:	afb60030 	sw	s6,48(sp)
80403d14:	afb30024 	sw	s3,36(sp)
80403d18:	afbf003c 	sw	ra,60(sp)
80403d1c:	afb40028 	sw	s4,40(sp)
80403d20:	afb1001c 	sw	s1,28(sp)
80403d24:	afb00018 	sw	s0,24(sp)
80403d28:	0c1013f0 	jal	80404fc0 <rtems_semaphore_obtain>
80403d2c:	00e0b021 	move	s6,a3
80403d30:	14400022 	bnez	v0,80403dbc <rtems_termios_open+0xdc>
80403d34:	00409821 	move	s3,v0
80403d38:	3c148041 	lui	s4,0x8041
80403d3c:	8e904430 	lw	s0,17456(s4)
80403d40:	16000006 	bnez	s0,80403d5c <rtems_termios_open+0x7c>
80403d44:	24040001 	li	a0,1
80403d48:	08100f7c 	j	80403df0 <rtems_termios_open+0x110>
80403d4c:	00000000 	nop
80403d50:	8e100000 	lw	s0,0(s0)
80403d54:	12000026 	beqz	s0,80403df0 <rtems_termios_open+0x110>
80403d58:	24040001 	li	a0,1
80403d5c:	8e02000c 	lw	v0,12(s0)
80403d60:	1452fffb 	bne	v0,s2,80403d50 <rtems_termios_open+0x70>
80403d64:	00000000 	nop
80403d68:	8e020010 	lw	v0,16(s0)
80403d6c:	1455fff8 	bne	v0,s5,80403d50 <rtems_termios_open+0x70>
80403d70:	00000000 	nop
80403d74:	8e020008 	lw	v0,8(s0)
80403d78:	8fc30000 	lw	v1,0(s8)
80403d7c:	24440001 	addiu	a0,v0,1
80403d80:	ac700028 	sw	s0,40(v1)
80403d84:	1440000b 	bnez	v0,80403db4 <rtems_termios_open+0xd4>
80403d88:	ae040008 	sw	a0,8(s0)
80403d8c:	8e020098 	lw	v0,152(s0)
80403d90:	10400004 	beqz	v0,80403da4 <rtems_termios_open+0xc4>
80403d94:	02402021 	move	a0,s2
80403d98:	02a02821 	move	a1,s5
80403d9c:	0040f809 	jalr	v0
80403da0:	03c03021 	move	a2,s8
80403da4:	8e0300b4 	lw	v1,180(s0)
80403da8:	24020002 	li	v0,2
80403dac:	106200ac 	beq	v1,v0,80404060 <rtems_termios_open+0x380>
80403db0:	3c058040 	lui	a1,0x8040
80403db4:	0c101504 	jal	80405410 <rtems_semaphore_release>
80403db8:	8ee44428 	lw	a0,17448(s7)
80403dbc:	8fbf003c 	lw	ra,60(sp)
80403dc0:	02601021 	move	v0,s3
80403dc4:	8fbe0038 	lw	s8,56(sp)
80403dc8:	8fb70034 	lw	s7,52(sp)
80403dcc:	8fb60030 	lw	s6,48(sp)
80403dd0:	8fb5002c 	lw	s5,44(sp)
80403dd4:	8fb40028 	lw	s4,40(sp)
80403dd8:	8fb30024 	lw	s3,36(sp)
80403ddc:	8fb20020 	lw	s2,32(sp)
80403de0:	8fb1001c 	lw	s1,28(sp)
80403de4:	8fb00018 	lw	s0,24(sp)
80403de8:	03e00008 	jr	ra
80403dec:	27bd0040 	addiu	sp,sp,64
80403df0:	0c102c48 	jal	8040b120 <calloc>
80403df4:	240500e8 	li	a1,232
80403df8:	00408821 	move	s1,v0
80403dfc:	104000a8 	beqz	v0,804040a0 <rtems_termios_open+0x3c0>
80403e00:	00408021 	move	s0,v0
80403e04:	3c028041 	lui	v0,0x8041
80403e08:	8c4337a8 	lw	v1,14248(v0)
80403e0c:	ae230064 	sw	v1,100(s1)
80403e10:	8e240064 	lw	a0,100(s1)
80403e14:	0c10044c 	jal	80401130 <malloc>
80403e18:	00000000 	nop
80403e1c:	1040009e 	beqz	v0,80404098 <rtems_termios_open+0x3b8>
80403e20:	ae220058 	sw	v0,88(s1)
80403e24:	3c028041 	lui	v0,0x8041
80403e28:	8c4337ac 	lw	v1,14252(v0)
80403e2c:	ae230088 	sw	v1,136(s1)
80403e30:	8e240088 	lw	a0,136(s1)
80403e34:	0c10044c 	jal	80401130 <malloc>
80403e38:	00000000 	nop
80403e3c:	1040009d 	beqz	v0,804040b4 <rtems_termios_open+0x3d4>
80403e40:	ae22007c 	sw	v0,124(s1)
80403e44:	3c028041 	lui	v0,0x8041
80403e48:	0c10044c 	jal	80401130 <malloc>
80403e4c:	8c4437a4 	lw	a0,14244(v0)
80403e50:	104000b1 	beqz	v0,80404118 <rtems_termios_open+0x438>
80403e54:	ae22001c 	sw	v0,28(s1)
80403e58:	8e824430 	lw	v0,17456(s4)
80403e5c:	ae2000d4 	sw	zero,212(s1)
80403e60:	ae2000d8 	sw	zero,216(s1)
80403e64:	ae2000dc 	sw	zero,220(s1)
80403e68:	ae2000e0 	sw	zero,224(s1)
80403e6c:	ae2000e4 	sw	zero,228(s1)
80403e70:	ae220000 	sw	v0,0(s1)
80403e74:	10400002 	beqz	v0,80403e80 <rtems_termios_open+0x1a0>
80403e78:	ae200004 	sw	zero,4(s1)
80403e7c:	ac510004 	sw	s1,4(v0)
80403e80:	3c038041 	lui	v1,0x8041
80403e84:	8c62442c 	lw	v0,17452(v1)
80403e88:	104000c5 	beqz	v0,804041a0 <rtems_termios_open+0x4c0>
80403e8c:	ae914430 	sw	s1,17456(s4)
80403e90:	3c038041 	lui	v1,0x8041
80403e94:	806237b0 	lb	v0,14256(v1)
80403e98:	3c145452 	lui	s4,0x5452
80403e9c:	36846900 	ori	a0,s4,0x6900
80403ea0:	26230014 	addiu	v1,s1,20
80403ea4:	00442025 	or	a0,v0,a0
80403ea8:	24050001 	li	a1,1
80403eac:	24060054 	li	a2,84
80403eb0:	00003821 	move	a3,zero
80403eb4:	afa30010 	sw	v1,16(sp)
80403eb8:	ae350010 	sw	s5,16(s1)
80403ebc:	0c101318 	jal	80404c60 <rtems_semaphore_create>
80403ec0:	ae32000c 	sw	s2,12(s1)
80403ec4:	14400072 	bnez	v0,80404090 <rtems_termios_open+0x3b0>
80403ec8:	3c038041 	lui	v1,0x8041
80403ecc:	806237b0 	lb	v0,14256(v1)
80403ed0:	36846f00 	ori	a0,s4,0x6f00
80403ed4:	26230018 	addiu	v1,s1,24
80403ed8:	00442025 	or	a0,v0,a0
80403edc:	24050001 	li	a1,1
80403ee0:	24060054 	li	a2,84
80403ee4:	00003821 	move	a3,zero
80403ee8:	0c101318 	jal	80404c60 <rtems_semaphore_create>
80403eec:	afa30010 	sw	v1,16(sp)
80403ef0:	14400067 	bnez	v0,80404090 <rtems_termios_open+0x3b0>
80403ef4:	3c038041 	lui	v1,0x8041
80403ef8:	806237b0 	lb	v0,14256(v1)
80403efc:	36847800 	ori	a0,s4,0x7800
80403f00:	2623008c 	addiu	v1,s1,140
80403f04:	00442025 	or	a0,v0,a0
80403f08:	00002821 	move	a1,zero
80403f0c:	24060020 	li	a2,32
80403f10:	00003821 	move	a3,zero
80403f14:	0c101318 	jal	80404c60 <rtems_semaphore_create>
80403f18:	afa30010 	sw	v1,16(sp)
80403f1c:	1440005c 	bnez	v0,80404090 <rtems_termios_open+0x3b0>
80403f20:	00000000 	nop
80403f24:	8ec20000 	lw	v0,0(s6)
80403f28:	8ec9001c 	lw	t1,28(s6)
80403f2c:	8ec30004 	lw	v1,4(s6)
80403f30:	8ec40008 	lw	a0,8(s6)
80403f34:	8ec5000c 	lw	a1,12(s6)
80403f38:	8ec60010 	lw	a2,16(s6)
80403f3c:	8ec70014 	lw	a3,20(s6)
80403f40:	8ec80018 	lw	t0,24(s6)
80403f44:	ae220098 	sw	v0,152(s1)
80403f48:	24020002 	li	v0,2
80403f4c:	ae23009c 	sw	v1,156(s1)
80403f50:	ae2400a0 	sw	a0,160(s1)
80403f54:	ae2500a4 	sw	a1,164(s1)
80403f58:	ae2600a8 	sw	a2,168(s1)
80403f5c:	ae2700ac 	sw	a3,172(s1)
80403f60:	ae2800b0 	sw	t0,176(s1)
80403f64:	ae200094 	sw	zero,148(s1)
80403f68:	11220070 	beq	t1,v0,8040412c <rtems_termios_open+0x44c>
80403f6c:	ae2900b4 	sw	t1,180(s1)
80403f70:	8e2200a0 	lw	v0,160(s1)
80403f74:	10400059 	beqz	v0,804040dc <rtems_termios_open+0x3fc>
80403f78:	24020002 	li	v0,2
80403f7c:	8e2300b4 	lw	v1,180(s1)
80403f80:	10620057 	beq	v1,v0,804040e0 <rtems_termios_open+0x400>
80403f84:	3c038041 	lui	v1,0x8041
80403f88:	ae2000b8 	sw	zero,184(s1)
80403f8c:	8e240064 	lw	a0,100(s1)
80403f90:	8e230064 	lw	v1,100(s1)
80403f94:	3c028041 	lui	v0,0x8041
80403f98:	804537b0 	lb	a1,14256(v0)
80403f9c:	00031040 	sll	v0,v1,0x1
80403fa0:	00431021 	addu	v0,v0,v1
80403fa4:	00021082 	srl	v0,v0,0x2
80403fa8:	24a30001 	addiu	v1,a1,1
80403fac:	ae2200c0 	sw	v0,192(s1)
80403fb0:	3c028041 	lui	v0,0x8041
80403fb4:	a04337b0 	sb	v1,14256(v0)
80403fb8:	24022502 	li	v0,9474
80403fbc:	24031805 	li	v1,6149
80403fc0:	ae220030 	sw	v0,48(s1)
80403fc4:	240208bd 	li	v0,2237
80403fc8:	ae230034 	sw	v1,52(s1)
80403fcc:	ae220038 	sw	v0,56(s1)
80403fd0:	3403823b 	li	v1,0x823b
80403fd4:	24020003 	li	v0,3
80403fd8:	ae23003c 	sw	v1,60(s1)
80403fdc:	a2220041 	sb	v0,65(s1)
80403fe0:	2403001c 	li	v1,28
80403fe4:	2402007f 	li	v0,127
80403fe8:	a2230042 	sb	v1,66(s1)
80403fec:	a2220043 	sb	v0,67(s1)
80403ff0:	24030015 	li	v1,21
80403ff4:	24020004 	li	v0,4
80403ff8:	a2230044 	sb	v1,68(s1)
80403ffc:	a2220045 	sb	v0,69(s1)
80404000:	24030011 	li	v1,17
80404004:	24020013 	li	v0,19
80404008:	a2230049 	sb	v1,73(s1)
8040400c:	a222004a 	sb	v0,74(s1)
80404010:	2403001a 	li	v1,26
80404014:	24020012 	li	v0,18
80404018:	a223004b 	sb	v1,75(s1)
8040401c:	a222004d 	sb	v0,77(s1)
80404020:	2403000f 	li	v1,15
80404024:	24020017 	li	v0,23
80404028:	00042042 	srl	a0,a0,0x1
8040402c:	a223004e 	sb	v1,78(s1)
80404030:	a222004f 	sb	v0,79(s1)
80404034:	24030016 	li	v1,22
80404038:	2402007a 	li	v0,122
8040403c:	a2230050 	sb	v1,80(s1)
80404040:	ae2400bc 	sw	a0,188(s1)
80404044:	a220004c 	sb	zero,76(s1)
80404048:	14a2ff4a 	bne	a1,v0,80403d74 <rtems_termios_open+0x94>
8040404c:	a2200051 	sb	zero,81(s1)
80404050:	24030061 	li	v1,97
80404054:	3c028041 	lui	v0,0x8041
80404058:	08100f5d 	j	80403d74 <rtems_termios_open+0x94>
8040405c:	a04337b0 	sb	v1,14256(v0)
80404060:	8e0400c4 	lw	a0,196(s0)
80404064:	24a54250 	addiu	a1,a1,16976
80404068:	0c101614 	jal	80405850 <rtems_task_start>
8040406c:	02003021 	move	a2,s0
80404070:	14400007 	bnez	v0,80404090 <rtems_termios_open+0x3b0>
80404074:	3c058040 	lui	a1,0x8040
80404078:	8e0400c8 	lw	a0,200(s0)
8040407c:	24a541a8 	addiu	a1,a1,16808
80404080:	0c101614 	jal	80405850 <rtems_task_start>
80404084:	02003021 	move	a2,s0
80404088:	1040ff4a 	beqz	v0,80403db4 <rtems_termios_open+0xd4>
8040408c:	00000000 	nop
80404090:	0c1016d4 	jal	80405b50 <rtems_fatal_error_occurred>
80404094:	00402021 	move	a0,v0
80404098:	0c102c9c 	jal	8040b270 <free>
8040409c:	02202021 	move	a0,s1
804040a0:	8ee44428 	lw	a0,17448(s7)
804040a4:	0c101504 	jal	80405410 <rtems_semaphore_release>
804040a8:	2413001a 	li	s3,26
804040ac:	08100f70 	j	80403dc0 <rtems_termios_open+0xe0>
804040b0:	8fbf003c 	lw	ra,60(sp)
804040b4:	8e240058 	lw	a0,88(s1)
804040b8:	2413001a 	li	s3,26
804040bc:	0c102c9c 	jal	8040b270 <free>
804040c0:	00000000 	nop
804040c4:	0c102c9c 	jal	8040b270 <free>
804040c8:	02202021 	move	a0,s1
804040cc:	0c101504 	jal	80405410 <rtems_semaphore_release>
804040d0:	8ee44428 	lw	a0,17448(s7)
804040d4:	08100f70 	j	80403dc0 <rtems_termios_open+0xe0>
804040d8:	8fbf003c 	lw	ra,60(sp)
804040dc:	3c038041 	lui	v1,0x8041
804040e0:	806237b0 	lb	v0,14256(v1)
804040e4:	3c045452 	lui	a0,0x5452
804040e8:	34847200 	ori	a0,a0,0x7200
804040ec:	26230068 	addiu	v1,s1,104
804040f0:	00442025 	or	a0,v0,a0
804040f4:	00002821 	move	a1,zero
804040f8:	24060024 	li	a2,36
804040fc:	00003821 	move	a3,zero
80404100:	0c101318 	jal	80404c60 <rtems_semaphore_create>
80404104:	afa30010 	sw	v1,16(sp)
80404108:	1040ff9f 	beqz	v0,80403f88 <rtems_termios_open+0x2a8>
8040410c:	00000000 	nop
80404110:	08101024 	j	80404090 <rtems_termios_open+0x3b0>
80404114:	00000000 	nop
80404118:	8e24007c 	lw	a0,124(s1)
8040411c:	0c102c9c 	jal	8040b270 <free>
80404120:	2413001a 	li	s3,26
80404124:	0810102f 	j	804040bc <rtems_termios_open+0x3dc>
80404128:	8e240058 	lw	a0,88(s1)
8040412c:	3c038041 	lui	v1,0x8041
80404130:	806237b0 	lb	v0,14256(v1)
80404134:	3c045478 	lui	a0,0x5478
80404138:	34845400 	ori	a0,a0,0x5400
8040413c:	262300c8 	addiu	v1,s1,200
80404140:	00442025 	or	a0,v0,a0
80404144:	2405000a 	li	a1,10
80404148:	24060400 	li	a2,1024
8040414c:	24070500 	li	a3,1280
80404150:	afa30014 	sw	v1,20(sp)
80404154:	0c10153c 	jal	804054f0 <rtems_task_create>
80404158:	afa00010 	sw	zero,16(sp)
8040415c:	1440ffcc 	bnez	v0,80404090 <rtems_termios_open+0x3b0>
80404160:	3c038041 	lui	v1,0x8041
80404164:	806237b0 	lb	v0,14256(v1)
80404168:	3c045278 	lui	a0,0x5278
8040416c:	34845400 	ori	a0,a0,0x5400
80404170:	262300c4 	addiu	v1,s1,196
80404174:	00442025 	or	a0,v0,a0
80404178:	24050009 	li	a1,9
8040417c:	24060400 	li	a2,1024
80404180:	24070500 	li	a3,1280
80404184:	afa30014 	sw	v1,20(sp)
80404188:	0c10153c 	jal	804054f0 <rtems_task_create>
8040418c:	afa00010 	sw	zero,16(sp)
80404190:	1040ff77 	beqz	v0,80403f70 <rtems_termios_open+0x290>
80404194:	00000000 	nop
80404198:	08101024 	j	80404090 <rtems_termios_open+0x3b0>
8040419c:	00000000 	nop
804041a0:	08100fa4 	j	80403e90 <rtems_termios_open+0x1b0>
804041a4:	ac71442c 	sw	s1,17452(v1)

804041a8 <rtems_termios_txdaemon>:
804041a8:	27bdffd8 	addiu	sp,sp,-40
804041ac:	3c028041 	lui	v0,0x8041
804041b0:	afb20020 	sw	s2,32(sp)
804041b4:	afb1001c 	sw	s1,28(sp)
804041b8:	afb00018 	sw	s0,24(sp)
804041bc:	afbf0024 	sw	ra,36(sp)
804041c0:	00808021 	move	s0,a0
804041c4:	245241d0 	addiu	s2,v0,16848
804041c8:	27b10010 	addiu	s1,sp,16
804041cc:	24040003 	li	a0,3
804041d0:	24050002 	li	a1,2
804041d4:	00003021 	move	a2,zero
804041d8:	0c101188 	jal	80404620 <rtems_event_receive>
804041dc:	02203821 	move	a3,s1
804041e0:	8fa20010 	lw	v0,16(sp)
804041e4:	30420001 	andi	v0,v0,0x1
804041e8:	14400014 	bnez	v0,8040423c <rtems_termios_txdaemon+0x94>
804041ec:	02002021 	move	a0,s0
804041f0:	8e0200cc 	lw	v0,204(s0)
804041f4:	00021140 	sll	v0,v0,0x5
804041f8:	02421021 	addu	v0,s2,v0
804041fc:	8c420014 	lw	v0,20(v0)
80404200:	10400003 	beqz	v0,80404210 <rtems_termios_txdaemon+0x68>
80404204:	00000000 	nop
80404208:	0040f809 	jalr	v0
8040420c:	00000000 	nop
80404210:	0c1007b7 	jal	80401edc <rtems_termios_refill_transmitter>
80404214:	02002021 	move	a0,s0
80404218:	24040003 	li	a0,3
8040421c:	24050002 	li	a1,2
80404220:	00003021 	move	a2,zero
80404224:	0c101188 	jal	80404620 <rtems_event_receive>
80404228:	02203821 	move	a3,s1
8040422c:	8fa20010 	lw	v0,16(sp)
80404230:	30420001 	andi	v0,v0,0x1
80404234:	1040ffee 	beqz	v0,804041f0 <rtems_termios_txdaemon+0x48>
80404238:	02002021 	move	a0,s0
8040423c:	ae0000c8 	sw	zero,200(s0)
80404240:	0c1015b8 	jal	804056e0 <rtems_task_delete>
80404244:	00002021 	move	a0,zero
80404248:	08101074 	j	804041d0 <rtems_termios_txdaemon+0x28>
8040424c:	24040003 	li	a0,3

80404250 <rtems_termios_rxdaemon>:
80404250:	27bdffd0 	addiu	sp,sp,-48
80404254:	afb30028 	sw	s3,40(sp)
80404258:	afb20024 	sw	s2,36(sp)
8040425c:	afb10020 	sw	s1,32(sp)
80404260:	afb0001c 	sw	s0,28(sp)
80404264:	afbf002c 	sw	ra,44(sp)
80404268:	00808021 	move	s0,a0
8040426c:	27b10014 	addiu	s1,sp,20
80404270:	27b30010 	addiu	s3,sp,16
80404274:	2412ffff 	li	s2,-1
80404278:	02203821 	move	a3,s1
8040427c:	24050002 	li	a1,2
80404280:	00003021 	move	a2,zero
80404284:	0c101188 	jal	80404620 <rtems_event_receive>
80404288:	24040003 	li	a0,3
8040428c:	8fa30014 	lw	v1,20(sp)
80404290:	30630001 	andi	v1,v1,0x1
80404294:	14600013 	bnez	v1,804042e4 <rtems_termios_rxdaemon+0x94>
80404298:	00000000 	nop
8040429c:	8e0300a0 	lw	v1,160(s0)
804042a0:	0060f809 	jalr	v1
804042a4:	8e040010 	lw	a0,16(s0)
804042a8:	02002021 	move	a0,s0
804042ac:	02602821 	move	a1,s3
804042b0:	1052fff1 	beq	v0,s2,80404278 <rtems_termios_rxdaemon+0x28>
804042b4:	24060001 	li	a2,1
804042b8:	0c10089e 	jal	80402278 <rtems_termios_enqueue_raw_characters>
804042bc:	a3a20010 	sb	v0,16(sp)
804042c0:	02203821 	move	a3,s1
804042c4:	24050002 	li	a1,2
804042c8:	00003021 	move	a2,zero
804042cc:	0c101188 	jal	80404620 <rtems_event_receive>
804042d0:	24040003 	li	a0,3
804042d4:	8fa30014 	lw	v1,20(sp)
804042d8:	30630001 	andi	v1,v1,0x1
804042dc:	1060ffef 	beqz	v1,8040429c <rtems_termios_rxdaemon+0x4c>
804042e0:	00000000 	nop
804042e4:	ae0000c4 	sw	zero,196(s0)
804042e8:	0c1015b8 	jal	804056e0 <rtems_task_delete>
804042ec:	00002021 	move	a0,zero
804042f0:	0810109f 	j	8040427c <rtems_termios_rxdaemon+0x2c>
804042f4:	02203821 	move	a3,s1
	...

80404300 <rtems_clock_get>:
80404300:	27bdffe8 	addiu	sp,sp,-24
80404304:	afb00010 	sw	s0,16(sp)
80404308:	afbf0014 	sw	ra,20(sp)
8040430c:	10a0002e 	beqz	a1,804043c8 <rtems_clock_get+0xc8>
80404310:	00a08021 	move	s0,a1
80404314:	2c820005 	sltiu	v0,a0,5
80404318:	14400006 	bnez	v0,80404334 <rtems_clock_get+0x34>
8040431c:	3c038041 	lui	v1,0x8041
80404320:	2402000a 	li	v0,10
80404324:	8fbf0014 	lw	ra,20(sp)
80404328:	8fb00010 	lw	s0,16(sp)
8040432c:	03e00008 	jr	ra
80404330:	27bd0018 	addiu	sp,sp,24
80404334:	00041080 	sll	v0,a0,0x2
80404338:	24632710 	addiu	v1,v1,10000
8040433c:	00621821 	addu	v1,v1,v0
80404340:	8c640000 	lw	a0,0(v1)
80404344:	00800008 	jr	a0
80404348:	00000000 	nop
8040434c:	8fbf0014 	lw	ra,20(sp)
80404350:	8fb00010 	lw	s0,16(sp)
80404354:	00a02021 	move	a0,a1
80404358:	08101158 	j	80404560 <rtems_clock_get_tod_timeval>
8040435c:	27bd0018 	addiu	sp,sp,24
80404360:	0c101104 	jal	80404410 <rtems_clock_get_ticks_per_second>
80404364:	00000000 	nop
80404368:	8fbf0014 	lw	ra,20(sp)
8040436c:	ae020000 	sw	v0,0(s0)
80404370:	00001021 	move	v0,zero
80404374:	8fb00010 	lw	s0,16(sp)
80404378:	03e00008 	jr	ra
8040437c:	27bd0018 	addiu	sp,sp,24
80404380:	0c10110c 	jal	80404430 <rtems_clock_get_ticks_since_boot>
80404384:	00000000 	nop
80404388:	8fbf0014 	lw	ra,20(sp)
8040438c:	ae020000 	sw	v0,0(s0)
80404390:	00001021 	move	v0,zero
80404394:	8fb00010 	lw	s0,16(sp)
80404398:	03e00008 	jr	ra
8040439c:	27bd0018 	addiu	sp,sp,24
804043a0:	8fbf0014 	lw	ra,20(sp)
804043a4:	8fb00010 	lw	s0,16(sp)
804043a8:	00a02021 	move	a0,a1
804043ac:	081010f4 	j	804043d0 <rtems_clock_get_seconds_since_epoch>
804043b0:	27bd0018 	addiu	sp,sp,24
804043b4:	8fbf0014 	lw	ra,20(sp)
804043b8:	8fb00010 	lw	s0,16(sp)
804043bc:	00a02021 	move	a0,a1
804043c0:	08101110 	j	80404440 <rtems_clock_get_tod>
804043c4:	27bd0018 	addiu	sp,sp,24
804043c8:	081010c9 	j	80404324 <rtems_clock_get+0x24>
804043cc:	24020009 	li	v0,9

804043d0 <rtems_clock_get_seconds_since_epoch>:
804043d0:	1080000c 	beqz	a0,80404404 <rtems_clock_get_seconds_since_epoch+0x34>
804043d4:	00000000 	nop
804043d8:	3c028041 	lui	v0,0x8041
804043dc:	90434528 	lbu	v1,17704(v0)
804043e0:	10600006 	beqz	v1,804043fc <rtems_clock_get_seconds_since_epoch+0x2c>
804043e4:	00000000 	nop
804043e8:	3c028041 	lui	v0,0x8041
804043ec:	8c4345a4 	lw	v1,17828(v0)
804043f0:	00001021 	move	v0,zero
804043f4:	03e00008 	jr	ra
804043f8:	ac830000 	sw	v1,0(a0)
804043fc:	03e00008 	jr	ra
80404400:	2402000b 	li	v0,11
80404404:	03e00008 	jr	ra
80404408:	24020009 	li	v0,9
8040440c:	00000000 	nop

80404410 <rtems_clock_get_ticks_per_second>:
80404410:	3c028041 	lui	v0,0x8041
80404414:	8c4346b0 	lw	v1,18096(v0)
80404418:	3c02000f 	lui	v0,0xf
8040441c:	34424240 	ori	v0,v0,0x4240
80404420:	0043001b 	divu	zero,v0,v1
80404424:	006001f4 	teq	v1,zero,0x7
80404428:	03e00008 	jr	ra
8040442c:	00001012 	mflo	v0

80404430 <rtems_clock_get_ticks_since_boot>:
80404430:	3c038041 	lui	v1,0x8041
80404434:	8c624664 	lw	v0,18020(v1)
80404438:	03e00008 	jr	ra
8040443c:	00000000 	nop

80404440 <rtems_clock_get_tod>:
80404440:	27bdffa8 	addiu	sp,sp,-88
80404444:	afb10050 	sw	s1,80(sp)
80404448:	afbf0054 	sw	ra,84(sp)
8040444c:	afb0004c 	sw	s0,76(sp)
80404450:	10800041 	beqz	a0,80404558 <rtems_clock_get_tod+0x118>
80404454:	00808821 	move	s1,a0
80404458:	3c028041 	lui	v0,0x8041
8040445c:	90434528 	lbu	v1,17704(v0)
80404460:	14600006 	bnez	v1,8040447c <rtems_clock_get_tod+0x3c>
80404464:	2402000b 	li	v0,11
80404468:	8fbf0054 	lw	ra,84(sp)
8040446c:	8fb10050 	lw	s1,80(sp)
80404470:	8fb0004c 	lw	s0,76(sp)
80404474:	03e00008 	jr	ra
80404478:	27bd0058 	addiu	sp,sp,88
8040447c:	40106000 	mfc0	s0,c0_status
80404480:	00000000 	nop
80404484:	2402fffe 	li	v0,-2
80404488:	02021024 	and	v0,s0,v0
8040448c:	40826000 	mtc0	v0,c0_status
80404490:	00000000 	nop
80404494:	0c1019e8 	jal	804067a0 <_TOD_Get>
80404498:	27a40018 	addiu	a0,sp,24
8040449c:	40026000 	mfc0	v0,c0_status
804044a0:	00000000 	nop
804044a4:	2403fffe 	li	v1,-2
804044a8:	00431024 	and	v0,v0,v1
804044ac:	32100001 	andi	s0,s0,0x1
804044b0:	02028025 	or	s0,s0,v0
804044b4:	40906000 	mtc0	s0,c0_status
804044b8:	00000000 	nop
804044bc:	3c021062 	lui	v0,0x1062
804044c0:	8fa3001c 	lw	v1,28(sp)
804044c4:	34424dd3 	ori	v0,v0,0x4dd3
804044c8:	00620019 	multu	v1,v0
804044cc:	8fa20018 	lw	v0,24(sp)
804044d0:	00001810 	mfhi	v1
804044d4:	27a40010 	addiu	a0,sp,16
804044d8:	00031982 	srl	v1,v1,0x6
804044dc:	27a50020 	addiu	a1,sp,32
804044e0:	afa30014 	sw	v1,20(sp)
804044e4:	0c103d6c 	jal	8040f5b0 <gmtime_r>
804044e8:	afa20010 	sw	v0,16(sp)
804044ec:	3c038041 	lui	v1,0x8041
804044f0:	8c6246b0 	lw	v0,18096(v1)
804044f4:	8fa40014 	lw	a0,20(sp)
804044f8:	8fa30034 	lw	v1,52(sp)
804044fc:	0082001b 	divu	zero,a0,v0
80404500:	004001f4 	teq	v0,zero,0x7
80404504:	8fa20030 	lw	v0,48(sp)
80404508:	2463076c 	addiu	v1,v1,1900
8040450c:	24420001 	addiu	v0,v0,1
80404510:	ae230000 	sw	v1,0(s1)
80404514:	ae220004 	sw	v0,4(s1)
80404518:	8fa3002c 	lw	v1,44(sp)
8040451c:	8fa20028 	lw	v0,40(sp)
80404520:	ae230008 	sw	v1,8(s1)
80404524:	ae22000c 	sw	v0,12(s1)
80404528:	8fa30024 	lw	v1,36(sp)
8040452c:	8fa20020 	lw	v0,32(sp)
80404530:	8fbf0054 	lw	ra,84(sp)
80404534:	ae220014 	sw	v0,20(s1)
80404538:	ae230010 	sw	v1,16(s1)
8040453c:	00001021 	move	v0,zero
80404540:	8fb0004c 	lw	s0,76(sp)
80404544:	00002012 	mflo	a0
80404548:	ae240018 	sw	a0,24(s1)
8040454c:	8fb10050 	lw	s1,80(sp)
80404550:	03e00008 	jr	ra
80404554:	27bd0058 	addiu	sp,sp,88
80404558:	0810111a 	j	80404468 <rtems_clock_get_tod+0x28>
8040455c:	24020009 	li	v0,9

80404560 <rtems_clock_get_tod_timeval>:
80404560:	27bdffd8 	addiu	sp,sp,-40
80404564:	afb10020 	sw	s1,32(sp)
80404568:	afbf0024 	sw	ra,36(sp)
8040456c:	afb0001c 	sw	s0,28(sp)
80404570:	10800029 	beqz	a0,80404618 <rtems_clock_get_tod_timeval+0xb8>
80404574:	00808821 	move	s1,a0
80404578:	3c028041 	lui	v0,0x8041
8040457c:	90434528 	lbu	v1,17704(v0)
80404580:	14600006 	bnez	v1,8040459c <rtems_clock_get_tod_timeval+0x3c>
80404584:	2402000b 	li	v0,11
80404588:	8fbf0024 	lw	ra,36(sp)
8040458c:	8fb10020 	lw	s1,32(sp)
80404590:	8fb0001c 	lw	s0,28(sp)
80404594:	03e00008 	jr	ra
80404598:	27bd0028 	addiu	sp,sp,40
8040459c:	40106000 	mfc0	s0,c0_status
804045a0:	00000000 	nop
804045a4:	2402fffe 	li	v0,-2
804045a8:	02021024 	and	v0,s0,v0
804045ac:	40826000 	mtc0	v0,c0_status
804045b0:	00000000 	nop
804045b4:	0c1019e8 	jal	804067a0 <_TOD_Get>
804045b8:	27a40010 	addiu	a0,sp,16
804045bc:	40026000 	mfc0	v0,c0_status
804045c0:	00000000 	nop
804045c4:	2403fffe 	li	v1,-2
804045c8:	00431024 	and	v0,v0,v1
804045cc:	32100001 	andi	s0,s0,0x1
804045d0:	02028025 	or	s0,s0,v0
804045d4:	40906000 	mtc0	s0,c0_status
804045d8:	00000000 	nop
804045dc:	3c031062 	lui	v1,0x1062
804045e0:	8fa20014 	lw	v0,20(sp)
804045e4:	34634dd3 	ori	v1,v1,0x4dd3
804045e8:	00430019 	multu	v0,v1
804045ec:	8fa40010 	lw	a0,16(sp)
804045f0:	00001010 	mfhi	v0
804045f4:	8fbf0024 	lw	ra,36(sp)
804045f8:	00021182 	srl	v0,v0,0x6
804045fc:	ae220004 	sw	v0,4(s1)
80404600:	ae240000 	sw	a0,0(s1)
80404604:	00001021 	move	v0,zero
80404608:	8fb10020 	lw	s1,32(sp)
8040460c:	8fb0001c 	lw	s0,28(sp)
80404610:	03e00008 	jr	ra
80404614:	27bd0028 	addiu	sp,sp,40
80404618:	08101162 	j	80404588 <rtems_clock_get_tod_timeval+0x28>
8040461c:	24020009 	li	v0,9

80404620 <rtems_event_receive>:
80404620:	27bdffe8 	addiu	sp,sp,-24
80404624:	afbf0014 	sw	ra,20(sp)
80404628:	afb00010 	sw	s0,16(sp)
8040462c:	10e0001b 	beqz	a3,8040469c <rtems_event_receive+0x7c>
80404630:	00801821 	move	v1,a0
80404634:	3c108041 	lui	s0,0x8041
80404638:	8e0245d4 	lw	v0,17876(s0)
8040463c:	14800008 	bnez	a0,80404660 <rtems_event_receive+0x40>
80404640:	8c420108 	lw	v0,264(v0)
80404644:	8c420000 	lw	v0,0(v0)
80404648:	8fbf0014 	lw	ra,20(sp)
8040464c:	ace20000 	sw	v0,0(a3)
80404650:	8fb00010 	lw	s0,16(sp)
80404654:	00601021 	move	v0,v1
80404658:	03e00008 	jr	ra
8040465c:	27bd0018 	addiu	sp,sp,24
80404660:	3c028041 	lui	v0,0x8041
80404664:	8c434514 	lw	v1,17684(v0)
80404668:	24630001 	addiu	v1,v1,1
8040466c:	ac434514 	sw	v1,17684(v0)
80404670:	0c1011b0 	jal	804046c0 <_Event_Seize>
80404674:	00000000 	nop
80404678:	0c101f8c 	jal	80407e30 <_Thread_Enable_dispatch>
8040467c:	00000000 	nop
80404680:	8e0245d4 	lw	v0,17876(s0)
80404684:	8fbf0014 	lw	ra,20(sp)
80404688:	8c430034 	lw	v1,52(v0)
8040468c:	8fb00010 	lw	s0,16(sp)
80404690:	00601021 	move	v0,v1
80404694:	03e00008 	jr	ra
80404698:	27bd0018 	addiu	sp,sp,24
8040469c:	8fbf0014 	lw	ra,20(sp)
804046a0:	24030009 	li	v1,9
804046a4:	00601021 	move	v0,v1
804046a8:	8fb00010 	lw	s0,16(sp)
804046ac:	03e00008 	jr	ra
804046b0:	27bd0018 	addiu	sp,sp,24
	...

804046c0 <_Event_Seize>:
804046c0:	27bdffe0 	addiu	sp,sp,-32
804046c4:	3c028041 	lui	v0,0x8041
804046c8:	afb00014 	sw	s0,20(sp)
804046cc:	8c5045d4 	lw	s0,17876(v0)
804046d0:	afbf001c 	sw	ra,28(sp)
804046d4:	afb10018 	sw	s1,24(sp)
804046d8:	ae000034 	sw	zero,52(s0)
804046dc:	8e090108 	lw	t1,264(s0)
804046e0:	40036000 	mfc0	v1,c0_status
804046e4:	00000000 	nop
804046e8:	2402fffe 	li	v0,-2
804046ec:	00621024 	and	v0,v1,v0
804046f0:	40826000 	mtc0	v0,c0_status
804046f4:	00000000 	nop
804046f8:	306a0001 	andi	t2,v1,0x1
804046fc:	8d230000 	lw	v1,0(t1)
80404700:	00834024 	and	t0,a0,v1
80404704:	11000005 	beqz	t0,8040471c <_Event_Seize+0x5c>
80404708:	30a20001 	andi	v0,a1,0x1
8040470c:	10880036 	beq	a0,t0,804047e8 <_Event_Seize+0x128>
80404710:	30a20002 	andi	v0,a1,0x2
80404714:	14400034 	bnez	v0,804047e8 <_Event_Seize+0x128>
80404718:	30a20001 	andi	v0,a1,0x1
8040471c:	14400023 	bnez	v0,804047ac <_Event_Seize+0xec>
80404720:	3c118041 	lui	s1,0x8041
80404724:	24020001 	li	v0,1
80404728:	ae224fd4 	sw	v0,20436(s1)
8040472c:	ae050030 	sw	a1,48(s0)
80404730:	ae040024 	sw	a0,36(s0)
80404734:	ae070028 	sw	a3,40(s0)
80404738:	40026000 	mfc0	v0,c0_status
8040473c:	00000000 	nop
80404740:	2403fffe 	li	v1,-2
80404744:	00431024 	and	v0,v0,v1
80404748:	004a1025 	or	v0,v0,t2
8040474c:	40826000 	mtc0	v0,c0_status
80404750:	00000000 	nop
80404754:	14c00040 	bnez	a2,80404858 <_Event_Seize+0x198>
80404758:	3c038040 	lui	v1,0x8040
8040475c:	02002021 	move	a0,s0
80404760:	0c1022e8 	jal	80408ba0 <_Thread_Set_state>
80404764:	24050100 	li	a1,256
80404768:	40026000 	mfc0	v0,c0_status
8040476c:	00000000 	nop
80404770:	2403fffe 	li	v1,-2
80404774:	00431824 	and	v1,v0,v1
80404778:	40836000 	mtc0	v1,c0_status
8040477c:	00000000 	nop
80404780:	30460001 	andi	a2,v0,0x1
80404784:	8e244fd4 	lw	a0,20436(s1)
80404788:	24020001 	li	v0,1
8040478c:	ae204fd4 	sw	zero,20436(s1)
80404790:	10820025 	beq	a0,v0,80404828 <_Event_Seize+0x168>
80404794:	02002821 	move	a1,s0
80404798:	8fbf001c 	lw	ra,28(sp)
8040479c:	8fb10018 	lw	s1,24(sp)
804047a0:	8fb00014 	lw	s0,20(sp)
804047a4:	08101d6c 	j	804075b0 <_Thread_blocking_operation_Cancel>
804047a8:	27bd0020 	addiu	sp,sp,32
804047ac:	40026000 	mfc0	v0,c0_status
804047b0:	00000000 	nop
804047b4:	2403fffe 	li	v1,-2
804047b8:	00431024 	and	v0,v0,v1
804047bc:	004a1025 	or	v0,v0,t2
804047c0:	40826000 	mtc0	v0,c0_status
804047c4:	00000000 	nop
804047c8:	8fbf001c 	lw	ra,28(sp)
804047cc:	2403000d 	li	v1,13
804047d0:	ae030034 	sw	v1,52(s0)
804047d4:	8fb10018 	lw	s1,24(sp)
804047d8:	8fb00014 	lw	s0,20(sp)
804047dc:	ace80000 	sw	t0,0(a3)
804047e0:	03e00008 	jr	ra
804047e4:	27bd0020 	addiu	sp,sp,32
804047e8:	00081027 	nor	v0,zero,t0
804047ec:	00431024 	and	v0,v0,v1
804047f0:	ad220000 	sw	v0,0(t1)
804047f4:	40026000 	mfc0	v0,c0_status
804047f8:	00000000 	nop
804047fc:	2403fffe 	li	v1,-2
80404800:	00431024 	and	v0,v0,v1
80404804:	004a1025 	or	v0,v0,t2
80404808:	40826000 	mtc0	v0,c0_status
8040480c:	00000000 	nop
80404810:	8fbf001c 	lw	ra,28(sp)
80404814:	8fb10018 	lw	s1,24(sp)
80404818:	8fb00014 	lw	s0,20(sp)
8040481c:	ace80000 	sw	t0,0(a3)
80404820:	03e00008 	jr	ra
80404824:	27bd0020 	addiu	sp,sp,32
80404828:	40026000 	mfc0	v0,c0_status
8040482c:	00000000 	nop
80404830:	2403fffe 	li	v1,-2
80404834:	00431024 	and	v0,v0,v1
80404838:	00461025 	or	v0,v0,a2
8040483c:	40826000 	mtc0	v0,c0_status
80404840:	00000000 	nop
80404844:	8fbf001c 	lw	ra,28(sp)
80404848:	8fb10018 	lw	s1,24(sp)
8040484c:	8fb00014 	lw	s0,20(sp)
80404850:	03e00008 	jr	ra
80404854:	27bd0020 	addiu	sp,sp,32
80404858:	8e020008 	lw	v0,8(s0)
8040485c:	24634b60 	addiu	v1,v1,19296
80404860:	3c048041 	lui	a0,0x8041
80404864:	ae030064 	sw	v1,100(s0)
80404868:	ae020068 	sw	v0,104(s0)
8040486c:	ae060054 	sw	a2,84(s0)
80404870:	ae000050 	sw	zero,80(s0)
80404874:	ae00006c 	sw	zero,108(s0)
80404878:	248445f4 	addiu	a0,a0,17908
8040487c:	0c102564 	jal	80409590 <_Watchdog_Insert>
80404880:	26050048 	addiu	a1,s0,72
80404884:	081011d8 	j	80404760 <_Event_Seize+0xa0>
80404888:	02002021 	move	a0,s0
8040488c:	00000000 	nop

80404890 <rtems_event_send>:
80404890:	27bdffe0 	addiu	sp,sp,-32
80404894:	afb00018 	sw	s0,24(sp)
80404898:	00a08021 	move	s0,a1
8040489c:	afbf001c 	sw	ra,28(sp)
804048a0:	0c101f98 	jal	80407e60 <_Thread_Get>
804048a4:	27a50010 	addiu	a1,sp,16
804048a8:	00402821 	move	a1,v0
804048ac:	8fa20010 	lw	v0,16(sp)
804048b0:	1440001c 	bnez	v0,80404924 <rtems_event_send+0x94>
804048b4:	8fbf001c 	lw	ra,28(sp)
804048b8:	8ca30108 	lw	v1,264(a1)
804048bc:	40046000 	mfc0	a0,c0_status
804048c0:	00000000 	nop
804048c4:	2402fffe 	li	v0,-2
804048c8:	00821024 	and	v0,a0,v0
804048cc:	40826000 	mtc0	v0,c0_status
804048d0:	00000000 	nop
804048d4:	8c620000 	lw	v0,0(v1)
804048d8:	00501025 	or	v0,v0,s0
804048dc:	ac620000 	sw	v0,0(v1)
804048e0:	40026000 	mfc0	v0,c0_status
804048e4:	00000000 	nop
804048e8:	2403fffe 	li	v1,-2
804048ec:	00431024 	and	v0,v0,v1
804048f0:	30840001 	andi	a0,a0,0x1
804048f4:	00822025 	or	a0,a0,v0
804048f8:	40846000 	mtc0	a0,c0_status
804048fc:	00000000 	nop
80404900:	0c101250 	jal	80404940 <_Event_Surrender>
80404904:	00a02021 	move	a0,a1
80404908:	0c101f8c 	jal	80407e30 <_Thread_Enable_dispatch>
8040490c:	00000000 	nop
80404910:	8fbf001c 	lw	ra,28(sp)
80404914:	00001021 	move	v0,zero
80404918:	8fb00018 	lw	s0,24(sp)
8040491c:	03e00008 	jr	ra
80404920:	27bd0020 	addiu	sp,sp,32
80404924:	24020004 	li	v0,4
80404928:	8fb00018 	lw	s0,24(sp)
8040492c:	03e00008 	jr	ra
80404930:	27bd0020 	addiu	sp,sp,32
	...

80404940 <_Event_Surrender>:
80404940:	27bdffe8 	addiu	sp,sp,-24
80404944:	afb00010 	sw	s0,16(sp)
80404948:	afbf0014 	sw	ra,20(sp)
8040494c:	00808021 	move	s0,a0
80404950:	8c870108 	lw	a3,264(a0)
80404954:	8c890030 	lw	t1,48(a0)
80404958:	40036000 	mfc0	v1,c0_status
8040495c:	00000000 	nop
80404960:	2402fffe 	li	v0,-2
80404964:	00621024 	and	v0,v1,v0
80404968:	40826000 	mtc0	v0,c0_status
8040496c:	00000000 	nop
80404970:	30680001 	andi	t0,v1,0x1
80404974:	8ce60000 	lw	a2,0(a3)
80404978:	8c840024 	lw	a0,36(a0)
8040497c:	00862824 	and	a1,a0,a2
80404980:	10a00040 	beqz	a1,80404a84 <_Event_Surrender+0x144>
80404984:	3c028041 	lui	v0,0x8041
80404988:	8c4345b0 	lw	v1,17840(v0)
8040498c:	10600004 	beqz	v1,804049a0 <_Event_Surrender+0x60>
80404990:	3c028041 	lui	v0,0x8041
80404994:	8c4345d4 	lw	v1,17876(v0)
80404998:	12030051 	beq	s0,v1,80404ae0 <_Event_Surrender+0x1a0>
8040499c:	3c0a8041 	lui	t2,0x8041
804049a0:	8e020010 	lw	v0,16(s0)
804049a4:	30420100 	andi	v0,v0,0x100
804049a8:	1440000c 	bnez	v0,804049dc <_Event_Surrender+0x9c>
804049ac:	00000000 	nop
804049b0:	40026000 	mfc0	v0,c0_status
804049b4:	00000000 	nop
804049b8:	2403fffe 	li	v1,-2
804049bc:	00431024 	and	v0,v0,v1
804049c0:	00481025 	or	v0,v0,t0
804049c4:	40826000 	mtc0	v0,c0_status
804049c8:	00000000 	nop
804049cc:	8fbf0014 	lw	ra,20(sp)
804049d0:	8fb00010 	lw	s0,16(sp)
804049d4:	03e00008 	jr	ra
804049d8:	27bd0018 	addiu	sp,sp,24
804049dc:	10850003 	beq	a0,a1,804049ec <_Event_Surrender+0xac>
804049e0:	31220002 	andi	v0,t1,0x2
804049e4:	1040fff2 	beqz	v0,804049b0 <_Event_Surrender+0x70>
804049e8:	00000000 	nop
804049ec:	00051027 	nor	v0,zero,a1
804049f0:	8e030028 	lw	v1,40(s0)
804049f4:	00461024 	and	v0,v0,a2
804049f8:	ace20000 	sw	v0,0(a3)
804049fc:	ae000024 	sw	zero,36(s0)
80404a00:	ac650000 	sw	a1,0(v1)
80404a04:	40026000 	mfc0	v0,c0_status
80404a08:	00000000 	nop
80404a0c:	2403fffe 	li	v1,-2
80404a10:	00431024 	and	v0,v0,v1
80404a14:	00481025 	or	v0,v0,t0
80404a18:	40826000 	mtc0	v0,c0_status
80404a1c:	00000000 	nop
80404a20:	40036000 	mfc0	v1,c0_status
80404a24:	00000000 	nop
80404a28:	2402fffe 	li	v0,-2
80404a2c:	00621024 	and	v0,v1,v0
80404a30:	40826000 	mtc0	v0,c0_status
80404a34:	00000000 	nop
80404a38:	30640001 	andi	a0,v1,0x1
80404a3c:	8e030050 	lw	v1,80(s0)
80404a40:	24020002 	li	v0,2
80404a44:	1062001a 	beq	v1,v0,80404ab0 <_Event_Surrender+0x170>
80404a48:	24020003 	li	v0,3
80404a4c:	40026000 	mfc0	v0,c0_status
80404a50:	00000000 	nop
80404a54:	2403fffe 	li	v1,-2
80404a58:	00431024 	and	v0,v0,v1
80404a5c:	00441025 	or	v0,v0,a0
80404a60:	40826000 	mtc0	v0,c0_status
80404a64:	00000000 	nop
80404a68:	3c051003 	lui	a1,0x1003
80404a6c:	02002021 	move	a0,s0
80404a70:	8fbf0014 	lw	ra,20(sp)
80404a74:	8fb00010 	lw	s0,16(sp)
80404a78:	34a5fff8 	ori	a1,a1,0xfff8
80404a7c:	08101e3c 	j	804078f0 <_Thread_Clear_state>
80404a80:	27bd0018 	addiu	sp,sp,24
80404a84:	40026000 	mfc0	v0,c0_status
80404a88:	00000000 	nop
80404a8c:	2403fffe 	li	v1,-2
80404a90:	00431024 	and	v0,v0,v1
80404a94:	00481025 	or	v0,v0,t0
80404a98:	40826000 	mtc0	v0,c0_status
80404a9c:	00000000 	nop
80404aa0:	8fbf0014 	lw	ra,20(sp)
80404aa4:	8fb00010 	lw	s0,16(sp)
80404aa8:	03e00008 	jr	ra
80404aac:	27bd0018 	addiu	sp,sp,24
80404ab0:	ae020050 	sw	v0,80(s0)
80404ab4:	40026000 	mfc0	v0,c0_status
80404ab8:	00000000 	nop
80404abc:	2403fffe 	li	v1,-2
80404ac0:	00431024 	and	v0,v0,v1
80404ac4:	00441025 	or	v0,v0,a0
80404ac8:	40826000 	mtc0	v0,c0_status
80404acc:	00000000 	nop
80404ad0:	0c102600 	jal	80409800 <_Watchdog_Remove>
80404ad4:	26040048 	addiu	a0,s0,72
80404ad8:	0810129b 	j	80404a6c <_Event_Surrender+0x12c>
80404adc:	3c051003 	lui	a1,0x1003
80404ae0:	8d434fd4 	lw	v1,20436(t2)
80404ae4:	24020001 	li	v0,1
80404ae8:	10620005 	beq	v1,v0,80404b00 <_Event_Surrender+0x1c0>
80404aec:	00000000 	nop
80404af0:	8d434fd4 	lw	v1,20436(t2)
80404af4:	24020002 	li	v0,2
80404af8:	1462ffa9 	bne	v1,v0,804049a0 <_Event_Surrender+0x60>
80404afc:	00000000 	nop
80404b00:	10850003 	beq	a0,a1,80404b10 <_Event_Surrender+0x1d0>
80404b04:	31220002 	andi	v0,t1,0x2
80404b08:	10400009 	beqz	v0,80404b30 <_Event_Surrender+0x1f0>
80404b0c:	00000000 	nop
80404b10:	8e020028 	lw	v0,40(s0)
80404b14:	00051827 	nor	v1,zero,a1
80404b18:	00661824 	and	v1,v1,a2
80404b1c:	24040003 	li	a0,3
80404b20:	ace30000 	sw	v1,0(a3)
80404b24:	ad444fd4 	sw	a0,20436(t2)
80404b28:	ae000024 	sw	zero,36(s0)
80404b2c:	ac450000 	sw	a1,0(v0)
80404b30:	40026000 	mfc0	v0,c0_status
80404b34:	00000000 	nop
80404b38:	2403fffe 	li	v1,-2
80404b3c:	00431024 	and	v0,v0,v1
80404b40:	00481025 	or	v0,v0,t0
80404b44:	40826000 	mtc0	v0,c0_status
80404b48:	00000000 	nop
80404b4c:	08101274 	j	804049d0 <_Event_Surrender+0x90>
80404b50:	8fbf0014 	lw	ra,20(sp)
	...

80404b60 <_Event_Timeout>:
80404b60:	27bdffe0 	addiu	sp,sp,-32
80404b64:	afbf001c 	sw	ra,28(sp)
80404b68:	0c101f98 	jal	80407e60 <_Thread_Get>
80404b6c:	27a50010 	addiu	a1,sp,16
80404b70:	00402021 	move	a0,v0
80404b74:	8fa20010 	lw	v0,16(sp)
80404b78:	1440001f 	bnez	v0,80404bf8 <_Event_Timeout+0x98>
80404b7c:	8fbf001c 	lw	ra,28(sp)
80404b80:	40026000 	mfc0	v0,c0_status
80404b84:	00000000 	nop
80404b88:	2403fffe 	li	v1,-2
80404b8c:	00431824 	and	v1,v0,v1
80404b90:	40836000 	mtc0	v1,c0_status
80404b94:	00000000 	nop
80404b98:	30450001 	andi	a1,v0,0x1
80404b9c:	8c820024 	lw	v0,36(a0)
80404ba0:	10400017 	beqz	v0,80404c00 <_Event_Timeout+0xa0>
80404ba4:	3c028041 	lui	v0,0x8041
80404ba8:	8c4345d4 	lw	v1,17876(v0)
80404bac:	10830022 	beq	a0,v1,80404c38 <_Event_Timeout+0xd8>
80404bb0:	ac800024 	sw	zero,36(a0)
80404bb4:	24020006 	li	v0,6
80404bb8:	ac820034 	sw	v0,52(a0)
80404bbc:	40026000 	mfc0	v0,c0_status
80404bc0:	00000000 	nop
80404bc4:	2403fffe 	li	v1,-2
80404bc8:	00431024 	and	v0,v0,v1
80404bcc:	00451025 	or	v0,v0,a1
80404bd0:	40826000 	mtc0	v0,c0_status
80404bd4:	00000000 	nop
80404bd8:	3c051003 	lui	a1,0x1003
80404bdc:	0c101e3c 	jal	804078f0 <_Thread_Clear_state>
80404be0:	34a5fff8 	ori	a1,a1,0xfff8
80404be4:	3c038041 	lui	v1,0x8041
80404be8:	8c624514 	lw	v0,17684(v1)
80404bec:	2442ffff 	addiu	v0,v0,-1
80404bf0:	ac624514 	sw	v0,17684(v1)
80404bf4:	8fbf001c 	lw	ra,28(sp)
80404bf8:	03e00008 	jr	ra
80404bfc:	27bd0020 	addiu	sp,sp,32
80404c00:	3c038041 	lui	v1,0x8041
80404c04:	8c624514 	lw	v0,17684(v1)
80404c08:	2442ffff 	addiu	v0,v0,-1
80404c0c:	ac624514 	sw	v0,17684(v1)
80404c10:	40026000 	mfc0	v0,c0_status
80404c14:	00000000 	nop
80404c18:	2403fffe 	li	v1,-2
80404c1c:	00431024 	and	v0,v0,v1
80404c20:	00451025 	or	v0,v0,a1
80404c24:	40826000 	mtc0	v0,c0_status
80404c28:	00000000 	nop
80404c2c:	8fbf001c 	lw	ra,28(sp)
80404c30:	03e00008 	jr	ra
80404c34:	27bd0020 	addiu	sp,sp,32
80404c38:	3c038041 	lui	v1,0x8041
80404c3c:	8c624fd4 	lw	v0,20436(v1)
80404c40:	2c420002 	sltiu	v0,v0,2
80404c44:	1040ffdb 	beqz	v0,80404bb4 <_Event_Timeout+0x54>
80404c48:	24020002 	li	v0,2
80404c4c:	ac624fd4 	sw	v0,20436(v1)
80404c50:	081012ee 	j	80404bb8 <_Event_Timeout+0x58>
80404c54:	24020006 	li	v0,6
	...

80404c60 <rtems_semaphore_create>:
80404c60:	27bdffb8 	addiu	sp,sp,-72
80404c64:	afb5003c 	sw	s5,60(sp)
80404c68:	afb40038 	sw	s4,56(sp)
80404c6c:	afb30034 	sw	s3,52(sp)
80404c70:	afb00028 	sw	s0,40(sp)
80404c74:	afbf0044 	sw	ra,68(sp)
80404c78:	afb60040 	sw	s6,64(sp)
80404c7c:	afb20030 	sw	s2,48(sp)
80404c80:	afb1002c 	sw	s1,44(sp)
80404c84:	0080a021 	move	s4,a0
80404c88:	00a09821 	move	s3,a1
80404c8c:	00c08021 	move	s0,a2
80404c90:	10800029 	beqz	a0,80404d38 <rtems_semaphore_create+0xd8>
80404c94:	00e0a821 	move	s5,a3
80404c98:	8fa20058 	lw	v0,88(sp)
80404c9c:	10400009 	beqz	v0,80404cc4 <rtems_semaphore_create+0x64>
80404ca0:	24020009 	li	v0,9
80404ca4:	30c200c0 	andi	v0,a2,0xc0
80404ca8:	10400010 	beqz	v0,80404cec <rtems_semaphore_create+0x8c>
80404cac:	30d10030 	andi	s1,a2,0x30
80404cb0:	24020010 	li	v0,16
80404cb4:	1222001b 	beq	s1,v0,80404d24 <rtems_semaphore_create+0xc4>
80404cb8:	24020020 	li	v0,32
80404cbc:	12220019 	beq	s1,v0,80404d24 <rtems_semaphore_create+0xc4>
80404cc0:	2402000b 	li	v0,11
80404cc4:	8fbf0044 	lw	ra,68(sp)
80404cc8:	8fb60040 	lw	s6,64(sp)
80404ccc:	8fb5003c 	lw	s5,60(sp)
80404cd0:	8fb40038 	lw	s4,56(sp)
80404cd4:	8fb30034 	lw	s3,52(sp)
80404cd8:	8fb20030 	lw	s2,48(sp)
80404cdc:	8fb1002c 	lw	s1,44(sp)
80404ce0:	8fb00028 	lw	s0,40(sp)
80404ce4:	03e00008 	jr	ra
80404ce8:	27bd0048 	addiu	sp,sp,72
80404cec:	1220001d 	beqz	s1,80404d64 <rtems_semaphore_create+0x104>
80404cf0:	2e620002 	sltiu	v0,s3,2
80404cf4:	1440001b 	bnez	v0,80404d64 <rtems_semaphore_create+0x104>
80404cf8:	8fbf0044 	lw	ra,68(sp)
80404cfc:	2402000a 	li	v0,10
80404d00:	8fb60040 	lw	s6,64(sp)
80404d04:	8fb5003c 	lw	s5,60(sp)
80404d08:	8fb40038 	lw	s4,56(sp)
80404d0c:	8fb30034 	lw	s3,52(sp)
80404d10:	8fb20030 	lw	s2,48(sp)
80404d14:	8fb1002c 	lw	s1,44(sp)
80404d18:	8fb00028 	lw	s0,40(sp)
80404d1c:	03e00008 	jr	ra
80404d20:	27bd0048 	addiu	sp,sp,72
80404d24:	32020004 	andi	v0,s0,0x4
80404d28:	1440fff0 	bnez	v0,80404cec <rtems_semaphore_create+0x8c>
80404d2c:	2402000b 	li	v0,11
80404d30:	08101332 	j	80404cc8 <rtems_semaphore_create+0x68>
80404d34:	8fbf0044 	lw	ra,68(sp)
80404d38:	8fbf0044 	lw	ra,68(sp)
80404d3c:	24020003 	li	v0,3
80404d40:	8fb60040 	lw	s6,64(sp)
80404d44:	8fb5003c 	lw	s5,60(sp)
80404d48:	8fb40038 	lw	s4,56(sp)
80404d4c:	8fb30034 	lw	s3,52(sp)
80404d50:	8fb20030 	lw	s2,48(sp)
80404d54:	8fb1002c 	lw	s1,44(sp)
80404d58:	8fb00028 	lw	s0,40(sp)
80404d5c:	03e00008 	jr	ra
80404d60:	27bd0048 	addiu	sp,sp,72
80404d64:	3c038041 	lui	v1,0x8041
80404d68:	8c624514 	lw	v0,17684(v1)
80404d6c:	24420001 	addiu	v0,v0,1
80404d70:	ac624514 	sw	v0,17684(v1)
80404d74:	3c168041 	lui	s6,0x8041
80404d78:	0c101ad8 	jal	80406b60 <_Objects_Allocate>
80404d7c:	26c44434 	addiu	a0,s6,17460
80404d80:	1040003e 	beqz	v0,80404e7c <rtems_semaphore_create+0x21c>
80404d84:	00409021 	move	s2,v0
80404d88:	12200016 	beqz	s1,80404de4 <rtems_semaphore_create+0x184>
80404d8c:	ac500010 	sw	s0,16(v0)
80404d90:	32020040 	andi	v0,s0,0x40
80404d94:	14400037 	bnez	v0,80404e74 <rtems_semaphore_create+0x214>
80404d98:	24020002 	li	v0,2
80404d9c:	32020080 	andi	v0,s0,0x80
80404da0:	10400044 	beqz	v0,80404eb4 <rtems_semaphore_create+0x254>
80404da4:	32020004 	andi	v0,s0,0x4
80404da8:	24020003 	li	v0,3
80404dac:	afa20020 	sw	v0,32(sp)
80404db0:	24020010 	li	v0,16
80404db4:	12220035 	beq	s1,v0,80404e8c <rtems_semaphore_create+0x22c>
80404db8:	24020002 	li	v0,2
80404dbc:	afa20018 	sw	v0,24(sp)
80404dc0:	a3a0001c 	sb	zero,28(sp)
80404dc4:	3a660001 	xori	a2,s3,0x1
80404dc8:	2cc60001 	sltiu	a2,a2,1
80404dcc:	26440014 	addiu	a0,s2,20
80404dd0:	27a50018 	addiu	a1,sp,24
80404dd4:	0c1018f4 	jal	804063d0 <_CORE_mutex_Initialize>
80404dd8:	afb50024 	sw	s5,36(sp)
80404ddc:	08101386 	j	80404e18 <rtems_semaphore_create+0x1b8>
80404de0:	8e450008 	lw	a1,8(s2)
80404de4:	32020004 	andi	v0,s0,0x4
80404de8:	14400020 	bnez	v0,80404e6c <rtems_semaphore_create+0x20c>
80404dec:	24020001 	li	v0,1
80404df0:	afa00014 	sw	zero,20(sp)
80404df4:	2402ffff 	li	v0,-1
80404df8:	02603021 	move	a2,s3
80404dfc:	26440014 	addiu	a0,s2,20
80404e00:	27a50010 	addiu	a1,sp,16
80404e04:	afa20010 	sw	v0,16(sp)
80404e08:	afa00018 	sw	zero,24(sp)
80404e0c:	0c1019b4 	jal	804066d0 <_CORE_semaphore_Initialize>
80404e10:	afa00024 	sw	zero,36(sp)
80404e14:	8e450008 	lw	a1,8(s2)
80404e18:	26c34434 	addiu	v1,s6,17460
80404e1c:	8c64001c 	lw	a0,28(v1)
80404e20:	30a2ffff 	andi	v0,a1,0xffff
80404e24:	00021080 	sll	v0,v0,0x2
80404e28:	00822021 	addu	a0,a0,v0
80404e2c:	8fa20058 	lw	v0,88(sp)
80404e30:	ae54000c 	sw	s4,12(s2)
80404e34:	ac920000 	sw	s2,0(a0)
80404e38:	0c101f8c 	jal	80407e30 <_Thread_Enable_dispatch>
80404e3c:	ac450000 	sw	a1,0(v0)
80404e40:	8fbf0044 	lw	ra,68(sp)
80404e44:	00001021 	move	v0,zero
80404e48:	8fb60040 	lw	s6,64(sp)
80404e4c:	8fb5003c 	lw	s5,60(sp)
80404e50:	8fb40038 	lw	s4,56(sp)
80404e54:	8fb30034 	lw	s3,52(sp)
80404e58:	8fb20030 	lw	s2,48(sp)
80404e5c:	8fb1002c 	lw	s1,44(sp)
80404e60:	8fb00028 	lw	s0,40(sp)
80404e64:	03e00008 	jr	ra
80404e68:	27bd0048 	addiu	sp,sp,72
80404e6c:	0810137d 	j	80404df4 <rtems_semaphore_create+0x194>
80404e70:	afa20014 	sw	v0,20(sp)
80404e74:	0810136c 	j	80404db0 <rtems_semaphore_create+0x150>
80404e78:	afa20020 	sw	v0,32(sp)
80404e7c:	0c101f8c 	jal	80407e30 <_Thread_Enable_dispatch>
80404e80:	00000000 	nop
80404e84:	08101331 	j	80404cc4 <rtems_semaphore_create+0x64>
80404e88:	24020005 	li	v0,5
80404e8c:	8fa30020 	lw	v1,32(sp)
80404e90:	2c620002 	sltiu	v0,v1,2
80404e94:	1440ffca 	bnez	v0,80404dc0 <rtems_semaphore_create+0x160>
80404e98:	afa00018 	sw	zero,24(sp)
80404e9c:	2c620004 	sltiu	v0,v1,4
80404ea0:	1040ffc9 	beqz	v0,80404dc8 <rtems_semaphore_create+0x168>
80404ea4:	3a660001 	xori	a2,s3,0x1
80404ea8:	24020001 	li	v0,1
80404eac:	08101372 	j	80404dc8 <rtems_semaphore_create+0x168>
80404eb0:	a3a2001c 	sb	v0,28(sp)
80404eb4:	10400003 	beqz	v0,80404ec4 <rtems_semaphore_create+0x264>
80404eb8:	24020001 	li	v0,1
80404ebc:	0810136c 	j	80404db0 <rtems_semaphore_create+0x150>
80404ec0:	afa20020 	sw	v0,32(sp)
80404ec4:	0810136c 	j	80404db0 <rtems_semaphore_create+0x150>
80404ec8:	afa00020 	sw	zero,32(sp)
80404ecc:	00000000 	nop

80404ed0 <rtems_semaphore_delete>:
80404ed0:	27bdffd8 	addiu	sp,sp,-40
80404ed4:	afb10020 	sw	s1,32(sp)
80404ed8:	3c118041 	lui	s1,0x8041
80404edc:	00802821 	move	a1,a0
80404ee0:	27a60010 	addiu	a2,sp,16
80404ee4:	afb0001c 	sw	s0,28(sp)
80404ee8:	afbf0024 	sw	ra,36(sp)
80404eec:	0c101c8c 	jal	80407230 <_Objects_Get>
80404ef0:	26244434 	addiu	a0,s1,17460
80404ef4:	00408021 	move	s0,v0
80404ef8:	8fa20010 	lw	v0,16(sp)
80404efc:	10400006 	beqz	v0,80404f18 <rtems_semaphore_delete+0x48>
80404f00:	8fbf0024 	lw	ra,36(sp)
80404f04:	24020004 	li	v0,4
80404f08:	8fb10020 	lw	s1,32(sp)
80404f0c:	8fb0001c 	lw	s0,28(sp)
80404f10:	03e00008 	jr	ra
80404f14:	27bd0028 	addiu	sp,sp,40
80404f18:	8e020010 	lw	v0,16(s0)
80404f1c:	30430030 	andi	v1,v0,0x30
80404f20:	1060001f 	beqz	v1,80404fa0 <rtems_semaphore_delete+0xd0>
80404f24:	26040014 	addiu	a0,s0,20
80404f28:	8e020064 	lw	v0,100(s0)
80404f2c:	1440000b 	bnez	v0,80404f5c <rtems_semaphore_delete+0x8c>
80404f30:	24020020 	li	v0,32
80404f34:	1062000a 	beq	v1,v0,80404f60 <rtems_semaphore_delete+0x90>
80404f38:	00002821 	move	a1,zero
80404f3c:	0c101f8c 	jal	80407e30 <_Thread_Enable_dispatch>
80404f40:	00000000 	nop
80404f44:	8fbf0024 	lw	ra,36(sp)
80404f48:	2402000c 	li	v0,12
80404f4c:	8fb10020 	lw	s1,32(sp)
80404f50:	8fb0001c 	lw	s0,28(sp)
80404f54:	03e00008 	jr	ra
80404f58:	27bd0028 	addiu	sp,sp,40
80404f5c:	00002821 	move	a1,zero
80404f60:	0c1018f0 	jal	804063c0 <_CORE_mutex_Flush>
80404f64:	24060004 	li	a2,4
80404f68:	26244434 	addiu	a0,s1,17460
80404f6c:	0c101b10 	jal	80406c40 <_Objects_Close>
80404f70:	02002821 	move	a1,s0
80404f74:	26244434 	addiu	a0,s1,17460
80404f78:	0c101bfc 	jal	80406ff0 <_Objects_Free>
80404f7c:	02002821 	move	a1,s0
80404f80:	0c101f8c 	jal	80407e30 <_Thread_Enable_dispatch>
80404f84:	00000000 	nop
80404f88:	8fbf0024 	lw	ra,36(sp)
80404f8c:	00001021 	move	v0,zero
80404f90:	8fb10020 	lw	s1,32(sp)
80404f94:	8fb0001c 	lw	s0,28(sp)
80404f98:	03e00008 	jr	ra
80404f9c:	27bd0028 	addiu	sp,sp,40
80404fa0:	00002821 	move	a1,zero
80404fa4:	0c1019b0 	jal	804066c0 <_CORE_semaphore_Flush>
80404fa8:	24060002 	li	a2,2
80404fac:	081013db 	j	80404f6c <rtems_semaphore_delete+0x9c>
80404fb0:	26244434 	addiu	a0,s1,17460
	...

80404fc0 <rtems_semaphore_obtain>:
80404fc0:	27bdffd0 	addiu	sp,sp,-48
80404fc4:	afb0001c 	sw	s0,28(sp)
80404fc8:	00808021 	move	s0,a0
80404fcc:	3c048041 	lui	a0,0x8041
80404fd0:	afb30028 	sw	s3,40(sp)
80404fd4:	afb10020 	sw	s1,32(sp)
80404fd8:	00c09821 	move	s3,a2
80404fdc:	00a08821 	move	s1,a1
80404fe0:	27a60010 	addiu	a2,sp,16
80404fe4:	24844434 	addiu	a0,a0,17460
80404fe8:	02002821 	move	a1,s0
80404fec:	27a70014 	addiu	a3,sp,20
80404ff0:	afbf002c 	sw	ra,44(sp)
80404ff4:	0c101c60 	jal	80407180 <_Objects_Get_isr_disable>
80404ff8:	afb20024 	sw	s2,36(sp)
80404ffc:	00403021 	move	a2,v0
80405000:	8fa20010 	lw	v0,16(sp)
80405004:	10400008 	beqz	v0,80405028 <rtems_semaphore_obtain+0x68>
80405008:	8fbf002c 	lw	ra,44(sp)
8040500c:	24020004 	li	v0,4
80405010:	8fb30028 	lw	s3,40(sp)
80405014:	8fb20024 	lw	s2,36(sp)
80405018:	8fb10020 	lw	s1,32(sp)
8040501c:	8fb0001c 	lw	s0,28(sp)
80405020:	03e00008 	jr	ra
80405024:	27bd0030 	addiu	sp,sp,48
80405028:	8cc20010 	lw	v0,16(a2)
8040502c:	30420030 	andi	v0,v0,0x30
80405030:	1040002e 	beqz	v0,804050ec <rtems_semaphore_obtain+0x12c>
80405034:	3c128041 	lui	s2,0x8041
80405038:	3c088041 	lui	t0,0x8041
8040503c:	8d024514 	lw	v0,17684(t0)
80405040:	10400009 	beqz	v0,80405068 <rtems_semaphore_obtain+0xa8>
80405044:	8e4545d4 	lw	a1,17876(s2)
80405048:	32220001 	andi	v0,s1,0x1
8040504c:	14400007 	bnez	v0,8040506c <rtems_semaphore_obtain+0xac>
80405050:	8fa40014 	lw	a0,20(sp)
80405054:	3c038041 	lui	v1,0x8041
80405058:	8c6246b4 	lw	v0,18100(v1)
8040505c:	2c420002 	sltiu	v0,v0,2
80405060:	1040007d 	beqz	v0,80405258 <rtems_semaphore_obtain+0x298>
80405064:	00002021 	move	a0,zero
80405068:	8fa40014 	lw	a0,20(sp)
8040506c:	aca00034 	sw	zero,52(a1)
80405070:	8cc20064 	lw	v0,100(a2)
80405074:	14400045 	bnez	v0,8040518c <rtems_semaphore_obtain+0x1cc>
80405078:	24030001 	li	v1,1
8040507c:	8cc20070 	lw	v0,112(a2)
80405080:	10a200a5 	beq	a1,v0,80405318 <rtems_semaphore_obtain+0x358>
80405084:	00000000 	nop
80405088:	32220001 	andi	v0,s1,0x1
8040508c:	10400075 	beqz	v0,80405264 <rtems_semaphore_obtain+0x2a4>
80405090:	24020001 	li	v0,1
80405094:	40036000 	mfc0	v1,c0_status
80405098:	00000000 	nop
8040509c:	8fa20014 	lw	v0,20(sp)
804050a0:	2404fffe 	li	a0,-2
804050a4:	00641824 	and	v1,v1,a0
804050a8:	30420001 	andi	v0,v0,0x1
804050ac:	00621825 	or	v1,v1,v0
804050b0:	40836000 	mtc0	v1,c0_status
804050b4:	00000000 	nop
804050b8:	8e4445d4 	lw	a0,17876(s2)
804050bc:	24020001 	li	v0,1
804050c0:	ac820034 	sw	v0,52(a0)
804050c4:	8e4245d4 	lw	v0,17876(s2)
804050c8:	0c101530 	jal	804054c0 <_Semaphore_Translate_core_mutex_return_code>
804050cc:	8c440034 	lw	a0,52(v0)
804050d0:	8fbf002c 	lw	ra,44(sp)
804050d4:	8fb30028 	lw	s3,40(sp)
804050d8:	8fb20024 	lw	s2,36(sp)
804050dc:	8fb10020 	lw	s1,32(sp)
804050e0:	8fb0001c 	lw	s0,28(sp)
804050e4:	03e00008 	jr	ra
804050e8:	27bd0030 	addiu	sp,sp,48
804050ec:	8e4745d4 	lw	a3,17876(s2)
804050f0:	8fa50014 	lw	a1,20(sp)
804050f4:	ace00034 	sw	zero,52(a3)
804050f8:	8cc2005c 	lw	v0,92(a2)
804050fc:	14400018 	bnez	v0,80405160 <rtems_semaphore_obtain+0x1a0>
80405100:	2442ffff 	addiu	v0,v0,-1
80405104:	32220001 	andi	v0,s1,0x1
80405108:	1040006b 	beqz	v0,804052b8 <rtems_semaphore_obtain+0x2f8>
8040510c:	3c038041 	lui	v1,0x8041
80405110:	40026000 	mfc0	v0,c0_status
80405114:	00000000 	nop
80405118:	2403fffe 	li	v1,-2
8040511c:	00431024 	and	v0,v0,v1
80405120:	30a40001 	andi	a0,a1,0x1
80405124:	00441025 	or	v0,v0,a0
80405128:	40826000 	mtc0	v0,c0_status
8040512c:	00000000 	nop
80405130:	24030001 	li	v1,1
80405134:	ace30034 	sw	v1,52(a3)
80405138:	8e4245d4 	lw	v0,17876(s2)
8040513c:	0c101536 	jal	804054d8 <_Semaphore_Translate_core_semaphore_return_code>
80405140:	8c440034 	lw	a0,52(v0)
80405144:	8fbf002c 	lw	ra,44(sp)
80405148:	8fb30028 	lw	s3,40(sp)
8040514c:	8fb20024 	lw	s2,36(sp)
80405150:	8fb10020 	lw	s1,32(sp)
80405154:	8fb0001c 	lw	s0,28(sp)
80405158:	03e00008 	jr	ra
8040515c:	27bd0030 	addiu	sp,sp,48
80405160:	acc2005c 	sw	v0,92(a2)
80405164:	40026000 	mfc0	v0,c0_status
80405168:	00000000 	nop
8040516c:	2403fffe 	li	v1,-2
80405170:	00431024 	and	v0,v0,v1
80405174:	30a40001 	andi	a0,a1,0x1
80405178:	00441025 	or	v0,v0,a0
8040517c:	40826000 	mtc0	v0,c0_status
80405180:	00000000 	nop
80405184:	0810144f 	j	8040513c <rtems_semaphore_obtain+0x17c>
80405188:	8e4245d4 	lw	v0,17876(s2)
8040518c:	acc00064 	sw	zero,100(a2)
80405190:	acc50070 	sw	a1,112(a2)
80405194:	8ca20008 	lw	v0,8(a1)
80405198:	8cc7005c 	lw	a3,92(a2)
8040519c:	acc20074 	sw	v0,116(a2)
804051a0:	24020002 	li	v0,2
804051a4:	10e2000e 	beq	a3,v0,804051e0 <rtems_semaphore_obtain+0x220>
804051a8:	acc30068 	sw	v1,104(a2)
804051ac:	24020003 	li	v0,3
804051b0:	10e2000b 	beq	a3,v0,804051e0 <rtems_semaphore_obtain+0x220>
804051b4:	00000000 	nop
804051b8:	40026000 	mfc0	v0,c0_status
804051bc:	00000000 	nop
804051c0:	2403fffe 	li	v1,-2
804051c4:	00431024 	and	v0,v0,v1
804051c8:	30840001 	andi	a0,a0,0x1
804051cc:	00441025 	or	v0,v0,a0
804051d0:	40826000 	mtc0	v0,c0_status
804051d4:	00000000 	nop
804051d8:	08101432 	j	804050c8 <rtems_semaphore_obtain+0x108>
804051dc:	8e4245d4 	lw	v0,17876(s2)
804051e0:	8ca2001c 	lw	v0,28(a1)
804051e4:	24420001 	addiu	v0,v0,1
804051e8:	aca2001c 	sw	v0,28(a1)
804051ec:	8cc3005c 	lw	v1,92(a2)
804051f0:	24020003 	li	v0,3
804051f4:	1462fff0 	bne	v1,v0,804051b8 <rtems_semaphore_obtain+0x1f8>
804051f8:	00000000 	nop
804051fc:	8cc20060 	lw	v0,96(a2)
80405200:	8ca30014 	lw	v1,20(a1)
80405204:	10430054 	beq	v0,v1,80405358 <rtems_semaphore_obtain+0x398>
80405208:	00000000 	nop
8040520c:	0043102b 	sltu	v0,v0,v1
80405210:	14400069 	bnez	v0,804053b8 <rtems_semaphore_obtain+0x3f8>
80405214:	00000000 	nop
80405218:	24020006 	li	v0,6
8040521c:	aca20034 	sw	v0,52(a1)
80405220:	acc00068 	sw	zero,104(a2)
80405224:	8ca2001c 	lw	v0,28(a1)
80405228:	2442ffff 	addiu	v0,v0,-1
8040522c:	aca2001c 	sw	v0,28(a1)
80405230:	40026000 	mfc0	v0,c0_status
80405234:	00000000 	nop
80405238:	2403fffe 	li	v1,-2
8040523c:	00431024 	and	v0,v0,v1
80405240:	30840001 	andi	a0,a0,0x1
80405244:	00441025 	or	v0,v0,a0
80405248:	40826000 	mtc0	v0,c0_status
8040524c:	00000000 	nop
80405250:	08101432 	j	804050c8 <rtems_semaphore_obtain+0x108>
80405254:	8e4245d4 	lw	v0,17876(s2)
80405258:	00002821 	move	a1,zero
8040525c:	0c101ab0 	jal	80406ac0 <_Internal_error_Occurred>
80405260:	24060013 	li	a2,19
80405264:	acc20044 	sw	v0,68(a2)
80405268:	8d034514 	lw	v1,17684(t0)
8040526c:	24c20014 	addiu	v0,a2,20
80405270:	24630001 	addiu	v1,v1,1
80405274:	acb00020 	sw	s0,32(a1)
80405278:	aca20044 	sw	v0,68(a1)
8040527c:	ad034514 	sw	v1,17684(t0)
80405280:	40036000 	mfc0	v1,c0_status
80405284:	00000000 	nop
80405288:	8fa20014 	lw	v0,20(sp)
8040528c:	2404fffe 	li	a0,-2
80405290:	00641824 	and	v1,v1,a0
80405294:	30420001 	andi	v0,v0,0x1
80405298:	00621825 	or	v1,v1,v0
8040529c:	40836000 	mtc0	v1,c0_status
804052a0:	00000000 	nop
804052a4:	24c40014 	addiu	a0,a2,20
804052a8:	0c10191c 	jal	80406470 <_CORE_mutex_Seize_interrupt_blocking>
804052ac:	02602821 	move	a1,s3
804052b0:	08101432 	j	804050c8 <rtems_semaphore_obtain+0x108>
804052b4:	8e4245d4 	lw	v0,17876(s2)
804052b8:	8c624514 	lw	v0,17684(v1)
804052bc:	24420001 	addiu	v0,v0,1
804052c0:	ac624514 	sw	v0,17684(v1)
804052c4:	24020001 	li	v0,1
804052c8:	24c40014 	addiu	a0,a2,20
804052cc:	acc20044 	sw	v0,68(a2)
804052d0:	acf00020 	sw	s0,32(a3)
804052d4:	ace40044 	sw	a0,68(a3)
804052d8:	40026000 	mfc0	v0,c0_status
804052dc:	00000000 	nop
804052e0:	2403fffe 	li	v1,-2
804052e4:	00431024 	and	v0,v0,v1
804052e8:	30a50001 	andi	a1,a1,0x1
804052ec:	00451025 	or	v0,v0,a1
804052f0:	40826000 	mtc0	v0,c0_status
804052f4:	00000000 	nop
804052f8:	3c068041 	lui	a2,0x8041
804052fc:	02602821 	move	a1,s3
80405300:	0c102124 	jal	80408490 <_Thread_queue_Enqueue_with_handler>
80405304:	24c68ae0 	addiu	a2,a2,-29984
80405308:	0c101f8c 	jal	80407e30 <_Thread_Enable_dispatch>
8040530c:	00000000 	nop
80405310:	0810144f 	j	8040513c <rtems_semaphore_obtain+0x17c>
80405314:	8e4245d4 	lw	v0,17876(s2)
80405318:	8cc30054 	lw	v1,84(a2)
8040531c:	14600018 	bnez	v1,80405380 <rtems_semaphore_obtain+0x3c0>
80405320:	00000000 	nop
80405324:	8cc20068 	lw	v0,104(a2)
80405328:	24420001 	addiu	v0,v0,1
8040532c:	acc20068 	sw	v0,104(a2)
80405330:	40026000 	mfc0	v0,c0_status
80405334:	00000000 	nop
80405338:	2403fffe 	li	v1,-2
8040533c:	00431024 	and	v0,v0,v1
80405340:	30840001 	andi	a0,a0,0x1
80405344:	00441025 	or	v0,v0,a0
80405348:	40826000 	mtc0	v0,c0_status
8040534c:	00000000 	nop
80405350:	08101432 	j	804050c8 <rtems_semaphore_obtain+0x108>
80405354:	8e4245d4 	lw	v0,17876(s2)
80405358:	40026000 	mfc0	v0,c0_status
8040535c:	00000000 	nop
80405360:	2403fffe 	li	v1,-2
80405364:	00431024 	and	v0,v0,v1
80405368:	30840001 	andi	a0,a0,0x1
8040536c:	00441025 	or	v0,v0,a0
80405370:	40826000 	mtc0	v0,c0_status
80405374:	00000000 	nop
80405378:	08101432 	j	804050c8 <rtems_semaphore_obtain+0x108>
8040537c:	8e4245d4 	lw	v0,17876(s2)
80405380:	24020001 	li	v0,1
80405384:	1462ff40 	bne	v1,v0,80405088 <rtems_semaphore_obtain+0xc8>
80405388:	24020002 	li	v0,2
8040538c:	aca20034 	sw	v0,52(a1)
80405390:	40026000 	mfc0	v0,c0_status
80405394:	00000000 	nop
80405398:	2403fffe 	li	v1,-2
8040539c:	00431024 	and	v0,v0,v1
804053a0:	30840001 	andi	a0,a0,0x1
804053a4:	00441025 	or	v0,v0,a0
804053a8:	40826000 	mtc0	v0,c0_status
804053ac:	00000000 	nop
804053b0:	08101432 	j	804050c8 <rtems_semaphore_obtain+0x108>
804053b4:	8e4245d4 	lw	v0,17876(s2)
804053b8:	8d024514 	lw	v0,17684(t0)
804053bc:	24420001 	addiu	v0,v0,1
804053c0:	ad024514 	sw	v0,17684(t0)
804053c4:	40026000 	mfc0	v0,c0_status
804053c8:	00000000 	nop
804053cc:	2403fffe 	li	v1,-2
804053d0:	00431024 	and	v0,v0,v1
804053d4:	30840001 	andi	a0,a0,0x1
804053d8:	00441025 	or	v0,v0,a0
804053dc:	40826000 	mtc0	v0,c0_status
804053e0:	00000000 	nop
804053e4:	8cc50060 	lw	a1,96(a2)
804053e8:	8cc40070 	lw	a0,112(a2)
804053ec:	0c101d98 	jal	80407660 <_Thread_Change_priority>
804053f0:	00003021 	move	a2,zero
804053f4:	0c101f8c 	jal	80407e30 <_Thread_Enable_dispatch>
804053f8:	00000000 	nop
804053fc:	08101432 	j	804050c8 <rtems_semaphore_obtain+0x108>
80405400:	8e4245d4 	lw	v0,17876(s2)
	...

80405410 <rtems_semaphore_release>:
80405410:	27bdffe0 	addiu	sp,sp,-32
80405414:	afb00018 	sw	s0,24(sp)
80405418:	00808021 	move	s0,a0
8040541c:	3c048041 	lui	a0,0x8041
80405420:	24844434 	addiu	a0,a0,17460
80405424:	02002821 	move	a1,s0
80405428:	afbf001c 	sw	ra,28(sp)
8040542c:	0c101c8c 	jal	80407230 <_Objects_Get>
80405430:	27a60010 	addiu	a2,sp,16
80405434:	00402021 	move	a0,v0
80405438:	8fa20010 	lw	v0,16(sp)
8040543c:	10400005 	beqz	v0,80405454 <rtems_semaphore_release+0x44>
80405440:	8fbf001c 	lw	ra,28(sp)
80405444:	24020004 	li	v0,4
80405448:	8fb00018 	lw	s0,24(sp)
8040544c:	03e00008 	jr	ra
80405450:	27bd0020 	addiu	sp,sp,32
80405454:	8c820010 	lw	v0,16(a0)
80405458:	30420030 	andi	v0,v0,0x30
8040545c:	1440000c 	bnez	v0,80405490 <rtems_semaphore_release+0x80>
80405460:	02002821 	move	a1,s0
80405464:	24840014 	addiu	a0,a0,20
80405468:	0c1019c0 	jal	80406700 <_CORE_semaphore_Surrender>
8040546c:	00003021 	move	a2,zero
80405470:	0c101f8c 	jal	80407e30 <_Thread_Enable_dispatch>
80405474:	00408021 	move	s0,v0
80405478:	0c101536 	jal	804054d8 <_Semaphore_Translate_core_semaphore_return_code>
8040547c:	02002021 	move	a0,s0
80405480:	8fbf001c 	lw	ra,28(sp)
80405484:	8fb00018 	lw	s0,24(sp)
80405488:	03e00008 	jr	ra
8040548c:	27bd0020 	addiu	sp,sp,32
80405490:	24840014 	addiu	a0,a0,20
80405494:	0c10194c 	jal	80406530 <_CORE_mutex_Surrender>
80405498:	00003021 	move	a2,zero
8040549c:	0c101f8c 	jal	80407e30 <_Thread_Enable_dispatch>
804054a0:	00408021 	move	s0,v0
804054a4:	0c101530 	jal	804054c0 <_Semaphore_Translate_core_mutex_return_code>
804054a8:	02002021 	move	a0,s0
804054ac:	8fbf001c 	lw	ra,28(sp)
804054b0:	8fb00018 	lw	s0,24(sp)
804054b4:	03e00008 	jr	ra
804054b8:	27bd0020 	addiu	sp,sp,32
804054bc:	00000000 	nop

804054c0 <_Semaphore_Translate_core_mutex_return_code>:
804054c0:	3c028041 	lui	v0,0x8041
804054c4:	24422730 	addiu	v0,v0,10032
804054c8:	00042080 	sll	a0,a0,0x2
804054cc:	00822021 	addu	a0,a0,v0
804054d0:	03e00008 	jr	ra
804054d4:	8c820000 	lw	v0,0(a0)

804054d8 <_Semaphore_Translate_core_semaphore_return_code>:
804054d8:	3c028041 	lui	v0,0x8041
804054dc:	2442274c 	addiu	v0,v0,10060
804054e0:	00042080 	sll	a0,a0,0x2
804054e4:	00822021 	addu	a0,a0,v0
804054e8:	03e00008 	jr	ra
804054ec:	8c820000 	lw	v0,0(a0)

804054f0 <rtems_task_create>:
804054f0:	27bdffa8 	addiu	sp,sp,-88
804054f4:	afb70050 	sw	s7,80(sp)
804054f8:	8fb7006c 	lw	s7,108(sp)
804054fc:	afb6004c 	sw	s6,76(sp)
80405500:	afb40044 	sw	s4,68(sp)
80405504:	afb2003c 	sw	s2,60(sp)
80405508:	afb10038 	sw	s1,56(sp)
8040550c:	afbf0054 	sw	ra,84(sp)
80405510:	afb50048 	sw	s5,72(sp)
80405514:	afb30040 	sw	s3,64(sp)
80405518:	afb00034 	sw	s0,52(sp)
8040551c:	0080a021 	move	s4,a0
80405520:	00a08821 	move	s1,a1
80405524:	00c0b021 	move	s6,a2
80405528:	12e0006b 	beqz	s7,804056d8 <rtems_task_create+0x1e8>
8040552c:	00e09021 	move	s2,a3
80405530:	1080003b 	beqz	a0,80405620 <rtems_task_create+0x130>
80405534:	8fa30068 	lw	v1,104(sp)
80405538:	30628000 	andi	v0,v1,0x8000
8040553c:	14400008 	bnez	v0,80405560 <rtems_task_create+0x70>
80405540:	00000000 	nop
80405544:	10a00055 	beqz	a1,8040569c <rtems_task_create+0x1ac>
80405548:	8fbf0054 	lw	ra,84(sp)
8040554c:	3c038041 	lui	v1,0x8041
80405550:	90623724 	lbu	v0,14116(v1)
80405554:	0045102b 	sltu	v0,v0,a1
80405558:	14400051 	bnez	v0,804056a0 <rtems_task_create+0x1b0>
8040555c:	24020013 	li	v0,19
80405560:	3c158041 	lui	s5,0x8041
80405564:	8ea445cc 	lw	a0,17868(s5)
80405568:	0c10181c 	jal	80406070 <_API_Mutex_Lock>
8040556c:	3c138041 	lui	s3,0x8041
80405570:	0c101ad8 	jal	80406b60 <_Objects_Allocate>
80405574:	26644474 	addiu	a0,s3,17524
80405578:	10400053 	beqz	v0,804056c8 <rtems_task_create+0x1d8>
8040557c:	00408021 	move	s0,v0
80405580:	00121202 	srl	v0,s2,0x8
80405584:	38420001 	xori	v0,v0,0x1
80405588:	00121a42 	srl	v1,s2,0x9
8040558c:	30420001 	andi	v0,v0,0x1
80405590:	30630001 	andi	v1,v1,0x1
80405594:	324800ff 	andi	t0,s2,0xff
80405598:	26644474 	addiu	a0,s3,17524
8040559c:	02c03821 	move	a3,s6
804055a0:	02002821 	move	a1,s0
804055a4:	00003021 	move	a2,zero
804055a8:	afb10014 	sw	s1,20(sp)
804055ac:	afa20018 	sw	v0,24(sp)
804055b0:	afa3001c 	sw	v1,28(sp)
804055b4:	afa80024 	sw	t0,36(sp)
804055b8:	afb40028 	sw	s4,40(sp)
804055bc:	afa00010 	sw	zero,16(sp)
804055c0:	0c101fc4 	jal	80407f10 <_Thread_Initialize>
804055c4:	afa00020 	sw	zero,32(sp)
804055c8:	10400021 	beqz	v0,80405650 <rtems_task_create+0x160>
804055cc:	00121282 	srl	v0,s2,0xa
804055d0:	8e050008 	lw	a1,8(s0)
804055d4:	8e030108 	lw	v1,264(s0)
804055d8:	38420001 	xori	v0,v0,0x1
804055dc:	30420001 	andi	v0,v0,0x1
804055e0:	8ea445cc 	lw	a0,17868(s5)
804055e4:	a0620008 	sb	v0,8(v1)
804055e8:	0c1018c8 	jal	80406320 <_API_Mutex_Unlock>
804055ec:	aee50000 	sw	a1,0(s7)
804055f0:	8fbf0054 	lw	ra,84(sp)
804055f4:	00001021 	move	v0,zero
804055f8:	8fb70050 	lw	s7,80(sp)
804055fc:	8fb6004c 	lw	s6,76(sp)
80405600:	8fb50048 	lw	s5,72(sp)
80405604:	8fb40044 	lw	s4,68(sp)
80405608:	8fb30040 	lw	s3,64(sp)
8040560c:	8fb2003c 	lw	s2,60(sp)
80405610:	8fb10038 	lw	s1,56(sp)
80405614:	8fb00034 	lw	s0,52(sp)
80405618:	03e00008 	jr	ra
8040561c:	27bd0058 	addiu	sp,sp,88
80405620:	24020003 	li	v0,3
80405624:	8fbf0054 	lw	ra,84(sp)
80405628:	8fb70050 	lw	s7,80(sp)
8040562c:	8fb6004c 	lw	s6,76(sp)
80405630:	8fb50048 	lw	s5,72(sp)
80405634:	8fb40044 	lw	s4,68(sp)
80405638:	8fb30040 	lw	s3,64(sp)
8040563c:	8fb2003c 	lw	s2,60(sp)
80405640:	8fb10038 	lw	s1,56(sp)
80405644:	8fb00034 	lw	s0,52(sp)
80405648:	03e00008 	jr	ra
8040564c:	27bd0058 	addiu	sp,sp,88
80405650:	0c101c2c 	jal	804070b0 <_Objects_Get_information_id>
80405654:	8e040008 	lw	a0,8(s0)
80405658:	00402021 	move	a0,v0
8040565c:	0c101bfc 	jal	80406ff0 <_Objects_Free>
80405660:	02002821 	move	a1,s0
80405664:	0c1018c8 	jal	80406320 <_API_Mutex_Unlock>
80405668:	8ea445cc 	lw	a0,17868(s5)
8040566c:	8fbf0054 	lw	ra,84(sp)
80405670:	2402000d 	li	v0,13
80405674:	8fb70050 	lw	s7,80(sp)
80405678:	8fb6004c 	lw	s6,76(sp)
8040567c:	8fb50048 	lw	s5,72(sp)
80405680:	8fb40044 	lw	s4,68(sp)
80405684:	8fb30040 	lw	s3,64(sp)
80405688:	8fb2003c 	lw	s2,60(sp)
8040568c:	8fb10038 	lw	s1,56(sp)
80405690:	8fb00034 	lw	s0,52(sp)
80405694:	03e00008 	jr	ra
80405698:	27bd0058 	addiu	sp,sp,88
8040569c:	24020013 	li	v0,19
804056a0:	8fb70050 	lw	s7,80(sp)
804056a4:	8fb6004c 	lw	s6,76(sp)
804056a8:	8fb50048 	lw	s5,72(sp)
804056ac:	8fb40044 	lw	s4,68(sp)
804056b0:	8fb30040 	lw	s3,64(sp)
804056b4:	8fb2003c 	lw	s2,60(sp)
804056b8:	8fb10038 	lw	s1,56(sp)
804056bc:	8fb00034 	lw	s0,52(sp)
804056c0:	03e00008 	jr	ra
804056c4:	27bd0058 	addiu	sp,sp,88
804056c8:	0c1018c8 	jal	80406320 <_API_Mutex_Unlock>
804056cc:	8ea445cc 	lw	a0,17868(s5)
804056d0:	08101589 	j	80405624 <rtems_task_create+0x134>
804056d4:	24020005 	li	v0,5
804056d8:	08101589 	j	80405624 <rtems_task_create+0x134>
804056dc:	24020009 	li	v0,9

804056e0 <rtems_task_delete>:
804056e0:	27bdffd8 	addiu	sp,sp,-40
804056e4:	afb10020 	sw	s1,32(sp)
804056e8:	3c118041 	lui	s1,0x8041
804056ec:	afb0001c 	sw	s0,28(sp)
804056f0:	00808021 	move	s0,a0
804056f4:	8e2445cc 	lw	a0,17868(s1)
804056f8:	afbf0024 	sw	ra,36(sp)
804056fc:	0c10181c 	jal	80406070 <_API_Mutex_Lock>
80405700:	00000000 	nop
80405704:	02002021 	move	a0,s0
80405708:	0c101f98 	jal	80407e60 <_Thread_Get>
8040570c:	27a50010 	addiu	a1,sp,16
80405710:	00408021 	move	s0,v0
80405714:	8fa20010 	lw	v0,16(sp)
80405718:	14400015 	bnez	v0,80405770 <rtems_task_delete+0x90>
8040571c:	00000000 	nop
80405720:	0c101c2c 	jal	804070b0 <_Objects_Get_information_id>
80405724:	8e040008 	lw	a0,8(s0)
80405728:	00402021 	move	a0,v0
8040572c:	0c101e90 	jal	80407a40 <_Thread_Close>
80405730:	02002821 	move	a1,s0
80405734:	0c101c2c 	jal	804070b0 <_Objects_Get_information_id>
80405738:	8e040008 	lw	a0,8(s0)
8040573c:	00402021 	move	a0,v0
80405740:	0c101bfc 	jal	80406ff0 <_Objects_Free>
80405744:	02002821 	move	a1,s0
80405748:	0c1018c8 	jal	80406320 <_API_Mutex_Unlock>
8040574c:	8e2445cc 	lw	a0,17868(s1)
80405750:	0c101f8c 	jal	80407e30 <_Thread_Enable_dispatch>
80405754:	00000000 	nop
80405758:	8fbf0024 	lw	ra,36(sp)
8040575c:	00001021 	move	v0,zero
80405760:	8fb10020 	lw	s1,32(sp)
80405764:	8fb0001c 	lw	s0,28(sp)
80405768:	03e00008 	jr	ra
8040576c:	27bd0028 	addiu	sp,sp,40
80405770:	0c1018c8 	jal	80406320 <_API_Mutex_Unlock>
80405774:	8e2445cc 	lw	a0,17868(s1)
80405778:	8fbf0024 	lw	ra,36(sp)
8040577c:	24020004 	li	v0,4
80405780:	8fb10020 	lw	s1,32(sp)
80405784:	8fb0001c 	lw	s0,28(sp)
80405788:	03e00008 	jr	ra
8040578c:	27bd0028 	addiu	sp,sp,40

80405790 <_RTEMS_tasks_Initialize_user_tasks_body>:
80405790:	3c028041 	lui	v0,0x8041
80405794:	8c4345ac 	lw	v1,17836(v0)
80405798:	27bdffc8 	addiu	sp,sp,-56
8040579c:	8c640040 	lw	a0,64(v1)
804057a0:	afb2002c 	sw	s2,44(sp)
804057a4:	8c82002c 	lw	v0,44(a0)
804057a8:	afbf0034 	sw	ra,52(sp)
804057ac:	afb30030 	sw	s3,48(sp)
804057b0:	afb10028 	sw	s1,40(sp)
804057b4:	afb00024 	sw	s0,36(sp)
804057b8:	10400017 	beqz	v0,80405818 <_RTEMS_tasks_Initialize_user_tasks_body+0x88>
804057bc:	8c920028 	lw	s2,40(a0)
804057c0:	12400015 	beqz	s2,80405818 <_RTEMS_tasks_Initialize_user_tasks_body+0x88>
804057c4:	00408021 	move	s0,v0
804057c8:	00008821 	move	s1,zero
804057cc:	27b30018 	addiu	s3,sp,24
804057d0:	8e040000 	lw	a0,0(s0)
804057d4:	8e050008 	lw	a1,8(s0)
804057d8:	8e060004 	lw	a2,4(s0)
804057dc:	8e070014 	lw	a3,20(s0)
804057e0:	8e02000c 	lw	v0,12(s0)
804057e4:	afb30014 	sw	s3,20(sp)
804057e8:	0c10153c 	jal	804054f0 <rtems_task_create>
804057ec:	afa20010 	sw	v0,16(sp)
804057f0:	14400010 	bnez	v0,80405834 <_RTEMS_tasks_Initialize_user_tasks_body+0xa4>
804057f4:	8fa40018 	lw	a0,24(sp)
804057f8:	8e050010 	lw	a1,16(s0)
804057fc:	0c101614 	jal	80405850 <rtems_task_start>
80405800:	8e060018 	lw	a2,24(s0)
80405804:	1440000b 	bnez	v0,80405834 <_RTEMS_tasks_Initialize_user_tasks_body+0xa4>
80405808:	26310001 	addiu	s1,s1,1
8040580c:	0232102b 	sltu	v0,s1,s2
80405810:	1440ffef 	bnez	v0,804057d0 <_RTEMS_tasks_Initialize_user_tasks_body+0x40>
80405814:	2610001c 	addiu	s0,s0,28
80405818:	8fbf0034 	lw	ra,52(sp)
8040581c:	8fb30030 	lw	s3,48(sp)
80405820:	8fb2002c 	lw	s2,44(sp)
80405824:	8fb10028 	lw	s1,40(sp)
80405828:	8fb00024 	lw	s0,36(sp)
8040582c:	03e00008 	jr	ra
80405830:	27bd0038 	addiu	sp,sp,56
80405834:	00403021 	move	a2,v0
80405838:	24040001 	li	a0,1
8040583c:	0c101ab0 	jal	80406ac0 <_Internal_error_Occurred>
80405840:	24050001 	li	a1,1
	...

80405850 <rtems_task_start>:
80405850:	27bdffd0 	addiu	sp,sp,-48
80405854:	afb10028 	sw	s1,40(sp)
80405858:	afb00024 	sw	s0,36(sp)
8040585c:	afbf002c 	sw	ra,44(sp)
80405860:	00a08021 	move	s0,a1
80405864:	10a0001f 	beqz	a1,804058e4 <rtems_task_start+0x94>
80405868:	00c08821 	move	s1,a2
8040586c:	0c101f98 	jal	80407e60 <_Thread_Get>
80405870:	27a50018 	addiu	a1,sp,24
80405874:	00402021 	move	a0,v0
80405878:	8fa20018 	lw	v0,24(sp)
8040587c:	10400007 	beqz	v0,8040589c <rtems_task_start+0x4c>
80405880:	02003021 	move	a2,s0
80405884:	24020004 	li	v0,4
80405888:	8fbf002c 	lw	ra,44(sp)
8040588c:	8fb10028 	lw	s1,40(sp)
80405890:	8fb00024 	lw	s0,36(sp)
80405894:	03e00008 	jr	ra
80405898:	27bd0030 	addiu	sp,sp,48
8040589c:	00002821 	move	a1,zero
804058a0:	00003821 	move	a3,zero
804058a4:	0c1023d4 	jal	80408f50 <_Thread_Start>
804058a8:	afb10010 	sw	s1,16(sp)
804058ac:	14400009 	bnez	v0,804058d4 <rtems_task_start+0x84>
804058b0:	00000000 	nop
804058b4:	0c101f8c 	jal	80407e30 <_Thread_Enable_dispatch>
804058b8:	00000000 	nop
804058bc:	8fbf002c 	lw	ra,44(sp)
804058c0:	2402000e 	li	v0,14
804058c4:	8fb10028 	lw	s1,40(sp)
804058c8:	8fb00024 	lw	s0,36(sp)
804058cc:	03e00008 	jr	ra
804058d0:	27bd0030 	addiu	sp,sp,48
804058d4:	0c101f8c 	jal	80407e30 <_Thread_Enable_dispatch>
804058d8:	00000000 	nop
804058dc:	08101622 	j	80405888 <rtems_task_start+0x38>
804058e0:	00001021 	move	v0,zero
804058e4:	8fbf002c 	lw	ra,44(sp)
804058e8:	24020009 	li	v0,9
804058ec:	8fb10028 	lw	s1,40(sp)
804058f0:	8fb00024 	lw	s0,36(sp)
804058f4:	03e00008 	jr	ra
804058f8:	27bd0030 	addiu	sp,sp,48
804058fc:	00000000 	nop

80405900 <rtems_task_wake_after>:
80405900:	3c038041 	lui	v1,0x8041
80405904:	8c624514 	lw	v0,17684(v1)
80405908:	27bdffe0 	addiu	sp,sp,-32
8040590c:	24420001 	addiu	v0,v0,1
80405910:	afb10018 	sw	s1,24(sp)
80405914:	afbf001c 	sw	ra,28(sp)
80405918:	afb00014 	sw	s0,20(sp)
8040591c:	00808821 	move	s1,a0
80405920:	ac624514 	sw	v0,17684(v1)
80405924:	10800019 	beqz	a0,8040598c <rtems_task_wake_after+0x8c>
80405928:	3c108041 	lui	s0,0x8041
8040592c:	8e0445d4 	lw	a0,17876(s0)
80405930:	0c1022e8 	jal	80408ba0 <_Thread_Set_state>
80405934:	24050008 	li	a1,8
80405938:	8e0545d4 	lw	a1,17876(s0)
8040593c:	3c028040 	lui	v0,0x8040
80405940:	8ca30008 	lw	v1,8(a1)
80405944:	24427c10 	addiu	v0,v0,31760
80405948:	3c048041 	lui	a0,0x8041
8040594c:	aca20064 	sw	v0,100(a1)
80405950:	aca30068 	sw	v1,104(a1)
80405954:	acb10054 	sw	s1,84(a1)
80405958:	aca00050 	sw	zero,80(a1)
8040595c:	aca0006c 	sw	zero,108(a1)
80405960:	248445f4 	addiu	a0,a0,17908
80405964:	0c102564 	jal	80409590 <_Watchdog_Insert>
80405968:	24a50048 	addiu	a1,a1,72
8040596c:	0c101f8c 	jal	80407e30 <_Thread_Enable_dispatch>
80405970:	00000000 	nop
80405974:	8fbf001c 	lw	ra,28(sp)
80405978:	00001021 	move	v0,zero
8040597c:	8fb10018 	lw	s1,24(sp)
80405980:	8fb00014 	lw	s0,20(sp)
80405984:	03e00008 	jr	ra
80405988:	27bd0020 	addiu	sp,sp,32
8040598c:	0c1023ec 	jal	80408fb0 <_Thread_Yield_processor>
80405990:	00000000 	nop
80405994:	0c101f8c 	jal	80407e30 <_Thread_Enable_dispatch>
80405998:	00000000 	nop
8040599c:	8fbf001c 	lw	ra,28(sp)
804059a0:	00001021 	move	v0,zero
804059a4:	8fb10018 	lw	s1,24(sp)
804059a8:	8fb00014 	lw	s0,20(sp)
804059ac:	03e00008 	jr	ra
804059b0:	27bd0020 	addiu	sp,sp,32
	...

804059c0 <rtems_initialize_start_multitasking>:
804059c0:	24030002 	li	v1,2
804059c4:	3c028041 	lui	v0,0x8041
804059c8:	081023c4 	j	80408f10 <_Thread_Start_multitasking>
804059cc:	ac4346b4 	sw	v1,18100(v0)

804059d0 <rtems_initialize_device_drivers>:
804059d0:	27bdffe8 	addiu	sp,sp,-24
804059d4:	afbf0014 	sw	ra,20(sp)
804059d8:	0c1016dc 	jal	80405b70 <_IO_Initialize_all_drivers>
804059dc:	00000000 	nop
804059e0:	8fbf0014 	lw	ra,20(sp)
804059e4:	081017c2 	j	80405f08 <_API_extensions_Run_postdriver>
804059e8:	27bd0018 	addiu	sp,sp,24

804059ec <rtems_initialize_before_drivers>:
804059ec:	081017ac 	j	80405eb0 <_API_extensions_Run_predriver>
804059f0:	00000000 	nop

804059f4 <rtems_initialize_data_structures>:
804059f4:	27bdffe0 	addiu	sp,sp,-32
804059f8:	afb00014 	sw	s0,20(sp)
804059fc:	afbf001c 	sw	ra,28(sp)
80405a00:	afb10018 	sw	s1,24(sp)
80405a04:	00808021 	move	s0,a0
80405a08:	40026000 	mfc0	v0,c0_status
80405a0c:	00000000 	nop
80405a10:	2403fffe 	li	v1,-2
80405a14:	00431024 	and	v0,v0,v1
80405a18:	40826000 	mtc0	v0,c0_status
80405a1c:	00000000 	nop
80405a20:	10800045 	beqz	a0,80405b38 <rtems_initialize_data_structures+0x144>
80405a24:	3c048040 	lui	a0,0x8040
80405a28:	3c028041 	lui	v0,0x8041
80405a2c:	24847c60 	addiu	a0,a0,31840
80405a30:	3c118041 	lui	s1,0x8041
80405a34:	0c102770 	jal	80409dc0 <_CPU_Initialize>
80405a38:	ac5045ac 	sw	s0,17836(v0)
80405a3c:	0c103324 	jal	8040cc90 <_Debug_Manager_initialization>
80405a40:	ae2046b4 	sw	zero,18100(s1)
80405a44:	0c1017a4 	jal	80405e90 <_API_extensions_Initialization>
80405a48:	00000000 	nop
80405a4c:	8e050004 	lw	a1,4(s0)
80405a50:	8e040000 	lw	a0,0(s0)
80405a54:	24030001 	li	v1,1
80405a58:	3c028041 	lui	v0,0x8041
80405a5c:	ac434514 	sw	v1,17684(v0)
80405a60:	0c102662 	jal	80409988 <_Workspace_Handler_initialization>
80405a64:	00000000 	nop
80405a68:	8e05003c 	lw	a1,60(s0)
80405a6c:	0c102468 	jal	804091a0 <_User_extensions_Handler_initialization>
80405a70:	8e040038 	lw	a0,56(s0)
80405a74:	0c101ac8 	jal	80406b20 <_ISR_Handler_initialization>
80405a78:	00000000 	nop
80405a7c:	0c101d00 	jal	80407400 <_Objects_Handler_initialization>
80405a80:	00000000 	nop
80405a84:	3c028041 	lui	v0,0x8041
80405a88:	2442452c 	addiu	v0,v0,17708
80405a8c:	3c038041 	lui	v1,0x8041
80405a90:	24040001 	li	a0,1
80405a94:	0c1018b8 	jal	804062e0 <_API_Mutex_Initialization>
80405a98:	ac6244d0 	sw	v0,17616(v1)
80405a9c:	3c048041 	lui	a0,0x8041
80405aa0:	0c1017f8 	jal	80405fe0 <_API_Mutex_Allocate>
80405aa4:	248445cc 	addiu	a0,a0,17868
80405aa8:	3c028041 	lui	v0,0x8041
80405aac:	a44045c8 	sh	zero,17864(v0)
80405ab0:	3c038041 	lui	v1,0x8041
80405ab4:	3c028041 	lui	v0,0x8041
80405ab8:	24634640 	addiu	v1,v1,17984
80405abc:	24424660 	addiu	v0,v0,18016
80405ac0:	a4600000 	sh	zero,0(v1)
80405ac4:	24630002 	addiu	v1,v1,2
80405ac8:	1443fffd 	bne	v0,v1,80405ac0 <rtems_initialize_data_structures+0xcc>
80405acc:	00000000 	nop
80405ad0:	0c1025e8 	jal	804097a0 <_Watchdog_Handler_initialization>
80405ad4:	00000000 	nop
80405ad8:	0c101a14 	jal	80406850 <_TOD_Handler_initialization>
80405adc:	8e04000c 	lw	a0,12(s0)
80405ae0:	8e050008 	lw	a1,8(s0)
80405ae4:	0c102044 	jal	80408110 <_Thread_Handler_initialization>
80405ae8:	8e040010 	lw	a0,16(s0)
80405aec:	0c101780 	jal	80405e00 <_RTEMS_API_Initialize>
80405af0:	02002021 	move	a0,s0
80405af4:	0c1000a4 	jal	80400290 <_Extension_Manager_initialization>
80405af8:	8e040008 	lw	a0,8(s0)
80405afc:	8e050030 	lw	a1,48(s0)
80405b00:	8e06002c 	lw	a2,44(s0)
80405b04:	0c1016f2 	jal	80405bc8 <_IO_Manager_initialization>
80405b08:	8e040034 	lw	a0,52(s0)
80405b0c:	0c101758 	jal	80405d60 <_POSIX_API_Initialize>
80405b10:	02002021 	move	a0,s0
80405b14:	0c101734 	jal	80405cd0 <_ITRON_API_Initialize>
80405b18:	02002021 	move	a0,s0
80405b1c:	24020001 	li	v0,1
80405b20:	ae2246b4 	sw	v0,18100(s1)
80405b24:	8fbf001c 	lw	ra,28(sp)
80405b28:	8fb10018 	lw	s1,24(sp)
80405b2c:	8fb00014 	lw	s0,20(sp)
80405b30:	08101ec8 	j	80407b20 <_Thread_Create_idle>
80405b34:	27bd0020 	addiu	sp,sp,32
80405b38:	00002021 	move	a0,zero
80405b3c:	24050001 	li	a1,1
80405b40:	0c101ab0 	jal	80406ac0 <_Internal_error_Occurred>
80405b44:	00003021 	move	a2,zero
	...

80405b50 <rtems_fatal_error_occurred>:
80405b50:	27bdffe8 	addiu	sp,sp,-24
80405b54:	00803021 	move	a2,a0
80405b58:	00002821 	move	a1,zero
80405b5c:	afbf0014 	sw	ra,20(sp)
80405b60:	0c101ab0 	jal	80406ac0 <_Internal_error_Occurred>
80405b64:	24040001 	li	a0,1
	...

80405b70 <_IO_Initialize_all_drivers>:
80405b70:	27bdffe0 	addiu	sp,sp,-32
80405b74:	afb10018 	sw	s1,24(sp)
80405b78:	3c118041 	lui	s1,0x8041
80405b7c:	8e224fd8 	lw	v0,20440(s1)
80405b80:	afbf001c 	sw	ra,28(sp)
80405b84:	1040000b 	beqz	v0,80405bb4 <_IO_Initialize_all_drivers+0x44>
80405b88:	afb00014 	sw	s0,20(sp)
80405b8c:	00008021 	move	s0,zero
80405b90:	02002021 	move	a0,s0
80405b94:	00002821 	move	a1,zero
80405b98:	0c103338 	jal	8040cce0 <rtems_io_initialize>
80405b9c:	00003021 	move	a2,zero
80405ba0:	8e234fd8 	lw	v1,20440(s1)
80405ba4:	26100001 	addiu	s0,s0,1
80405ba8:	0203182b 	sltu	v1,s0,v1
80405bac:	1460fff9 	bnez	v1,80405b94 <_IO_Initialize_all_drivers+0x24>
80405bb0:	02002021 	move	a0,s0
80405bb4:	8fbf001c 	lw	ra,28(sp)
80405bb8:	8fb10018 	lw	s1,24(sp)
80405bbc:	8fb00014 	lw	s0,20(sp)
80405bc0:	03e00008 	jr	ra
80405bc4:	27bd0020 	addiu	sp,sp,32

80405bc8 <_IO_Manager_initialization>:
80405bc8:	27bdffd8 	addiu	sp,sp,-40
80405bcc:	00a6102b 	sltu	v0,a1,a2
80405bd0:	afb30020 	sw	s3,32(sp)
80405bd4:	afb2001c 	sw	s2,28(sp)
80405bd8:	afb10018 	sw	s1,24(sp)
80405bdc:	afbf0024 	sw	ra,36(sp)
80405be0:	afb00014 	sw	s0,20(sp)
80405be4:	00a09021 	move	s2,a1
80405be8:	00c08821 	move	s1,a2
80405bec:	1440000c 	bnez	v0,80405c20 <_IO_Manager_initialization+0x58>
80405bf0:	00809821 	move	s3,a0
80405bf4:	3c028041 	lui	v0,0x8041
80405bf8:	3c038041 	lui	v1,0x8041
80405bfc:	ac444fdc 	sw	a0,20444(v0)
80405c00:	ac654fd8 	sw	a1,20440(v1)
80405c04:	8fbf0024 	lw	ra,36(sp)
80405c08:	8fb30020 	lw	s3,32(sp)
80405c0c:	8fb2001c 	lw	s2,28(sp)
80405c10:	8fb10018 	lw	s1,24(sp)
80405c14:	8fb00014 	lw	s0,20(sp)
80405c18:	03e00008 	jr	ra
80405c1c:	27bd0028 	addiu	sp,sp,40
80405c20:	000610c0 	sll	v0,a2,0x3
80405c24:	00068140 	sll	s0,a2,0x5
80405c28:	02028023 	subu	s0,s0,v0
80405c2c:	0c102654 	jal	80409950 <_Workspace_Allocate_or_fatal_error>
80405c30:	02002021 	move	a0,s0
80405c34:	00402021 	move	a0,v0
80405c38:	02003021 	move	a2,s0
80405c3c:	3c038041 	lui	v1,0x8041
80405c40:	3c108041 	lui	s0,0x8041
80405c44:	00002821 	move	a1,zero
80405c48:	ac714fd8 	sw	s1,20440(v1)
80405c4c:	0c103dd8 	jal	8040f760 <memset>
80405c50:	ae024fdc 	sw	v0,20444(s0)
80405c54:	1240ffeb 	beqz	s2,80405c04 <_IO_Manager_initialization+0x3c>
80405c58:	8e0c4fdc 	lw	t4,20444(s0)
80405c5c:	00005821 	move	t3,zero
80405c60:	00005021 	move	t2,zero
80405c64:	026a1021 	addu	v0,s3,t2
80405c68:	8c490014 	lw	t1,20(v0)
80405c6c:	8c440000 	lw	a0,0(v0)
80405c70:	8c450004 	lw	a1,4(v0)
80405c74:	8c460008 	lw	a2,8(v0)
80405c78:	8c47000c 	lw	a3,12(v0)
80405c7c:	8c480010 	lw	t0,16(v0)
80405c80:	256b0001 	addiu	t3,t3,1
80405c84:	018a1821 	addu	v1,t4,t2
80405c88:	0172102b 	sltu	v0,t3,s2
80405c8c:	ac690014 	sw	t1,20(v1)
80405c90:	ac640000 	sw	a0,0(v1)
80405c94:	ac650004 	sw	a1,4(v1)
80405c98:	ac660008 	sw	a2,8(v1)
80405c9c:	ac67000c 	sw	a3,12(v1)
80405ca0:	ac680010 	sw	t0,16(v1)
80405ca4:	1440ffef 	bnez	v0,80405c64 <_IO_Manager_initialization+0x9c>
80405ca8:	254a0018 	addiu	t2,t2,24
80405cac:	8fbf0024 	lw	ra,36(sp)
80405cb0:	8fb30020 	lw	s3,32(sp)
80405cb4:	8fb2001c 	lw	s2,28(sp)
80405cb8:	8fb10018 	lw	s1,24(sp)
80405cbc:	8fb00014 	lw	s0,20(sp)
80405cc0:	03e00008 	jr	ra
80405cc4:	27bd0028 	addiu	sp,sp,40
	...

80405cd0 <_ITRON_API_Initialize>:
80405cd0:	27bdffe8 	addiu	sp,sp,-24
80405cd4:	afb00010 	sw	s0,16(sp)
80405cd8:	8c900048 	lw	s0,72(a0)
80405cdc:	1200001a 	beqz	s0,80405d48 <_ITRON_API_Initialize+0x78>
80405ce0:	afbf0014 	sw	ra,20(sp)
80405ce4:	8e050020 	lw	a1,32(s0)
80405ce8:	8e060024 	lw	a2,36(s0)
80405cec:	8e040000 	lw	a0,0(s0)
80405cf0:	3c028041 	lui	v0,0x8041
80405cf4:	24424718 	addiu	v0,v0,18200
80405cf8:	3c038041 	lui	v1,0x8041
80405cfc:	0c102fac 	jal	8040beb0 <_ITRON_Task_Manager_initialization>
80405d00:	ac6244dc 	sw	v0,17628(v1)
80405d04:	0c102f64 	jal	8040bd90 <_ITRON_Semaphore_Manager_initialization>
80405d08:	8e040004 	lw	a0,4(s0)
80405d0c:	0c102f44 	jal	8040bd10 <_ITRON_Eventflags_Manager_initialization>
80405d10:	8e040008 	lw	a0,8(s0)
80405d14:	0c102f54 	jal	8040bd50 <_ITRON_Fixed_memory_pool_Manager_initialization>
80405d18:	8e04001c 	lw	a0,28(s0)
80405d1c:	0c102f74 	jal	8040bdd0 <_ITRON_Mailbox_Manager_initialization>
80405d20:	8e04000c 	lw	a0,12(s0)
80405d24:	0c102f84 	jal	8040be10 <_ITRON_Message_buffer_Manager_initialization>
80405d28:	8e040010 	lw	a0,16(s0)
80405d2c:	0c102f94 	jal	8040be50 <_ITRON_Port_Manager_initialization>
80405d30:	8e040014 	lw	a0,20(s0)
80405d34:	8e040018 	lw	a0,24(s0)
80405d38:	8fbf0014 	lw	ra,20(sp)
80405d3c:	8fb00010 	lw	s0,16(sp)
80405d40:	08102fc4 	j	8040bf10 <_ITRON_Variable_memory_pool_Manager_initialization>
80405d44:	27bd0018 	addiu	sp,sp,24
80405d48:	3c028041 	lui	v0,0x8041
80405d4c:	08101739 	j	80405ce4 <_ITRON_API_Initialize+0x14>
80405d50:	245028b0 	addiu	s0,v0,10416
	...

80405d60 <_POSIX_API_Initialize>:
80405d60:	27bdffe8 	addiu	sp,sp,-24
80405d64:	afb00010 	sw	s0,16(sp)
80405d68:	8c900044 	lw	s0,68(a0)
80405d6c:	12000020 	beqz	s0,80405df0 <_POSIX_API_Initialize+0x90>
80405d70:	afbf0014 	sw	ra,20(sp)
80405d74:	8e040014 	lw	a0,20(s0)
80405d78:	3c028041 	lui	v0,0x8041
80405d7c:	24424b88 	addiu	v0,v0,19336
80405d80:	3c038041 	lui	v1,0x8041
80405d84:	0c10305c 	jal	8040c170 <_POSIX_signals_Manager_Initialization>
80405d88:	ac6244d8 	sw	v0,17624(v1)
80405d8c:	8e05002c 	lw	a1,44(s0)
80405d90:	8e060030 	lw	a2,48(s0)
80405d94:	0c103120 	jal	8040c480 <_POSIX_Threads_Manager_initialization>
80405d98:	8e040000 	lw	a0,0(s0)
80405d9c:	0c102fd4 	jal	8040bf50 <_POSIX_Condition_variables_Manager_initialization>
80405da0:	8e040008 	lw	a0,8(s0)
80405da4:	0c102fe8 	jal	8040bfa0 <_POSIX_Key_Manager_initialization>
80405da8:	8e04000c 	lw	a0,12(s0)
80405dac:	0c103020 	jal	8040c080 <_POSIX_Mutex_Manager_initialization>
80405db0:	8e040004 	lw	a0,4(s0)
80405db4:	0c102ffc 	jal	8040bff0 <_POSIX_Message_queue_Manager_initialization>
80405db8:	8e040018 	lw	a0,24(s0)
80405dbc:	0c103220 	jal	8040c880 <_POSIX_Semaphore_Manager_initialization>
80405dc0:	8e04001c 	lw	a0,28(s0)
80405dc4:	0c10320c 	jal	8040c830 <_POSIX_Timer_Manager_initialization>
80405dc8:	8e040010 	lw	a0,16(s0)
80405dcc:	0c103034 	jal	8040c0d0 <_POSIX_Barrier_Manager_initialization>
80405dd0:	8e040020 	lw	a0,32(s0)
80405dd4:	0c103048 	jal	8040c120 <_POSIX_RWLock_Manager_initialization>
80405dd8:	8e040024 	lw	a0,36(s0)
80405ddc:	8e040028 	lw	a0,40(s0)
80405de0:	8fbf0014 	lw	ra,20(sp)
80405de4:	8fb00010 	lw	s0,16(sp)
80405de8:	08103104 	j	8040c410 <_POSIX_Spinlock_Manager_initialization>
80405dec:	27bd0018 	addiu	sp,sp,24
80405df0:	3c028041 	lui	v0,0x8041
80405df4:	0810175d 	j	80405d74 <_POSIX_API_Initialize+0x14>
80405df8:	245028e0 	addiu	s0,v0,10464
80405dfc:	00000000 	nop

80405e00 <_RTEMS_API_Initialize>:
80405e00:	27bdffe8 	addiu	sp,sp,-24
80405e04:	afb00010 	sw	s0,16(sp)
80405e08:	3c028041 	lui	v0,0x8041
80405e0c:	8c900040 	lw	s0,64(a0)
80405e10:	24424c00 	addiu	v0,v0,19456
80405e14:	3c038041 	lui	v1,0x8041
80405e18:	afbf0014 	sw	ra,20(sp)
80405e1c:	0c103244 	jal	8040c910 <_Interrupt_Manager_initialization>
80405e20:	ac6244d4 	sw	v0,17620(v1)
80405e24:	0c103280 	jal	8040ca00 <_RTEMS_tasks_Manager_initialization>
80405e28:	8e040000 	lw	a0,0(s0)
80405e2c:	0c10009c 	jal	80400270 <_Timer_Manager_initialization>
80405e30:	8e040008 	lw	a0,8(s0)
80405e34:	0c100098 	jal	80400260 <_Signal_Manager_initialization>
80405e38:	00000000 	nop
80405e3c:	0c100088 	jal	80400220 <_Event_Manager_initialization>
80405e40:	00000000 	nop
80405e44:	0c10008c 	jal	80400230 <_Message_queue_Manager_initialization>
80405e48:	8e040010 	lw	a0,16(s0)
80405e4c:	0c103248 	jal	8040c920 <_Semaphore_Manager_initialization>
80405e50:	8e04000c 	lw	a0,12(s0)
80405e54:	0c100090 	jal	80400240 <_Partition_Manager_initialization>
80405e58:	8e040014 	lw	a0,20(s0)
80405e5c:	0c100094 	jal	80400250 <_Region_Manager_initialization>
80405e60:	8e040018 	lw	a0,24(s0)
80405e64:	0c100084 	jal	80400210 <_Dual_ported_memory_Manager_initialization>
80405e68:	8e04001c 	lw	a0,28(s0)
80405e6c:	0c1000a0 	jal	80400280 <_Rate_monotonic_Manager_initialization>
80405e70:	8e040020 	lw	a0,32(s0)
80405e74:	8e040024 	lw	a0,36(s0)
80405e78:	8fbf0014 	lw	ra,20(sp)
80405e7c:	8fb00010 	lw	s0,16(sp)
80405e80:	08100080 	j	80400200 <_Barrier_Manager_initialization>
80405e84:	27bd0018 	addiu	sp,sp,24
	...

80405e90 <_API_extensions_Initialization>:
80405e90:	3c048041 	lui	a0,0x8041
80405e94:	3c028041 	lui	v0,0x8041
80405e98:	248346cc 	addiu	v1,a0,18124
80405e9c:	244246d0 	addiu	v0,v0,18128
80405ea0:	ac8246cc 	sw	v0,18124(a0)
80405ea4:	ac630008 	sw	v1,8(v1)
80405ea8:	03e00008 	jr	ra
80405eac:	ac600004 	sw	zero,4(v1)

80405eb0 <_API_extensions_Run_predriver>:
80405eb0:	27bdffe0 	addiu	sp,sp,-32
80405eb4:	3c028041 	lui	v0,0x8041
80405eb8:	afb00014 	sw	s0,20(sp)
80405ebc:	3c038041 	lui	v1,0x8041
80405ec0:	8c5046cc 	lw	s0,18124(v0)
80405ec4:	afb10018 	sw	s1,24(sp)
80405ec8:	247146d0 	addiu	s1,v1,18128
80405ecc:	12110009 	beq	s0,s1,80405ef4 <_API_extensions_Run_predriver+0x44>
80405ed0:	afbf001c 	sw	ra,28(sp)
80405ed4:	8e020008 	lw	v0,8(s0)
80405ed8:	10400003 	beqz	v0,80405ee8 <_API_extensions_Run_predriver+0x38>
80405edc:	00000000 	nop
80405ee0:	0040f809 	jalr	v0
80405ee4:	00000000 	nop
80405ee8:	8e100000 	lw	s0,0(s0)
80405eec:	1611fff9 	bne	s0,s1,80405ed4 <_API_extensions_Run_predriver+0x24>
80405ef0:	00000000 	nop
80405ef4:	8fbf001c 	lw	ra,28(sp)
80405ef8:	8fb10018 	lw	s1,24(sp)
80405efc:	8fb00014 	lw	s0,20(sp)
80405f00:	03e00008 	jr	ra
80405f04:	27bd0020 	addiu	sp,sp,32

80405f08 <_API_extensions_Run_postdriver>:
80405f08:	27bdffe0 	addiu	sp,sp,-32
80405f0c:	3c028041 	lui	v0,0x8041
80405f10:	afb00014 	sw	s0,20(sp)
80405f14:	3c038041 	lui	v1,0x8041
80405f18:	8c5046cc 	lw	s0,18124(v0)
80405f1c:	afb10018 	sw	s1,24(sp)
80405f20:	247146d0 	addiu	s1,v1,18128
80405f24:	12110009 	beq	s0,s1,80405f4c <_API_extensions_Run_postdriver+0x44>
80405f28:	afbf001c 	sw	ra,28(sp)
80405f2c:	8e02000c 	lw	v0,12(s0)
80405f30:	10400003 	beqz	v0,80405f40 <_API_extensions_Run_postdriver+0x38>
80405f34:	00000000 	nop
80405f38:	0040f809 	jalr	v0
80405f3c:	00000000 	nop
80405f40:	8e100000 	lw	s0,0(s0)
80405f44:	1611fff9 	bne	s0,s1,80405f2c <_API_extensions_Run_postdriver+0x24>
80405f48:	00000000 	nop
80405f4c:	8fbf001c 	lw	ra,28(sp)
80405f50:	8fb10018 	lw	s1,24(sp)
80405f54:	8fb00014 	lw	s0,20(sp)
80405f58:	03e00008 	jr	ra
80405f5c:	27bd0020 	addiu	sp,sp,32

80405f60 <_API_extensions_Run_postswitch>:
80405f60:	27bdffe0 	addiu	sp,sp,-32
80405f64:	3c028041 	lui	v0,0x8041
80405f68:	afb00010 	sw	s0,16(sp)
80405f6c:	3c038041 	lui	v1,0x8041
80405f70:	8c5046cc 	lw	s0,18124(v0)
80405f74:	afb10014 	sw	s1,20(sp)
80405f78:	247146d0 	addiu	s1,v1,18128
80405f7c:	afbf001c 	sw	ra,28(sp)
80405f80:	1211000a 	beq	s0,s1,80405fac <_API_extensions_Run_postswitch+0x4c>
80405f84:	afb20018 	sw	s2,24(sp)
80405f88:	3c128041 	lui	s2,0x8041
80405f8c:	8e020010 	lw	v0,16(s0)
80405f90:	10400003 	beqz	v0,80405fa0 <_API_extensions_Run_postswitch+0x40>
80405f94:	00000000 	nop
80405f98:	0040f809 	jalr	v0
80405f9c:	8e4445d4 	lw	a0,17876(s2)
80405fa0:	8e100000 	lw	s0,0(s0)
80405fa4:	1611fff9 	bne	s0,s1,80405f8c <_API_extensions_Run_postswitch+0x2c>
80405fa8:	00000000 	nop
80405fac:	8fbf001c 	lw	ra,28(sp)
80405fb0:	8fb20018 	lw	s2,24(sp)
80405fb4:	8fb10014 	lw	s1,20(sp)
80405fb8:	8fb00010 	lw	s0,16(sp)
80405fbc:	03e00008 	jr	ra
80405fc0:	27bd0020 	addiu	sp,sp,32

80405fc4 <_API_extensions_Add>:
80405fc4:	00802821 	move	a1,a0
80405fc8:	3c048041 	lui	a0,0x8041
80405fcc:	081018d8 	j	80406360 <_Chain_Append>
80405fd0:	248446cc 	addiu	a0,a0,18124
	...

80405fe0 <_API_Mutex_Allocate>:
80405fe0:	27bdffc8 	addiu	sp,sp,-56
80405fe4:	afb10028 	sw	s1,40(sp)
80405fe8:	3c118041 	lui	s1,0x8041
80405fec:	afb30030 	sw	s3,48(sp)
80405ff0:	afb2002c 	sw	s2,44(sp)
80405ff4:	00809821 	move	s3,a0
80405ff8:	24120001 	li	s2,1
80405ffc:	26244600 	addiu	a0,s1,17920
80406000:	24020002 	li	v0,2
80406004:	afbf0034 	sw	ra,52(sp)
80406008:	afb00024 	sw	s0,36(sp)
8040600c:	afb20010 	sw	s2,16(sp)
80406010:	afa20018 	sw	v0,24(sp)
80406014:	a3a00014 	sb	zero,20(sp)
80406018:	0c101ad8 	jal	80406b60 <_Objects_Allocate>
8040601c:	afa0001c 	sw	zero,28(sp)
80406020:	00408021 	move	s0,v0
80406024:	24440010 	addiu	a0,v0,16
80406028:	27a50010 	addiu	a1,sp,16
8040602c:	0c1018f4 	jal	804063d0 <_CORE_mutex_Initialize>
80406030:	24060001 	li	a2,1
80406034:	26314600 	addiu	s1,s1,17920
80406038:	9602000a 	lhu	v0,10(s0)
8040603c:	8e23001c 	lw	v1,28(s1)
80406040:	00021080 	sll	v0,v0,0x2
80406044:	00621821 	addu	v1,v1,v0
80406048:	ac700000 	sw	s0,0(v1)
8040604c:	ae12000c 	sw	s2,12(s0)
80406050:	8fbf0034 	lw	ra,52(sp)
80406054:	ae700000 	sw	s0,0(s3)
80406058:	8fb2002c 	lw	s2,44(sp)
8040605c:	8fb30030 	lw	s3,48(sp)
80406060:	8fb10028 	lw	s1,40(sp)
80406064:	8fb00024 	lw	s0,36(sp)
80406068:	03e00008 	jr	ra
8040606c:	27bd0038 	addiu	sp,sp,56

80406070 <_API_Mutex_Lock>:
80406070:	27bdffe8 	addiu	sp,sp,-24
80406074:	afbf0014 	sw	ra,20(sp)
80406078:	00803021 	move	a2,a0
8040607c:	40046000 	mfc0	a0,c0_status
80406080:	00000000 	nop
80406084:	2402fffe 	li	v0,-2
80406088:	00821024 	and	v0,a0,v0
8040608c:	40826000 	mtc0	v0,c0_status
80406090:	00000000 	nop
80406094:	3c088041 	lui	t0,0x8041
80406098:	8d024514 	lw	v0,17684(t0)
8040609c:	10400006 	beqz	v0,804060b8 <_API_Mutex_Lock+0x48>
804060a0:	3c028041 	lui	v0,0x8041
804060a4:	3c038041 	lui	v1,0x8041
804060a8:	8c6246b4 	lw	v0,18100(v1)
804060ac:	2c420002 	sltiu	v0,v0,2
804060b0:	1040006a 	beqz	v0,8040625c <_API_Mutex_Lock+0x1ec>
804060b4:	3c028041 	lui	v0,0x8041
804060b8:	8c4545d4 	lw	a1,17876(v0)
804060bc:	aca00034 	sw	zero,52(a1)
804060c0:	8cc20060 	lw	v0,96(a2)
804060c4:	10400017 	beqz	v0,80406124 <_API_Mutex_Lock+0xb4>
804060c8:	30870001 	andi	a3,a0,0x1
804060cc:	acc00060 	sw	zero,96(a2)
804060d0:	8ca20008 	lw	v0,8(a1)
804060d4:	8cc40058 	lw	a0,88(a2)
804060d8:	acc20070 	sw	v0,112(a2)
804060dc:	24030001 	li	v1,1
804060e0:	24020002 	li	v0,2
804060e4:	acc30064 	sw	v1,100(a2)
804060e8:	10820026 	beq	a0,v0,80406184 <_API_Mutex_Lock+0x114>
804060ec:	acc5006c 	sw	a1,108(a2)
804060f0:	24020003 	li	v0,3
804060f4:	10820027 	beq	a0,v0,80406194 <_API_Mutex_Lock+0x124>
804060f8:	00000000 	nop
804060fc:	40026000 	mfc0	v0,c0_status
80406100:	00000000 	nop
80406104:	2403fffe 	li	v1,-2
80406108:	00431024 	and	v0,v0,v1
8040610c:	00471025 	or	v0,v0,a3
80406110:	40826000 	mtc0	v0,c0_status
80406114:	00000000 	nop
80406118:	8fbf0014 	lw	ra,20(sp)
8040611c:	03e00008 	jr	ra
80406120:	27bd0018 	addiu	sp,sp,24
80406124:	8cc2006c 	lw	v0,108(a2)
80406128:	10a20031 	beq	a1,v0,804061f0 <_API_Mutex_Lock+0x180>
8040612c:	00000000 	nop
80406130:	8d034514 	lw	v1,17684(t0)
80406134:	8cc20008 	lw	v0,8(a2)
80406138:	24630001 	addiu	v1,v1,1
8040613c:	aca20020 	sw	v0,32(a1)
80406140:	24c40010 	addiu	a0,a2,16
80406144:	24020001 	li	v0,1
80406148:	ad034514 	sw	v1,17684(t0)
8040614c:	acc20040 	sw	v0,64(a2)
80406150:	aca40044 	sw	a0,68(a1)
80406154:	40026000 	mfc0	v0,c0_status
80406158:	00000000 	nop
8040615c:	2403fffe 	li	v1,-2
80406160:	00431024 	and	v0,v0,v1
80406164:	00471025 	or	v0,v0,a3
80406168:	40826000 	mtc0	v0,c0_status
8040616c:	00000000 	nop
80406170:	00002821 	move	a1,zero
80406174:	8fbf0014 	lw	ra,20(sp)
80406178:	24c40010 	addiu	a0,a2,16
8040617c:	0810191c 	j	80406470 <_CORE_mutex_Seize_interrupt_blocking>
80406180:	27bd0018 	addiu	sp,sp,24
80406184:	8ca2001c 	lw	v0,28(a1)
80406188:	24420001 	addiu	v0,v0,1
8040618c:	0810183f 	j	804060fc <_API_Mutex_Lock+0x8c>
80406190:	aca2001c 	sw	v0,28(a1)
80406194:	8ca2001c 	lw	v0,28(a1)
80406198:	8ca30014 	lw	v1,20(a1)
8040619c:	24420001 	addiu	v0,v0,1
804061a0:	aca2001c 	sw	v0,28(a1)
804061a4:	8cc2005c 	lw	v0,92(a2)
804061a8:	10430030 	beq	v0,v1,8040626c <_API_Mutex_Lock+0x1fc>
804061ac:	0043102b 	sltu	v0,v0,v1
804061b0:	14400037 	bnez	v0,80406290 <_API_Mutex_Lock+0x220>
804061b4:	24020006 	li	v0,6
804061b8:	aca20034 	sw	v0,52(a1)
804061bc:	acc00064 	sw	zero,100(a2)
804061c0:	8ca2001c 	lw	v0,28(a1)
804061c4:	2442ffff 	addiu	v0,v0,-1
804061c8:	aca2001c 	sw	v0,28(a1)
804061cc:	40026000 	mfc0	v0,c0_status
804061d0:	00000000 	nop
804061d4:	2403fffe 	li	v1,-2
804061d8:	00431024 	and	v0,v0,v1
804061dc:	00471025 	or	v0,v0,a3
804061e0:	40826000 	mtc0	v0,c0_status
804061e4:	00000000 	nop
804061e8:	08101847 	j	8040611c <_API_Mutex_Lock+0xac>
804061ec:	8fbf0014 	lw	ra,20(sp)
804061f0:	8cc30050 	lw	v1,80(a2)
804061f4:	1060000d 	beqz	v1,8040622c <_API_Mutex_Lock+0x1bc>
804061f8:	24020001 	li	v0,1
804061fc:	1462ffcc 	bne	v1,v0,80406130 <_API_Mutex_Lock+0xc0>
80406200:	24020002 	li	v0,2
80406204:	aca20034 	sw	v0,52(a1)
80406208:	40026000 	mfc0	v0,c0_status
8040620c:	00000000 	nop
80406210:	2403fffe 	li	v1,-2
80406214:	00431024 	and	v0,v0,v1
80406218:	00471025 	or	v0,v0,a3
8040621c:	40826000 	mtc0	v0,c0_status
80406220:	00000000 	nop
80406224:	08101847 	j	8040611c <_API_Mutex_Lock+0xac>
80406228:	8fbf0014 	lw	ra,20(sp)
8040622c:	8cc20064 	lw	v0,100(a2)
80406230:	24420001 	addiu	v0,v0,1
80406234:	acc20064 	sw	v0,100(a2)
80406238:	40026000 	mfc0	v0,c0_status
8040623c:	00000000 	nop
80406240:	2403fffe 	li	v1,-2
80406244:	00431024 	and	v0,v0,v1
80406248:	00471025 	or	v0,v0,a3
8040624c:	40826000 	mtc0	v0,c0_status
80406250:	00000000 	nop
80406254:	08101847 	j	8040611c <_API_Mutex_Lock+0xac>
80406258:	8fbf0014 	lw	ra,20(sp)
8040625c:	00002021 	move	a0,zero
80406260:	00002821 	move	a1,zero
80406264:	0c101ab0 	jal	80406ac0 <_Internal_error_Occurred>
80406268:	24060013 	li	a2,19
8040626c:	40026000 	mfc0	v0,c0_status
80406270:	00000000 	nop
80406274:	2403fffe 	li	v1,-2
80406278:	00431024 	and	v0,v0,v1
8040627c:	00471025 	or	v0,v0,a3
80406280:	40826000 	mtc0	v0,c0_status
80406284:	00000000 	nop
80406288:	08101847 	j	8040611c <_API_Mutex_Lock+0xac>
8040628c:	8fbf0014 	lw	ra,20(sp)
80406290:	8d024514 	lw	v0,17684(t0)
80406294:	24420001 	addiu	v0,v0,1
80406298:	ad024514 	sw	v0,17684(t0)
8040629c:	40026000 	mfc0	v0,c0_status
804062a0:	00000000 	nop
804062a4:	2403fffe 	li	v1,-2
804062a8:	00431024 	and	v0,v0,v1
804062ac:	00471025 	or	v0,v0,a3
804062b0:	40826000 	mtc0	v0,c0_status
804062b4:	00000000 	nop
804062b8:	8cc5005c 	lw	a1,92(a2)
804062bc:	8cc4006c 	lw	a0,108(a2)
804062c0:	0c101d98 	jal	80407660 <_Thread_Change_priority>
804062c4:	00003021 	move	a2,zero
804062c8:	8fbf0014 	lw	ra,20(sp)
804062cc:	08101f8c 	j	80407e30 <_Thread_Enable_dispatch>
804062d0:	27bd0018 	addiu	sp,sp,24
	...

804062e0 <_API_Mutex_Initialization>:
804062e0:	00803821 	move	a3,a0
804062e4:	3c048041 	lui	a0,0x8041
804062e8:	27bdffd8 	addiu	sp,sp,-40
804062ec:	24020074 	li	v0,116
804062f0:	24844600 	addiu	a0,a0,17920
804062f4:	24050001 	li	a1,1
804062f8:	24060002 	li	a2,2
804062fc:	afbf0024 	sw	ra,36(sp)
80406300:	afa20010 	sw	v0,16(sp)
80406304:	afa00014 	sw	zero,20(sp)
80406308:	0c101cb4 	jal	804072d0 <_Objects_Initialize_information>
8040630c:	afa00018 	sw	zero,24(sp)
80406310:	8fbf0024 	lw	ra,36(sp)
80406314:	03e00008 	jr	ra
80406318:	27bd0028 	addiu	sp,sp,40
8040631c:	00000000 	nop

80406320 <_API_Mutex_Unlock>:
80406320:	3c028041 	lui	v0,0x8041
80406324:	8c434514 	lw	v1,17684(v0)
80406328:	27bdffe8 	addiu	sp,sp,-24
8040632c:	24630001 	addiu	v1,v1,1
80406330:	afbf0014 	sw	ra,20(sp)
80406334:	ac434514 	sw	v1,17684(v0)
80406338:	8c850008 	lw	a1,8(a0)
8040633c:	00003021 	move	a2,zero
80406340:	0c10194c 	jal	80406530 <_CORE_mutex_Surrender>
80406344:	24840010 	addiu	a0,a0,16
80406348:	8fbf0014 	lw	ra,20(sp)
8040634c:	08101f8c 	j	80407e30 <_Thread_Enable_dispatch>
80406350:	27bd0018 	addiu	sp,sp,24
	...

80406360 <_Chain_Append>:
80406360:	40066000 	mfc0	a2,c0_status
80406364:	00000000 	nop
80406368:	2402fffe 	li	v0,-2
8040636c:	00c21024 	and	v0,a2,v0
80406370:	40826000 	mtc0	v0,c0_status
80406374:	00000000 	nop
80406378:	24820004 	addiu	v0,a0,4
8040637c:	aca20000 	sw	v0,0(a1)
80406380:	8c830008 	lw	v1,8(a0)
80406384:	ac850008 	sw	a1,8(a0)
80406388:	aca30004 	sw	v1,4(a1)
8040638c:	ac650000 	sw	a1,0(v1)
80406390:	40026000 	mfc0	v0,c0_status
80406394:	00000000 	nop
80406398:	2403fffe 	li	v1,-2
8040639c:	00431024 	and	v0,v0,v1
804063a0:	30c60001 	andi	a2,a2,0x1
804063a4:	00c23025 	or	a2,a2,v0
804063a8:	40866000 	mtc0	a2,c0_status
804063ac:	00000000 	nop
804063b0:	03e00008 	jr	ra
804063b4:	00000000 	nop
	...

804063c0 <_CORE_mutex_Flush>:
804063c0:	08102250 	j	80408940 <_Thread_queue_Flush>
804063c4:	00000000 	nop
	...

804063d0 <_CORE_mutex_Initialize>:
804063d0:	00a03821 	move	a3,a1
804063d4:	8ca30000 	lw	v1,0(a1)
804063d8:	8ce80008 	lw	t0,8(a3)
804063dc:	8ca50004 	lw	a1,4(a1)
804063e0:	8ce2000c 	lw	v0,12(a3)
804063e4:	ac830040 	sw	v1,64(a0)
804063e8:	ac850044 	sw	a1,68(a0)
804063ec:	ac82004c 	sw	v0,76(a0)
804063f0:	ac880048 	sw	t0,72(a0)
804063f4:	ac860050 	sw	a2,80(a0)
804063f8:	14c00015 	bnez	a2,80406450 <_CORE_mutex_Initialize+0x80>
804063fc:	ac800058 	sw	zero,88(a0)
80406400:	3c028041 	lui	v0,0x8041
80406404:	8c4545d4 	lw	a1,17876(v0)
80406408:	24030001 	li	v1,1
8040640c:	ac830054 	sw	v1,84(a0)
80406410:	8ca20008 	lw	v0,8(a1)
80406414:	ac85005c 	sw	a1,92(a0)
80406418:	ac820060 	sw	v0,96(a0)
8040641c:	24020002 	li	v0,2
80406420:	11020003 	beq	t0,v0,80406430 <_CORE_mutex_Initialize+0x60>
80406424:	24020003 	li	v0,3
80406428:	1502000c 	bne	t0,v0,8040645c <_CORE_mutex_Initialize+0x8c>
8040642c:	00000000 	nop
80406430:	8ca2001c 	lw	v0,28(a1)
80406434:	24060400 	li	a2,1024
80406438:	24420001 	addiu	v0,v0,1
8040643c:	aca2001c 	sw	v0,28(a1)
80406440:	8ce50008 	lw	a1,8(a3)
80406444:	24070005 	li	a3,5
80406448:	08102260 	j	80408980 <_Thread_queue_Initialize>
8040644c:	0005282b 	sltu	a1,zero,a1
80406450:	ac800054 	sw	zero,84(a0)
80406454:	ac80005c 	sw	zero,92(a0)
80406458:	ac800060 	sw	zero,96(a0)
8040645c:	8ce50008 	lw	a1,8(a3)
80406460:	24060400 	li	a2,1024
80406464:	0005282b 	sltu	a1,zero,a1
80406468:	08102260 	j	80408980 <_Thread_queue_Initialize>
8040646c:	24070005 	li	a3,5

80406470 <_CORE_mutex_Seize_interrupt_blocking>:
80406470:	27bdffe0 	addiu	sp,sp,-32
80406474:	8c820048 	lw	v0,72(a0)
80406478:	afb00014 	sw	s0,20(sp)
8040647c:	3c038041 	lui	v1,0x8041
80406480:	00808021 	move	s0,a0
80406484:	24040002 	li	a0,2
80406488:	afb10018 	sw	s1,24(sp)
8040648c:	afbf001c 	sw	ra,28(sp)
80406490:	00a08821 	move	s1,a1
80406494:	1044000e 	beq	v0,a0,804064d0 <_CORE_mutex_Seize_interrupt_blocking+0x60>
80406498:	8c6545d4 	lw	a1,17876(v1)
8040649c:	8e020058 	lw	v0,88(s0)
804064a0:	3c068041 	lui	a2,0x8041
804064a4:	24420001 	addiu	v0,v0,1
804064a8:	ae020058 	sw	v0,88(s0)
804064ac:	02002021 	move	a0,s0
804064b0:	02202821 	move	a1,s1
804064b4:	0c102124 	jal	80408490 <_Thread_queue_Enqueue_with_handler>
804064b8:	24c68ae0 	addiu	a2,a2,-29984
804064bc:	8fbf001c 	lw	ra,28(sp)
804064c0:	8fb10018 	lw	s1,24(sp)
804064c4:	8fb00014 	lw	s0,20(sp)
804064c8:	08101f8c 	j	80407e30 <_Thread_Enable_dispatch>
804064cc:	27bd0020 	addiu	sp,sp,32
804064d0:	8e04005c 	lw	a0,92(s0)
804064d4:	8ca50014 	lw	a1,20(a1)
804064d8:	8c820014 	lw	v0,20(a0)
804064dc:	00a2102b 	sltu	v0,a1,v0
804064e0:	1040ffee 	beqz	v0,8040649c <_CORE_mutex_Seize_interrupt_blocking+0x2c>
804064e4:	00000000 	nop
804064e8:	0c101d98 	jal	80407660 <_Thread_Change_priority>
804064ec:	00003021 	move	a2,zero
804064f0:	8e020058 	lw	v0,88(s0)
804064f4:	3c068041 	lui	a2,0x8041
804064f8:	24420001 	addiu	v0,v0,1
804064fc:	ae020058 	sw	v0,88(s0)
80406500:	02002021 	move	a0,s0
80406504:	02202821 	move	a1,s1
80406508:	0c102124 	jal	80408490 <_Thread_queue_Enqueue_with_handler>
8040650c:	24c68ae0 	addiu	a2,a2,-29984
80406510:	8fbf001c 	lw	ra,28(sp)
80406514:	8fb10018 	lw	s1,24(sp)
80406518:	8fb00014 	lw	s0,20(sp)
8040651c:	08101f8c 	j	80407e30 <_Thread_Enable_dispatch>
80406520:	27bd0020 	addiu	sp,sp,32
	...

80406530 <_CORE_mutex_Surrender>:
80406530:	90820044 	lbu	v0,68(a0)
80406534:	27bdffe8 	addiu	sp,sp,-24
80406538:	afb00010 	sw	s0,16(sp)
8040653c:	afbf0014 	sw	ra,20(sp)
80406540:	00808021 	move	s0,a0
80406544:	1040000a 	beqz	v0,80406570 <_CORE_mutex_Surrender+0x40>
80406548:	8c84005c 	lw	a0,92(a0)
8040654c:	3c028041 	lui	v0,0x8041
80406550:	8c4345d4 	lw	v1,17876(v0)
80406554:	10830006 	beq	a0,v1,80406570 <_CORE_mutex_Surrender+0x40>
80406558:	24030003 	li	v1,3
8040655c:	8fbf0014 	lw	ra,20(sp)
80406560:	00601021 	move	v0,v1
80406564:	8fb00010 	lw	s0,16(sp)
80406568:	03e00008 	jr	ra
8040656c:	27bd0018 	addiu	sp,sp,24
80406570:	8e020054 	lw	v0,84(s0)
80406574:	1040001f 	beqz	v0,804065f4 <_CORE_mutex_Surrender+0xc4>
80406578:	2442ffff 	addiu	v0,v0,-1
8040657c:	14400023 	bnez	v0,8040660c <_CORE_mutex_Surrender+0xdc>
80406580:	ae020054 	sw	v0,84(s0)
80406584:	8e030048 	lw	v1,72(s0)
80406588:	24020002 	li	v0,2
8040658c:	10620032 	beq	v1,v0,80406658 <_CORE_mutex_Surrender+0x128>
80406590:	24020003 	li	v0,3
80406594:	10620030 	beq	v1,v0,80406658 <_CORE_mutex_Surrender+0x128>
80406598:	00000000 	nop
8040659c:	24020002 	li	v0,2
804065a0:	ae00005c 	sw	zero,92(s0)
804065a4:	10620021 	beq	v1,v0,8040662c <_CORE_mutex_Surrender+0xfc>
804065a8:	ae000060 	sw	zero,96(s0)
804065ac:	24020003 	li	v0,3
804065b0:	1062001e 	beq	v1,v0,8040662c <_CORE_mutex_Surrender+0xfc>
804065b4:	00000000 	nop
804065b8:	0c102084 	jal	80408210 <_Thread_queue_Dequeue>
804065bc:	02002021 	move	a0,s0
804065c0:	1040003a 	beqz	v0,804066ac <_CORE_mutex_Surrender+0x17c>
804065c4:	00402021 	move	a0,v0
804065c8:	8c420008 	lw	v0,8(v0)
804065cc:	8e050048 	lw	a1,72(s0)
804065d0:	ae020060 	sw	v0,96(s0)
804065d4:	24030001 	li	v1,1
804065d8:	24020002 	li	v0,2
804065dc:	ae030054 	sw	v1,84(s0)
804065e0:	10a2002d 	beq	a1,v0,80406698 <_CORE_mutex_Surrender+0x168>
804065e4:	ae04005c 	sw	a0,92(s0)
804065e8:	24020003 	li	v0,3
804065ec:	10a2001e 	beq	a1,v0,80406668 <_CORE_mutex_Surrender+0x138>
804065f0:	00000000 	nop
804065f4:	8fbf0014 	lw	ra,20(sp)
804065f8:	00001821 	move	v1,zero
804065fc:	00601021 	move	v0,v1
80406600:	8fb00010 	lw	s0,16(sp)
80406604:	03e00008 	jr	ra
80406608:	27bd0018 	addiu	sp,sp,24
8040660c:	8e030040 	lw	v1,64(s0)
80406610:	1060fff9 	beqz	v1,804065f8 <_CORE_mutex_Surrender+0xc8>
80406614:	8fbf0014 	lw	ra,20(sp)
80406618:	24020001 	li	v0,1
8040661c:	1462ffd9 	bne	v1,v0,80406584 <_CORE_mutex_Surrender+0x54>
80406620:	24030002 	li	v1,2
80406624:	08101959 	j	80406564 <_CORE_mutex_Surrender+0x34>
80406628:	00601021 	move	v0,v1
8040662c:	8c82001c 	lw	v0,28(a0)
80406630:	1440ffe1 	bnez	v0,804065b8 <_CORE_mutex_Surrender+0x88>
80406634:	00000000 	nop
80406638:	8c850018 	lw	a1,24(a0)
8040663c:	8c820014 	lw	v0,20(a0)
80406640:	10a2ffdd 	beq	a1,v0,804065b8 <_CORE_mutex_Surrender+0x88>
80406644:	00000000 	nop
80406648:	0c101d98 	jal	80407660 <_Thread_Change_priority>
8040664c:	24060001 	li	a2,1
80406650:	0810196e 	j	804065b8 <_CORE_mutex_Surrender+0x88>
80406654:	00000000 	nop
80406658:	8c82001c 	lw	v0,28(a0)
8040665c:	2442ffff 	addiu	v0,v0,-1
80406660:	08101967 	j	8040659c <_CORE_mutex_Surrender+0x6c>
80406664:	ac82001c 	sw	v0,28(a0)
80406668:	8c82001c 	lw	v0,28(a0)
8040666c:	8c830014 	lw	v1,20(a0)
80406670:	24420001 	addiu	v0,v0,1
80406674:	ac82001c 	sw	v0,28(a0)
80406678:	8e05004c 	lw	a1,76(s0)
8040667c:	00a3182b 	sltu	v1,a1,v1
80406680:	1060ffdd 	beqz	v1,804065f8 <_CORE_mutex_Surrender+0xc8>
80406684:	8fbf0014 	lw	ra,20(sp)
80406688:	0c101d98 	jal	80407660 <_Thread_Change_priority>
8040668c:	00003021 	move	a2,zero
80406690:	08101957 	j	8040655c <_CORE_mutex_Surrender+0x2c>
80406694:	00001821 	move	v1,zero
80406698:	8c82001c 	lw	v0,28(a0)
8040669c:	00001821 	move	v1,zero
804066a0:	24420001 	addiu	v0,v0,1
804066a4:	08101957 	j	8040655c <_CORE_mutex_Surrender+0x2c>
804066a8:	ac82001c 	sw	v0,28(a0)
804066ac:	24020001 	li	v0,1
804066b0:	ae020050 	sw	v0,80(s0)
804066b4:	08101957 	j	8040655c <_CORE_mutex_Surrender+0x2c>
804066b8:	00001821 	move	v1,zero
804066bc:	00000000 	nop

804066c0 <_CORE_semaphore_Flush>:
804066c0:	08102250 	j	80408940 <_Thread_queue_Flush>
804066c4:	00000000 	nop
	...

804066d0 <_CORE_semaphore_Initialize>:
804066d0:	8ca70004 	lw	a3,4(a1)
804066d4:	8ca30000 	lw	v1,0(a1)
804066d8:	ac870044 	sw	a3,68(a0)
804066dc:	ac830040 	sw	v1,64(a0)
804066e0:	8ca50004 	lw	a1,4(a1)
804066e4:	ac860048 	sw	a2,72(a0)
804066e8:	38a50001 	xori	a1,a1,0x1
804066ec:	2ca50001 	sltiu	a1,a1,1
804066f0:	24060200 	li	a2,512
804066f4:	08102260 	j	80408980 <_Thread_queue_Initialize>
804066f8:	24070003 	li	a3,3
804066fc:	00000000 	nop

80406700 <_CORE_semaphore_Surrender>:
80406700:	27bdffe8 	addiu	sp,sp,-24
80406704:	afb00010 	sw	s0,16(sp)
80406708:	afbf0014 	sw	ra,20(sp)
8040670c:	0c102084 	jal	80408210 <_Thread_queue_Dequeue>
80406710:	00808021 	move	s0,a0
80406714:	10400006 	beqz	v0,80406730 <_CORE_semaphore_Surrender+0x30>
80406718:	8fbf0014 	lw	ra,20(sp)
8040671c:	00002821 	move	a1,zero
80406720:	00a01021 	move	v0,a1
80406724:	8fb00010 	lw	s0,16(sp)
80406728:	03e00008 	jr	ra
8040672c:	27bd0018 	addiu	sp,sp,24
80406730:	40046000 	mfc0	a0,c0_status
80406734:	00000000 	nop
80406738:	2402fffe 	li	v0,-2
8040673c:	00821024 	and	v0,a0,v0
80406740:	40826000 	mtc0	v0,c0_status
80406744:	00000000 	nop
80406748:	8e030048 	lw	v1,72(s0)
8040674c:	8e020040 	lw	v0,64(s0)
80406750:	0062102b 	sltu	v0,v1,v0
80406754:	1440000f 	bnez	v0,80406794 <_CORE_semaphore_Surrender+0x94>
80406758:	24620001 	addiu	v0,v1,1
8040675c:	24050004 	li	a1,4
80406760:	40026000 	mfc0	v0,c0_status
80406764:	00000000 	nop
80406768:	2403fffe 	li	v1,-2
8040676c:	00431024 	and	v0,v0,v1
80406770:	30840001 	andi	a0,a0,0x1
80406774:	00441025 	or	v0,v0,a0
80406778:	40826000 	mtc0	v0,c0_status
8040677c:	00000000 	nop
80406780:	8fbf0014 	lw	ra,20(sp)
80406784:	00a01021 	move	v0,a1
80406788:	8fb00010 	lw	s0,16(sp)
8040678c:	03e00008 	jr	ra
80406790:	27bd0018 	addiu	sp,sp,24
80406794:	ae020048 	sw	v0,72(s0)
80406798:	081019d8 	j	80406760 <_CORE_semaphore_Surrender+0x60>
8040679c:	00002821 	move	a1,zero

804067a0 <_TOD_Get>:
804067a0:	27bdffd8 	addiu	sp,sp,-40
804067a4:	afb0001c 	sw	s0,28(sp)
804067a8:	afbf0024 	sw	ra,36(sp)
804067ac:	afb10020 	sw	s1,32(sp)
804067b0:	00808021 	move	s0,a0
804067b4:	afa00010 	sw	zero,16(sp)
804067b8:	afa00014 	sw	zero,20(sp)
804067bc:	40116000 	mfc0	s1,c0_status
804067c0:	00000000 	nop
804067c4:	2402fffe 	li	v0,-2
804067c8:	02221024 	and	v0,s1,v0
804067cc:	40826000 	mtc0	v0,c0_status
804067d0:	00000000 	nop
804067d4:	3c048041 	lui	a0,0x8041
804067d8:	248245a4 	addiu	v0,a0,17828
804067dc:	3c038041 	lui	v1,0x8041
804067e0:	8c450004 	lw	a1,4(v0)
804067e4:	8c6346b8 	lw	v1,18104(v1)
804067e8:	8c8245a4 	lw	v0,17828(a0)
804067ec:	ae050004 	sw	a1,4(s0)
804067f0:	10600004 	beqz	v1,80406804 <_TOD_Get+0x64>
804067f4:	ae020000 	sw	v0,0(s0)
804067f8:	0060f809 	jalr	v1
804067fc:	00000000 	nop
80406800:	afa20014 	sw	v0,20(sp)
80406804:	40026000 	mfc0	v0,c0_status
80406808:	00000000 	nop
8040680c:	2403fffe 	li	v1,-2
80406810:	00431024 	and	v0,v0,v1
80406814:	32240001 	andi	a0,s1,0x1
80406818:	00441025 	or	v0,v0,a0
8040681c:	40826000 	mtc0	v0,c0_status
80406820:	00000000 	nop
80406824:	02002021 	move	a0,s0
80406828:	0c102434 	jal	804090d0 <_Timespec_Add_to>
8040682c:	27a50010 	addiu	a1,sp,16
80406830:	8fbf0024 	lw	ra,36(sp)
80406834:	8fb10020 	lw	s1,32(sp)
80406838:	8fb0001c 	lw	s0,28(sp)
8040683c:	03e00008 	jr	ra
80406840:	27bd0028 	addiu	sp,sp,40
	...

80406850 <_TOD_Handler_initialization>:
80406850:	3c0221da 	lui	v0,0x21da
80406854:	3c058041 	lui	a1,0x8041
80406858:	3c088041 	lui	t0,0x8041
8040685c:	3442e500 	ori	v0,v0,0xe500
80406860:	24a645a4 	addiu	a2,a1,17828
80406864:	25074594 	addiu	a3,t0,17812
80406868:	3c038041 	lui	v1,0x8041
8040686c:	aca245a4 	sw	v0,17828(a1)
80406870:	3c028041 	lui	v0,0x8041
80406874:	ac6446b0 	sw	a0,18096(v1)
80406878:	acc00004 	sw	zero,4(a2)
8040687c:	ace00004 	sw	zero,4(a3)
80406880:	a0404528 	sb	zero,17704(v0)
80406884:	03e00008 	jr	ra
80406888:	ad004594 	sw	zero,17812(t0)
8040688c:	00000000 	nop

80406890 <_Heap_Initialize>:
80406890:	00e04821 	move	t1,a3
80406894:	00806021 	move	t4,a0
80406898:	00a07021 	move	t6,a1
8040689c:	14e00041 	bnez	a3,804069a4 <_Heap_Initialize+0x114>
804068a0:	00c06821 	move	t5,a2
804068a4:	24090008 	li	t1,8
804068a8:	00002021 	move	a0,zero
804068ac:	25c20008 	addiu	v0,t6,8
804068b0:	0049001b 	divu	zero,v0,t1
804068b4:	012001f4 	teq	t1,zero,0x7
804068b8:	00001810 	mfhi	v1
804068bc:	10600003 	beqz	v1,804068cc <_Heap_Initialize+0x3c>
804068c0:	00000000 	nop
804068c4:	01221021 	addu	v0,t1,v0
804068c8:	00431023 	subu	v0,v0,v1
804068cc:	14800032 	bnez	a0,80406998 <_Heap_Initialize+0x108>
804068d0:	244afff8 	addiu	t2,v0,-8
804068d4:	24040010 	li	a0,16
804068d8:	014e1023 	subu	v0,t2,t6
804068dc:	24420008 	addiu	v0,v0,8
804068e0:	01a2182b 	sltu	v1,t5,v0
804068e4:	1460002a 	bnez	v1,80406990 <_Heap_Initialize+0x100>
804068e8:	ad840014 	sw	a0,20(t4)
804068ec:	01a21023 	subu	v0,t5,v0
804068f0:	0049001b 	divu	zero,v0,t1
804068f4:	012001f4 	teq	t1,zero,0x7
804068f8:	00001810 	mfhi	v1
804068fc:	00435823 	subu	t3,v0,v1
80406900:	11600023 	beqz	t3,80406990 <_Heap_Initialize+0x100>
80406904:	3c078041 	lui	a3,0x8041
80406908:	8ce542d0 	lw	a1,17104(a3)
8040690c:	014b2021 	addu	a0,t2,t3
80406910:	24060001 	li	a2,1
80406914:	35620001 	ori	v0,t3,0x1
80406918:	01cd1821 	addu	v1,t6,t5
8040691c:	24a80001 	addiu	t0,a1,1
80406920:	ad890010 	sw	t1,16(t4)
80406924:	ad4c0008 	sw	t4,8(t2)
80406928:	ad420004 	sw	v0,4(t2)
8040692c:	ad490000 	sw	t1,0(t2)
80406930:	ac890004 	sw	t1,4(a0)
80406934:	ac8b0000 	sw	t3,0(a0)
80406938:	ad4c000c 	sw	t4,12(t2)
8040693c:	ad8d002c 	sw	t5,44(t4)
80406940:	ad86003c 	sw	a2,60(t4)
80406944:	ad850028 	sw	a1,40(t4)
80406948:	ad8b0030 	sw	t3,48(t4)
8040694c:	ad8b0034 	sw	t3,52(t4)
80406950:	ad860038 	sw	a2,56(t4)
80406954:	ad800040 	sw	zero,64(t4)
80406958:	ad800044 	sw	zero,68(t4)
8040695c:	ad800048 	sw	zero,72(t4)
80406960:	ad80004c 	sw	zero,76(t4)
80406964:	ad800050 	sw	zero,80(t4)
80406968:	ad800054 	sw	zero,84(t4)
8040696c:	ad83001c 	sw	v1,28(t4)
80406970:	ace842d0 	sw	t0,17104(a3)
80406974:	ad8e0018 	sw	t6,24(t4)
80406978:	ad8a0008 	sw	t2,8(t4)
8040697c:	ad8a000c 	sw	t2,12(t4)
80406980:	ad8a0020 	sw	t2,32(t4)
80406984:	ad840024 	sw	a0,36(t4)
80406988:	03e00008 	jr	ra
8040698c:	2562fffc 	addiu	v0,t3,-4
80406990:	03e00008 	jr	ra
80406994:	00001021 	move	v0,zero
80406998:	25220010 	addiu	v0,t1,16
8040699c:	08101a36 	j	804068d8 <_Heap_Initialize+0x48>
804069a0:	00442023 	subu	a0,v0,a0
804069a4:	30e40007 	andi	a0,a3,0x7
804069a8:	10800003 	beqz	a0,804069b8 <_Heap_Initialize+0x128>
804069ac:	24020010 	li	v0,16
804069b0:	24e30008 	addiu	v1,a3,8
804069b4:	00644823 	subu	t1,v1,a0
804069b8:	0049001b 	divu	zero,v0,t1
804069bc:	012001f4 	teq	t1,zero,0x7
804069c0:	08101a2b 	j	804068ac <_Heap_Initialize+0x1c>
804069c4:	00002010 	mfhi	a0

804069c8 <_Heap_Calc_block_size>:
804069c8:	24820004 	addiu	v0,a0,4
804069cc:	0045001b 	divu	zero,v0,a1
804069d0:	00a001f4 	teq	a1,zero,0x7
804069d4:	00003810 	mfhi	a3
804069d8:	10e00004 	beqz	a3,804069ec <_Heap_Calc_block_size+0x24>
804069dc:	0046182b 	sltu	v1,v0,a2
804069e0:	00a21021 	addu	v0,a1,v0
804069e4:	00471023 	subu	v0,v0,a3
804069e8:	0046182b 	sltu	v1,v0,a2
804069ec:	00c3100b 	movn	v0,a2,v1
804069f0:	0082202b 	sltu	a0,a0,v0
804069f4:	03e00008 	jr	ra
804069f8:	0004100a 	movz	v0,zero,a0

804069fc <_Heap_Block_allocate>:
804069fc:	8ca30004 	lw	v1,4(a1)
80406a00:	2402fffe 	li	v0,-2
80406a04:	00623824 	and	a3,v1,v0
80406a08:	8c820014 	lw	v0,20(a0)
80406a0c:	00e64023 	subu	t0,a3,a2
80406a10:	0102102b 	sltu	v0,t0,v0
80406a14:	00a05021 	move	t2,a1
80406a18:	00805821 	move	t3,a0
80406a1c:	1440001a 	bnez	v0,80406a88 <_Heap_Block_allocate+0x8c>
80406a20:	00c04821 	move	t1,a2
80406a24:	00a61021 	addu	v0,a1,a2
80406a28:	8ca70008 	lw	a3,8(a1)
80406a2c:	8ca6000c 	lw	a2,12(a1)
80406a30:	35230001 	ori	v1,t1,0x1
80406a34:	00482821 	addu	a1,v0,t0
80406a38:	35040001 	ori	a0,t0,0x1
80406a3c:	ad430004 	sw	v1,4(t2)
80406a40:	ac470008 	sw	a3,8(v0)
80406a44:	ac46000c 	sw	a2,12(v0)
80406a48:	aca80000 	sw	t0,0(a1)
80406a4c:	ac440004 	sw	a0,4(v0)
80406a50:	acc20008 	sw	v0,8(a2)
80406a54:	ace2000c 	sw	v0,12(a3)
80406a58:	8d630030 	lw	v1,48(t3)
80406a5c:	8d620034 	lw	v0,52(t3)
80406a60:	00691823 	subu	v1,v1,t1
80406a64:	0062102b 	sltu	v0,v1,v0
80406a68:	10400002 	beqz	v0,80406a74 <_Heap_Block_allocate+0x78>
80406a6c:	ad630030 	sw	v1,48(t3)
80406a70:	ad630034 	sw	v1,52(t3)
80406a74:	8d630040 	lw	v1,64(t3)
80406a78:	01201021 	move	v0,t1
80406a7c:	24630001 	addiu	v1,v1,1
80406a80:	03e00008 	jr	ra
80406a84:	ad630040 	sw	v1,64(t3)
80406a88:	00a72021 	addu	a0,a1,a3
80406a8c:	8c820004 	lw	v0,4(a0)
80406a90:	8ca50008 	lw	a1,8(a1)
80406a94:	34420001 	ori	v0,v0,0x1
80406a98:	ac820004 	sw	v0,4(a0)
80406a9c:	8d630038 	lw	v1,56(t3)
80406aa0:	8d42000c 	lw	v0,12(t2)
80406aa4:	2463ffff 	addiu	v1,v1,-1
80406aa8:	aca2000c 	sw	v0,12(a1)
80406aac:	ad630038 	sw	v1,56(t3)
80406ab0:	ac450008 	sw	a1,8(v0)
80406ab4:	08101a96 	j	80406a58 <_Heap_Block_allocate+0x5c>
80406ab8:	00e04821 	move	t1,a3
80406abc:	00000000 	nop

80406ac0 <_Internal_error_Occurred>:
80406ac0:	3c028041 	lui	v0,0x8041
80406ac4:	244345bc 	addiu	v1,v0,17852
80406ac8:	30a700ff 	andi	a3,a1,0xff
80406acc:	27bdffe8 	addiu	sp,sp,-24
80406ad0:	ac660008 	sw	a2,8(v1)
80406ad4:	a0670004 	sb	a3,4(v1)
80406ad8:	ac4445bc 	sw	a0,17852(v0)
80406adc:	afbf0014 	sw	ra,20(sp)
80406ae0:	0c1024ce 	jal	80409338 <_User_extensions_Fatal>
80406ae4:	00e02821 	move	a1,a3
80406ae8:	24040005 	li	a0,5
80406aec:	3c038041 	lui	v1,0x8041
80406af0:	ac6446b4 	sw	a0,18100(v1)
80406af4:	40026000 	mfc0	v0,c0_status
80406af8:	00000000 	nop
80406afc:	2403fffe 	li	v1,-2
80406b00:	00431024 	and	v0,v0,v1
80406b04:	40826000 	mtc0	v0,c0_status
80406b08:	00000000 	nop
80406b0c:	08101ac3 	j	80406b0c <_Internal_error_Occurred+0x4c>
80406b10:	00000000 	nop
	...

80406b20 <_ISR_Handler_initialization>:
80406b20:	3c028041 	lui	v0,0x8041
80406b24:	8c443cf0 	lw	a0,15600(v0)
80406b28:	27bdffe8 	addiu	sp,sp,-24
80406b2c:	3c038041 	lui	v1,0x8041
80406b30:	3c028041 	lui	v0,0x8041
80406b34:	00042080 	sll	a0,a0,0x2
80406b38:	afbf0014 	sw	ra,20(sp)
80406b3c:	ac6045b0 	sw	zero,17840(v1)
80406b40:	0c102654 	jal	80409950 <_Workspace_Allocate_or_fatal_error>
80406b44:	a0404668 	sb	zero,18024(v0)
80406b48:	8fbf0014 	lw	ra,20(sp)
80406b4c:	3c038041 	lui	v1,0x8041
80406b50:	ac624590 	sw	v0,17808(v1)
80406b54:	03e00008 	jr	ra
80406b58:	27bd0018 	addiu	sp,sp,24
80406b5c:	00000000 	nop

80406b60 <_Objects_Allocate>:
80406b60:	8c820018 	lw	v0,24(a0)
80406b64:	27bdffe0 	addiu	sp,sp,-32
80406b68:	afb00014 	sw	s0,20(sp)
80406b6c:	afbf001c 	sw	ra,28(sp)
80406b70:	afb10018 	sw	s1,24(sp)
80406b74:	14400008 	bnez	v0,80406b98 <_Objects_Allocate+0x38>
80406b78:	00808021 	move	s0,a0
80406b7c:	00002821 	move	a1,zero
80406b80:	8fbf001c 	lw	ra,28(sp)
80406b84:	00a01021 	move	v0,a1
80406b88:	8fb10018 	lw	s1,24(sp)
80406b8c:	8fb00014 	lw	s0,20(sp)
80406b90:	03e00008 	jr	ra
80406b94:	27bd0020 	addiu	sp,sp,32
80406b98:	24910020 	addiu	s1,a0,32
80406b9c:	0c103360 	jal	8040cd80 <_Chain_Get>
80406ba0:	02202021 	move	a0,s1
80406ba4:	00402821 	move	a1,v0
80406ba8:	92020012 	lbu	v0,18(s0)
80406bac:	1040fff5 	beqz	v0,80406b84 <_Objects_Allocate+0x24>
80406bb0:	8fbf001c 	lw	ra,28(sp)
80406bb4:	10a00017 	beqz	a1,80406c14 <_Objects_Allocate+0xb4>
80406bb8:	00000000 	nop
80406bbc:	9604000a 	lhu	a0,10(s0)
80406bc0:	94a3000a 	lhu	v1,10(a1)
80406bc4:	8e020014 	lw	v0,20(s0)
80406bc8:	00641823 	subu	v1,v1,a0
80406bcc:	0062001b 	divu	zero,v1,v0
80406bd0:	004001f4 	teq	v0,zero,0x7
80406bd4:	8e040030 	lw	a0,48(s0)
80406bd8:	9602002c 	lhu	v0,44(s0)
80406bdc:	8fbf001c 	lw	ra,28(sp)
80406be0:	2442ffff 	addiu	v0,v0,-1
80406be4:	a602002c 	sh	v0,44(s0)
80406be8:	8fb10018 	lw	s1,24(sp)
80406bec:	8fb00014 	lw	s0,20(sp)
80406bf0:	27bd0020 	addiu	sp,sp,32
80406bf4:	00001812 	mflo	v1
80406bf8:	00031880 	sll	v1,v1,0x2
80406bfc:	00832021 	addu	a0,a0,v1
80406c00:	8c820000 	lw	v0,0(a0)
80406c04:	2442ffff 	addiu	v0,v0,-1
80406c08:	ac820000 	sw	v0,0(a0)
80406c0c:	03e00008 	jr	ra
80406c10:	00a01021 	move	v0,a1
80406c14:	0c101b18 	jal	80406c60 <_Objects_Extend_information>
80406c18:	02002021 	move	a0,s0
80406c1c:	0c103360 	jal	8040cd80 <_Chain_Get>
80406c20:	02202021 	move	a0,s1
80406c24:	1040ffd6 	beqz	v0,80406b80 <_Objects_Allocate+0x20>
80406c28:	00402821 	move	a1,v0
80406c2c:	08101af0 	j	80406bc0 <_Objects_Allocate+0x60>
80406c30:	9604000a 	lhu	a0,10(s0)
	...

80406c40 <_Objects_Close>:
80406c40:	94a2000a 	lhu	v0,10(a1)
80406c44:	8c83001c 	lw	v1,28(a0)
80406c48:	00021080 	sll	v0,v0,0x2
80406c4c:	00621821 	addu	v1,v1,v0
80406c50:	08101cf0 	j	804073c0 <_Objects_Namespace_remove>
80406c54:	ac600000 	sw	zero,0(v1)
	...

80406c60 <_Objects_Extend_information>:
80406c60:	27bdffb0 	addiu	sp,sp,-80
80406c64:	afb00028 	sw	s0,40(sp)
80406c68:	94860010 	lhu	a2,16(a0)
80406c6c:	9490000a 	lhu	s0,10(a0)
80406c70:	afb20030 	sw	s2,48(sp)
80406c74:	00d0102b 	sltu	v0,a2,s0
80406c78:	afbf004c 	sw	ra,76(sp)
80406c7c:	afbe0048 	sw	s8,72(sp)
80406c80:	afb70044 	sw	s7,68(sp)
80406c84:	afb60040 	sw	s6,64(sp)
80406c88:	afb5003c 	sw	s5,60(sp)
80406c8c:	afb40038 	sw	s4,56(sp)
80406c90:	afb30034 	sw	s3,52(sp)
80406c94:	afb1002c 	sw	s1,44(sp)
80406c98:	1040008f 	beqz	v0,80406ed8 <_Objects_Extend_information+0x278>
80406c9c:	00809021 	move	s2,a0
80406ca0:	8c830014 	lw	v1,20(a0)
80406ca4:	02009821 	move	s3,s0
80406ca8:	0000f021 	move	s8,zero
80406cac:	00008821 	move	s1,zero
80406cb0:	24140001 	li	s4,1
80406cb4:	24040003 	li	a0,3
80406cb8:	92420012 	lbu	v0,18(s2)
80406cbc:	00663021 	addu	a2,v1,a2
80406cc0:	1440009f 	bnez	v0,80406f40 <_Objects_Extend_information+0x2e0>
80406cc4:	afa60020 	sw	a2,32(sp)
80406cc8:	8fa20020 	lw	v0,32(sp)
80406ccc:	00902021 	addu	a0,a0,s0
80406cd0:	00822021 	addu	a0,a0,v0
80406cd4:	0c102654 	jal	80409950 <_Workspace_Allocate_or_fatal_error>
80406cd8:	00042080 	sll	a0,a0,0x2
80406cdc:	0040b021 	move	s6,v0
80406ce0:	96420010 	lhu	v0,16(s2)
80406ce4:	00141880 	sll	v1,s4,0x2
80406ce8:	02c3a821 	addu	s5,s6,v1
80406cec:	0202102b 	sltu	v0,s0,v0
80406cf0:	1440009f 	bnez	v0,80406f70 <_Objects_Extend_information+0x310>
80406cf4:	02a3b821 	addu	s7,s5,v1
80406cf8:	12000007 	beqz	s0,80406d18 <_Objects_Extend_information+0xb8>
80406cfc:	02e02021 	move	a0,s7
80406d00:	00001821 	move	v1,zero
80406d04:	24630001 	addiu	v1,v1,1
80406d08:	0070102b 	sltu	v0,v1,s0
80406d0c:	ac800000 	sw	zero,0(a0)
80406d10:	1440fffc 	bnez	v0,80406d04 <_Objects_Extend_information+0xa4>
80406d14:	24840004 	addiu	a0,a0,4
80406d18:	001ea080 	sll	s4,s8,0x2
80406d1c:	02b41021 	addu	v0,s5,s4
80406d20:	ac400000 	sw	zero,0(v0)
80406d24:	8e430014 	lw	v1,20(s2)
80406d28:	02d42021 	addu	a0,s6,s4
80406d2c:	02632821 	addu	a1,s3,v1
80406d30:	0265102b 	sltu	v0,s3,a1
80406d34:	10400009 	beqz	v0,80406d5c <_Objects_Extend_information+0xfc>
80406d38:	ac800000 	sw	zero,0(a0)
80406d3c:	00131080 	sll	v0,s3,0x2
80406d40:	02e22021 	addu	a0,s7,v0
80406d44:	02601821 	move	v1,s3
80406d48:	24630001 	addiu	v1,v1,1
80406d4c:	0065102b 	sltu	v0,v1,a1
80406d50:	ac800000 	sw	zero,0(a0)
80406d54:	1440fffc 	bnez	v0,80406d48 <_Objects_Extend_information+0xe8>
80406d58:	24840004 	addiu	a0,a0,4
80406d5c:	40056000 	mfc0	a1,c0_status
80406d60:	00000000 	nop
80406d64:	2402fffe 	li	v0,-2
80406d68:	00a21024 	and	v0,a1,v0
80406d6c:	40826000 	mtc0	v0,c0_status
80406d70:	00000000 	nop
80406d74:	8e420000 	lw	v0,0(s2)
80406d78:	96440004 	lhu	a0,4(s2)
80406d7c:	3c030001 	lui	v1,0x1
80406d80:	00021600 	sll	v0,v0,0x18
80406d84:	00431025 	or	v0,v0,v1
80406d88:	000426c0 	sll	a0,a0,0x1b
80406d8c:	00441025 	or	v0,v0,a0
80406d90:	8fa40020 	lw	a0,32(sp)
80406d94:	ae550030 	sw	s5,48(s2)
80406d98:	3083ffff 	andi	v1,a0,0xffff
80406d9c:	00431025 	or	v0,v0,v1
80406da0:	8e440034 	lw	a0,52(s2)
80406da4:	ae57001c 	sw	s7,28(s2)
80406da8:	ae42000c 	sw	v0,12(s2)
80406dac:	a6430010 	sh	v1,16(s2)
80406db0:	ae560034 	sw	s6,52(s2)
80406db4:	40026000 	mfc0	v0,c0_status
80406db8:	00000000 	nop
80406dbc:	2403fffe 	li	v1,-2
80406dc0:	00431024 	and	v0,v0,v1
80406dc4:	30a50001 	andi	a1,a1,0x1
80406dc8:	00a22825 	or	a1,a1,v0
80406dcc:	40856000 	mtc0	a1,c0_status
80406dd0:	00000000 	nop
80406dd4:	10800003 	beqz	a0,80406de4 <_Objects_Extend_information+0x184>
80406dd8:	00000000 	nop
80406ddc:	0c10264c 	jal	80409930 <_Workspace_Free>
80406de0:	00000000 	nop
80406de4:	8e430014 	lw	v1,20(s2)
80406de8:	92420012 	lbu	v0,18(s2)
80406dec:	10400071 	beqz	v0,80406fb4 <_Objects_Extend_information+0x354>
80406df0:	00000000 	nop
80406df4:	8e440018 	lw	a0,24(s2)
80406df8:	8e500034 	lw	s0,52(s2)
80406dfc:	70642002 	mul	a0,v1,a0
80406e00:	0c102650 	jal	80409940 <_Workspace_Allocate>
80406e04:	0011a880 	sll	s5,s1,0x2
80406e08:	8e430034 	lw	v1,52(s2)
80406e0c:	02158021 	addu	s0,s0,s5
80406e10:	ae020000 	sw	v0,0(s0)
80406e14:	00751821 	addu	v1,v1,s5
80406e18:	8c650000 	lw	a1,0(v1)
80406e1c:	10a00023 	beqz	a1,80406eac <_Objects_Extend_information+0x24c>
80406e20:	8fbf004c 	lw	ra,76(sp)
80406e24:	27b40010 	addiu	s4,sp,16
80406e28:	8e460014 	lw	a2,20(s2)
80406e2c:	8e470018 	lw	a3,24(s2)
80406e30:	02802021 	move	a0,s4
80406e34:	0c103384 	jal	8040ce10 <_Chain_Initialize>
80406e38:	02608021 	move	s0,s3
80406e3c:	26510020 	addiu	s1,s2,32
80406e40:	08101b9c 	j	80406e70 <_Objects_Extend_information+0x210>
80406e44:	3c130001 	lui	s3,0x1
80406e48:	8e420000 	lw	v0,0(s2)
80406e4c:	96430004 	lhu	v1,4(s2)
80406e50:	00021600 	sll	v0,v0,0x18
80406e54:	00031ec0 	sll	v1,v1,0x1b
80406e58:	00531025 	or	v0,v0,s3
80406e5c:	00431025 	or	v0,v0,v1
80406e60:	00501025 	or	v0,v0,s0
80406e64:	0c1018d8 	jal	80406360 <_Chain_Append>
80406e68:	acc20008 	sw	v0,8(a2)
80406e6c:	26100001 	addiu	s0,s0,1
80406e70:	0c103360 	jal	8040cd80 <_Chain_Get>
80406e74:	02802021 	move	a0,s4
80406e78:	00403021 	move	a2,v0
80406e7c:	00402821 	move	a1,v0
80406e80:	1440fff1 	bnez	v0,80406e48 <_Objects_Extend_information+0x1e8>
80406e84:	02202021 	move	a0,s1
80406e88:	8e420030 	lw	v0,48(s2)
80406e8c:	8e430014 	lw	v1,20(s2)
80406e90:	00551021 	addu	v0,v0,s5
80406e94:	ac430000 	sw	v1,0(v0)
80406e98:	9644002c 	lhu	a0,44(s2)
80406e9c:	8e420014 	lw	v0,20(s2)
80406ea0:	00441021 	addu	v0,v0,a0
80406ea4:	a642002c 	sh	v0,44(s2)
80406ea8:	8fbf004c 	lw	ra,76(sp)
80406eac:	8fbe0048 	lw	s8,72(sp)
80406eb0:	8fb70044 	lw	s7,68(sp)
80406eb4:	8fb60040 	lw	s6,64(sp)
80406eb8:	8fb5003c 	lw	s5,60(sp)
80406ebc:	8fb40038 	lw	s4,56(sp)
80406ec0:	8fb30034 	lw	s3,52(sp)
80406ec4:	8fb20030 	lw	s2,48(sp)
80406ec8:	8fb1002c 	lw	s1,44(sp)
80406ecc:	8fb00028 	lw	s0,40(sp)
80406ed0:	03e00008 	jr	ra
80406ed4:	27bd0050 	addiu	sp,sp,80
80406ed8:	8c830014 	lw	v1,20(a0)
80406edc:	00c3001b 	divu	zero,a2,v1
80406ee0:	006001f4 	teq	v1,zero,0x7
80406ee4:	00002812 	mflo	a1
80406ee8:	10a0003d 	beqz	a1,80406fe0 <_Objects_Extend_information+0x380>
80406eec:	00a0f021 	move	s8,a1
80406ef0:	8c840034 	lw	a0,52(a0)
80406ef4:	8c820000 	lw	v0,0(a0)
80406ef8:	10400039 	beqz	v0,80406fe0 <_Objects_Extend_information+0x380>
80406efc:	00000000 	nop
80406f00:	02009821 	move	s3,s0
80406f04:	08101bc6 	j	80406f18 <_Objects_Extend_information+0x2b8>
80406f08:	00008821 	move	s1,zero
80406f0c:	8c820004 	lw	v0,4(a0)
80406f10:	10400005 	beqz	v0,80406f28 <_Objects_Extend_information+0x2c8>
80406f14:	24840004 	addiu	a0,a0,4
80406f18:	26310001 	addiu	s1,s1,1
80406f1c:	0225102b 	sltu	v0,s1,a1
80406f20:	1440fffa 	bnez	v0,80406f0c <_Objects_Extend_information+0x2ac>
80406f24:	02639821 	addu	s3,s3,v1
80406f28:	0266102b 	sltu	v0,s3,a2
80406f2c:	1440ffae 	bnez	v0,80406de8 <_Objects_Extend_information+0x188>
80406f30:	24b40001 	addiu	s4,a1,1
80406f34:	00141040 	sll	v0,s4,0x1
80406f38:	08101b2e 	j	80406cb8 <_Objects_Extend_information+0x58>
80406f3c:	00542021 	addu	a0,v0,s4
80406f40:	00902021 	addu	a0,a0,s0
80406f44:	00862021 	addu	a0,a0,a2
80406f48:	0c102650 	jal	80409940 <_Workspace_Allocate>
80406f4c:	00042080 	sll	a0,a0,0x2
80406f50:	1040ffd5 	beqz	v0,80406ea8 <_Objects_Extend_information+0x248>
80406f54:	0040b021 	move	s6,v0
80406f58:	96420010 	lhu	v0,16(s2)
80406f5c:	00141880 	sll	v1,s4,0x2
80406f60:	02c3a821 	addu	s5,s6,v1
80406f64:	0202102b 	sltu	v0,s0,v0
80406f68:	1040ff63 	beqz	v0,80406cf8 <_Objects_Extend_information+0x98>
80406f6c:	02a3b821 	addu	s7,s5,v1
80406f70:	001ea080 	sll	s4,s8,0x2
80406f74:	8e450034 	lw	a1,52(s2)
80406f78:	02803021 	move	a2,s4
80406f7c:	0c103d70 	jal	8040f5c0 <memcpy>
80406f80:	02c02021 	move	a0,s6
80406f84:	8e450030 	lw	a1,48(s2)
80406f88:	02a02021 	move	a0,s5
80406f8c:	0c103d70 	jal	8040f5c0 <memcpy>
80406f90:	02803021 	move	a2,s4
80406f94:	96460010 	lhu	a2,16(s2)
80406f98:	8e45001c 	lw	a1,28(s2)
80406f9c:	02063021 	addu	a2,s0,a2
80406fa0:	00063080 	sll	a2,a2,0x2
80406fa4:	0c103d70 	jal	8040f5c0 <memcpy>
80406fa8:	02e02021 	move	a0,s7
80406fac:	08101b48 	j	80406d20 <_Objects_Extend_information+0xc0>
80406fb0:	02b41021 	addu	v0,s5,s4
80406fb4:	8e440018 	lw	a0,24(s2)
80406fb8:	8e500034 	lw	s0,52(s2)
80406fbc:	70642002 	mul	a0,v1,a0
80406fc0:	0c102654 	jal	80409950 <_Workspace_Allocate_or_fatal_error>
80406fc4:	0011a880 	sll	s5,s1,0x2
80406fc8:	8e430034 	lw	v1,52(s2)
80406fcc:	02158021 	addu	s0,s0,s5
80406fd0:	ae020000 	sw	v0,0(s0)
80406fd4:	00751821 	addu	v1,v1,s5
80406fd8:	08101b89 	j	80406e24 <_Objects_Extend_information+0x1c4>
80406fdc:	8c650000 	lw	a1,0(v1)
80406fe0:	02009821 	move	s3,s0
80406fe4:	08101bca 	j	80406f28 <_Objects_Extend_information+0x2c8>
80406fe8:	00008821 	move	s1,zero
80406fec:	00000000 	nop

80406ff0 <_Objects_Free>:
80406ff0:	27bdffe0 	addiu	sp,sp,-32
80406ff4:	afb00010 	sw	s0,16(sp)
80406ff8:	00808021 	move	s0,a0
80406ffc:	24840020 	addiu	a0,a0,32
80407000:	afb20018 	sw	s2,24(sp)
80407004:	afb10014 	sw	s1,20(sp)
80407008:	afbf001c 	sw	ra,28(sp)
8040700c:	00a08821 	move	s1,a1
80407010:	0c1018d8 	jal	80406360 <_Chain_Append>
80407014:	8e120014 	lw	s2,20(s0)
80407018:	92020012 	lbu	v0,18(s0)
8040701c:	10400017 	beqz	v0,8040707c <_Objects_Free+0x8c>
80407020:	8fbf001c 	lw	ra,28(sp)
80407024:	9604000a 	lhu	a0,10(s0)
80407028:	9623000a 	lhu	v1,10(s1)
8040702c:	8e020014 	lw	v0,20(s0)
80407030:	00641823 	subu	v1,v1,a0
80407034:	0062001b 	divu	zero,v1,v0
80407038:	004001f4 	teq	v0,zero,0x7
8040703c:	9602002c 	lhu	v0,44(s0)
80407040:	8e050030 	lw	a1,48(s0)
80407044:	00122042 	srl	a0,s2,0x1
80407048:	24420001 	addiu	v0,v0,1
8040704c:	3042ffff 	andi	v0,v0,0xffff
80407050:	00922021 	addu	a0,a0,s2
80407054:	0082202b 	sltu	a0,a0,v0
80407058:	a602002c 	sh	v0,44(s0)
8040705c:	00001812 	mflo	v1
80407060:	00031880 	sll	v1,v1,0x2
80407064:	00a32821 	addu	a1,a1,v1
80407068:	8ca20000 	lw	v0,0(a1)
8040706c:	24420001 	addiu	v0,v0,1
80407070:	14800007 	bnez	a0,80407090 <_Objects_Free+0xa0>
80407074:	aca20000 	sw	v0,0(a1)
80407078:	8fbf001c 	lw	ra,28(sp)
8040707c:	8fb20018 	lw	s2,24(sp)
80407080:	8fb10014 	lw	s1,20(sp)
80407084:	8fb00010 	lw	s0,16(sp)
80407088:	03e00008 	jr	ra
8040708c:	27bd0020 	addiu	sp,sp,32
80407090:	02002021 	move	a0,s0
80407094:	8fbf001c 	lw	ra,28(sp)
80407098:	8fb20018 	lw	s2,24(sp)
8040709c:	8fb10014 	lw	s1,20(sp)
804070a0:	8fb00010 	lw	s0,16(sp)
804070a4:	08101d04 	j	80407410 <_Objects_Shrink_information>
804070a8:	27bd0020 	addiu	sp,sp,32
804070ac:	00000000 	nop

804070b0 <_Objects_Get_information_id>:
804070b0:	00802821 	move	a1,a0
804070b4:	00042602 	srl	a0,a0,0x18
804070b8:	30840007 	andi	a0,a0,0x7
804070bc:	08101c34 	j	804070d0 <_Objects_Get_information>
804070c0:	00052ec2 	srl	a1,a1,0x1b
	...

804070d0 <_Objects_Get_information>:
804070d0:	2482ffff 	addiu	v0,a0,-1
804070d4:	27bdffe0 	addiu	sp,sp,-32
804070d8:	2c420004 	sltiu	v0,v0,4
804070dc:	afb10018 	sw	s1,24(sp)
804070e0:	afb00014 	sw	s0,20(sp)
804070e4:	afbf001c 	sw	ra,28(sp)
804070e8:	00808821 	move	s1,a0
804070ec:	10400003 	beqz	v0,804070fc <_Objects_Get_information+0x2c>
804070f0:	00a08021 	move	s0,a1
804070f4:	14a00008 	bnez	a1,80407118 <_Objects_Get_information+0x48>
804070f8:	00000000 	nop
804070fc:	00001821 	move	v1,zero
80407100:	8fbf001c 	lw	ra,28(sp)
80407104:	00601021 	move	v0,v1
80407108:	8fb10018 	lw	s1,24(sp)
8040710c:	8fb00014 	lw	s0,20(sp)
80407110:	03e00008 	jr	ra
80407114:	27bd0020 	addiu	sp,sp,32
80407118:	0c103488 	jal	8040d220 <_Objects_API_maximum_class>
8040711c:	00000000 	nop
80407120:	0440fff7 	bltz	v0,80407100 <_Objects_Get_information+0x30>
80407124:	00001821 	move	v1,zero
80407128:	0050102b 	sltu	v0,v0,s0
8040712c:	1440fff5 	bnez	v0,80407104 <_Objects_Get_information+0x34>
80407130:	8fbf001c 	lw	ra,28(sp)
80407134:	3c028041 	lui	v0,0x8041
80407138:	00111880 	sll	v1,s1,0x2
8040713c:	244244cc 	addiu	v0,v0,17612
80407140:	00621821 	addu	v1,v1,v0
80407144:	8c630000 	lw	v1,0(v1)
80407148:	1060ffec 	beqz	v1,804070fc <_Objects_Get_information+0x2c>
8040714c:	00101080 	sll	v0,s0,0x2
80407150:	00621021 	addu	v0,v1,v0
80407154:	8c430000 	lw	v1,0(v0)
80407158:	1060ffeb 	beqz	v1,80407108 <_Objects_Get_information+0x38>
8040715c:	00601021 	move	v0,v1
80407160:	94620010 	lhu	v0,16(v1)
80407164:	1440ffe8 	bnez	v0,80407108 <_Objects_Get_information+0x38>
80407168:	00601021 	move	v0,v1
8040716c:	08101c41 	j	80407104 <_Objects_Get_information+0x34>
80407170:	00001821 	move	v1,zero
	...

80407180 <_Objects_Get_isr_disable>:
80407180:	30a5ffff 	andi	a1,a1,0xffff
80407184:	40026000 	mfc0	v0,c0_status
80407188:	00000000 	nop
8040718c:	2403fffe 	li	v1,-2
80407190:	00431824 	and	v1,v0,v1
80407194:	40836000 	mtc0	v1,c0_status
80407198:	00000000 	nop
8040719c:	30480001 	andi	t0,v0,0x1
804071a0:	94820010 	lhu	v0,16(a0)
804071a4:	0045102b 	sltu	v0,v0,a1
804071a8:	1440000a 	bnez	v0,804071d4 <_Objects_Get_isr_disable+0x54>
804071ac:	00051880 	sll	v1,a1,0x2
804071b0:	8c82001c 	lw	v0,28(a0)
804071b4:	00431021 	addu	v0,v0,v1
804071b8:	8c440000 	lw	a0,0(v0)
804071bc:	10800010 	beqz	a0,80407200 <_Objects_Get_isr_disable+0x80>
804071c0:	00000000 	nop
804071c4:	ace80000 	sw	t0,0(a3)
804071c8:	acc00000 	sw	zero,0(a2)
804071cc:	03e00008 	jr	ra
804071d0:	00801021 	move	v0,a0
804071d4:	40026000 	mfc0	v0,c0_status
804071d8:	00000000 	nop
804071dc:	2403fffe 	li	v1,-2
804071e0:	00431024 	and	v0,v0,v1
804071e4:	00481025 	or	v0,v0,t0
804071e8:	40826000 	mtc0	v0,c0_status
804071ec:	00000000 	nop
804071f0:	24030001 	li	v1,1
804071f4:	acc30000 	sw	v1,0(a2)
804071f8:	08101c73 	j	804071cc <_Objects_Get_isr_disable+0x4c>
804071fc:	00002021 	move	a0,zero
80407200:	40026000 	mfc0	v0,c0_status
80407204:	00000000 	nop
80407208:	2403fffe 	li	v1,-2
8040720c:	00431024 	and	v0,v0,v1
80407210:	00481025 	or	v0,v0,t0
80407214:	40826000 	mtc0	v0,c0_status
80407218:	00000000 	nop
8040721c:	24030001 	li	v1,1
80407220:	08101c73 	j	804071cc <_Objects_Get_isr_disable+0x4c>
80407224:	acc30000 	sw	v1,0(a2)
	...

80407230 <_Objects_Get>:
80407230:	27bdffe0 	addiu	sp,sp,-32
80407234:	8c820008 	lw	v0,8(a0)
80407238:	afb20018 	sw	s2,24(sp)
8040723c:	24120001 	li	s2,1
80407240:	02421023 	subu	v0,s2,v0
80407244:	94830010 	lhu	v1,16(a0)
80407248:	00452821 	addu	a1,v0,a1
8040724c:	0065182b 	sltu	v1,v1,a1
80407250:	afb10014 	sw	s1,20(sp)
80407254:	afbf001c 	sw	ra,28(sp)
80407258:	afb00010 	sw	s0,16(sp)
8040725c:	14600013 	bnez	v1,804072ac <_Objects_Get+0x7c>
80407260:	00c08821 	move	s1,a2
80407264:	3c038041 	lui	v1,0x8041
80407268:	8c624514 	lw	v0,17684(v1)
8040726c:	24420001 	addiu	v0,v0,1
80407270:	ac624514 	sw	v0,17684(v1)
80407274:	8c82001c 	lw	v0,28(a0)
80407278:	00051880 	sll	v1,a1,0x2
8040727c:	00431021 	addu	v0,v0,v1
80407280:	8c500000 	lw	s0,0(v0)
80407284:	1200000c 	beqz	s0,804072b8 <_Objects_Get+0x88>
80407288:	00000000 	nop
8040728c:	acc00000 	sw	zero,0(a2)
80407290:	8fbf001c 	lw	ra,28(sp)
80407294:	02001021 	move	v0,s0
80407298:	8fb20018 	lw	s2,24(sp)
8040729c:	8fb10014 	lw	s1,20(sp)
804072a0:	8fb00010 	lw	s0,16(sp)
804072a4:	03e00008 	jr	ra
804072a8:	27bd0020 	addiu	sp,sp,32
804072ac:	acd20000 	sw	s2,0(a2)
804072b0:	08101ca4 	j	80407290 <_Objects_Get+0x60>
804072b4:	00008021 	move	s0,zero
804072b8:	0c101f8c 	jal	80407e30 <_Thread_Enable_dispatch>
804072bc:	00000000 	nop
804072c0:	08101ca4 	j	80407290 <_Objects_Get+0x60>
804072c4:	ae320000 	sw	s2,0(s1)
	...

804072d0 <_Objects_Initialize_information>:
804072d0:	3c028041 	lui	v0,0x8041
804072d4:	244244cc 	addiu	v0,v0,17612
804072d8:	00054880 	sll	t1,a1,0x2
804072dc:	01224821 	addu	t1,t1,v0
804072e0:	3c027fff 	lui	v0,0x7fff
804072e4:	3442ffff 	ori	v0,v0,0xffff
804072e8:	3c030001 	lui	v1,0x1
804072ec:	00054600 	sll	t0,a1,0x18
804072f0:	00e26824 	and	t5,a3,v0
804072f4:	01034025 	or	t0,t0,v1
804072f8:	8d2a0000 	lw	t2,0(t1)
804072fc:	000616c0 	sll	v0,a2,0x1b
80407300:	01024025 	or	t0,t0,v0
80407304:	8fac0018 	lw	t4,24(sp)
80407308:	00061080 	sll	v0,a2,0x2
8040730c:	000d182b 	sltu	v1,zero,t5
80407310:	01425021 	addu	t2,t2,v0
80407314:	97ab0012 	lhu	t3,18(sp)
80407318:	93a90017 	lbu	t1,23(sp)
8040731c:	3c028041 	lui	v0,0x8041
80407320:	01034025 	or	t0,t0,v1
80407324:	00073fc2 	srl	a3,a3,0x1f
80407328:	244242e0 	addiu	v0,v0,17120
8040732c:	31830003 	andi	v1,t4,0x3
80407330:	a0890038 	sb	t1,56(a0)
80407334:	ad440000 	sw	a0,0(t2)
80407338:	ac8b0018 	sw	t3,24(a0)
8040733c:	a0870012 	sb	a3,18(a0)
80407340:	ac82001c 	sw	v0,28(a0)
80407344:	ac880008 	sw	t0,8(a0)
80407348:	ac850000 	sw	a1,0(a0)
8040734c:	a4860004 	sh	a2,4(a0)
80407350:	ac800030 	sw	zero,48(a0)
80407354:	ac800034 	sw	zero,52(a0)
80407358:	a480002c 	sh	zero,44(a0)
8040735c:	1460000b 	bnez	v1,8040738c <_Objects_Initialize_information+0xbc>
80407360:	ac8d0014 	sw	t5,20(a0)
80407364:	01802821 	move	a1,t4
80407368:	24820024 	addiu	v0,a0,36
8040736c:	24830020 	addiu	v1,a0,32
80407370:	a485003a 	sh	a1,58(a0)
80407374:	ac820020 	sw	v0,32(a0)
80407378:	ac830028 	sw	v1,40(a0)
8040737c:	15a0000d 	bnez	t5,804073b4 <_Objects_Initialize_information+0xe4>
80407380:	ac800024 	sw	zero,36(a0)
80407384:	03e00008 	jr	ra
80407388:	00000000 	nop
8040738c:	25830004 	addiu	v1,t4,4
80407390:	2402fffc 	li	v0,-4
80407394:	00622824 	and	a1,v1,v0
80407398:	24820024 	addiu	v0,a0,36
8040739c:	24830020 	addiu	v1,a0,32
804073a0:	a485003a 	sh	a1,58(a0)
804073a4:	ac820020 	sw	v0,32(a0)
804073a8:	ac830028 	sw	v1,40(a0)
804073ac:	11a0fff5 	beqz	t5,80407384 <_Objects_Initialize_information+0xb4>
804073b0:	ac800024 	sw	zero,36(a0)
804073b4:	08101b18 	j	80406c60 <_Objects_Extend_information>
804073b8:	a4800010 	sh	zero,16(a0)
804073bc:	00000000 	nop

804073c0 <_Objects_Namespace_remove>:
804073c0:	90820038 	lbu	v0,56(a0)
804073c4:	27bdffe8 	addiu	sp,sp,-24
804073c8:	afb00010 	sw	s0,16(sp)
804073cc:	afbf0014 	sw	ra,20(sp)
804073d0:	10400006 	beqz	v0,804073ec <_Objects_Namespace_remove+0x2c>
804073d4:	00a08021 	move	s0,a1
804073d8:	8ca4000c 	lw	a0,12(a1)
804073dc:	10800003 	beqz	a0,804073ec <_Objects_Namespace_remove+0x2c>
804073e0:	00000000 	nop
804073e4:	0c10264c 	jal	80409930 <_Workspace_Free>
804073e8:	00000000 	nop
804073ec:	ae00000c 	sw	zero,12(s0)
804073f0:	8fbf0014 	lw	ra,20(sp)
804073f4:	8fb00010 	lw	s0,16(sp)
804073f8:	03e00008 	jr	ra
804073fc:	27bd0018 	addiu	sp,sp,24

80407400 <_Objects_Handler_initialization>:
80407400:	03e00008 	jr	ra
80407404:	00000000 	nop
	...

80407410 <_Objects_Shrink_information>:
80407410:	27bdffd8 	addiu	sp,sp,-40
80407414:	afb10018 	sw	s1,24(sp)
80407418:	94820010 	lhu	v0,16(a0)
8040741c:	9491000a 	lhu	s1,10(a0)
80407420:	8c850014 	lw	a1,20(a0)
80407424:	00511023 	subu	v0,v0,s1
80407428:	0045001b 	divu	zero,v0,a1
8040742c:	00a001f4 	teq	a1,zero,0x7
80407430:	afb30020 	sw	s3,32(sp)
80407434:	afbf0024 	sw	ra,36(sp)
80407438:	afb2001c 	sw	s2,28(sp)
8040743c:	afb00014 	sw	s0,20(sp)
80407440:	00003012 	mflo	a2
80407444:	10c0000f 	beqz	a2,80407484 <_Objects_Shrink_information+0x74>
80407448:	00809821 	move	s3,a0
8040744c:	8c830030 	lw	v1,48(a0)
80407450:	8c620000 	lw	v0,0(v1)
80407454:	10a20012 	beq	a1,v0,804074a0 <_Objects_Shrink_information+0x90>
80407458:	00602021 	move	a0,v1
8040745c:	08101d1c 	j	80407470 <_Objects_Shrink_information+0x60>
80407460:	00001821 	move	v1,zero
80407464:	8c820004 	lw	v0,4(a0)
80407468:	10a2000e 	beq	a1,v0,804074a4 <_Objects_Shrink_information+0x94>
8040746c:	24840004 	addiu	a0,a0,4
80407470:	24630001 	addiu	v1,v1,1
80407474:	0066102b 	sltu	v0,v1,a2
80407478:	02258821 	addu	s1,s1,a1
8040747c:	1440fff9 	bnez	v0,80407464 <_Objects_Shrink_information+0x54>
80407480:	00039080 	sll	s2,v1,0x2
80407484:	8fbf0024 	lw	ra,36(sp)
80407488:	8fb30020 	lw	s3,32(sp)
8040748c:	8fb2001c 	lw	s2,28(sp)
80407490:	8fb10018 	lw	s1,24(sp)
80407494:	8fb00014 	lw	s0,20(sp)
80407498:	03e00008 	jr	ra
8040749c:	27bd0028 	addiu	sp,sp,40
804074a0:	00009021 	move	s2,zero
804074a4:	08101d37 	j	804074dc <_Objects_Shrink_information+0xcc>
804074a8:	8e630020 	lw	v1,32(s3)
804074ac:	8e620014 	lw	v0,20(s3)
804074b0:	02221021 	addu	v0,s1,v0
804074b4:	00a2102b 	sltu	v0,a1,v0
804074b8:	1040000c 	beqz	v0,804074ec <_Objects_Shrink_information+0xdc>
804074bc:	00602021 	move	a0,v1
804074c0:	0c10334c 	jal	8040cd30 <_Chain_Extract>
804074c4:	8c700000 	lw	s0,0(v1)
804074c8:	1200000b 	beqz	s0,804074f8 <_Objects_Shrink_information+0xe8>
804074cc:	02001821 	move	v1,s0
804074d0:	8e020000 	lw	v0,0(s0)
804074d4:	10400008 	beqz	v0,804074f8 <_Objects_Shrink_information+0xe8>
804074d8:	00000000 	nop
804074dc:	9465000a 	lhu	a1,10(v1)
804074e0:	00b1102b 	sltu	v0,a1,s1
804074e4:	1040fff1 	beqz	v0,804074ac <_Objects_Shrink_information+0x9c>
804074e8:	00000000 	nop
804074ec:	8c700000 	lw	s0,0(v1)
804074f0:	1600fff7 	bnez	s0,804074d0 <_Objects_Shrink_information+0xc0>
804074f4:	02001821 	move	v1,s0
804074f8:	8e620034 	lw	v0,52(s3)
804074fc:	00521021 	addu	v0,v0,s2
80407500:	0c10264c 	jal	80409930 <_Workspace_Free>
80407504:	8c440000 	lw	a0,0(v0)
80407508:	8e630030 	lw	v1,48(s3)
8040750c:	9664002c 	lhu	a0,44(s3)
80407510:	00721821 	addu	v1,v1,s2
80407514:	ac600000 	sw	zero,0(v1)
80407518:	8e620034 	lw	v0,52(s3)
8040751c:	8e630014 	lw	v1,20(s3)
80407520:	8fbf0024 	lw	ra,36(sp)
80407524:	00521021 	addu	v0,v0,s2
80407528:	00832023 	subu	a0,a0,v1
8040752c:	a664002c 	sh	a0,44(s3)
80407530:	8fb2001c 	lw	s2,28(sp)
80407534:	8fb30020 	lw	s3,32(sp)
80407538:	8fb10018 	lw	s1,24(sp)
8040753c:	8fb00014 	lw	s0,20(sp)
80407540:	ac400000 	sw	zero,0(v0)
80407544:	03e00008 	jr	ra
80407548:	27bd0028 	addiu	sp,sp,40
8040754c:	00000000 	nop

80407550 <_Protected_heap_Allocate>:
80407550:	27bdffe0 	addiu	sp,sp,-32
80407554:	afb20018 	sw	s2,24(sp)
80407558:	3c128041 	lui	s2,0x8041
8040755c:	afb10014 	sw	s1,20(sp)
80407560:	00808821 	move	s1,a0
80407564:	8e4445cc 	lw	a0,17868(s2)
80407568:	afb00010 	sw	s0,16(sp)
8040756c:	afbf001c 	sw	ra,28(sp)
80407570:	0c10181c 	jal	80406070 <_API_Mutex_Lock>
80407574:	00a08021 	move	s0,a1
80407578:	02202021 	move	a0,s1
8040757c:	0c1033c4 	jal	8040cf10 <_Heap_Allocate>
80407580:	02002821 	move	a1,s0
80407584:	8e4445cc 	lw	a0,17868(s2)
80407588:	0c1018c8 	jal	80406320 <_API_Mutex_Unlock>
8040758c:	00408021 	move	s0,v0
80407590:	8fbf001c 	lw	ra,28(sp)
80407594:	02001021 	move	v0,s0
80407598:	8fb20018 	lw	s2,24(sp)
8040759c:	8fb10014 	lw	s1,20(sp)
804075a0:	8fb00010 	lw	s0,16(sp)
804075a4:	03e00008 	jr	ra
804075a8:	27bd0020 	addiu	sp,sp,32
804075ac:	00000000 	nop

804075b0 <_Thread_blocking_operation_Cancel>:
804075b0:	8ca30050 	lw	v1,80(a1)
804075b4:	27bdffe8 	addiu	sp,sp,-24
804075b8:	24020002 	li	v0,2
804075bc:	afb00010 	sw	s0,16(sp)
804075c0:	afbf0014 	sw	ra,20(sp)
804075c4:	00a08021 	move	s0,a1
804075c8:	10620010 	beq	v1,v0,8040760c <_Thread_blocking_operation_Cancel+0x5c>
804075cc:	aca00044 	sw	zero,68(a1)
804075d0:	40026000 	mfc0	v0,c0_status
804075d4:	00000000 	nop
804075d8:	2403fffe 	li	v1,-2
804075dc:	00431024 	and	v0,v0,v1
804075e0:	30c40001 	andi	a0,a2,0x1
804075e4:	00441025 	or	v0,v0,a0
804075e8:	40826000 	mtc0	v0,c0_status
804075ec:	00000000 	nop
804075f0:	3c051003 	lui	a1,0x1003
804075f4:	02002021 	move	a0,s0
804075f8:	8fbf0014 	lw	ra,20(sp)
804075fc:	8fb00010 	lw	s0,16(sp)
80407600:	34a5fff8 	ori	a1,a1,0xfff8
80407604:	08101e3c 	j	804078f0 <_Thread_Clear_state>
80407608:	27bd0018 	addiu	sp,sp,24
8040760c:	24020003 	li	v0,3
80407610:	aca20050 	sw	v0,80(a1)
80407614:	40026000 	mfc0	v0,c0_status
80407618:	00000000 	nop
8040761c:	2403fffe 	li	v1,-2
80407620:	00431024 	and	v0,v0,v1
80407624:	30c40001 	andi	a0,a2,0x1
80407628:	00441025 	or	v0,v0,a0
8040762c:	40826000 	mtc0	v0,c0_status
80407630:	00000000 	nop
80407634:	0c102600 	jal	80409800 <_Watchdog_Remove>
80407638:	24a40048 	addiu	a0,a1,72
8040763c:	3c051003 	lui	a1,0x1003
80407640:	02002021 	move	a0,s0
80407644:	8fbf0014 	lw	ra,20(sp)
80407648:	8fb00010 	lw	s0,16(sp)
8040764c:	34a5fff8 	ori	a1,a1,0xfff8
80407650:	08101e3c 	j	804078f0 <_Thread_Clear_state>
80407654:	27bd0018 	addiu	sp,sp,24
	...

80407660 <_Thread_Change_priority>:
80407660:	27bdffd8 	addiu	sp,sp,-40
80407664:	afb00014 	sw	s0,20(sp)
80407668:	00808021 	move	s0,a0
8040766c:	afb30020 	sw	s3,32(sp)
80407670:	afb2001c 	sw	s2,28(sp)
80407674:	afb10018 	sw	s1,24(sp)
80407678:	afbf0024 	sw	ra,36(sp)
8040767c:	00a08821 	move	s1,a1
80407680:	30d300ff 	andi	s3,a2,0xff
80407684:	0c102360 	jal	80408d80 <_Thread_Set_transient>
80407688:	8c920010 	lw	s2,16(a0)
8040768c:	8e020014 	lw	v0,20(s0)
80407690:	10510003 	beq	v0,s1,804076a0 <_Thread_Change_priority+0x40>
80407694:	02202821 	move	a1,s1
80407698:	0c1022cc 	jal	80408b30 <_Thread_Set_priority>
8040769c:	02002021 	move	a0,s0
804076a0:	40026000 	mfc0	v0,c0_status
804076a4:	00000000 	nop
804076a8:	2403fffe 	li	v1,-2
804076ac:	00431824 	and	v1,v0,v1
804076b0:	40836000 	mtc0	v1,c0_status
804076b4:	00000000 	nop
804076b8:	30460001 	andi	a2,v0,0x1
804076bc:	8e040010 	lw	a0,16(s0)
804076c0:	24020004 	li	v0,4
804076c4:	1082001f 	beq	a0,v0,80407744 <_Thread_Change_priority+0xe4>
804076c8:	32420004 	andi	v0,s2,0x4
804076cc:	14400003 	bnez	v0,804076dc <_Thread_Change_priority+0x7c>
804076d0:	2402fffb 	li	v0,-5
804076d4:	00821024 	and	v0,a0,v0
804076d8:	ae020010 	sw	v0,16(s0)
804076dc:	40026000 	mfc0	v0,c0_status
804076e0:	00000000 	nop
804076e4:	2403fffe 	li	v1,-2
804076e8:	00431024 	and	v0,v0,v1
804076ec:	00461025 	or	v0,v0,a2
804076f0:	40826000 	mtc0	v0,c0_status
804076f4:	00000000 	nop
804076f8:	3c030003 	lui	v1,0x3
804076fc:	3463bee0 	ori	v1,v1,0xbee0
80407700:	00831824 	and	v1,a0,v1
80407704:	14600007 	bnez	v1,80407724 <_Thread_Change_priority+0xc4>
80407708:	8fbf0024 	lw	ra,36(sp)
8040770c:	8fb30020 	lw	s3,32(sp)
80407710:	8fb2001c 	lw	s2,28(sp)
80407714:	8fb10018 	lw	s1,24(sp)
80407718:	8fb00014 	lw	s0,20(sp)
8040771c:	03e00008 	jr	ra
80407720:	27bd0028 	addiu	sp,sp,40
80407724:	8e040044 	lw	a0,68(s0)
80407728:	02002821 	move	a1,s0
8040772c:	8fb30020 	lw	s3,32(sp)
80407730:	8fb2001c 	lw	s2,28(sp)
80407734:	8fb10018 	lw	s1,24(sp)
80407738:	8fb00014 	lw	s0,20(sp)
8040773c:	08102280 	j	80408a00 <_Thread_queue_Requeue>
80407740:	27bd0028 	addiu	sp,sp,40
80407744:	10400044 	beqz	v0,80407858 <_Thread_Change_priority+0x1f8>
80407748:	3c058041 	lui	a1,0x8041
8040774c:	40026000 	mfc0	v0,c0_status
80407750:	00000000 	nop
80407754:	2403fffe 	li	v1,-2
80407758:	00431024 	and	v0,v0,v1
8040775c:	00461025 	or	v0,v0,a2
80407760:	40826000 	mtc0	v0,c0_status
80407764:	00000000 	nop
80407768:	40086000 	mfc0	t0,c0_status
8040776c:	00000000 	nop
80407770:	2402fffe 	li	v0,-2
80407774:	01021024 	and	v0,t0,v0
80407778:	40826000 	mtc0	v0,c0_status
8040777c:	00000000 	nop
80407780:	94a245c8 	lhu	v0,17864(a1)
80407784:	3045ffff 	andi	a1,v0,0xffff
80407788:	2ca30100 	sltiu	v1,a1,256
8040778c:	3c028041 	lui	v0,0x8041
80407790:	10600049 	beqz	v1,804078b8 <_Thread_Change_priority+0x258>
80407794:	8c4744c0 	lw	a3,17600(v0)
80407798:	3c048041 	lui	a0,0x8041
8040779c:	24862760 	addiu	a2,a0,10080
804077a0:	00c51021 	addu	v0,a2,a1
804077a4:	90430000 	lbu	v1,0(v0)
804077a8:	24640008 	addiu	a0,v1,8
804077ac:	3c038041 	lui	v1,0x8041
804077b0:	24634640 	addiu	v1,v1,17984
804077b4:	00041040 	sll	v0,a0,0x1
804077b8:	00431021 	addu	v0,v0,v1
804077bc:	94420000 	lhu	v0,0(v0)
804077c0:	2c430100 	sltiu	v1,v0,256
804077c4:	10600038 	beqz	v1,804078a8 <_Thread_Change_priority+0x248>
804077c8:	00000000 	nop
804077cc:	00c21021 	addu	v0,a2,v0
804077d0:	90430000 	lbu	v1,0(v0)
804077d4:	24630008 	addiu	v1,v1,8
804077d8:	00041100 	sll	v0,a0,0x4
804077dc:	00621021 	addu	v0,v1,v0
804077e0:	00021900 	sll	v1,v0,0x4
804077e4:	00021080 	sll	v0,v0,0x2
804077e8:	00621823 	subu	v1,v1,v0
804077ec:	00e31821 	addu	v1,a3,v1
804077f0:	3c028041 	lui	v0,0x8041
804077f4:	8c640000 	lw	a0,0(v1)
804077f8:	8c4245d4 	lw	v0,17876(v0)
804077fc:	3c038041 	lui	v1,0x8041
80407800:	10820006 	beq	a0,v0,8040781c <_Thread_Change_priority+0x1bc>
80407804:	ac6445a0 	sw	a0,17824(v1)
80407808:	90420076 	lbu	v0,118(v0)
8040780c:	10400003 	beqz	v0,8040781c <_Thread_Change_priority+0x1bc>
80407810:	24030001 	li	v1,1
80407814:	3c028041 	lui	v0,0x8041
80407818:	a04345e4 	sb	v1,17892(v0)
8040781c:	40026000 	mfc0	v0,c0_status
80407820:	00000000 	nop
80407824:	2403fffe 	li	v1,-2
80407828:	00431024 	and	v0,v0,v1
8040782c:	31040001 	andi	a0,t0,0x1
80407830:	00441025 	or	v0,v0,a0
80407834:	40826000 	mtc0	v0,c0_status
80407838:	00000000 	nop
8040783c:	8fbf0024 	lw	ra,36(sp)
80407840:	8fb30020 	lw	s3,32(sp)
80407844:	8fb2001c 	lw	s2,28(sp)
80407848:	8fb10018 	lw	s1,24(sp)
8040784c:	8fb00014 	lw	s0,20(sp)
80407850:	03e00008 	jr	ra
80407854:	27bd0028 	addiu	sp,sp,40
80407858:	8e040090 	lw	a0,144(s0)
8040785c:	96030096 	lhu	v1,150(s0)
80407860:	94820000 	lhu	v0,0(a0)
80407864:	00431025 	or	v0,v0,v1
80407868:	a4820000 	sh	v0,0(a0)
8040786c:	94a345c8 	lhu	v1,17864(a1)
80407870:	96020094 	lhu	v0,148(s0)
80407874:	ae000010 	sw	zero,16(s0)
80407878:	00431025 	or	v0,v0,v1
8040787c:	3042ffff 	andi	v0,v0,0xffff
80407880:	a4a245c8 	sh	v0,17864(a1)
80407884:	12600012 	beqz	s3,804078d0 <_Thread_Change_priority+0x270>
80407888:	00000000 	nop
8040788c:	8e02008c 	lw	v0,140(s0)
80407890:	8c430000 	lw	v1,0(v0)
80407894:	ae020004 	sw	v0,4(s0)
80407898:	ac500000 	sw	s0,0(v0)
8040789c:	ac700004 	sw	s0,4(v1)
804078a0:	08101dd3 	j	8040774c <_Thread_Change_priority+0xec>
804078a4:	ae030000 	sw	v1,0(s0)
804078a8:	00021202 	srl	v0,v0,0x8
804078ac:	00c21021 	addu	v0,a2,v0
804078b0:	08101df6 	j	804077d8 <_Thread_Change_priority+0x178>
804078b4:	90430000 	lbu	v1,0(v0)
804078b8:	3c048041 	lui	a0,0x8041
804078bc:	24862760 	addiu	a2,a0,10080
804078c0:	00051202 	srl	v0,a1,0x8
804078c4:	00c21021 	addu	v0,a2,v0
804078c8:	08101deb 	j	804077ac <_Thread_Change_priority+0x14c>
804078cc:	90440000 	lbu	a0,0(v0)
804078d0:	8e02008c 	lw	v0,140(s0)
804078d4:	24430004 	addiu	v1,v0,4
804078d8:	ae030000 	sw	v1,0(s0)
804078dc:	8c440008 	lw	a0,8(v0)
804078e0:	ac500008 	sw	s0,8(v0)
804078e4:	ae040004 	sw	a0,4(s0)
804078e8:	08101dd3 	j	8040774c <_Thread_Change_priority+0xec>
804078ec:	ac900000 	sw	s0,0(a0)

804078f0 <_Thread_Clear_state>:
804078f0:	00803821 	move	a3,a0
804078f4:	00a02021 	move	a0,a1
804078f8:	40026000 	mfc0	v0,c0_status
804078fc:	00000000 	nop
80407900:	2403fffe 	li	v1,-2
80407904:	00431824 	and	v1,v0,v1
80407908:	40836000 	mtc0	v1,c0_status
8040790c:	00000000 	nop
80407910:	30480001 	andi	t0,v0,0x1
80407914:	8ce50010 	lw	a1,16(a3)
80407918:	00851024 	and	v0,a0,a1
8040791c:	10400035 	beqz	v0,804079f4 <_Thread_Clear_state+0x104>
80407920:	00041027 	nor	v0,zero,a0
80407924:	00451024 	and	v0,v0,a1
80407928:	14400032 	bnez	v0,804079f4 <_Thread_Clear_state+0x104>
8040792c:	ace20010 	sw	v0,16(a3)
80407930:	8ce50090 	lw	a1,144(a3)
80407934:	94e30096 	lhu	v1,150(a3)
80407938:	94a20000 	lhu	v0,0(a1)
8040793c:	8ce4008c 	lw	a0,140(a3)
80407940:	00431025 	or	v0,v0,v1
80407944:	a4a20000 	sh	v0,0(a1)
80407948:	3c068041 	lui	a2,0x8041
8040794c:	94c545c8 	lhu	a1,17864(a2)
80407950:	94e20094 	lhu	v0,148(a3)
80407954:	24830004 	addiu	v1,a0,4
80407958:	ace30000 	sw	v1,0(a3)
8040795c:	8c830008 	lw	v1,8(a0)
80407960:	00451025 	or	v0,v0,a1
80407964:	3042ffff 	andi	v0,v0,0xffff
80407968:	ac870008 	sw	a3,8(a0)
8040796c:	a4c245c8 	sh	v0,17864(a2)
80407970:	ace30004 	sw	v1,4(a3)
80407974:	ac670000 	sw	a3,0(v1)
80407978:	40026000 	mfc0	v0,c0_status
8040797c:	00000000 	nop
80407980:	2403fffe 	li	v1,-2
80407984:	00431024 	and	v0,v0,v1
80407988:	00481025 	or	v0,v0,t0
8040798c:	40826000 	mtc0	v0,c0_status
80407990:	00000000 	nop
80407994:	40036000 	mfc0	v1,c0_status
80407998:	00000000 	nop
8040799c:	2402fffe 	li	v0,-2
804079a0:	00621024 	and	v0,v1,v0
804079a4:	40826000 	mtc0	v0,c0_status
804079a8:	00000000 	nop
804079ac:	30660001 	andi	a2,v1,0x1
804079b0:	3c058041 	lui	a1,0x8041
804079b4:	8ca345a0 	lw	v1,17824(a1)
804079b8:	8ce40014 	lw	a0,20(a3)
804079bc:	8c620014 	lw	v0,20(v1)
804079c0:	0082102b 	sltu	v0,a0,v0
804079c4:	10400014 	beqz	v0,80407a18 <_Thread_Clear_state+0x128>
804079c8:	3c028041 	lui	v0,0x8041
804079cc:	8c4345d4 	lw	v1,17876(v0)
804079d0:	aca745a0 	sw	a3,17824(a1)
804079d4:	90620076 	lbu	v0,118(v1)
804079d8:	14400003 	bnez	v0,804079e8 <_Thread_Clear_state+0xf8>
804079dc:	24030001 	li	v1,1
804079e0:	1480000e 	bnez	a0,80407a1c <_Thread_Clear_state+0x12c>
804079e4:	00c04021 	move	t0,a2
804079e8:	3c028041 	lui	v0,0x8041
804079ec:	a04345e4 	sb	v1,17892(v0)
804079f0:	00c04021 	move	t0,a2
804079f4:	40026000 	mfc0	v0,c0_status
804079f8:	00000000 	nop
804079fc:	2403fffe 	li	v1,-2
80407a00:	00431024 	and	v0,v0,v1
80407a04:	01021025 	or	v0,t0,v0
80407a08:	40826000 	mtc0	v0,c0_status
80407a0c:	00000000 	nop
80407a10:	03e00008 	jr	ra
80407a14:	00000000 	nop
80407a18:	00c04021 	move	t0,a2
80407a1c:	40026000 	mfc0	v0,c0_status
80407a20:	00000000 	nop
80407a24:	2403fffe 	li	v1,-2
80407a28:	00431024 	and	v0,v0,v1
80407a2c:	01021025 	or	v0,t0,v0
80407a30:	40826000 	mtc0	v0,c0_status
80407a34:	00000000 	nop
80407a38:	03e00008 	jr	ra
80407a3c:	00000000 	nop

80407a40 <_Thread_Close>:
80407a40:	94a2000a 	lhu	v0,10(a1)
80407a44:	8c83001c 	lw	v1,28(a0)
80407a48:	00021080 	sll	v0,v0,0x2
80407a4c:	27bdffe0 	addiu	sp,sp,-32
80407a50:	00621821 	addu	v1,v1,v0
80407a54:	afb20018 	sw	s2,24(sp)
80407a58:	afb10014 	sw	s1,20(sp)
80407a5c:	afbf001c 	sw	ra,28(sp)
80407a60:	afb00010 	sw	s0,16(sp)
80407a64:	00a09021 	move	s2,a1
80407a68:	00808821 	move	s1,a0
80407a6c:	ac600000 	sw	zero,0(v1)
80407a70:	3c108041 	lui	s0,0x8041
80407a74:	8e024514 	lw	v0,17684(s0)
80407a78:	00a02021 	move	a0,a1
80407a7c:	2442ffff 	addiu	v0,v0,-1
80407a80:	ae024514 	sw	v0,17684(s0)
80407a84:	0c102510 	jal	80409440 <_User_extensions_Thread_delete>
80407a88:	00000000 	nop
80407a8c:	8e024514 	lw	v0,17684(s0)
80407a90:	24420001 	addiu	v0,v0,1
80407a94:	ae024514 	sw	v0,17684(s0)
80407a98:	02202021 	move	a0,s1
80407a9c:	0c101b10 	jal	80406c40 <_Objects_Close>
80407aa0:	02402821 	move	a1,s2
80407aa4:	02402021 	move	a0,s2
80407aa8:	0c1022e8 	jal	80408ba0 <_Thread_Set_state>
80407aac:	24050001 	li	a1,1
80407ab0:	0c10223c 	jal	804088f0 <_Thread_queue_Extract_with_proxy>
80407ab4:	02402021 	move	a0,s2
80407ab8:	14400004 	bnez	v0,80407acc <_Thread_Close+0x8c>
80407abc:	24020002 	li	v0,2
80407ac0:	8e430050 	lw	v1,80(s2)
80407ac4:	1062000f 	beq	v1,v0,80407b04 <_Thread_Close+0xc4>
80407ac8:	00000000 	nop
80407acc:	0c1023b4 	jal	80408ed0 <_Thread_Stack_Free>
80407ad0:	02402021 	move	a0,s2
80407ad4:	8e440114 	lw	a0,276(s2)
80407ad8:	10800003 	beqz	a0,80407ae8 <_Thread_Close+0xa8>
80407adc:	ae4000cc 	sw	zero,204(s2)
80407ae0:	0c10264c 	jal	80409930 <_Workspace_Free>
80407ae4:	00000000 	nop
80407ae8:	8fbf001c 	lw	ra,28(sp)
80407aec:	ae400114 	sw	zero,276(s2)
80407af0:	8fb10014 	lw	s1,20(sp)
80407af4:	8fb20018 	lw	s2,24(sp)
80407af8:	8fb00010 	lw	s0,16(sp)
80407afc:	03e00008 	jr	ra
80407b00:	27bd0020 	addiu	sp,sp,32
80407b04:	0c102600 	jal	80409800 <_Watchdog_Remove>
80407b08:	26440048 	addiu	a0,s2,72
80407b0c:	08101eb3 	j	80407acc <_Thread_Close+0x8c>
80407b10:	00000000 	nop
	...

80407b20 <_Thread_Create_idle>:
80407b20:	27bdffb8 	addiu	sp,sp,-72
80407b24:	afb2003c 	sw	s2,60(sp)
80407b28:	3c128041 	lui	s2,0x8041
80407b2c:	afb10038 	sw	s1,56(sp)
80407b30:	26444670 	addiu	a0,s2,18032
80407b34:	3c118041 	lui	s1,0x8041
80407b38:	afb00034 	sw	s0,52(sp)
80407b3c:	afbf0044 	sw	ra,68(sp)
80407b40:	0c101ad8 	jal	80406b60 <_Objects_Allocate>
80407b44:	afb30040 	sw	s3,64(sp)
80407b48:	8e234514 	lw	v1,17684(s1)
80407b4c:	3c108041 	lui	s0,0x8041
80407b50:	24630001 	addiu	v1,v1,1
80407b54:	ae234514 	sw	v1,17684(s1)
80407b58:	ae0246bc 	sw	v0,18108(s0)
80407b5c:	3c138041 	lui	s3,0x8041
80407b60:	8e6245ac 	lw	v0,17836(s3)
80407b64:	3c038041 	lui	v1,0x8041
80407b68:	8c643720 	lw	a0,14112(v1)
80407b6c:	8c470018 	lw	a3,24(v0)
80407b70:	3c038041 	lui	v1,0x8041
80407b74:	0087102b 	sltu	v0,a0,a3
80407b78:	0082380a 	movz	a3,a0,v0
80407b7c:	90623724 	lbu	v0,14116(v1)
80407b80:	8e0546bc 	lw	a1,18108(s0)
80407b84:	afa20014 	sw	v0,20(sp)
80407b88:	3c028041 	lui	v0,0x8041
80407b8c:	24030001 	li	v1,1
80407b90:	26444670 	addiu	a0,s2,18032
80407b94:	00003021 	move	a2,zero
80407b98:	24423484 	addiu	v0,v0,13444
80407b9c:	afa30018 	sw	v1,24(sp)
80407ba0:	afa20028 	sw	v0,40(sp)
80407ba4:	afa00010 	sw	zero,16(sp)
80407ba8:	afa0001c 	sw	zero,28(sp)
80407bac:	afa00020 	sw	zero,32(sp)
80407bb0:	0c101fc4 	jal	80407f10 <_Thread_Initialize>
80407bb4:	afa00024 	sw	zero,36(sp)
80407bb8:	8e6245ac 	lw	v0,17836(s3)
80407bbc:	8e234514 	lw	v1,17684(s1)
80407bc0:	8e0846bc 	lw	t0,18108(s0)
80407bc4:	8c460014 	lw	a2,20(v0)
80407bc8:	2463ffff 	addiu	v1,v1,-1
80407bcc:	ae234514 	sw	v1,17684(s1)
80407bd0:	3c028041 	lui	v0,0x8041
80407bd4:	3c038041 	lui	v1,0x8041
80407bd8:	01002021 	move	a0,t0
80407bdc:	00002821 	move	a1,zero
80407be0:	00003821 	move	a3,zero
80407be4:	ac4845d4 	sw	t0,17876(v0)
80407be8:	ac6845a0 	sw	t0,17824(v1)
80407bec:	0c1023d4 	jal	80408f50 <_Thread_Start>
80407bf0:	afa00010 	sw	zero,16(sp)
80407bf4:	8fbf0044 	lw	ra,68(sp)
80407bf8:	8fb30040 	lw	s3,64(sp)
80407bfc:	8fb2003c 	lw	s2,60(sp)
80407c00:	8fb10038 	lw	s1,56(sp)
80407c04:	8fb00034 	lw	s0,52(sp)
80407c08:	03e00008 	jr	ra
80407c0c:	27bd0048 	addiu	sp,sp,72

80407c10 <_Thread_Delay_ended>:
80407c10:	27bdffe0 	addiu	sp,sp,-32
80407c14:	afbf001c 	sw	ra,28(sp)
80407c18:	0c101f98 	jal	80407e60 <_Thread_Get>
80407c1c:	27a50010 	addiu	a1,sp,16
80407c20:	00402021 	move	a0,v0
80407c24:	8fa20010 	lw	v0,16(sp)
80407c28:	14400009 	bnez	v0,80407c50 <_Thread_Delay_ended+0x40>
80407c2c:	8fbf001c 	lw	ra,28(sp)
80407c30:	3c051003 	lui	a1,0x1003
80407c34:	0c101e3c 	jal	804078f0 <_Thread_Clear_state>
80407c38:	34a5fff8 	ori	a1,a1,0xfff8
80407c3c:	3c038041 	lui	v1,0x8041
80407c40:	8c624514 	lw	v0,17684(v1)
80407c44:	2442ffff 	addiu	v0,v0,-1
80407c48:	ac624514 	sw	v0,17684(v1)
80407c4c:	8fbf001c 	lw	ra,28(sp)
80407c50:	03e00008 	jr	ra
80407c54:	27bd0020 	addiu	sp,sp,32
	...

80407c60 <_Thread_Dispatch>:
80407c60:	27bdffb8 	addiu	sp,sp,-72
80407c64:	afb40030 	sw	s4,48(sp)
80407c68:	3c148041 	lui	s4,0x8041
80407c6c:	afb10024 	sw	s1,36(sp)
80407c70:	afbf0044 	sw	ra,68(sp)
80407c74:	afbe0040 	sw	s8,64(sp)
80407c78:	afb7003c 	sw	s7,60(sp)
80407c7c:	afb60038 	sw	s6,56(sp)
80407c80:	afb50034 	sw	s5,52(sp)
80407c84:	afb3002c 	sw	s3,44(sp)
80407c88:	afb20028 	sw	s2,40(sp)
80407c8c:	afb00020 	sw	s0,32(sp)
80407c90:	8e9145d4 	lw	s1,17876(s4)
80407c94:	40026000 	mfc0	v0,c0_status
80407c98:	00000000 	nop
80407c9c:	2403fffe 	li	v1,-2
80407ca0:	00431824 	and	v1,v0,v1
80407ca4:	40836000 	mtc0	v1,c0_status
80407ca8:	00000000 	nop
80407cac:	30440001 	andi	a0,v0,0x1
80407cb0:	3c138041 	lui	s3,0x8041
80407cb4:	926245e4 	lbu	v0,17892(s3)
80407cb8:	10400040 	beqz	v0,80407dbc <_Thread_Dispatch+0x15c>
80407cbc:	3c128041 	lui	s2,0x8041
80407cc0:	27be0010 	addiu	s8,sp,16
80407cc4:	27b70018 	addiu	s7,sp,24
80407cc8:	24160001 	li	s6,1
80407ccc:	08101f64 	j	80407d90 <_Thread_Dispatch+0x130>
80407cd0:	2415fffe 	li	s5,-2
80407cd4:	40026000 	mfc0	v0,c0_status
80407cd8:	00000000 	nop
80407cdc:	00551024 	and	v0,v0,s5
80407ce0:	00441025 	or	v0,v0,a0
80407ce4:	40826000 	mtc0	v0,c0_status
80407ce8:	00000000 	nop
80407cec:	0c103398 	jal	8040ce60 <_TOD_Get_uptime>
80407cf0:	03c02021 	move	a0,s8
80407cf4:	3c048041 	lui	a0,0x8041
80407cf8:	02e03021 	move	a2,s7
80407cfc:	248445dc 	addiu	a0,a0,17884
80407d00:	0c102450 	jal	80409140 <_Timespec_Subtract>
80407d04:	03c02821 	move	a1,s8
80407d08:	26240084 	addiu	a0,s1,132
80407d0c:	0c102434 	jal	804090d0 <_Timespec_Add_to>
80407d10:	02e02821 	move	a1,s7
80407d14:	3c028041 	lui	v0,0x8041
80407d18:	8c46459c 	lw	a2,17820(v0)
80407d1c:	8fa20010 	lw	v0,16(sp)
80407d20:	3c038041 	lui	v1,0x8041
80407d24:	ac6245dc 	sw	v0,17884(v1)
80407d28:	8fa30014 	lw	v1,20(sp)
80407d2c:	3c028041 	lui	v0,0x8041
80407d30:	244245dc 	addiu	v0,v0,17884
80407d34:	02202021 	move	a0,s1
80407d38:	02002821 	move	a1,s0
80407d3c:	10c00005 	beqz	a2,80407d54 <_Thread_Dispatch+0xf4>
80407d40:	ac430004 	sw	v1,4(v0)
80407d44:	8cc20000 	lw	v0,0(a2)
80407d48:	ae220104 	sw	v0,260(s1)
80407d4c:	8e030104 	lw	v1,260(s0)
80407d50:	acc30000 	sw	v1,0(a2)
80407d54:	0c102548 	jal	80409520 <_User_extensions_Thread_switch>
80407d58:	00000000 	nop
80407d5c:	262400d0 	addiu	a0,s1,208
80407d60:	0c102688 	jal	80409a20 <_CPU_Context_switch>
80407d64:	260500d0 	addiu	a1,s0,208
80407d68:	8e9145d4 	lw	s1,17876(s4)
80407d6c:	40026000 	mfc0	v0,c0_status
80407d70:	00000000 	nop
80407d74:	00551824 	and	v1,v0,s5
80407d78:	40836000 	mtc0	v1,c0_status
80407d7c:	00000000 	nop
80407d80:	30440001 	andi	a0,v0,0x1
80407d84:	926245e4 	lbu	v0,17892(s3)
80407d88:	1040000c 	beqz	v0,80407dbc <_Thread_Dispatch+0x15c>
80407d8c:	00000000 	nop
80407d90:	3c028041 	lui	v0,0x8041
80407d94:	8c5045a0 	lw	s0,17824(v0)
80407d98:	ae564514 	sw	s6,17684(s2)
80407d9c:	8e02007c 	lw	v0,124(s0)
80407da0:	a26045e4 	sb	zero,17892(s3)
80407da4:	1456ffcb 	bne	v0,s6,80407cd4 <_Thread_Dispatch+0x74>
80407da8:	ae9045d4 	sw	s0,17876(s4)
80407dac:	3c038041 	lui	v1,0x8041
80407db0:	8c6244c4 	lw	v0,17604(v1)
80407db4:	08101f35 	j	80407cd4 <_Thread_Dispatch+0x74>
80407db8:	ae020078 	sw	v0,120(s0)
80407dbc:	ae404514 	sw	zero,17684(s2)
80407dc0:	40026000 	mfc0	v0,c0_status
80407dc4:	00000000 	nop
80407dc8:	2403fffe 	li	v1,-2
80407dcc:	00431024 	and	v0,v0,v1
80407dd0:	00821025 	or	v0,a0,v0
80407dd4:	40826000 	mtc0	v0,c0_status
80407dd8:	00000000 	nop
80407ddc:	3c038041 	lui	v1,0x8041
80407de0:	8c6245b8 	lw	v0,17848(v1)
80407de4:	14400004 	bnez	v0,80407df8 <_Thread_Dispatch+0x198>
80407de8:	00000000 	nop
80407dec:	92220075 	lbu	v0,117(s1)
80407df0:	10400004 	beqz	v0,80407e04 <_Thread_Dispatch+0x1a4>
80407df4:	8fbf0044 	lw	ra,68(sp)
80407df8:	0c1017d8 	jal	80405f60 <_API_extensions_Run_postswitch>
80407dfc:	a2200075 	sb	zero,117(s1)
80407e00:	8fbf0044 	lw	ra,68(sp)
80407e04:	8fbe0040 	lw	s8,64(sp)
80407e08:	8fb7003c 	lw	s7,60(sp)
80407e0c:	8fb60038 	lw	s6,56(sp)
80407e10:	8fb50034 	lw	s5,52(sp)
80407e14:	8fb40030 	lw	s4,48(sp)
80407e18:	8fb3002c 	lw	s3,44(sp)
80407e1c:	8fb20028 	lw	s2,40(sp)
80407e20:	8fb10024 	lw	s1,36(sp)
80407e24:	8fb00020 	lw	s0,32(sp)
80407e28:	03e00008 	jr	ra
80407e2c:	27bd0048 	addiu	sp,sp,72

80407e30 <_Thread_Enable_dispatch>:
80407e30:	3c028041 	lui	v0,0x8041
80407e34:	8c434514 	lw	v1,17684(v0)
80407e38:	2463ffff 	addiu	v1,v1,-1
80407e3c:	ac434514 	sw	v1,17684(v0)
80407e40:	8c444514 	lw	a0,17684(v0)
80407e44:	10800003 	beqz	a0,80407e54 <_Thread_Enable_dispatch+0x24>
80407e48:	00000000 	nop
80407e4c:	03e00008 	jr	ra
80407e50:	00000000 	nop
80407e54:	08101f18 	j	80407c60 <_Thread_Dispatch>
80407e58:	00000000 	nop
80407e5c:	00000000 	nop

80407e60 <_Thread_Get>:
80407e60:	00803821 	move	a3,a0
80407e64:	10800018 	beqz	a0,80407ec8 <_Thread_Get+0x68>
80407e68:	00a03021 	move	a2,a1
80407e6c:	00041e02 	srl	v1,a0,0x18
80407e70:	30630007 	andi	v1,v1,0x7
80407e74:	2462ffff 	addiu	v0,v1,-1
80407e78:	2c420004 	sltiu	v0,v0,4
80407e7c:	1040000f 	beqz	v0,80407ebc <_Thread_Get+0x5c>
80407e80:	24020001 	li	v0,1
80407e84:	00042ec2 	srl	a1,a0,0x1b
80407e88:	14a20017 	bne	a1,v0,80407ee8 <_Thread_Get+0x88>
80407e8c:	00031880 	sll	v1,v1,0x2
80407e90:	3c028041 	lui	v0,0x8041
80407e94:	244244cc 	addiu	v0,v0,17612
80407e98:	00621821 	addu	v1,v1,v0
80407e9c:	8c620000 	lw	v0,0(v1)
80407ea0:	10400017 	beqz	v0,80407f00 <_Thread_Get+0xa0>
80407ea4:	00000000 	nop
80407ea8:	8c440004 	lw	a0,4(v0)
80407eac:	10800011 	beqz	a0,80407ef4 <_Thread_Get+0x94>
80407eb0:	00000000 	nop
80407eb4:	08101c8c 	j	80407230 <_Objects_Get>
80407eb8:	00e02821 	move	a1,a3
80407ebc:	aca20000 	sw	v0,0(a1)
80407ec0:	03e00008 	jr	ra
80407ec4:	00001021 	move	v0,zero
80407ec8:	3c028041 	lui	v0,0x8041
80407ecc:	8c434514 	lw	v1,17684(v0)
80407ed0:	24630001 	addiu	v1,v1,1
80407ed4:	ac434514 	sw	v1,17684(v0)
80407ed8:	3c028041 	lui	v0,0x8041
80407edc:	aca00000 	sw	zero,0(a1)
80407ee0:	03e00008 	jr	ra
80407ee4:	8c4245d4 	lw	v0,17876(v0)
80407ee8:	acc20000 	sw	v0,0(a2)
80407eec:	03e00008 	jr	ra
80407ef0:	00001021 	move	v0,zero
80407ef4:	acc50000 	sw	a1,0(a2)
80407ef8:	03e00008 	jr	ra
80407efc:	00001021 	move	v0,zero
80407f00:	03e00008 	jr	ra
80407f04:	acc50000 	sw	a1,0(a2)
	...

80407f10 <_Thread_Initialize>:
80407f10:	27bdffd0 	addiu	sp,sp,-48
80407f14:	afb60028 	sw	s6,40(sp)
80407f18:	afb50024 	sw	s5,36(sp)
80407f1c:	afb40020 	sw	s4,32(sp)
80407f20:	afb3001c 	sw	s3,28(sp)
80407f24:	afb10014 	sw	s1,20(sp)
80407f28:	afb00010 	sw	s0,16(sp)
80407f2c:	afbf002c 	sw	ra,44(sp)
80407f30:	afb20018 	sw	s2,24(sp)
80407f34:	0080b021 	move	s6,a0
80407f38:	00a08021 	move	s0,a1
80407f3c:	00e08821 	move	s1,a3
80407f40:	8fb30044 	lw	s3,68(sp)
80407f44:	8fb5004c 	lw	s5,76(sp)
80407f48:	10c00061 	beqz	a2,804080d0 <_Thread_Initialize+0x1c0>
80407f4c:	93b4004b 	lbu	s4,75(sp)
80407f50:	a0a000c0 	sb	zero,192(a1)
80407f54:	00e01821 	move	v1,a3
80407f58:	3c118041 	lui	s1,0x8041
80407f5c:	8e2445b4 	lw	a0,17844(s1)
80407f60:	ae0600c8 	sw	a2,200(s0)
80407f64:	ae0300c4 	sw	v1,196(s0)
80407f68:	ae000050 	sw	zero,80(s0)
80407f6c:	ae000064 	sw	zero,100(s0)
80407f70:	ae000068 	sw	zero,104(s0)
80407f74:	ae00006c 	sw	zero,108(s0)
80407f78:	14800040 	bnez	a0,8040807c <_Thread_Initialize+0x16c>
80407f7c:	ae000104 	sw	zero,260(s0)
80407f80:	ae000114 	sw	zero,276(s0)
80407f84:	00009021 	move	s2,zero
80407f88:	8fa20050 	lw	v0,80(sp)
80407f8c:	a21400ac 	sb	s4,172(s0)
80407f90:	ae0200b4 	sw	v0,180(s0)
80407f94:	24020002 	li	v0,2
80407f98:	16a20004 	bne	s5,v0,80407fac <_Thread_Initialize+0x9c>
80407f9c:	ae1500b0 	sw	s5,176(s0)
80407fa0:	3c028041 	lui	v0,0x8041
80407fa4:	8c4344c4 	lw	v1,17604(v0)
80407fa8:	ae030078 	sw	v1,120(s0)
80407fac:	8fa20054 	lw	v0,84(sp)
80407fb0:	02002021 	move	a0,s0
80407fb4:	ae0200b8 	sw	v0,184(s0)
80407fb8:	24020001 	li	v0,1
80407fbc:	ae020010 	sw	v0,16(s0)
80407fc0:	ae000044 	sw	zero,68(s0)
80407fc4:	ae00001c 	sw	zero,28(s0)
80407fc8:	ae000070 	sw	zero,112(s0)
80407fcc:	ae130018 	sw	s3,24(s0)
80407fd0:	ae1300bc 	sw	s3,188(s0)
80407fd4:	0c1022cc 	jal	80408b30 <_Thread_Set_priority>
80407fd8:	02602821 	move	a1,s3
80407fdc:	9602000a 	lhu	v0,10(s0)
80407fe0:	8ec3001c 	lw	v1,28(s6)
80407fe4:	00021080 	sll	v0,v0,0x2
80407fe8:	00621821 	addu	v1,v1,v0
80407fec:	8fa20058 	lw	v0,88(sp)
80407ff0:	ac700000 	sw	s0,0(v1)
80407ff4:	ae02000c 	sw	v0,12(s0)
80407ff8:	ae000084 	sw	zero,132(s0)
80407ffc:	ae000088 	sw	zero,136(s0)
80408000:	0c1024f0 	jal	804093c0 <_User_extensions_Thread_create>
80408004:	02002021 	move	a0,s0
80408008:	14400012 	bnez	v0,80408054 <_Thread_Initialize+0x144>
8040800c:	8fbf002c 	lw	ra,44(sp)
80408010:	12400003 	beqz	s2,80408020 <_Thread_Initialize+0x110>
80408014:	00000000 	nop
80408018:	0c10264c 	jal	80409930 <_Workspace_Free>
8040801c:	02402021 	move	a0,s2
80408020:	0c1023b4 	jal	80408ed0 <_Thread_Stack_Free>
80408024:	02002021 	move	a0,s0
80408028:	00001021 	move	v0,zero
8040802c:	8fbf002c 	lw	ra,44(sp)
80408030:	8fb60028 	lw	s6,40(sp)
80408034:	8fb50024 	lw	s5,36(sp)
80408038:	8fb40020 	lw	s4,32(sp)
8040803c:	8fb3001c 	lw	s3,28(sp)
80408040:	8fb20018 	lw	s2,24(sp)
80408044:	8fb10014 	lw	s1,20(sp)
80408048:	8fb00010 	lw	s0,16(sp)
8040804c:	03e00008 	jr	ra
80408050:	27bd0030 	addiu	sp,sp,48
80408054:	24020001 	li	v0,1
80408058:	8fb60028 	lw	s6,40(sp)
8040805c:	8fb50024 	lw	s5,36(sp)
80408060:	8fb40020 	lw	s4,32(sp)
80408064:	8fb3001c 	lw	s3,28(sp)
80408068:	8fb20018 	lw	s2,24(sp)
8040806c:	8fb10014 	lw	s1,20(sp)
80408070:	8fb00010 	lw	s0,16(sp)
80408074:	03e00008 	jr	ra
80408078:	27bd0030 	addiu	sp,sp,48
8040807c:	24840001 	addiu	a0,a0,1
80408080:	0c102650 	jal	80409940 <_Workspace_Allocate>
80408084:	00042080 	sll	a0,a0,0x2
80408088:	1040ffe5 	beqz	v0,80408020 <_Thread_Initialize+0x110>
8040808c:	00409021 	move	s2,v0
80408090:	8e2345b4 	lw	v1,17844(s1)
80408094:	ae020114 	sw	v0,276(s0)
80408098:	2402ffff 	li	v0,-1
8040809c:	1062ffba 	beq	v1,v0,80407f88 <_Thread_Initialize+0x78>
804080a0:	02402821 	move	a1,s2
804080a4:	00002021 	move	a0,zero
804080a8:	8e2245b4 	lw	v0,17844(s1)
804080ac:	00041880 	sll	v1,a0,0x2
804080b0:	24420001 	addiu	v0,v0,1
804080b4:	24840001 	addiu	a0,a0,1
804080b8:	00a31821 	addu	v1,a1,v1
804080bc:	0082102b 	sltu	v0,a0,v0
804080c0:	1440fff9 	bnez	v0,804080a8 <_Thread_Initialize+0x198>
804080c4:	ac600000 	sw	zero,0(v1)
804080c8:	08101fe3 	j	80407f8c <_Thread_Initialize+0x7c>
804080cc:	8fa20050 	lw	v0,80(sp)
804080d0:	00a02021 	move	a0,a1
804080d4:	0c102390 	jal	80408e40 <_Thread_Stack_Allocate>
804080d8:	00e02821 	move	a1,a3
804080dc:	10400008 	beqz	v0,80408100 <_Thread_Initialize+0x1f0>
804080e0:	00401821 	move	v1,v0
804080e4:	0051102b 	sltu	v0,v0,s1
804080e8:	1440ffd0 	bnez	v0,8040802c <_Thread_Initialize+0x11c>
804080ec:	00001021 	move	v0,zero
804080f0:	24020001 	li	v0,1
804080f4:	a20200c0 	sb	v0,192(s0)
804080f8:	08101fd6 	j	80407f58 <_Thread_Initialize+0x48>
804080fc:	8e0600cc 	lw	a2,204(s0)
80408100:	0810200b 	j	8040802c <_Thread_Initialize+0x11c>
80408104:	00001021 	move	v0,zero
	...

80408110 <_Thread_Handler_initialization>:
80408110:	3c028041 	lui	v0,0x8041
80408114:	8c4645ac 	lw	a2,17836(v0)
80408118:	27bdffd8 	addiu	sp,sp,-40
8040811c:	8cc30024 	lw	v1,36(a2)
80408120:	8cc20020 	lw	v0,32(a2)
80408124:	2c630001 	sltiu	v1,v1,1
80408128:	2c420001 	sltiu	v0,v0,1
8040812c:	afbf0024 	sw	ra,36(sp)
80408130:	afb00020 	sw	s0,32(sp)
80408134:	14430031 	bne	v0,v1,804081fc <_Thread_Handler_initialization+0xec>
80408138:	00803821 	move	a3,a0
8040813c:	3c108041 	lui	s0,0x8041
80408140:	92043724 	lbu	a0,14116(s0)
80408144:	3c028041 	lui	v0,0x8041
80408148:	24840001 	addiu	a0,a0,1
8040814c:	00041900 	sll	v1,a0,0x4
80408150:	00042080 	sll	a0,a0,0x2
80408154:	00642023 	subu	a0,v1,a0
80408158:	3c038041 	lui	v1,0x8041
8040815c:	ac4545b4 	sw	a1,17844(v0)
80408160:	ac6744c4 	sw	a3,17604(v1)
80408164:	3c028041 	lui	v0,0x8041
80408168:	3c038041 	lui	v1,0x8041
8040816c:	a04045e4 	sb	zero,17892(v0)
80408170:	ac6045d4 	sw	zero,17876(v1)
80408174:	3c028041 	lui	v0,0x8041
80408178:	3c038041 	lui	v1,0x8041
8040817c:	ac6045b8 	sw	zero,17848(v1)
80408180:	0c102654 	jal	80409950 <_Workspace_Allocate_or_fatal_error>
80408184:	ac4045a0 	sw	zero,17824(v0)
80408188:	3c038041 	lui	v1,0x8041
8040818c:	92063724 	lbu	a2,14116(s0)
80408190:	ac6244c0 	sw	v0,17600(v1)
80408194:	00402021 	move	a0,v0
80408198:	00002821 	move	a1,zero
8040819c:	24a50001 	addiu	a1,a1,1
804081a0:	24820004 	addiu	v0,a0,4
804081a4:	00c5182b 	sltu	v1,a2,a1
804081a8:	ac820000 	sw	v0,0(a0)
804081ac:	ac800004 	sw	zero,4(a0)
804081b0:	ac840008 	sw	a0,8(a0)
804081b4:	1060fff9 	beqz	v1,8040819c <_Thread_Handler_initialization+0x8c>
804081b8:	2484000c 	addiu	a0,a0,12
804081bc:	2402011c 	li	v0,284
804081c0:	3c048041 	lui	a0,0x8041
804081c4:	afa20010 	sw	v0,16(sp)
804081c8:	24030001 	li	v1,1
804081cc:	24020008 	li	v0,8
804081d0:	24844670 	addiu	a0,a0,18032
804081d4:	24050001 	li	a1,1
804081d8:	24060001 	li	a2,1
804081dc:	24070001 	li	a3,1
804081e0:	afa30014 	sw	v1,20(sp)
804081e4:	0c101cb4 	jal	804072d0 <_Objects_Initialize_information>
804081e8:	afa20018 	sw	v0,24(sp)
804081ec:	8fbf0024 	lw	ra,36(sp)
804081f0:	8fb00020 	lw	s0,32(sp)
804081f4:	03e00008 	jr	ra
804081f8:	27bd0028 	addiu	sp,sp,40
804081fc:	00002021 	move	a0,zero
80408200:	24050001 	li	a1,1
80408204:	0c101ab0 	jal	80406ac0 <_Internal_error_Occurred>
80408208:	2406000f 	li	a2,15
8040820c:	00000000 	nop

80408210 <_Thread_queue_Dequeue>:
80408210:	8c830034 	lw	v1,52(a0)
80408214:	27bdffe8 	addiu	sp,sp,-24
80408218:	24020001 	li	v0,1
8040821c:	afb00010 	sw	s0,16(sp)
80408220:	afbf0014 	sw	ra,20(sp)
80408224:	1062001b 	beq	v1,v0,80408294 <_Thread_queue_Dequeue+0x84>
80408228:	00808021 	move	s0,a0
8040822c:	3c028041 	lui	v0,0x8041
80408230:	2442d3c0 	addiu	v0,v0,-11328
80408234:	0040f809 	jalr	v0
80408238:	02002021 	move	a0,s0
8040823c:	00402821 	move	a1,v0
80408240:	40046000 	mfc0	a0,c0_status
80408244:	00000000 	nop
80408248:	2402fffe 	li	v0,-2
8040824c:	00821024 	and	v0,a0,v0
80408250:	40826000 	mtc0	v0,c0_status
80408254:	00000000 	nop
80408258:	10a0001b 	beqz	a1,804082c8 <_Thread_queue_Dequeue+0xb8>
8040825c:	00000000 	nop
80408260:	40026000 	mfc0	v0,c0_status
80408264:	00000000 	nop
80408268:	2403fffe 	li	v1,-2
8040826c:	00431024 	and	v0,v0,v1
80408270:	30840001 	andi	a0,a0,0x1
80408274:	00441025 	or	v0,v0,a0
80408278:	40826000 	mtc0	v0,c0_status
8040827c:	00000000 	nop
80408280:	8fbf0014 	lw	ra,20(sp)
80408284:	00a01021 	move	v0,a1
80408288:	8fb00010 	lw	s0,16(sp)
8040828c:	03e00008 	jr	ra
80408290:	27bd0018 	addiu	sp,sp,24
80408294:	3c028041 	lui	v0,0x8041
80408298:	244282f0 	addiu	v0,v0,-32016
8040829c:	0040f809 	jalr	v0
804082a0:	02002021 	move	a0,s0
804082a4:	00402821 	move	a1,v0
804082a8:	40046000 	mfc0	a0,c0_status
804082ac:	00000000 	nop
804082b0:	2402fffe 	li	v0,-2
804082b4:	00821024 	and	v0,a0,v0
804082b8:	40826000 	mtc0	v0,c0_status
804082bc:	00000000 	nop
804082c0:	14a0ffe7 	bnez	a1,80408260 <_Thread_queue_Dequeue+0x50>
804082c4:	00000000 	nop
804082c8:	8e020030 	lw	v0,48(s0)
804082cc:	2442ffff 	addiu	v0,v0,-1
804082d0:	2c420002 	sltiu	v0,v0,2
804082d4:	1040ffe2 	beqz	v0,80408260 <_Thread_queue_Dequeue+0x50>
804082d8:	3c028041 	lui	v0,0x8041
804082dc:	24030003 	li	v1,3
804082e0:	8c4545d4 	lw	a1,17876(v0)
804082e4:	08102098 	j	80408260 <_Thread_queue_Dequeue+0x50>
804082e8:	ae030030 	sw	v1,48(s0)
804082ec:	00000000 	nop

804082f0 <_Thread_queue_Dequeue_priority>:
804082f0:	27bdffe0 	addiu	sp,sp,-32
804082f4:	afbf001c 	sw	ra,28(sp)
804082f8:	afb10018 	sw	s1,24(sp)
804082fc:	afb00014 	sw	s0,20(sp)
80408300:	40036000 	mfc0	v1,c0_status
80408304:	00000000 	nop
80408308:	2402fffe 	li	v0,-2
8040830c:	00621024 	and	v0,v1,v0
80408310:	40826000 	mtc0	v0,c0_status
80408314:	00000000 	nop
80408318:	30680001 	andi	t0,v1,0x1
8040831c:	00002821 	move	a1,zero
80408320:	00803021 	move	a2,a0
80408324:	24070004 	li	a3,4
80408328:	00051880 	sll	v1,a1,0x2
8040832c:	00051100 	sll	v0,a1,0x4
80408330:	00431023 	subu	v0,v0,v1
80408334:	00821021 	addu	v0,a0,v0
80408338:	8cd00000 	lw	s0,0(a2)
8040833c:	24420004 	addiu	v0,v0,4
80408340:	24a50001 	addiu	a1,a1,1
80408344:	16020011 	bne	s0,v0,8040838c <_Thread_queue_Dequeue_priority+0x9c>
80408348:	24c6000c 	addiu	a2,a2,12
8040834c:	14a7fff7 	bne	a1,a3,8040832c <_Thread_queue_Dequeue_priority+0x3c>
80408350:	00051880 	sll	v1,a1,0x2
80408354:	40026000 	mfc0	v0,c0_status
80408358:	00000000 	nop
8040835c:	2403fffe 	li	v1,-2
80408360:	00431024 	and	v0,v0,v1
80408364:	00481025 	or	v0,v0,t0
80408368:	40826000 	mtc0	v0,c0_status
8040836c:	00000000 	nop
80408370:	00008821 	move	s1,zero
80408374:	8fbf001c 	lw	ra,28(sp)
80408378:	02201021 	move	v0,s1
8040837c:	8fb10018 	lw	s1,24(sp)
80408380:	8fb00014 	lw	s0,20(sp)
80408384:	03e00008 	jr	ra
80408388:	27bd0020 	addiu	sp,sp,32
8040838c:	8e040038 	lw	a0,56(s0)
80408390:	2602003c 	addiu	v0,s0,60
80408394:	ae000044 	sw	zero,68(s0)
80408398:	02008821 	move	s1,s0
8040839c:	8e050000 	lw	a1,0(s0)
804083a0:	10820035 	beq	a0,v0,80408478 <_Thread_queue_Dequeue_priority+0x188>
804083a4:	8e030004 	lw	v1,4(s0)
804083a8:	8e070040 	lw	a3,64(s0)
804083ac:	8c860000 	lw	a2,0(a0)
804083b0:	aca40004 	sw	a0,4(a1)
804083b4:	ac640000 	sw	a0,0(v1)
804083b8:	ac830004 	sw	v1,4(a0)
804083bc:	ac850000 	sw	a1,0(a0)
804083c0:	8e030038 	lw	v1,56(s0)
804083c4:	8e020040 	lw	v0,64(s0)
804083c8:	10620006 	beq	v1,v0,804083e4 <_Thread_queue_Dequeue_priority+0xf4>
804083cc:	2483003c 	addiu	v1,a0,60
804083d0:	24820038 	addiu	v0,a0,56
804083d4:	acc20004 	sw	v0,4(a2)
804083d8:	ac860038 	sw	a2,56(a0)
804083dc:	ac870040 	sw	a3,64(a0)
804083e0:	ace30000 	sw	v1,0(a3)
804083e4:	8e030050 	lw	v1,80(s0)
804083e8:	24020002 	li	v0,2
804083ec:	10620012 	beq	v1,v0,80408438 <_Thread_queue_Dequeue_priority+0x148>
804083f0:	24020003 	li	v0,3
804083f4:	40026000 	mfc0	v0,c0_status
804083f8:	00000000 	nop
804083fc:	2403fffe 	li	v1,-2
80408400:	00431024 	and	v0,v0,v1
80408404:	00481025 	or	v0,v0,t0
80408408:	40826000 	mtc0	v0,c0_status
8040840c:	00000000 	nop
80408410:	3c051003 	lui	a1,0x1003
80408414:	02002021 	move	a0,s0
80408418:	0c101e3c 	jal	804078f0 <_Thread_Clear_state>
8040841c:	34a5fff8 	ori	a1,a1,0xfff8
80408420:	8fbf001c 	lw	ra,28(sp)
80408424:	02201021 	move	v0,s1
80408428:	8fb10018 	lw	s1,24(sp)
8040842c:	8fb00014 	lw	s0,20(sp)
80408430:	03e00008 	jr	ra
80408434:	27bd0020 	addiu	sp,sp,32
80408438:	ae020050 	sw	v0,80(s0)
8040843c:	40026000 	mfc0	v0,c0_status
80408440:	00000000 	nop
80408444:	2403fffe 	li	v1,-2
80408448:	00431024 	and	v0,v0,v1
8040844c:	00481025 	or	v0,v0,t0
80408450:	40826000 	mtc0	v0,c0_status
80408454:	00000000 	nop
80408458:	0c102600 	jal	80409800 <_Watchdog_Remove>
8040845c:	26040048 	addiu	a0,s0,72
80408460:	3c051003 	lui	a1,0x1003
80408464:	02002021 	move	a0,s0
80408468:	0c101e3c 	jal	804078f0 <_Thread_Clear_state>
8040846c:	34a5fff8 	ori	a1,a1,0xfff8
80408470:	081020de 	j	80408378 <_Thread_queue_Dequeue_priority+0x88>
80408474:	8fbf001c 	lw	ra,28(sp)
80408478:	aca30004 	sw	v1,4(a1)
8040847c:	081020f9 	j	804083e4 <_Thread_queue_Dequeue_priority+0xf4>
80408480:	ac650000 	sw	a1,0(v1)
	...

80408490 <_Thread_queue_Enqueue_with_handler>:
80408490:	27bdffd0 	addiu	sp,sp,-48
80408494:	3c028041 	lui	v0,0x8041
80408498:	afb0001c 	sw	s0,28(sp)
8040849c:	8c5045d4 	lw	s0,17876(v0)
804084a0:	afb30028 	sw	s3,40(sp)
804084a4:	00a09821 	move	s3,a1
804084a8:	8c850038 	lw	a1,56(a0)
804084ac:	afb10020 	sw	s1,32(sp)
804084b0:	00808821 	move	s1,a0
804084b4:	02002021 	move	a0,s0
804084b8:	afb20024 	sw	s2,36(sp)
804084bc:	afbf002c 	sw	ra,44(sp)
804084c0:	0c1022e8 	jal	80408ba0 <_Thread_Set_state>
804084c4:	00c09021 	move	s2,a2
804084c8:	16600017 	bnez	s3,80408528 <_Thread_queue_Enqueue_with_handler+0x98>
804084cc:	24020001 	li	v0,1
804084d0:	8e230034 	lw	v1,52(s1)
804084d4:	10620022 	beq	v1,v0,80408560 <_Thread_queue_Enqueue_with_handler+0xd0>
804084d8:	3c028041 	lui	v0,0x8041
804084dc:	3c028041 	lui	v0,0x8041
804084e0:	2442d4e0 	addiu	v0,v0,-11040
804084e4:	02202021 	move	a0,s1
804084e8:	02002821 	move	a1,s0
804084ec:	0040f809 	jalr	v0
804084f0:	27a60010 	addiu	a2,sp,16
804084f4:	00402021 	move	a0,v0
804084f8:	24020001 	li	v0,1
804084fc:	10820003 	beq	a0,v0,8040850c <_Thread_queue_Enqueue_with_handler+0x7c>
80408500:	8fa60010 	lw	a2,16(sp)
80408504:	0c101d6c 	jal	804075b0 <_Thread_blocking_operation_Cancel>
80408508:	02002821 	move	a1,s0
8040850c:	8fbf002c 	lw	ra,44(sp)
80408510:	8fb30028 	lw	s3,40(sp)
80408514:	8fb20024 	lw	s2,36(sp)
80408518:	8fb10020 	lw	s1,32(sp)
8040851c:	8fb0001c 	lw	s0,28(sp)
80408520:	03e00008 	jr	ra
80408524:	27bd0030 	addiu	sp,sp,48
80408528:	8e020008 	lw	v0,8(s0)
8040852c:	3c048041 	lui	a0,0x8041
80408530:	ae020068 	sw	v0,104(s0)
80408534:	ae120064 	sw	s2,100(s0)
80408538:	ae130054 	sw	s3,84(s0)
8040853c:	ae000050 	sw	zero,80(s0)
80408540:	ae00006c 	sw	zero,108(s0)
80408544:	248445f4 	addiu	a0,a0,17908
80408548:	0c102564 	jal	80409590 <_Watchdog_Insert>
8040854c:	26050048 	addiu	a1,s0,72
80408550:	8e230034 	lw	v1,52(s1)
80408554:	24020001 	li	v0,1
80408558:	1462ffe0 	bne	v1,v0,804084dc <_Thread_queue_Enqueue_with_handler+0x4c>
8040855c:	3c028041 	lui	v0,0x8041
80408560:	08102139 	j	804084e4 <_Thread_queue_Enqueue_with_handler+0x54>
80408564:	24428570 	addiu	v0,v0,-31376
	...

80408570 <_Thread_queue_Enqueue_priority>:
80408570:	8caa0014 	lw	t2,20(a1)
80408574:	00807021 	move	t6,a0
80408578:	24a2003c 	addiu	v0,a1,60
8040857c:	24a30038 	addiu	v1,a1,56
80408580:	31440020 	andi	a0,t2,0x20
80408584:	aca20038 	sw	v0,56(a1)
80408588:	aca30040 	sw	v1,64(a1)
8040858c:	aca0003c 	sw	zero,60(a1)
80408590:	000a1182 	srl	v0,t2,0x6
80408594:	14800044 	bnez	a0,804086a8 <_Thread_queue_Enqueue_priority+0x138>
80408598:	8dcd0038 	lw	t5,56(t6)
8040859c:	00021900 	sll	v1,v0,0x4
804085a0:	00021080 	sll	v0,v0,0x2
804085a4:	00621023 	subu	v0,v1,v0
804085a8:	01c21021 	addu	v0,t6,v0
804085ac:	00407821 	move	t7,v0
804085b0:	244b0004 	addiu	t3,v0,4
804085b4:	240cfffe 	li	t4,-2
804085b8:	40036000 	mfc0	v1,c0_status
804085bc:	00000000 	nop
804085c0:	006c1024 	and	v0,v1,t4
804085c4:	40826000 	mtc0	v0,c0_status
804085c8:	00000000 	nop
804085cc:	30690001 	andi	t1,v1,0x1
804085d0:	8de70000 	lw	a3,0(t7)
804085d4:	10eb00c2 	beq	a3,t3,804088e0 <_Thread_queue_Enqueue_priority+0x370>
804085d8:	00000000 	nop
804085dc:	8ce80014 	lw	t0,20(a3)
804085e0:	010a102b 	sltu	v0,t0,t2
804085e4:	104000bc 	beqz	v0,804088d8 <_Thread_queue_Enqueue_priority+0x368>
804085e8:	00000000 	nop
804085ec:	8ce70000 	lw	a3,0(a3)
804085f0:	10eb00b9 	beq	a3,t3,804088d8 <_Thread_queue_Enqueue_priority+0x368>
804085f4:	00000000 	nop
804085f8:	8ce80014 	lw	t0,20(a3)
804085fc:	010a102b 	sltu	v0,t0,t2
80408600:	14400011 	bnez	v0,80408648 <_Thread_queue_Enqueue_priority+0xd8>
80408604:	00000000 	nop
80408608:	081021f2 	j	804087c8 <_Thread_queue_Enqueue_priority+0x258>
8040860c:	01205821 	move	t3,t1
80408610:	8ce70000 	lw	a3,0(a3)
80408614:	10eb006a 	beq	a3,t3,804087c0 <_Thread_queue_Enqueue_priority+0x250>
80408618:	00000000 	nop
8040861c:	8ce80014 	lw	t0,20(a3)
80408620:	010a102b 	sltu	v0,t0,t2
80408624:	10400066 	beqz	v0,804087c0 <_Thread_queue_Enqueue_priority+0x250>
80408628:	00000000 	nop
8040862c:	8ce70000 	lw	a3,0(a3)
80408630:	10eb0063 	beq	a3,t3,804087c0 <_Thread_queue_Enqueue_priority+0x250>
80408634:	00000000 	nop
80408638:	8ce80014 	lw	t0,20(a3)
8040863c:	010a102b 	sltu	v0,t0,t2
80408640:	1040005f 	beqz	v0,804087c0 <_Thread_queue_Enqueue_priority+0x250>
80408644:	00000000 	nop
80408648:	40026000 	mfc0	v0,c0_status
8040864c:	00000000 	nop
80408650:	31230001 	andi	v1,t1,0x1
80408654:	004c1024 	and	v0,v0,t4
80408658:	00621825 	or	v1,v1,v0
8040865c:	40836000 	mtc0	v1,c0_status
80408660:	00000000 	nop
80408664:	40046000 	mfc0	a0,c0_status
80408668:	00000000 	nop
8040866c:	008c1024 	and	v0,a0,t4
80408670:	40826000 	mtc0	v0,c0_status
80408674:	00000000 	nop
80408678:	30840001 	andi	a0,a0,0x1
8040867c:	8ce20010 	lw	v0,16(a3)
80408680:	01a21024 	and	v0,t5,v0
80408684:	1440ffe2 	bnez	v0,80408610 <_Thread_queue_Enqueue_priority+0xa0>
80408688:	00804821 	move	t1,a0
8040868c:	40026000 	mfc0	v0,c0_status
80408690:	00000000 	nop
80408694:	004c1024 	and	v0,v0,t4
80408698:	00821025 	or	v0,a0,v0
8040869c:	40826000 	mtc0	v0,c0_status
804086a0:	0810216e 	j	804085b8 <_Thread_queue_Enqueue_priority+0x48>
804086a4:	00000000 	nop
804086a8:	00021900 	sll	v1,v0,0x4
804086ac:	00021080 	sll	v0,v0,0x2
804086b0:	00621023 	subu	v0,v1,v0
804086b4:	01c25821 	addu	t3,t6,v0
804086b8:	3c188041 	lui	t8,0x8041
804086bc:	240cfffe 	li	t4,-2
804086c0:	01607821 	move	t7,t3
804086c4:	93023724 	lbu	v0,14116(t8)
804086c8:	24480001 	addiu	t0,v0,1
804086cc:	40036000 	mfc0	v1,c0_status
804086d0:	00000000 	nop
804086d4:	006c1024 	and	v0,v1,t4
804086d8:	40826000 	mtc0	v0,c0_status
804086dc:	00000000 	nop
804086e0:	30690001 	andi	t1,v1,0x1
804086e4:	8de70008 	lw	a3,8(t7)
804086e8:	11670079 	beq	t3,a3,804088d0 <_Thread_queue_Enqueue_priority+0x360>
804086ec:	00000000 	nop
804086f0:	8ce80014 	lw	t0,20(a3)
804086f4:	0148102b 	sltu	v0,t2,t0
804086f8:	10400075 	beqz	v0,804088d0 <_Thread_queue_Enqueue_priority+0x360>
804086fc:	00000000 	nop
80408700:	8ce70004 	lw	a3,4(a3)
80408704:	11670072 	beq	t3,a3,804088d0 <_Thread_queue_Enqueue_priority+0x360>
80408708:	00000000 	nop
8040870c:	8ce80014 	lw	t0,20(a3)
80408710:	0148102b 	sltu	v0,t2,t0
80408714:	14400011 	bnez	v0,8040875c <_Thread_queue_Enqueue_priority+0x1ec>
80408718:	00000000 	nop
8040871c:	081021fb 	j	804087ec <_Thread_queue_Enqueue_priority+0x27c>
80408720:	01205821 	move	t3,t1
80408724:	8ce70004 	lw	a3,4(a3)
80408728:	10eb002e 	beq	a3,t3,804087e4 <_Thread_queue_Enqueue_priority+0x274>
8040872c:	00000000 	nop
80408730:	8ce80014 	lw	t0,20(a3)
80408734:	0148102b 	sltu	v0,t2,t0
80408738:	1040002a 	beqz	v0,804087e4 <_Thread_queue_Enqueue_priority+0x274>
8040873c:	00000000 	nop
80408740:	8ce70004 	lw	a3,4(a3)
80408744:	10eb0027 	beq	a3,t3,804087e4 <_Thread_queue_Enqueue_priority+0x274>
80408748:	00000000 	nop
8040874c:	8ce80014 	lw	t0,20(a3)
80408750:	0148102b 	sltu	v0,t2,t0
80408754:	10400023 	beqz	v0,804087e4 <_Thread_queue_Enqueue_priority+0x274>
80408758:	00000000 	nop
8040875c:	40026000 	mfc0	v0,c0_status
80408760:	00000000 	nop
80408764:	31230001 	andi	v1,t1,0x1
80408768:	004c1024 	and	v0,v0,t4
8040876c:	00621825 	or	v1,v1,v0
80408770:	40836000 	mtc0	v1,c0_status
80408774:	00000000 	nop
80408778:	40046000 	mfc0	a0,c0_status
8040877c:	00000000 	nop
80408780:	008c1024 	and	v0,a0,t4
80408784:	40826000 	mtc0	v0,c0_status
80408788:	00000000 	nop
8040878c:	30840001 	andi	a0,a0,0x1
80408790:	8ce20010 	lw	v0,16(a3)
80408794:	01a21024 	and	v0,t5,v0
80408798:	1440ffe2 	bnez	v0,80408724 <_Thread_queue_Enqueue_priority+0x1b4>
8040879c:	00804821 	move	t1,a0
804087a0:	40026000 	mfc0	v0,c0_status
804087a4:	00000000 	nop
804087a8:	004c1024 	and	v0,v0,t4
804087ac:	00821025 	or	v0,a0,v0
804087b0:	40826000 	mtc0	v0,c0_status
804087b4:	00000000 	nop
804087b8:	081021b2 	j	804086c8 <_Thread_queue_Enqueue_priority+0x158>
804087bc:	93023724 	lbu	v0,14116(t8)
804087c0:	00804821 	move	t1,a0
804087c4:	00805821 	move	t3,a0
804087c8:	8dc30030 	lw	v1,48(t6)
804087cc:	24020001 	li	v0,1
804087d0:	1062001c 	beq	v1,v0,80408844 <_Thread_queue_Enqueue_priority+0x2d4>
804087d4:	00000000 	nop
804087d8:	accb0000 	sw	t3,0(a2)
804087dc:	03e00008 	jr	ra
804087e0:	00601021 	move	v0,v1
804087e4:	00804821 	move	t1,a0
804087e8:	00805821 	move	t3,a0
804087ec:	8dc30030 	lw	v1,48(t6)
804087f0:	24020001 	li	v0,1
804087f4:	1462fff8 	bne	v1,v0,804087d8 <_Thread_queue_Enqueue_priority+0x268>
804087f8:	00000000 	nop
804087fc:	11480023 	beq	t2,t0,8040888c <_Thread_queue_Enqueue_priority+0x31c>
80408800:	adc00030 	sw	zero,48(t6)
80408804:	8ce20000 	lw	v0,0(a3)
80408808:	aca70004 	sw	a3,4(a1)
8040880c:	aca20000 	sw	v0,0(a1)
80408810:	acae0044 	sw	t6,68(a1)
80408814:	ace50000 	sw	a1,0(a3)
80408818:	ac450004 	sw	a1,4(v0)
8040881c:	40026000 	mfc0	v0,c0_status
80408820:	00000000 	nop
80408824:	2403fffe 	li	v1,-2
80408828:	00431024 	and	v0,v0,v1
8040882c:	31240001 	andi	a0,t1,0x1
80408830:	00441025 	or	v0,v0,a0
80408834:	40826000 	mtc0	v0,c0_status
80408838:	00000000 	nop
8040883c:	03e00008 	jr	ra
80408840:	24020001 	li	v0,1
80408844:	11480011 	beq	t2,t0,8040888c <_Thread_queue_Enqueue_priority+0x31c>
80408848:	adc00030 	sw	zero,48(t6)
8040884c:	8ce20004 	lw	v0,4(a3)
80408850:	aca70000 	sw	a3,0(a1)
80408854:	aca20004 	sw	v0,4(a1)
80408858:	acae0044 	sw	t6,68(a1)
8040885c:	ac450000 	sw	a1,0(v0)
80408860:	ace50004 	sw	a1,4(a3)
80408864:	40026000 	mfc0	v0,c0_status
80408868:	00000000 	nop
8040886c:	2403fffe 	li	v1,-2
80408870:	00431024 	and	v0,v0,v1
80408874:	31240001 	andi	a0,t1,0x1
80408878:	00441025 	or	v0,v0,a0
8040887c:	40826000 	mtc0	v0,c0_status
80408880:	00000000 	nop
80408884:	03e00008 	jr	ra
80408888:	24020001 	li	v0,1
8040888c:	24e2003c 	addiu	v0,a3,60
80408890:	8c430004 	lw	v1,4(v0)
80408894:	aca20000 	sw	v0,0(a1)
80408898:	aca30004 	sw	v1,4(a1)
8040889c:	acae0044 	sw	t6,68(a1)
804088a0:	ac650000 	sw	a1,0(v1)
804088a4:	ac450004 	sw	a1,4(v0)
804088a8:	40036000 	mfc0	v1,c0_status
804088ac:	00000000 	nop
804088b0:	2404fffe 	li	a0,-2
804088b4:	00641824 	and	v1,v1,a0
804088b8:	31620001 	andi	v0,t3,0x1
804088bc:	00431025 	or	v0,v0,v1
804088c0:	40826000 	mtc0	v0,c0_status
804088c4:	00000000 	nop
804088c8:	03e00008 	jr	ra
804088cc:	24020001 	li	v0,1
804088d0:	081021fb 	j	804087ec <_Thread_queue_Enqueue_priority+0x27c>
804088d4:	01205821 	move	t3,t1
804088d8:	081021f2 	j	804087c8 <_Thread_queue_Enqueue_priority+0x258>
804088dc:	01205821 	move	t3,t1
804088e0:	01205821 	move	t3,t1
804088e4:	081021f2 	j	804087c8 <_Thread_queue_Enqueue_priority+0x258>
804088e8:	2408ffff 	li	t0,-1
804088ec:	00000000 	nop

804088f0 <_Thread_queue_Extract_with_proxy>:
804088f0:	8c830010 	lw	v1,16(a0)
804088f4:	3c020003 	lui	v0,0x3
804088f8:	3442bee0 	ori	v0,v0,0xbee0
804088fc:	27bdffe8 	addiu	sp,sp,-24
80408900:	00621824 	and	v1,v1,v0
80408904:	afbf0014 	sw	ra,20(sp)
80408908:	14600005 	bnez	v1,80408920 <_Thread_queue_Extract_with_proxy+0x30>
8040890c:	00802821 	move	a1,a0
80408910:	8fbf0014 	lw	ra,20(sp)
80408914:	00001021 	move	v0,zero
80408918:	03e00008 	jr	ra
8040891c:	27bd0018 	addiu	sp,sp,24
80408920:	0c103558 	jal	8040d560 <_Thread_queue_Extract>
80408924:	8c840044 	lw	a0,68(a0)
80408928:	8fbf0014 	lw	ra,20(sp)
8040892c:	24020001 	li	v0,1
80408930:	03e00008 	jr	ra
80408934:	27bd0018 	addiu	sp,sp,24
	...

80408940 <_Thread_queue_Flush>:
80408940:	27bdffe0 	addiu	sp,sp,-32
80408944:	afb10018 	sw	s1,24(sp)
80408948:	afb00014 	sw	s0,20(sp)
8040894c:	afbf001c 	sw	ra,28(sp)
80408950:	00808821 	move	s1,a0
80408954:	08102258 	j	80408960 <_Thread_queue_Flush+0x20>
80408958:	00c08021 	move	s0,a2
8040895c:	ac500034 	sw	s0,52(v0)
80408960:	0c102084 	jal	80408210 <_Thread_queue_Dequeue>
80408964:	02202021 	move	a0,s1
80408968:	1440fffc 	bnez	v0,8040895c <_Thread_queue_Flush+0x1c>
8040896c:	8fbf001c 	lw	ra,28(sp)
80408970:	8fb10018 	lw	s1,24(sp)
80408974:	8fb00014 	lw	s0,20(sp)
80408978:	03e00008 	jr	ra
8040897c:	27bd0020 	addiu	sp,sp,32

80408980 <_Thread_queue_Initialize>:
80408980:	24020001 	li	v0,1
80408984:	00804821 	move	t1,a0
80408988:	ac860038 	sw	a2,56(a0)
8040898c:	ac87003c 	sw	a3,60(a0)
80408990:	ac850034 	sw	a1,52(a0)
80408994:	10a20006 	beq	a1,v0,804089b0 <_Thread_queue_Initialize+0x30>
80408998:	ac800030 	sw	zero,48(a0)
8040899c:	24820004 	addiu	v0,a0,4
804089a0:	ac820000 	sw	v0,0(a0)
804089a4:	ad240008 	sw	a0,8(t1)
804089a8:	03e00008 	jr	ra
804089ac:	ac800004 	sw	zero,4(a0)
804089b0:	24830004 	addiu	v1,a0,4
804089b4:	2525000c 	addiu	a1,t1,12
804089b8:	24840010 	addiu	a0,a0,16
804089bc:	2526001c 	addiu	a2,t1,28
804089c0:	25270018 	addiu	a3,t1,24
804089c4:	25280028 	addiu	t0,t1,40
804089c8:	25220024 	addiu	v0,t1,36
804089cc:	ad22002c 	sw	v0,44(t1)
804089d0:	ad230000 	sw	v1,0(t1)
804089d4:	ad24000c 	sw	a0,12(t1)
804089d8:	ad250014 	sw	a1,20(t1)
804089dc:	ad260018 	sw	a2,24(t1)
804089e0:	ad270020 	sw	a3,32(t1)
804089e4:	ad280024 	sw	t0,36(t1)
804089e8:	ad200004 	sw	zero,4(t1)
804089ec:	ad290008 	sw	t1,8(t1)
804089f0:	ad200010 	sw	zero,16(t1)
804089f4:	ad20001c 	sw	zero,28(t1)
804089f8:	03e00008 	jr	ra
804089fc:	ad200028 	sw	zero,40(t1)

80408a00 <_Thread_queue_Requeue>:
80408a00:	27bdffd8 	addiu	sp,sp,-40
80408a04:	afb1001c 	sw	s1,28(sp)
80408a08:	afb00018 	sw	s0,24(sp)
80408a0c:	afbf0024 	sw	ra,36(sp)
80408a10:	afb20020 	sw	s2,32(sp)
80408a14:	00808021 	move	s0,a0
80408a18:	10800005 	beqz	a0,80408a30 <_Thread_queue_Requeue+0x30>
80408a1c:	00a08821 	move	s1,a1
80408a20:	8c830034 	lw	v1,52(a0)
80408a24:	24020001 	li	v0,1
80408a28:	10620007 	beq	v1,v0,80408a48 <_Thread_queue_Requeue+0x48>
80408a2c:	00000000 	nop
80408a30:	8fbf0024 	lw	ra,36(sp)
80408a34:	8fb20020 	lw	s2,32(sp)
80408a38:	8fb1001c 	lw	s1,28(sp)
80408a3c:	8fb00018 	lw	s0,24(sp)
80408a40:	03e00008 	jr	ra
80408a44:	27bd0028 	addiu	sp,sp,40
80408a48:	40126000 	mfc0	s2,c0_status
80408a4c:	00000000 	nop
80408a50:	2402fffe 	li	v0,-2
80408a54:	02421024 	and	v0,s2,v0
80408a58:	40826000 	mtc0	v0,c0_status
80408a5c:	00000000 	nop
80408a60:	3c020003 	lui	v0,0x3
80408a64:	8ca30010 	lw	v1,16(a1)
80408a68:	3442bee0 	ori	v0,v0,0xbee0
80408a6c:	00621824 	and	v1,v1,v0
80408a70:	1460000f 	bnez	v1,80408ab0 <_Thread_queue_Requeue+0xb0>
80408a74:	24020001 	li	v0,1
80408a78:	40026000 	mfc0	v0,c0_status
80408a7c:	00000000 	nop
80408a80:	2403fffe 	li	v1,-2
80408a84:	00431024 	and	v0,v0,v1
80408a88:	32440001 	andi	a0,s2,0x1
80408a8c:	00441025 	or	v0,v0,a0
80408a90:	40826000 	mtc0	v0,c0_status
80408a94:	00000000 	nop
80408a98:	8fbf0024 	lw	ra,36(sp)
80408a9c:	8fb20020 	lw	s2,32(sp)
80408aa0:	8fb1001c 	lw	s1,28(sp)
80408aa4:	8fb00018 	lw	s0,24(sp)
80408aa8:	03e00008 	jr	ra
80408aac:	27bd0028 	addiu	sp,sp,40
80408ab0:	ac820030 	sw	v0,48(a0)
80408ab4:	0c103560 	jal	8040d580 <_Thread_queue_Extract_priority_helper>
80408ab8:	24060001 	li	a2,1
80408abc:	02002021 	move	a0,s0
80408ac0:	02202821 	move	a1,s1
80408ac4:	0c10215c 	jal	80408570 <_Thread_queue_Enqueue_priority>
80408ac8:	27a60010 	addiu	a2,sp,16
80408acc:	0810229e 	j	80408a78 <_Thread_queue_Requeue+0x78>
80408ad0:	00000000 	nop
	...

80408ae0 <_Thread_queue_Timeout>:
80408ae0:	27bdffe0 	addiu	sp,sp,-32
80408ae4:	afbf001c 	sw	ra,28(sp)
80408ae8:	0c101f98 	jal	80407e60 <_Thread_Get>
80408aec:	27a50010 	addiu	a1,sp,16
80408af0:	00402021 	move	a0,v0
80408af4:	8fa20010 	lw	v0,16(sp)
80408af8:	14400008 	bnez	v0,80408b1c <_Thread_queue_Timeout+0x3c>
80408afc:	8fbf001c 	lw	ra,28(sp)
80408b00:	0c1035c0 	jal	8040d700 <_Thread_queue_Process_timeout>
80408b04:	00000000 	nop
80408b08:	3c038041 	lui	v1,0x8041
80408b0c:	8c624514 	lw	v0,17684(v1)
80408b10:	2442ffff 	addiu	v0,v0,-1
80408b14:	ac624514 	sw	v0,17684(v1)
80408b18:	8fbf001c 	lw	ra,28(sp)
80408b1c:	03e00008 	jr	ra
80408b20:	27bd0020 	addiu	sp,sp,32
	...

80408b30 <_Thread_Set_priority>:
80408b30:	3c028041 	lui	v0,0x8041
80408b34:	00053902 	srl	a3,a1,0x4
80408b38:	8c4944c0 	lw	t1,17600(v0)
80408b3c:	30e7ffff 	andi	a3,a3,0xffff
80408b40:	34068000 	li	a2,0x8000
80408b44:	00051880 	sll	v1,a1,0x2
80408b48:	30a8000f 	andi	t0,a1,0xf
80408b4c:	00051100 	sll	v0,a1,0x4
80408b50:	00431023 	subu	v0,v0,v1
80408b54:	01064007 	srav	t0,a2,t0
80408b58:	3c038041 	lui	v1,0x8041
80408b5c:	00e63007 	srav	a2,a2,a3
80408b60:	30c6ffff 	andi	a2,a2,0xffff
80408b64:	3108ffff 	andi	t0,t0,0xffff
80408b68:	00073840 	sll	a3,a3,0x1
80408b6c:	24634640 	addiu	v1,v1,17984
80408b70:	01224821 	addu	t1,t1,v0
80408b74:	00671821 	addu	v1,v1,a3
80408b78:	00081027 	nor	v0,zero,t0
80408b7c:	00063827 	nor	a3,zero,a2
80408b80:	a482009a 	sh	v0,154(a0)
80408b84:	ac89008c 	sw	t1,140(a0)
80408b88:	ac830090 	sw	v1,144(a0)
80408b8c:	a4870098 	sh	a3,152(a0)
80408b90:	ac850014 	sw	a1,20(a0)
80408b94:	a4860094 	sh	a2,148(a0)
80408b98:	03e00008 	jr	ra
80408b9c:	a4880096 	sh	t0,150(a0)

80408ba0 <_Thread_Set_state>:
80408ba0:	00803821 	move	a3,a0
80408ba4:	8c86008c 	lw	a2,140(a0)
80408ba8:	40036000 	mfc0	v1,c0_status
80408bac:	00000000 	nop
80408bb0:	2402fffe 	li	v0,-2
80408bb4:	00621024 	and	v0,v1,v0
80408bb8:	40826000 	mtc0	v0,c0_status
80408bbc:	00000000 	nop
80408bc0:	30680001 	andi	t0,v1,0x1
80408bc4:	8c820010 	lw	v0,16(a0)
80408bc8:	14400027 	bnez	v0,80408c68 <_Thread_Set_state+0xc8>
80408bcc:	00a21025 	or	v0,a1,v0
80408bd0:	8cc30000 	lw	v1,0(a2)
80408bd4:	8cc20008 	lw	v0,8(a2)
80408bd8:	1062002c 	beq	v1,v0,80408c8c <_Thread_Set_state+0xec>
80408bdc:	ac850010 	sw	a1,16(a0)
80408be0:	8c830000 	lw	v1,0(a0)
80408be4:	8c820004 	lw	v0,4(a0)
80408be8:	ac430000 	sw	v1,0(v0)
80408bec:	ac620004 	sw	v0,4(v1)
80408bf0:	40026000 	mfc0	v0,c0_status
80408bf4:	00000000 	nop
80408bf8:	2403fffe 	li	v1,-2
80408bfc:	00431024 	and	v0,v0,v1
80408c00:	00481025 	or	v0,v0,t0
80408c04:	40826000 	mtc0	v0,c0_status
80408c08:	00000000 	nop
80408c0c:	40066000 	mfc0	a2,c0_status
80408c10:	00000000 	nop
80408c14:	2402fffe 	li	v0,-2
80408c18:	00c21024 	and	v0,a2,v0
80408c1c:	40826000 	mtc0	v0,c0_status
80408c20:	00000000 	nop
80408c24:	3c088041 	lui	t0,0x8041
80408c28:	8d0245a0 	lw	v0,17824(t0)
80408c2c:	10e2002b 	beq	a3,v0,80408cdc <_Thread_Set_state+0x13c>
80408c30:	3c028041 	lui	v0,0x8041
80408c34:	3c028041 	lui	v0,0x8041
80408c38:	8c4345d4 	lw	v1,17876(v0)
80408c3c:	10e30024 	beq	a3,v1,80408cd0 <_Thread_Set_state+0x130>
80408c40:	24030001 	li	v1,1
80408c44:	40026000 	mfc0	v0,c0_status
80408c48:	00000000 	nop
80408c4c:	2403fffe 	li	v1,-2
80408c50:	00431024 	and	v0,v0,v1
80408c54:	30c40001 	andi	a0,a2,0x1
80408c58:	00441025 	or	v0,v0,a0
80408c5c:	40826000 	mtc0	v0,c0_status
80408c60:	03e00008 	jr	ra
80408c64:	00000000 	nop
80408c68:	ac820010 	sw	v0,16(a0)
80408c6c:	40026000 	mfc0	v0,c0_status
80408c70:	00000000 	nop
80408c74:	2403fffe 	li	v1,-2
80408c78:	00431024 	and	v0,v0,v1
80408c7c:	00481025 	or	v0,v0,t0
80408c80:	40826000 	mtc0	v0,c0_status
80408c84:	03e00008 	jr	ra
80408c88:	00000000 	nop
80408c8c:	8c830090 	lw	v1,144(a0)
80408c90:	9484009a 	lhu	a0,154(a0)
80408c94:	94620000 	lhu	v0,0(v1)
80408c98:	24c50004 	addiu	a1,a2,4
80408c9c:	00441024 	and	v0,v0,a0
80408ca0:	3044ffff 	andi	a0,v0,0xffff
80408ca4:	a4620000 	sh	v0,0(v1)
80408ca8:	acc50000 	sw	a1,0(a2)
80408cac:	acc60008 	sw	a2,8(a2)
80408cb0:	1480ffcf 	bnez	a0,80408bf0 <_Thread_Set_state+0x50>
80408cb4:	acc00004 	sw	zero,4(a2)
80408cb8:	3c048041 	lui	a0,0x8041
80408cbc:	948345c8 	lhu	v1,17864(a0)
80408cc0:	94e20098 	lhu	v0,152(a3)
80408cc4:	00431024 	and	v0,v0,v1
80408cc8:	081022fc 	j	80408bf0 <_Thread_Set_state+0x50>
80408ccc:	a48245c8 	sh	v0,17864(a0)
80408cd0:	3c028041 	lui	v0,0x8041
80408cd4:	08102311 	j	80408c44 <_Thread_Set_state+0xa4>
80408cd8:	a04345e4 	sb	v1,17892(v0)
80408cdc:	944345c8 	lhu	v1,17864(v0)
80408ce0:	3c028041 	lui	v0,0x8041
80408ce4:	3063ffff 	andi	v1,v1,0xffff
80408ce8:	2c640100 	sltiu	a0,v1,256
80408cec:	1480001a 	bnez	a0,80408d58 <_Thread_Set_state+0x1b8>
80408cf0:	8c4944c0 	lw	t1,17600(v0)
80408cf4:	3c058041 	lui	a1,0x8041
80408cf8:	00031202 	srl	v0,v1,0x8
80408cfc:	24a52760 	addiu	a1,a1,10080
80408d00:	00a21021 	addu	v0,a1,v0
80408d04:	90440000 	lbu	a0,0(v0)
80408d08:	3c038041 	lui	v1,0x8041
80408d0c:	24634640 	addiu	v1,v1,17984
80408d10:	00041040 	sll	v0,a0,0x1
80408d14:	00431021 	addu	v0,v0,v1
80408d18:	94420000 	lhu	v0,0(v0)
80408d1c:	2c430100 	sltiu	v1,v0,256
80408d20:	10600013 	beqz	v1,80408d70 <_Thread_Set_state+0x1d0>
80408d24:	00000000 	nop
80408d28:	00a21021 	addu	v0,a1,v0
80408d2c:	90430000 	lbu	v1,0(v0)
80408d30:	24630008 	addiu	v1,v1,8
80408d34:	00041100 	sll	v0,a0,0x4
80408d38:	00621021 	addu	v0,v1,v0
80408d3c:	00021900 	sll	v1,v0,0x4
80408d40:	00021080 	sll	v0,v0,0x2
80408d44:	00621823 	subu	v1,v1,v0
80408d48:	01231821 	addu	v1,t1,v1
80408d4c:	8c620000 	lw	v0,0(v1)
80408d50:	0810230d 	j	80408c34 <_Thread_Set_state+0x94>
80408d54:	ad0245a0 	sw	v0,17824(t0)
80408d58:	3c058041 	lui	a1,0x8041
80408d5c:	24a52760 	addiu	a1,a1,10080
80408d60:	00a31021 	addu	v0,a1,v1
80408d64:	90430000 	lbu	v1,0(v0)
80408d68:	08102342 	j	80408d08 <_Thread_Set_state+0x168>
80408d6c:	24640008 	addiu	a0,v1,8
80408d70:	00021202 	srl	v0,v0,0x8
80408d74:	00a21021 	addu	v0,a1,v0
80408d78:	0810234d 	j	80408d34 <_Thread_Set_state+0x194>
80408d7c:	90430000 	lbu	v1,0(v0)

80408d80 <_Thread_Set_transient>:
80408d80:	00803821 	move	a3,a0
80408d84:	8c86008c 	lw	a2,140(a0)
80408d88:	40086000 	mfc0	t0,c0_status
80408d8c:	00000000 	nop
80408d90:	2402fffe 	li	v0,-2
80408d94:	01021024 	and	v0,t0,v0
80408d98:	40826000 	mtc0	v0,c0_status
80408d9c:	00000000 	nop
80408da0:	8c830010 	lw	v1,16(a0)
80408da4:	34620004 	ori	v0,v1,0x4
80408da8:	14600009 	bnez	v1,80408dd0 <_Thread_Set_transient+0x50>
80408dac:	ac820010 	sw	v0,16(a0)
80408db0:	8cc30000 	lw	v1,0(a2)
80408db4:	8cc20008 	lw	v0,8(a2)
80408db8:	1062000f 	beq	v1,v0,80408df8 <_Thread_Set_transient+0x78>
80408dbc:	24c50004 	addiu	a1,a2,4
80408dc0:	8c830004 	lw	v1,4(a0)
80408dc4:	8c820000 	lw	v0,0(a0)
80408dc8:	ac620000 	sw	v0,0(v1)
80408dcc:	ac430004 	sw	v1,4(v0)
80408dd0:	40026000 	mfc0	v0,c0_status
80408dd4:	00000000 	nop
80408dd8:	2403fffe 	li	v1,-2
80408ddc:	00431024 	and	v0,v0,v1
80408de0:	31040001 	andi	a0,t0,0x1
80408de4:	00441025 	or	v0,v0,a0
80408de8:	40826000 	mtc0	v0,c0_status
80408dec:	00000000 	nop
80408df0:	03e00008 	jr	ra
80408df4:	00000000 	nop
80408df8:	8c830090 	lw	v1,144(a0)
80408dfc:	9484009a 	lhu	a0,154(a0)
80408e00:	94620000 	lhu	v0,0(v1)
80408e04:	00441024 	and	v0,v0,a0
80408e08:	3044ffff 	andi	a0,v0,0xffff
80408e0c:	a4620000 	sh	v0,0(v1)
80408e10:	acc50000 	sw	a1,0(a2)
80408e14:	acc60008 	sw	a2,8(a2)
80408e18:	1480ffed 	bnez	a0,80408dd0 <_Thread_Set_transient+0x50>
80408e1c:	acc00004 	sw	zero,4(a2)
80408e20:	3c028041 	lui	v0,0x8041
80408e24:	94e30098 	lhu	v1,152(a3)
80408e28:	944445c8 	lhu	a0,17864(v0)
80408e2c:	00641824 	and	v1,v1,a0
80408e30:	08102374 	j	80408dd0 <_Thread_Set_transient+0x50>
80408e34:	a44345c8 	sh	v1,17864(v0)
	...

80408e40 <_Thread_Stack_Allocate>:
80408e40:	3c028041 	lui	v0,0x8041
80408e44:	8c4745ac 	lw	a3,17836(v0)
80408e48:	3c038041 	lui	v1,0x8041
80408e4c:	8c663720 	lw	a2,14112(v1)
80408e50:	27bdffe0 	addiu	sp,sp,-32
80408e54:	8ce30020 	lw	v1,32(a3)
80408e58:	afb00014 	sw	s0,20(sp)
80408e5c:	00a6102b 	sltu	v0,a1,a2
80408e60:	00c08021 	move	s0,a2
80408e64:	afb10018 	sw	s1,24(sp)
80408e68:	afbf001c 	sw	ra,28(sp)
80408e6c:	00a2800a 	movz	s0,a1,v0
80408e70:	1060000b 	beqz	v1,80408ea0 <_Thread_Stack_Allocate+0x60>
80408e74:	00808821 	move	s1,a0
80408e78:	0060f809 	jalr	v1
80408e7c:	02002021 	move	a0,s0
80408e80:	8fbf001c 	lw	ra,28(sp)
80408e84:	0002800a 	movz	s0,zero,v0
80408e88:	ae2200cc 	sw	v0,204(s1)
80408e8c:	02001021 	move	v0,s0
80408e90:	8fb10018 	lw	s1,24(sp)
80408e94:	8fb00014 	lw	s0,20(sp)
80408e98:	03e00008 	jr	ra
80408e9c:	27bd0020 	addiu	sp,sp,32
80408ea0:	26100008 	addiu	s0,s0,8
80408ea4:	0c102650 	jal	80409940 <_Workspace_Allocate>
80408ea8:	02002021 	move	a0,s0
80408eac:	8fbf001c 	lw	ra,28(sp)
80408eb0:	0002800a 	movz	s0,zero,v0
80408eb4:	ae2200cc 	sw	v0,204(s1)
80408eb8:	02001021 	move	v0,s0
80408ebc:	8fb10018 	lw	s1,24(sp)
80408ec0:	8fb00014 	lw	s0,20(sp)
80408ec4:	03e00008 	jr	ra
80408ec8:	27bd0020 	addiu	sp,sp,32
80408ecc:	00000000 	nop

80408ed0 <_Thread_Stack_Free>:
80408ed0:	908200c0 	lbu	v0,192(a0)
80408ed4:	10400007 	beqz	v0,80408ef4 <_Thread_Stack_Free+0x24>
80408ed8:	3c028041 	lui	v0,0x8041
80408edc:	8c4345ac 	lw	v1,17836(v0)
80408ee0:	8c790024 	lw	t9,36(v1)
80408ee4:	13200005 	beqz	t9,80408efc <_Thread_Stack_Free+0x2c>
80408ee8:	00000000 	nop
80408eec:	03200008 	jr	t9
80408ef0:	8c8400c8 	lw	a0,200(a0)
80408ef4:	03e00008 	jr	ra
80408ef8:	00000000 	nop
80408efc:	0810264c 	j	80409930 <_Workspace_Free>
80408f00:	8c8400c8 	lw	a0,200(a0)
	...

80408f10 <_Thread_Start_multitasking>:
80408f10:	3c028041 	lui	v0,0x8041
80408f14:	8c4745a0 	lw	a3,17824(v0)
80408f18:	3c048041 	lui	a0,0x8041
80408f1c:	3c028041 	lui	v0,0x8041
80408f20:	24060003 	li	a2,3
80408f24:	ac4646b4 	sw	a2,18100(v0)
80408f28:	3c038041 	lui	v1,0x8041
80408f2c:	3c028041 	lui	v0,0x8041
80408f30:	248444e0 	addiu	a0,a0,17632
80408f34:	24e500d0 	addiu	a1,a3,208
80408f38:	a06045e4 	sb	zero,17892(v1)
80408f3c:	08102688 	j	80409a20 <_CPU_Context_switch>
80408f40:	ac4745d4 	sw	a3,17876(v0)
	...

80408f50 <_Thread_Start>:
80408f50:	8c820010 	lw	v0,16(a0)
80408f54:	27bdffe8 	addiu	sp,sp,-24
80408f58:	30420001 	andi	v0,v0,0x1
80408f5c:	afb00010 	sw	s0,16(sp)
80408f60:	afbf0014 	sw	ra,20(sp)
80408f64:	1040000c 	beqz	v0,80408f98 <_Thread_Start+0x48>
80408f68:	00808021 	move	s0,a0
80408f6c:	8fa20028 	lw	v0,40(sp)
80408f70:	ac86009c 	sw	a2,156(a0)
80408f74:	ac8200a8 	sw	v0,168(a0)
80408f78:	ac8500a0 	sw	a1,160(a0)
80408f7c:	0c1034b8 	jal	8040d2e0 <_Thread_Load_environment>
80408f80:	ac8700a4 	sw	a3,164(a0)
80408f84:	0c1035d4 	jal	8040d750 <_Thread_Ready>
80408f88:	02002021 	move	a0,s0
80408f8c:	0c10252c 	jal	804094b0 <_User_extensions_Thread_start>
80408f90:	02002021 	move	a0,s0
80408f94:	24020001 	li	v0,1
80408f98:	8fbf0014 	lw	ra,20(sp)
80408f9c:	8fb00010 	lw	s0,16(sp)
80408fa0:	03e00008 	jr	ra
80408fa4:	27bd0018 	addiu	sp,sp,24
	...

80408fb0 <_Thread_Yield_processor>:
80408fb0:	3c028041 	lui	v0,0x8041
80408fb4:	8c4545d4 	lw	a1,17876(v0)
80408fb8:	8ca6008c 	lw	a2,140(a1)
80408fbc:	40036000 	mfc0	v1,c0_status
80408fc0:	00000000 	nop
80408fc4:	2402fffe 	li	v0,-2
80408fc8:	00621024 	and	v0,v1,v0
80408fcc:	40826000 	mtc0	v0,c0_status
80408fd0:	00000000 	nop
80408fd4:	30670001 	andi	a3,v1,0x1
80408fd8:	8cc30000 	lw	v1,0(a2)
80408fdc:	8cc20008 	lw	v0,8(a2)
80408fe0:	10620028 	beq	v1,v0,80409084 <_Thread_Yield_processor+0xd4>
80408fe4:	24c20004 	addiu	v0,a2,4
80408fe8:	8ca40000 	lw	a0,0(a1)
80408fec:	8ca30004 	lw	v1,4(a1)
80408ff0:	ac640000 	sw	a0,0(v1)
80408ff4:	ac830004 	sw	v1,4(a0)
80408ff8:	aca20000 	sw	v0,0(a1)
80408ffc:	8cc20008 	lw	v0,8(a2)
80409000:	acc50008 	sw	a1,8(a2)
80409004:	aca20004 	sw	v0,4(a1)
80409008:	ac450000 	sw	a1,0(v0)
8040900c:	40026000 	mfc0	v0,c0_status
80409010:	00000000 	nop
80409014:	2403fffe 	li	v1,-2
80409018:	00431024 	and	v0,v0,v1
8040901c:	00471025 	or	v0,v0,a3
80409020:	40826000 	mtc0	v0,c0_status
80409024:	00000000 	nop
80409028:	40076000 	mfc0	a3,c0_status
8040902c:	00000000 	nop
80409030:	2402fffe 	li	v0,-2
80409034:	00e21024 	and	v0,a3,v0
80409038:	40826000 	mtc0	v0,c0_status
8040903c:	00000000 	nop
80409040:	3c048041 	lui	a0,0x8041
80409044:	8c8245a0 	lw	v0,17824(a0)
80409048:	10a2001d 	beq	a1,v0,804090c0 <_Thread_Yield_processor+0x110>
8040904c:	00000000 	nop
80409050:	24030001 	li	v1,1
80409054:	3c028041 	lui	v0,0x8041
80409058:	a04345e4 	sb	v1,17892(v0)
8040905c:	30e70001 	andi	a3,a3,0x1
80409060:	40026000 	mfc0	v0,c0_status
80409064:	00000000 	nop
80409068:	2403fffe 	li	v1,-2
8040906c:	00431024 	and	v0,v0,v1
80409070:	00e21025 	or	v0,a3,v0
80409074:	40826000 	mtc0	v0,c0_status
80409078:	00000000 	nop
8040907c:	03e00008 	jr	ra
80409080:	00000000 	nop
80409084:	3c028041 	lui	v0,0x8041
80409088:	8c4345a0 	lw	v1,17824(v0)
8040908c:	10a3fff4 	beq	a1,v1,80409060 <_Thread_Yield_processor+0xb0>
80409090:	24030001 	li	v1,1
80409094:	3c028041 	lui	v0,0x8041
80409098:	a04345e4 	sb	v1,17892(v0)
8040909c:	40026000 	mfc0	v0,c0_status
804090a0:	00000000 	nop
804090a4:	2403fffe 	li	v1,-2
804090a8:	00431024 	and	v0,v0,v1
804090ac:	00e21025 	or	v0,a3,v0
804090b0:	40826000 	mtc0	v0,c0_status
804090b4:	00000000 	nop
804090b8:	03e00008 	jr	ra
804090bc:	00000000 	nop
804090c0:	8cc20000 	lw	v0,0(a2)
804090c4:	08102414 	j	80409050 <_Thread_Yield_processor+0xa0>
804090c8:	ac8245a0 	sw	v0,17824(a0)
804090cc:	00000000 	nop

804090d0 <_Timespec_Add_to>:
804090d0:	8ca30004 	lw	v1,4(a1)
804090d4:	8c820004 	lw	v0,4(a0)
804090d8:	8ca50000 	lw	a1,0(a1)
804090dc:	00621821 	addu	v1,v1,v0
804090e0:	8c870000 	lw	a3,0(a0)
804090e4:	3c023b9a 	lui	v0,0x3b9a
804090e8:	3448ca00 	ori	t0,v0,0xca00
804090ec:	00e53821 	addu	a3,a3,a1
804090f0:	0068102b 	sltu	v0,v1,t0
804090f4:	00603021 	move	a2,v1
804090f8:	ac870000 	sw	a3,0(a0)
804090fc:	1440000b 	bnez	v0,8040912c <_Timespec_Add_to+0x5c>
80409100:	ac830004 	sw	v1,4(a0)
80409104:	3c02c465 	lui	v0,0xc465
80409108:	34493600 	ori	t1,v0,0x3600
8040910c:	00c91021 	addu	v0,a2,t1
80409110:	24e70001 	addiu	a3,a3,1
80409114:	0048182b 	sltu	v1,v0,t0
80409118:	00403021 	move	a2,v0
8040911c:	ac820004 	sw	v0,4(a0)
80409120:	ac870000 	sw	a3,0(a0)
80409124:	1060fff9 	beqz	v1,8040910c <_Timespec_Add_to+0x3c>
80409128:	24a50001 	addiu	a1,a1,1
8040912c:	03e00008 	jr	ra
80409130:	00a01021 	move	v0,a1
	...

80409140 <_Timespec_Subtract>:
80409140:	8ca70004 	lw	a3,4(a1)
80409144:	8c880004 	lw	t0,4(a0)
80409148:	00e8102a 	slt	v0,a3,t0
8040914c:	14400008 	bnez	v0,80409170 <_Timespec_Subtract+0x30>
80409150:	3c033b9a 	lui	v1,0x3b9a
80409154:	8c830000 	lw	v1,0(a0)
80409158:	8ca20000 	lw	v0,0(a1)
8040915c:	00e82023 	subu	a0,a3,t0
80409160:	00431023 	subu	v0,v0,v1
80409164:	acc40004 	sw	a0,4(a2)
80409168:	03e00008 	jr	ra
8040916c:	acc20000 	sw	v0,0(a2)
80409170:	8ca20000 	lw	v0,0(a1)
80409174:	8c840000 	lw	a0,0(a0)
80409178:	3463ca00 	ori	v1,v1,0xca00
8040917c:	00e31821 	addu	v1,a3,v1
80409180:	2442ffff 	addiu	v0,v0,-1
80409184:	00441023 	subu	v0,v0,a0
80409188:	00681823 	subu	v1,v1,t0
8040918c:	acc30004 	sw	v1,4(a2)
80409190:	03e00008 	jr	ra
80409194:	acc20000 	sw	v0,0(a2)
	...

804091a0 <_User_extensions_Handler_initialization>:
804091a0:	3c028041 	lui	v0,0x8041
804091a4:	3c078041 	lui	a3,0x8041
804091a8:	244246c4 	addiu	v0,v0,18116
804091ac:	3c088041 	lui	t0,0x8041
804091b0:	ace246c0 	sw	v0,18112(a3)
804091b4:	3c028041 	lui	v0,0x8041
804091b8:	27bdffd8 	addiu	sp,sp,-40
804091bc:	24e346c0 	addiu	v1,a3,18112
804091c0:	25064518 	addiu	a2,t0,17688
804091c4:	2442451c 	addiu	v0,v0,17692
804091c8:	afb30020 	sw	s3,32(sp)
804091cc:	afb10018 	sw	s1,24(sp)
804091d0:	afbf0024 	sw	ra,36(sp)
804091d4:	afb2001c 	sw	s2,28(sp)
804091d8:	afb00014 	sw	s0,20(sp)
804091dc:	00a08821 	move	s1,a1
804091e0:	ac630008 	sw	v1,8(v1)
804091e4:	ad024518 	sw	v0,17688(t0)
804091e8:	acc60008 	sw	a2,8(a2)
804091ec:	00809821 	move	s3,a0
804091f0:	ac600004 	sw	zero,4(v1)
804091f4:	10a00017 	beqz	a1,80409254 <_User_extensions_Handler_initialization+0xb4>
804091f8:	acc00004 	sw	zero,4(a2)
804091fc:	00041080 	sll	v0,a0,0x2
80409200:	00048100 	sll	s0,a0,0x4
80409204:	02028023 	subu	s0,s0,v0
80409208:	02048021 	addu	s0,s0,a0
8040920c:	00108080 	sll	s0,s0,0x2
80409210:	0c102654 	jal	80409950 <_Workspace_Allocate_or_fatal_error>
80409214:	02002021 	move	a0,s0
80409218:	00402021 	move	a0,v0
8040921c:	02003021 	move	a2,s0
80409220:	00002821 	move	a1,zero
80409224:	0c103dd8 	jal	8040f760 <memset>
80409228:	00409021 	move	s2,v0
8040922c:	12600009 	beqz	s3,80409254 <_User_extensions_Handler_initialization+0xb4>
80409230:	00008021 	move	s0,zero
80409234:	02402021 	move	a0,s2
80409238:	02202821 	move	a1,s1
8040923c:	0c103670 	jal	8040d9c0 <_User_extensions_Add_set>
80409240:	26100001 	addiu	s0,s0,1
80409244:	0213102b 	sltu	v0,s0,s3
80409248:	26520034 	addiu	s2,s2,52
8040924c:	1440fff9 	bnez	v0,80409234 <_User_extensions_Handler_initialization+0x94>
80409250:	26310020 	addiu	s1,s1,32
80409254:	8fbf0024 	lw	ra,36(sp)
80409258:	8fb30020 	lw	s3,32(sp)
8040925c:	8fb2001c 	lw	s2,28(sp)
80409260:	8fb10018 	lw	s1,24(sp)
80409264:	8fb00014 	lw	s0,20(sp)
80409268:	03e00008 	jr	ra
8040926c:	27bd0028 	addiu	sp,sp,40

80409270 <_User_extensions_Thread_begin>:
80409270:	27bdffe0 	addiu	sp,sp,-32
80409274:	3c028041 	lui	v0,0x8041
80409278:	afb00010 	sw	s0,16(sp)
8040927c:	3c038041 	lui	v1,0x8041
80409280:	8c5046c0 	lw	s0,18112(v0)
80409284:	afb20018 	sw	s2,24(sp)
80409288:	247246c4 	addiu	s2,v1,18116
8040928c:	afb10014 	sw	s1,20(sp)
80409290:	afbf001c 	sw	ra,28(sp)
80409294:	12120009 	beq	s0,s2,804092bc <_User_extensions_Thread_begin+0x4c>
80409298:	00808821 	move	s1,a0
8040929c:	8e020028 	lw	v0,40(s0)
804092a0:	10400003 	beqz	v0,804092b0 <_User_extensions_Thread_begin+0x40>
804092a4:	02202021 	move	a0,s1
804092a8:	0040f809 	jalr	v0
804092ac:	00000000 	nop
804092b0:	8e100000 	lw	s0,0(s0)
804092b4:	1612fff9 	bne	s0,s2,8040929c <_User_extensions_Thread_begin+0x2c>
804092b8:	00000000 	nop
804092bc:	8fbf001c 	lw	ra,28(sp)
804092c0:	8fb20018 	lw	s2,24(sp)
804092c4:	8fb10014 	lw	s1,20(sp)
804092c8:	8fb00010 	lw	s0,16(sp)
804092cc:	03e00008 	jr	ra
804092d0:	27bd0020 	addiu	sp,sp,32

804092d4 <_User_extensions_Thread_exitted>:
804092d4:	3c028041 	lui	v0,0x8041
804092d8:	27bdffe0 	addiu	sp,sp,-32
804092dc:	244246c0 	addiu	v0,v0,18112
804092e0:	afb00010 	sw	s0,16(sp)
804092e4:	8c500008 	lw	s0,8(v0)
804092e8:	afb20018 	sw	s2,24(sp)
804092ec:	afb10014 	sw	s1,20(sp)
804092f0:	afbf001c 	sw	ra,28(sp)
804092f4:	00409021 	move	s2,v0
804092f8:	12020009 	beq	s0,v0,80409320 <_User_extensions_Thread_exitted+0x4c>
804092fc:	00808821 	move	s1,a0
80409300:	8e02002c 	lw	v0,44(s0)
80409304:	10400003 	beqz	v0,80409314 <_User_extensions_Thread_exitted+0x40>
80409308:	02202021 	move	a0,s1
8040930c:	0040f809 	jalr	v0
80409310:	00000000 	nop
80409314:	8e100004 	lw	s0,4(s0)
80409318:	1612fff9 	bne	s0,s2,80409300 <_User_extensions_Thread_exitted+0x2c>
8040931c:	00000000 	nop
80409320:	8fbf001c 	lw	ra,28(sp)
80409324:	8fb20018 	lw	s2,24(sp)
80409328:	8fb10014 	lw	s1,20(sp)
8040932c:	8fb00010 	lw	s0,16(sp)
80409330:	03e00008 	jr	ra
80409334:	27bd0020 	addiu	sp,sp,32

80409338 <_User_extensions_Fatal>:
80409338:	3c028041 	lui	v0,0x8041
8040933c:	27bdffd8 	addiu	sp,sp,-40
80409340:	244246c0 	addiu	v0,v0,18112
80409344:	afb00010 	sw	s0,16(sp)
80409348:	8c500008 	lw	s0,8(v0)
8040934c:	afb40020 	sw	s4,32(sp)
80409350:	afb3001c 	sw	s3,28(sp)
80409354:	afb20018 	sw	s2,24(sp)
80409358:	afb10014 	sw	s1,20(sp)
8040935c:	afbf0024 	sw	ra,36(sp)
80409360:	00409821 	move	s3,v0
80409364:	0080a021 	move	s4,a0
80409368:	00c09021 	move	s2,a2
8040936c:	1202000b 	beq	s0,v0,8040939c <_User_extensions_Fatal+0x64>
80409370:	30b100ff 	andi	s1,a1,0xff
80409374:	8e020030 	lw	v0,48(s0)
80409378:	02802021 	move	a0,s4
8040937c:	02202821 	move	a1,s1
80409380:	10400003 	beqz	v0,80409390 <_User_extensions_Fatal+0x58>
80409384:	02403021 	move	a2,s2
80409388:	0040f809 	jalr	v0
8040938c:	00000000 	nop
80409390:	8e100004 	lw	s0,4(s0)
80409394:	1613fff7 	bne	s0,s3,80409374 <_User_extensions_Fatal+0x3c>
80409398:	00000000 	nop
8040939c:	8fbf0024 	lw	ra,36(sp)
804093a0:	8fb40020 	lw	s4,32(sp)
804093a4:	8fb3001c 	lw	s3,28(sp)
804093a8:	8fb20018 	lw	s2,24(sp)
804093ac:	8fb10014 	lw	s1,20(sp)
804093b0:	8fb00010 	lw	s0,16(sp)
804093b4:	03e00008 	jr	ra
804093b8:	27bd0028 	addiu	sp,sp,40
804093bc:	00000000 	nop

804093c0 <_User_extensions_Thread_create>:
804093c0:	27bdffd8 	addiu	sp,sp,-40
804093c4:	3c028041 	lui	v0,0x8041
804093c8:	afb00014 	sw	s0,20(sp)
804093cc:	3c038041 	lui	v1,0x8041
804093d0:	8c5046c0 	lw	s0,18112(v0)
804093d4:	afb2001c 	sw	s2,28(sp)
804093d8:	247246c4 	addiu	s2,v1,18116
804093dc:	afb10018 	sw	s1,24(sp)
804093e0:	afbf0024 	sw	ra,36(sp)
804093e4:	afb30020 	sw	s3,32(sp)
804093e8:	1212000c 	beq	s0,s2,8040941c <_User_extensions_Thread_create+0x5c>
804093ec:	00808821 	move	s1,a0
804093f0:	3c138041 	lui	s3,0x8041
804093f4:	8e020014 	lw	v0,20(s0)
804093f8:	10400005 	beqz	v0,80409410 <_User_extensions_Thread_create+0x50>
804093fc:	02202821 	move	a1,s1
80409400:	0040f809 	jalr	v0
80409404:	8e6445d4 	lw	a0,17876(s3)
80409408:	10400006 	beqz	v0,80409424 <_User_extensions_Thread_create+0x64>
8040940c:	8fbf0024 	lw	ra,36(sp)
80409410:	8e100000 	lw	s0,0(s0)
80409414:	1612fff7 	bne	s0,s2,804093f4 <_User_extensions_Thread_create+0x34>
80409418:	00000000 	nop
8040941c:	24020001 	li	v0,1
80409420:	8fbf0024 	lw	ra,36(sp)
80409424:	8fb30020 	lw	s3,32(sp)
80409428:	8fb2001c 	lw	s2,28(sp)
8040942c:	8fb10018 	lw	s1,24(sp)
80409430:	8fb00014 	lw	s0,20(sp)
80409434:	03e00008 	jr	ra
80409438:	27bd0028 	addiu	sp,sp,40
8040943c:	00000000 	nop

80409440 <_User_extensions_Thread_delete>:
80409440:	3c028041 	lui	v0,0x8041
80409444:	27bdffd8 	addiu	sp,sp,-40
80409448:	244246c0 	addiu	v0,v0,18112
8040944c:	afb00014 	sw	s0,20(sp)
80409450:	8c500008 	lw	s0,8(v0)
80409454:	afb2001c 	sw	s2,28(sp)
80409458:	afb10018 	sw	s1,24(sp)
8040945c:	afbf0024 	sw	ra,36(sp)
80409460:	afb30020 	sw	s3,32(sp)
80409464:	00409021 	move	s2,v0
80409468:	1202000a 	beq	s0,v0,80409494 <_User_extensions_Thread_delete+0x54>
8040946c:	00808821 	move	s1,a0
80409470:	3c138041 	lui	s3,0x8041
80409474:	8e020020 	lw	v0,32(s0)
80409478:	10400003 	beqz	v0,80409488 <_User_extensions_Thread_delete+0x48>
8040947c:	02202821 	move	a1,s1
80409480:	0040f809 	jalr	v0
80409484:	8e6445d4 	lw	a0,17876(s3)
80409488:	8e100004 	lw	s0,4(s0)
8040948c:	1612fff9 	bne	s0,s2,80409474 <_User_extensions_Thread_delete+0x34>
80409490:	00000000 	nop
80409494:	8fbf0024 	lw	ra,36(sp)
80409498:	8fb30020 	lw	s3,32(sp)
8040949c:	8fb2001c 	lw	s2,28(sp)
804094a0:	8fb10018 	lw	s1,24(sp)
804094a4:	8fb00014 	lw	s0,20(sp)
804094a8:	03e00008 	jr	ra
804094ac:	27bd0028 	addiu	sp,sp,40

804094b0 <_User_extensions_Thread_start>:
804094b0:	27bdffd8 	addiu	sp,sp,-40
804094b4:	3c028041 	lui	v0,0x8041
804094b8:	afb00014 	sw	s0,20(sp)
804094bc:	3c038041 	lui	v1,0x8041
804094c0:	8c5046c0 	lw	s0,18112(v0)
804094c4:	afb2001c 	sw	s2,28(sp)
804094c8:	247246c4 	addiu	s2,v1,18116
804094cc:	afb10018 	sw	s1,24(sp)
804094d0:	afbf0024 	sw	ra,36(sp)
804094d4:	afb30020 	sw	s3,32(sp)
804094d8:	1212000a 	beq	s0,s2,80409504 <_User_extensions_Thread_start+0x54>
804094dc:	00808821 	move	s1,a0
804094e0:	3c138041 	lui	s3,0x8041
804094e4:	8e020018 	lw	v0,24(s0)
804094e8:	10400003 	beqz	v0,804094f8 <_User_extensions_Thread_start+0x48>
804094ec:	02202821 	move	a1,s1
804094f0:	0040f809 	jalr	v0
804094f4:	8e6445d4 	lw	a0,17876(s3)
804094f8:	8e100000 	lw	s0,0(s0)
804094fc:	1612fff9 	bne	s0,s2,804094e4 <_User_extensions_Thread_start+0x34>
80409500:	00000000 	nop
80409504:	8fbf0024 	lw	ra,36(sp)
80409508:	8fb30020 	lw	s3,32(sp)
8040950c:	8fb2001c 	lw	s2,28(sp)
80409510:	8fb10018 	lw	s1,24(sp)
80409514:	8fb00014 	lw	s0,20(sp)
80409518:	03e00008 	jr	ra
8040951c:	27bd0028 	addiu	sp,sp,40

80409520 <_User_extensions_Thread_switch>:
80409520:	27bdffd8 	addiu	sp,sp,-40
80409524:	3c028041 	lui	v0,0x8041
80409528:	afb00014 	sw	s0,20(sp)
8040952c:	3c038041 	lui	v1,0x8041
80409530:	8c504518 	lw	s0,17688(v0)
80409534:	afb30020 	sw	s3,32(sp)
80409538:	2473451c 	addiu	s3,v1,17692
8040953c:	afb2001c 	sw	s2,28(sp)
80409540:	afb10018 	sw	s1,24(sp)
80409544:	afbf0024 	sw	ra,36(sp)
80409548:	00809021 	move	s2,a0
8040954c:	12130008 	beq	s0,s3,80409570 <_User_extensions_Thread_switch+0x50>
80409550:	00a08821 	move	s1,a1
80409554:	8e020008 	lw	v0,8(s0)
80409558:	02402021 	move	a0,s2
8040955c:	0040f809 	jalr	v0
80409560:	02202821 	move	a1,s1
80409564:	8e100000 	lw	s0,0(s0)
80409568:	1613fffa 	bne	s0,s3,80409554 <_User_extensions_Thread_switch+0x34>
8040956c:	00000000 	nop
80409570:	8fbf0024 	lw	ra,36(sp)
80409574:	8fb30020 	lw	s3,32(sp)
80409578:	8fb2001c 	lw	s2,28(sp)
8040957c:	8fb10018 	lw	s1,24(sp)
80409580:	8fb00014 	lw	s0,20(sp)
80409584:	03e00008 	jr	ra
80409588:	27bd0028 	addiu	sp,sp,40
8040958c:	00000000 	nop

80409590 <_Watchdog_Insert>:
80409590:	3c028041 	lui	v0,0x8041
80409594:	00a04821 	move	t1,a1
80409598:	8c4a45b0 	lw	t2,17840(v0)
8040959c:	40036000 	mfc0	v1,c0_status
804095a0:	00000000 	nop
804095a4:	2402fffe 	li	v0,-2
804095a8:	00621024 	and	v0,v1,v0
804095ac:	40826000 	mtc0	v0,c0_status
804095b0:	00000000 	nop
804095b4:	306b0001 	andi	t3,v1,0x1
804095b8:	8ca20008 	lw	v0,8(a1)
804095bc:	14400046 	bnez	v0,804096d8 <_Watchdog_Insert+0x148>
804095c0:	3c0e8041 	lui	t6,0x8041
804095c4:	8dc34660 	lw	v1,18016(t6)
804095c8:	3c0c8041 	lui	t4,0x8041
804095cc:	24630001 	addiu	v1,v1,1
804095d0:	24020001 	li	v0,1
804095d4:	aca20008 	sw	v0,8(a1)
804095d8:	adc34660 	sw	v1,18016(t6)
804095dc:	2408fffe 	li	t0,-2
804095e0:	240d0001 	li	t5,1
804095e4:	01807821 	move	t7,t4
804095e8:	8d26000c 	lw	a2,12(t1)
804095ec:	8c850000 	lw	a1,0(a0)
804095f0:	10c00043 	beqz	a2,80409700 <_Watchdog_Insert+0x170>
804095f4:	3c028041 	lui	v0,0x8041
804095f8:	8ca20000 	lw	v0,0(a1)
804095fc:	10400040 	beqz	v0,80409700 <_Watchdog_Insert+0x170>
80409600:	3c028041 	lui	v0,0x8041
80409604:	8ca70010 	lw	a3,16(a1)
80409608:	00c7102b 	sltu	v0,a2,a3
8040960c:	14400054 	bnez	v0,80409760 <_Watchdog_Insert+0x1d0>
80409610:	00e61023 	subu	v0,a3,a2
80409614:	40026000 	mfc0	v0,c0_status
80409618:	00000000 	nop
8040961c:	00481024 	and	v0,v0,t0
80409620:	31630001 	andi	v1,t3,0x1
80409624:	00431025 	or	v0,v0,v1
80409628:	40826000 	mtc0	v0,c0_status
8040962c:	00000000 	nop
80409630:	40036000 	mfc0	v1,c0_status
80409634:	00000000 	nop
80409638:	00681024 	and	v0,v1,t0
8040963c:	40826000 	mtc0	v0,c0_status
80409640:	00000000 	nop
80409644:	30630001 	andi	v1,v1,0x1
80409648:	8d220008 	lw	v0,8(t1)
8040964c:	144d0046 	bne	v0,t5,80409768 <_Watchdog_Insert+0x1d8>
80409650:	00c73023 	subu	a2,a2,a3
80409654:	081025af 	j	804096bc <_Watchdog_Insert+0x12c>
80409658:	00000000 	nop
8040965c:	10c00026 	beqz	a2,804096f8 <_Watchdog_Insert+0x168>
80409660:	8ca50000 	lw	a1,0(a1)
80409664:	8ca20000 	lw	v0,0(a1)
80409668:	10400024 	beqz	v0,804096fc <_Watchdog_Insert+0x16c>
8040966c:	00605821 	move	t3,v1
80409670:	8ca70010 	lw	a3,16(a1)
80409674:	00c7102b 	sltu	v0,a2,a3
80409678:	14400039 	bnez	v0,80409760 <_Watchdog_Insert+0x1d0>
8040967c:	00e61023 	subu	v0,a3,a2
80409680:	40026000 	mfc0	v0,c0_status
80409684:	00000000 	nop
80409688:	00481024 	and	v0,v0,t0
8040968c:	00431025 	or	v0,v0,v1
80409690:	40826000 	mtc0	v0,c0_status
80409694:	00000000 	nop
80409698:	40036000 	mfc0	v1,c0_status
8040969c:	00000000 	nop
804096a0:	00681024 	and	v0,v1,t0
804096a4:	40826000 	mtc0	v0,c0_status
804096a8:	00000000 	nop
804096ac:	30630001 	andi	v1,v1,0x1
804096b0:	8d220008 	lw	v0,8(t1)
804096b4:	144d002c 	bne	v0,t5,80409768 <_Watchdog_Insert+0x1d8>
804096b8:	00c73023 	subu	a2,a2,a3
804096bc:	8d8245d0 	lw	v0,17872(t4)
804096c0:	0142102b 	sltu	v0,t2,v0
804096c4:	1040ffe5 	beqz	v0,8040965c <_Watchdog_Insert+0xcc>
804096c8:	00000000 	nop
804096cc:	adea45d0 	sw	t2,17872(t7)
804096d0:	0810257a 	j	804095e8 <_Watchdog_Insert+0x58>
804096d4:	00605821 	move	t3,v1
804096d8:	40026000 	mfc0	v0,c0_status
804096dc:	00000000 	nop
804096e0:	2403fffe 	li	v1,-2
804096e4:	00431024 	and	v0,v0,v1
804096e8:	004b1025 	or	v0,v0,t3
804096ec:	40826000 	mtc0	v0,c0_status
804096f0:	03e00008 	jr	ra
804096f4:	00000000 	nop
804096f8:	00605821 	move	t3,v1
804096fc:	3c028041 	lui	v0,0x8041
80409700:	8c434664 	lw	v1,18020(v0)
80409704:	8ca40004 	lw	a0,4(a1)
80409708:	ad230014 	sw	v1,20(t1)
8040970c:	ad260010 	sw	a2,16(t1)
80409710:	24020002 	li	v0,2
80409714:	ad8a45d0 	sw	t2,17872(t4)
80409718:	ad220008 	sw	v0,8(t1)
8040971c:	8dc24660 	lw	v0,18016(t6)
80409720:	8c850000 	lw	a1,0(a0)
80409724:	2442ffff 	addiu	v0,v0,-1
80409728:	ac890000 	sw	t1,0(a0)
8040972c:	ad240004 	sw	a0,4(t1)
80409730:	ad250000 	sw	a1,0(t1)
80409734:	aca90004 	sw	t1,4(a1)
80409738:	adc24660 	sw	v0,18016(t6)
8040973c:	40036000 	mfc0	v1,c0_status
80409740:	00000000 	nop
80409744:	2404fffe 	li	a0,-2
80409748:	00641824 	and	v1,v1,a0
8040974c:	31620001 	andi	v0,t3,0x1
80409750:	00431025 	or	v0,v0,v1
80409754:	40826000 	mtc0	v0,c0_status
80409758:	03e00008 	jr	ra
8040975c:	00000000 	nop
80409760:	081025bf 	j	804096fc <_Watchdog_Insert+0x16c>
80409764:	aca20010 	sw	v0,16(a1)
80409768:	ad8a45d0 	sw	t2,17872(t4)
8040976c:	8dc24660 	lw	v0,18016(t6)
80409770:	00605821 	move	t3,v1
80409774:	2442ffff 	addiu	v0,v0,-1
80409778:	adc24660 	sw	v0,18016(t6)
8040977c:	40036000 	mfc0	v1,c0_status
80409780:	00000000 	nop
80409784:	2404fffe 	li	a0,-2
80409788:	00641824 	and	v1,v1,a0
8040978c:	31620001 	andi	v0,t3,0x1
80409790:	00431025 	or	v0,v0,v1
80409794:	40826000 	mtc0	v0,c0_status
80409798:	03e00008 	jr	ra
8040979c:	00000000 	nop

804097a0 <_Watchdog_Handler_initialization>:
804097a0:	3c028041 	lui	v0,0x8041
804097a4:	3c068041 	lui	a2,0x8041
804097a8:	3c038041 	lui	v1,0x8041
804097ac:	244245f8 	addiu	v0,v0,17912
804097b0:	ac604660 	sw	zero,18016(v1)
804097b4:	3c078041 	lui	a3,0x8041
804097b8:	3c038041 	lui	v1,0x8041
804097bc:	acc245f4 	sw	v0,17908(a2)
804097c0:	3c028041 	lui	v0,0x8041
804097c4:	24c445f4 	addiu	a0,a2,17908
804097c8:	24e545e8 	addiu	a1,a3,17896
804097cc:	ac6045d0 	sw	zero,17872(v1)
804097d0:	244245ec 	addiu	v0,v0,17900
804097d4:	3c038041 	lui	v1,0x8041
804097d8:	ac840008 	sw	a0,8(a0)
804097dc:	ac604664 	sw	zero,18020(v1)
804097e0:	ace245e8 	sw	v0,17896(a3)
804097e4:	aca50008 	sw	a1,8(a1)
804097e8:	ac800004 	sw	zero,4(a0)
804097ec:	03e00008 	jr	ra
804097f0:	aca00004 	sw	zero,4(a1)
	...

80409800 <_Watchdog_Remove>:
80409800:	00803821 	move	a3,a0
80409804:	40086000 	mfc0	t0,c0_status
80409808:	00000000 	nop
8040980c:	2402fffe 	li	v0,-2
80409810:	01021024 	and	v0,t0,v0
80409814:	40826000 	mtc0	v0,c0_status
80409818:	00000000 	nop
8040981c:	8c850008 	lw	a1,8(a0)
80409820:	24020001 	li	v0,1
80409824:	10a20033 	beq	a1,v0,804098f4 <_Watchdog_Remove+0xf4>
80409828:	00000000 	nop
8040982c:	14a0000d 	bnez	a1,80409864 <_Watchdog_Remove+0x64>
80409830:	3c028041 	lui	v0,0x8041
80409834:	8c434664 	lw	v1,18020(v0)
80409838:	ace30018 	sw	v1,24(a3)
8040983c:	40026000 	mfc0	v0,c0_status
80409840:	00000000 	nop
80409844:	2403fffe 	li	v1,-2
80409848:	00431024 	and	v0,v0,v1
8040984c:	31040001 	andi	a0,t0,0x1
80409850:	00441025 	or	v0,v0,a0
80409854:	40826000 	mtc0	v0,c0_status
80409858:	00000000 	nop
8040985c:	03e00008 	jr	ra
80409860:	00a01021 	move	v0,a1
80409864:	2ca20004 	sltiu	v0,a1,4
80409868:	1040fff2 	beqz	v0,80409834 <_Watchdog_Remove+0x34>
8040986c:	3c028041 	lui	v0,0x8041
80409870:	8c860000 	lw	a2,0(a0)
80409874:	ac800008 	sw	zero,8(a0)
80409878:	8cc20000 	lw	v0,0(a2)
8040987c:	10400006 	beqz	v0,80409898 <_Watchdog_Remove+0x98>
80409880:	3c028041 	lui	v0,0x8041
80409884:	8cc20010 	lw	v0,16(a2)
80409888:	8c830010 	lw	v1,16(a0)
8040988c:	00431021 	addu	v0,v0,v1
80409890:	acc20010 	sw	v0,16(a2)
80409894:	3c028041 	lui	v0,0x8041
80409898:	8c434660 	lw	v1,18016(v0)
8040989c:	10600005 	beqz	v1,804098b4 <_Watchdog_Remove+0xb4>
804098a0:	00000000 	nop
804098a4:	3c028041 	lui	v0,0x8041
804098a8:	8c4445b0 	lw	a0,17840(v0)
804098ac:	3c038041 	lui	v1,0x8041
804098b0:	ac6445d0 	sw	a0,17872(v1)
804098b4:	8ce20004 	lw	v0,4(a3)
804098b8:	ac460000 	sw	a2,0(v0)
804098bc:	acc20004 	sw	v0,4(a2)
804098c0:	3c028041 	lui	v0,0x8041
804098c4:	8c434664 	lw	v1,18020(v0)
804098c8:	ace30018 	sw	v1,24(a3)
804098cc:	40026000 	mfc0	v0,c0_status
804098d0:	00000000 	nop
804098d4:	2403fffe 	li	v1,-2
804098d8:	00431024 	and	v0,v0,v1
804098dc:	31040001 	andi	a0,t0,0x1
804098e0:	00441025 	or	v0,v0,a0
804098e4:	40826000 	mtc0	v0,c0_status
804098e8:	00000000 	nop
804098ec:	03e00008 	jr	ra
804098f0:	00a01021 	move	v0,a1
804098f4:	3c028041 	lui	v0,0x8041
804098f8:	8c434664 	lw	v1,18020(v0)
804098fc:	ac800008 	sw	zero,8(a0)
80409900:	ace30018 	sw	v1,24(a3)
80409904:	40026000 	mfc0	v0,c0_status
80409908:	00000000 	nop
8040990c:	2403fffe 	li	v1,-2
80409910:	00431024 	and	v0,v0,v1
80409914:	31040001 	andi	a0,t0,0x1
80409918:	00441025 	or	v0,v0,a0
8040991c:	40826000 	mtc0	v0,c0_status
80409920:	00000000 	nop
80409924:	03e00008 	jr	ra
80409928:	00a01021 	move	v0,a1
8040992c:	00000000 	nop

80409930 <_Workspace_Free>:
80409930:	00802821 	move	a1,a0
80409934:	3c048041 	lui	a0,0x8041
80409938:	08103408 	j	8040d020 <_Heap_Free>
8040993c:	24844538 	addiu	a0,a0,17720

80409940 <_Workspace_Allocate>:
80409940:	00802821 	move	a1,a0
80409944:	3c048041 	lui	a0,0x8041
80409948:	081033c4 	j	8040cf10 <_Heap_Allocate>
8040994c:	24844538 	addiu	a0,a0,17720

80409950 <_Workspace_Allocate_or_fatal_error>:
80409950:	00802821 	move	a1,a0
80409954:	3c048041 	lui	a0,0x8041
80409958:	27bdffe8 	addiu	sp,sp,-24
8040995c:	afbf0014 	sw	ra,20(sp)
80409960:	0c1033c4 	jal	8040cf10 <_Heap_Allocate>
80409964:	24844538 	addiu	a0,a0,17720
80409968:	10400003 	beqz	v0,80409978 <_Workspace_Allocate_or_fatal_error+0x28>
8040996c:	8fbf0014 	lw	ra,20(sp)
80409970:	03e00008 	jr	ra
80409974:	27bd0018 	addiu	sp,sp,24
80409978:	00002021 	move	a0,zero
8040997c:	24050001 	li	a1,1
80409980:	0c101ab0 	jal	80406ac0 <_Internal_error_Occurred>
80409984:	24060004 	li	a2,4

80409988 <_Workspace_Handler_initialization>:
80409988:	27bdffe0 	addiu	sp,sp,-32
8040998c:	afb10018 	sw	s1,24(sp)
80409990:	afb00014 	sw	s0,20(sp)
80409994:	afbf001c 	sw	ra,28(sp)
80409998:	00808021 	move	s0,a0
8040999c:	10800014 	beqz	a0,804099f0 <_Workspace_Handler_initialization+0x68>
804099a0:	00a08821 	move	s1,a1
804099a4:	30820007 	andi	v0,a0,0x7
804099a8:	14400011 	bnez	v0,804099f0 <_Workspace_Handler_initialization+0x68>
804099ac:	3c028041 	lui	v0,0x8041
804099b0:	8c4345ac 	lw	v1,17836(v0)
804099b4:	90650028 	lbu	a1,40(v1)
804099b8:	14a00011 	bnez	a1,80409a00 <_Workspace_Handler_initialization+0x78>
804099bc:	00002821 	move	a1,zero
804099c0:	3c048041 	lui	a0,0x8041
804099c4:	24844538 	addiu	a0,a0,17720
804099c8:	02002821 	move	a1,s0
804099cc:	02203021 	move	a2,s1
804099d0:	0c101a24 	jal	80406890 <_Heap_Initialize>
804099d4:	24070008 	li	a3,8
804099d8:	1040000d 	beqz	v0,80409a10 <_Workspace_Handler_initialization+0x88>
804099dc:	8fbf001c 	lw	ra,28(sp)
804099e0:	8fb10018 	lw	s1,24(sp)
804099e4:	8fb00014 	lw	s0,20(sp)
804099e8:	03e00008 	jr	ra
804099ec:	27bd0020 	addiu	sp,sp,32
804099f0:	00002021 	move	a0,zero
804099f4:	24050001 	li	a1,1
804099f8:	0c101ab0 	jal	80406ac0 <_Internal_error_Occurred>
804099fc:	24060002 	li	a2,2
80409a00:	0c103dd8 	jal	8040f760 <memset>
80409a04:	02203021 	move	a2,s1
80409a08:	08102671 	j	804099c4 <_Workspace_Handler_initialization+0x3c>
80409a0c:	3c048041 	lui	a0,0x8041
80409a10:	00002021 	move	a0,zero
80409a14:	24050001 	li	a1,1
80409a18:	0c101ab0 	jal	80406ac0 <_Internal_error_Occurred>
80409a1c:	24060003 	li	a2,3

80409a20 <_CPU_Context_switch>:
80409a20:	40086000 	mfc0	t0,c0_status
80409a24:	24090001 	li	t1,1
80409a28:	ac88002c 	sw	t0,44(a0)
80409a2c:	01204827 	nor	t1,t1,zero
80409a30:	01094024 	and	t0,t0,t1
80409a34:	40886000 	mtc0	t0,c0_status
80409a38:	00000000 	nop
80409a3c:	ac9f0028 	sw	ra,40(a0)
80409a40:	ac9d0020 	sw	sp,32(a0)
80409a44:	ac9e0024 	sw	s8,36(a0)
80409a48:	ac900000 	sw	s0,0(a0)
80409a4c:	ac910004 	sw	s1,4(a0)
80409a50:	ac920008 	sw	s2,8(a0)
80409a54:	ac93000c 	sw	s3,12(a0)
80409a58:	ac940010 	sw	s4,16(a0)
80409a5c:	ac950014 	sw	s5,20(a0)
80409a60:	ac960018 	sw	s6,24(a0)
80409a64:	ac97001c 	sw	s7,28(a0)
80409a68:	3c088041 	lui	t0,0x8041
80409a6c:	250842f0 	addiu	t0,t0,17136
80409a70:	8d090000 	lw	t1,0(t0)
80409a74:	00000000 	nop
80409a78:	11200005 	beqz	t1,80409a90 <_CPU_Context_switch+0x70>
80409a7c:	ad000000 	sw	zero,0(t0)
80409a80:	00000000 	nop
80409a84:	8d280094 	lw	t0,148(t1)
80409a88:	10000003 	b	80409a98 <_CPU_Context_switch+0x78>
80409a8c:	00000000 	nop
80409a90:	3c088040 	lui	t0,0x8040
80409a94:	25087c60 	addiu	t0,t0,31840
80409a98:	ac880030 	sw	t0,48(a0)

80409a9c <_CPU_Context_switch_restore>:
80409a9c:	8cbf0028 	lw	ra,40(a1)
80409aa0:	8cbd0020 	lw	sp,32(a1)
80409aa4:	8cbe0024 	lw	s8,36(a1)
80409aa8:	8cb00000 	lw	s0,0(a1)
80409aac:	8cb10004 	lw	s1,4(a1)
80409ab0:	8cb20008 	lw	s2,8(a1)
80409ab4:	8cb3000c 	lw	s3,12(a1)
80409ab8:	8cb40010 	lw	s4,16(a1)
80409abc:	8cb50014 	lw	s5,20(a1)
80409ac0:	8cb60018 	lw	s6,24(a1)
80409ac4:	8cb7001c 	lw	s7,28(a1)
80409ac8:	8ca8002c 	lw	t0,44(a1)
80409acc:	3c0a2000 	lui	t2,0x2000
80409ad0:	354aff00 	ori	t2,t2,0xff00
80409ad4:	354a0001 	ori	t2,t2,0x1
80409ad8:	010a4024 	and	t0,t0,t2
80409adc:	40096000 	mfc0	t1,c0_status
80409ae0:	01405027 	nor	t2,t2,zero
80409ae4:	012a4824 	and	t1,t1,t2
80409ae8:	01284825 	or	t1,t1,t0
80409aec:	40896000 	mtc0	t1,c0_status
80409af0:	00000000 	nop
80409af4:	03e00008 	jr	ra
80409af8:	00000000 	nop

80409afc <_CPU_Context_restore>:
80409afc:	00802821 	move	a1,a0
80409b00:	081026a7 	j	80409a9c <_CPU_Context_switch_restore>
80409b04:	00000000 	nop

80409b08 <_DBG_Handler>:
80409b08:	3c1a8041 	lui	k0,0x8041
80409b0c:	275a9b18 	addiu	k0,k0,-25832
80409b10:	03400008 	jr	k0
80409b14:	00000000 	nop

80409b18 <_ISR_Handler>:
80409b18:	23bdfe80 	addi	sp,sp,-384
80409b1c:	afbf007c 	sw	ra,124(sp)
80409b20:	afa20008 	sw	v0,8(sp)
80409b24:	afa3000c 	sw	v1,12(sp)
80409b28:	afa40010 	sw	a0,16(sp)
80409b2c:	afa50014 	sw	a1,20(sp)
80409b30:	afa60018 	sw	a2,24(sp)
80409b34:	afa7001c 	sw	a3,28(sp)
80409b38:	afa80020 	sw	t0,32(sp)
80409b3c:	afa90024 	sw	t1,36(sp)
80409b40:	afaa0028 	sw	t2,40(sp)
80409b44:	afab002c 	sw	t3,44(sp)
80409b48:	afac0030 	sw	t4,48(sp)
80409b4c:	afad0034 	sw	t5,52(sp)
80409b50:	afae0038 	sw	t6,56(sp)
80409b54:	afaf003c 	sw	t7,60(sp)
80409b58:	00004012 	mflo	t0
80409b5c:	afb80060 	sw	t8,96(sp)
80409b60:	afa80084 	sw	t0,132(sp)
80409b64:	afb90064 	sw	t9,100(sp)
80409b68:	00004010 	mfhi	t0
80409b6c:	afbc0070 	sw	gp,112(sp)
80409b70:	afa80088 	sw	t0,136(sp)
80409b74:	afbe0078 	sw	s8,120(sp)
80409b78:	afa10004 	sw	at,4(sp)
80409b7c:	40086000 	mfc0	t0,c0_status
80409b80:	40097000 	mfc0	t1,c0_epc
80409b84:	afa80080 	sw	t0,128(sp)
80409b88:	afa90094 	sw	t1,148(sp)
80409b8c:	40086800 	mfc0	t0,c0_cause
80409b90:	00000000 	nop
80409b94:	3109003c 	andi	t1,t0,0x3c
80409b98:	11200022 	beqz	t1,80409c24 <_ISR_Handler_1>

80409b9c <_ISR_Handler_Exception>:
80409b9c:	afa80090 	sw	t0,144(sp)
80409ba0:	afbd0074 	sw	sp,116(sp)
80409ba4:	afb00040 	sw	s0,64(sp)
80409ba8:	afb10044 	sw	s1,68(sp)
80409bac:	afb20048 	sw	s2,72(sp)
80409bb0:	afb3004c 	sw	s3,76(sp)
80409bb4:	afb40050 	sw	s4,80(sp)
80409bb8:	afb50054 	sw	s5,84(sp)
80409bbc:	afb60058 	sw	s6,88(sp)
80409bc0:	afb7005c 	sw	s7,92(sp)
80409bc4:	40094000 	mfc0	t1,c0_badvaddr
80409bc8:	00000000 	nop
80409bcc:	afa9008c 	sw	t1,140(sp)
80409bd0:	03a02021 	move	a0,sp
80409bd4:	0c100260 	jal	80400980 <mips_vector_exceptions>
80409bd8:	00000000 	nop
80409bdc:	8fa80094 	lw	t0,148(sp)
80409be0:	3c098041 	lui	t1,0x8041
80409be4:	25299db0 	addiu	t1,t1,-25168
80409be8:	01095026 	xor	t2,t0,t1
80409bec:	15400003 	bnez	t2,80409bfc <_ISR_Handler_Exception+0x60>
80409bf0:	25080004 	addiu	t0,t0,4
80409bf4:	afa80094 	sw	t0,148(sp)
80409bf8:	00000000 	nop
80409bfc:	8fb00040 	lw	s0,64(sp)
80409c00:	8fb10044 	lw	s1,68(sp)
80409c04:	8fb20048 	lw	s2,72(sp)
80409c08:	8fb3004c 	lw	s3,76(sp)
80409c0c:	8fb40050 	lw	s4,80(sp)
80409c10:	8fb50054 	lw	s5,84(sp)
80409c14:	8fb60058 	lw	s6,88(sp)
80409c18:	8fb7005c 	lw	s7,92(sp)
80409c1c:	08102751 	j	80409d44 <_ISR_Handler_exit>
80409c20:	00000000 	nop

80409c24 <_ISR_Handler_1>:
80409c24:	40096000 	mfc0	t1,c0_status
80409c28:	3108ff00 	andi	t0,t0,0xff00
80409c2c:	01094024 	and	t0,t0,t1
80409c30:	11000044 	beqz	t0,80409d44 <_ISR_Handler_exit>
80409c34:	00000000 	nop
80409c38:	3c088041 	lui	t0,0x8041
80409c3c:	8d0845b0 	lw	t0,17840(t0)
80409c40:	00000000 	nop
80409c44:	21080001 	addi	t0,t0,1
80409c48:	3c018041 	lui	at,0x8041
80409c4c:	ac2845b0 	sw	t0,17840(at)
80409c50:	3c098041 	lui	t1,0x8041
80409c54:	8d294514 	lw	t1,17684(t1)
80409c58:	00000000 	nop
80409c5c:	21290001 	addi	t1,t1,1
80409c60:	3c018041 	lui	at,0x8041
80409c64:	ac294514 	sw	t1,17684(at)
80409c68:	03a02021 	move	a0,sp
80409c6c:	0c10454d 	jal	80411534 <mips_vector_isr_handlers>
80409c70:	00000000 	nop
80409c74:	3c0a8041 	lui	t2,0x8041
80409c78:	8d4a45b0 	lw	t2,17840(t2)
80409c7c:	00000000 	nop
80409c80:	214affff 	addi	t2,t2,-1
80409c84:	3c018041 	lui	at,0x8041
80409c88:	ac2a45b0 	sw	t2,17840(at)
80409c8c:	3c098041 	lui	t1,0x8041
80409c90:	8d294514 	lw	t1,17684(t1)
80409c94:	00000000 	nop
80409c98:	2129ffff 	addi	t1,t1,-1
80409c9c:	3c018041 	lui	at,0x8041
80409ca0:	ac294514 	sw	t1,17684(at)
80409ca4:	01494025 	or	t0,t2,t1
80409ca8:	15000026 	bnez	t0,80409d44 <_ISR_Handler_exit>
80409cac:	00000000 	nop
80409cb0:	3c088041 	lui	t0,0x8041
80409cb4:	8d0845e4 	lw	t0,17892(t0)
80409cb8:	3c098041 	lui	t1,0x8041
80409cbc:	8d294668 	lw	t1,18024(t1)
80409cc0:	00000000 	nop
80409cc4:	01094025 	or	t0,t0,t1
80409cc8:	1100001e 	beqz	t0,80409d44 <_ISR_Handler_exit>
80409ccc:	00000000 	nop
80409cd0:	40086000 	mfc0	t0,c0_status
80409cd4:	24090002 	li	t1,2
80409cd8:	01204827 	nor	t1,t1,zero
80409cdc:	01094024 	and	t0,t0,t1
80409ce0:	35080001 	ori	t0,t0,0x1
80409ce4:	40886000 	mtc0	t0,c0_status
80409ce8:	00000000 	nop
80409cec:	3c088041 	lui	t0,0x8041
80409cf0:	250842f0 	addiu	t0,t0,17136
80409cf4:	ad1d0000 	sw	sp,0(t0)
80409cf8:	0c101f18 	jal	80407c60 <_Thread_Dispatch>
80409cfc:	00000000 	nop
80409d00:	3c088041 	lui	t0,0x8041
80409d04:	250842f0 	addiu	t0,t0,17136
80409d08:	ad000000 	sw	zero,0(t0)
80409d0c:	00000000 	nop
80409d10:	40086000 	mfc0	t0,c0_status
80409d14:	24090001 	li	t1,1
80409d18:	01204827 	nor	t1,t1,zero
80409d1c:	01094024 	and	t0,t0,t1
80409d20:	40886000 	mtc0	t0,c0_status
80409d24:	00000000 	nop
80409d28:	35080003 	ori	t0,t0,0x3
80409d2c:	40886000 	mtc0	t0,c0_status
80409d30:	00000000 	nop
80409d34:	8fa80094 	lw	t0,148(sp)
80409d38:	00000000 	nop
80409d3c:	40887000 	mtc0	t0,c0_epc
80409d40:	00000000 	nop

80409d44 <_ISR_Handler_exit>:
80409d44:	8fb80084 	lw	t8,132(sp)
80409d48:	8fa80020 	lw	t0,32(sp)
80409d4c:	03000013 	mtlo	t8
80409d50:	8fb80088 	lw	t8,136(sp)
80409d54:	8fa90024 	lw	t1,36(sp)
80409d58:	03000011 	mthi	t8
80409d5c:	8faa0028 	lw	t2,40(sp)
80409d60:	8fab002c 	lw	t3,44(sp)
80409d64:	8fac0030 	lw	t4,48(sp)
80409d68:	8fad0034 	lw	t5,52(sp)
80409d6c:	8fae0038 	lw	t6,56(sp)
80409d70:	8faf003c 	lw	t7,60(sp)
80409d74:	8fb80060 	lw	t8,96(sp)
80409d78:	8fb90064 	lw	t9,100(sp)
80409d7c:	8fbc0070 	lw	gp,112(sp)
80409d80:	8fbe0078 	lw	s8,120(sp)
80409d84:	8fbf007c 	lw	ra,124(sp)
80409d88:	8fa40010 	lw	a0,16(sp)
80409d8c:	8fa50014 	lw	a1,20(sp)
80409d90:	8fa60018 	lw	a2,24(sp)
80409d94:	8fa7001c 	lw	a3,28(sp)
80409d98:	8fa3000c 	lw	v1,12(sp)
80409d9c:	8fa20008 	lw	v0,8(sp)
80409da0:	8fa10004 	lw	at,4(sp)
80409da4:	23bd0180 	addi	sp,sp,384
80409da8:	42000018 	eret
80409dac:	00000000 	nop

80409db0 <mips_break>:
80409db0:	0000000d 	break
80409db4:	00000000 	nop
80409db8:	03e00008 	jr	ra
80409dbc:	00000000 	nop

80409dc0 <_CPU_Initialize>:
80409dc0:	03e00008 	jr	ra
80409dc4:	00000000 	nop

80409dc8 <_CPU_ISR_install_raw_handler>:
80409dc8:	03e00008 	jr	ra
80409dcc:	00000000 	nop

80409dd0 <_CPU_ISR_install_vector>:
80409dd0:	3c038041 	lui	v1,0x8041
80409dd4:	8c624590 	lw	v0,17808(v1)
80409dd8:	00042080 	sll	a0,a0,0x2
80409ddc:	00441021 	addu	v0,v0,a0
80409de0:	8c430000 	lw	v1,0(v0)
80409de4:	ac450000 	sw	a1,0(v0)
80409de8:	03e00008 	jr	ra
80409dec:	acc30000 	sw	v1,0(a2)

80409df0 <_CPU_Install_interrupt_stack>:
80409df0:	03e00008 	jr	ra
80409df4:	00000000 	nop

80409df8 <_CPU_Thread_Idle_body>:
80409df8:	42000020 	wait
80409dfc:	0810277e 	j	80409df8 <_CPU_Thread_Idle_body>
80409e00:	00000000 	nop

80409e04 <_CPU_ISR_Set_level>:
80409e04:	27bdffe0 	addiu	sp,sp,-32
80409e08:	afb00014 	sw	s0,20(sp)
80409e0c:	afbf001c 	sw	ra,28(sp)
80409e10:	afb10018 	sw	s1,24(sp)
80409e14:	309000ff 	andi	s0,a0,0xff
80409e18:	40116000 	mfc0	s1,c0_status
80409e1c:	00000000 	nop
80409e20:	2402fffe 	li	v0,-2
80409e24:	02221024 	and	v0,s1,v0
80409e28:	40826000 	mtc0	v0,c0_status
80409e2c:	00000000 	nop
80409e30:	12000012 	beqz	s0,80409e7c <_CPU_ISR_Set_level+0x78>
80409e34:	00000000 	nop
80409e38:	0c100270 	jal	804009c0 <mips_interrupt_mask>
80409e3c:	00000000 	nop
80409e40:	00101a40 	sll	v1,s0,0x9
80409e44:	00621824 	and	v1,v1,v0
80409e48:	32020001 	andi	v0,s0,0x1
80409e4c:	00621825 	or	v1,v1,v0
80409e50:	3c02ffff 	lui	v0,0xffff
80409e54:	344203fe 	ori	v0,v0,0x3fe
80409e58:	02221024 	and	v0,s1,v0
80409e5c:	00621025 	or	v0,v1,v0
80409e60:	40826000 	mtc0	v0,c0_status
80409e64:	00000000 	nop
80409e68:	8fbf001c 	lw	ra,28(sp)
80409e6c:	8fb10018 	lw	s1,24(sp)
80409e70:	8fb00014 	lw	s0,20(sp)
80409e74:	03e00008 	jr	ra
80409e78:	27bd0020 	addiu	sp,sp,32
80409e7c:	0c100270 	jal	804009c0 <mips_interrupt_mask>
80409e80:	00000000 	nop
80409e84:	34430001 	ori	v1,v0,0x1
80409e88:	3c02ffff 	lui	v0,0xffff
80409e8c:	344203fe 	ori	v0,v0,0x3fe
80409e90:	02221024 	and	v0,s1,v0
80409e94:	00621025 	or	v0,v1,v0
80409e98:	40826000 	mtc0	v0,c0_status
80409e9c:	00000000 	nop
80409ea0:	8fbf001c 	lw	ra,28(sp)
80409ea4:	8fb10018 	lw	s1,24(sp)
80409ea8:	8fb00014 	lw	s0,20(sp)
80409eac:	03e00008 	jr	ra
80409eb0:	27bd0020 	addiu	sp,sp,32

80409eb4 <_CPU_ISR_Get_level>:
80409eb4:	27bdffe8 	addiu	sp,sp,-24
80409eb8:	afbf0014 	sw	ra,20(sp)
80409ebc:	afb00010 	sw	s0,16(sp)
80409ec0:	40106000 	mfc0	s0,c0_status
80409ec4:	00000000 	nop
80409ec8:	0c100270 	jal	804009c0 <mips_interrupt_mask>
80409ecc:	00000000 	nop
80409ed0:	02021024 	and	v0,s0,v0
80409ed4:	8fbf0014 	lw	ra,20(sp)
80409ed8:	32100001 	andi	s0,s0,0x1
80409edc:	00021242 	srl	v0,v0,0x9
80409ee0:	00501025 	or	v0,v0,s0
80409ee4:	8fb00010 	lw	s0,16(sp)
80409ee8:	03e00008 	jr	ra
80409eec:	27bd0018 	addiu	sp,sp,24

80409ef0 <miniIMFS_initialize>:
80409ef0:	3c068041 	lui	a2,0x8041
80409ef4:	24c64310 	addiu	a2,a2,17168
80409ef8:	3c058041 	lui	a1,0x8041
80409efc:	24a52940 	addiu	a1,a1,10560
80409f00:	08102af8 	j	8040abe0 <IMFS_initialize_support>
80409f04:	00c03821 	move	a3,a2
	...

80409f10 <IMFS_Set_handlers>:
80409f10:	8c820000 	lw	v0,0(a0)
80409f14:	8c83000c 	lw	v1,12(a0)
80409f18:	00803021 	move	a2,a0
80409f1c:	8c44004c 	lw	a0,76(v0)
80409f20:	2c820007 	sltiu	v0,a0,7
80409f24:	1040000a 	beqz	v0,80409f50 <IMFS_Set_handlers+0x40>
80409f28:	8c65002c 	lw	a1,44(v1)
80409f2c:	3c038041 	lui	v1,0x8041
80409f30:	00041080 	sll	v0,a0,0x2
80409f34:	24632980 	addiu	v1,v1,10624
80409f38:	00621821 	addu	v1,v1,v0
80409f3c:	8c640000 	lw	a0,0(v1)
80409f40:	00800008 	jr	a0
80409f44:	00000000 	nop
80409f48:	8ca20008 	lw	v0,8(a1)
80409f4c:	acc20004 	sw	v0,4(a2)
80409f50:	03e00008 	jr	ra
80409f54:	00001021 	move	v0,zero
80409f58:	8ca20004 	lw	v0,4(a1)
80409f5c:	acc20004 	sw	v0,4(a2)
80409f60:	03e00008 	jr	ra
80409f64:	00001021 	move	v0,zero
80409f68:	3c028041 	lui	v0,0x8041
80409f6c:	24422a00 	addiu	v0,v0,10752
80409f70:	acc20004 	sw	v0,4(a2)
80409f74:	03e00008 	jr	ra
80409f78:	00001021 	move	v0,zero
80409f7c:	3c028041 	lui	v0,0x8041
80409f80:	244229c0 	addiu	v0,v0,10688
80409f84:	acc20004 	sw	v0,4(a2)
80409f88:	03e00008 	jr	ra
80409f8c:	00001021 	move	v0,zero

80409f90 <IMFS_evaluate_permission>:
80409f90:	27bdffe0 	addiu	sp,sp,-32
80409f94:	afbf001c 	sw	ra,28(sp)
80409f98:	afb20018 	sw	s2,24(sp)
80409f9c:	afb10014 	sw	s1,20(sp)
80409fa0:	afb00010 	sw	s0,16(sp)
80409fa4:	8c910000 	lw	s1,0(a0)
80409fa8:	0c102d24 	jal	8040b490 <geteuid>
80409fac:	00a09021 	move	s2,a1
80409fb0:	0c102d20 	jal	8040b480 <getegid>
80409fb4:	00408021 	move	s0,v0
80409fb8:	00401821 	move	v1,v0
80409fbc:	9622003c 	lhu	v0,60(s1)
80409fc0:	10500019 	beq	v0,s0,8040a028 <IMFS_evaluate_permission+0x98>
80409fc4:	00122980 	sll	a1,s2,0x6
80409fc8:	9622003e 	lhu	v0,62(s1)
80409fcc:	1043000b 	beq	v0,v1,80409ffc <IMFS_evaluate_permission+0x6c>
80409fd0:	02402821 	move	a1,s2
80409fd4:	8e220030 	lw	v0,48(s1)
80409fd8:	00a21024 	and	v0,a1,v0
80409fdc:	8fbf001c 	lw	ra,28(sp)
80409fe0:	00a21026 	xor	v0,a1,v0
80409fe4:	2c420001 	sltiu	v0,v0,1
80409fe8:	8fb20018 	lw	s2,24(sp)
80409fec:	8fb10014 	lw	s1,20(sp)
80409ff0:	8fb00010 	lw	s0,16(sp)
80409ff4:	03e00008 	jr	ra
80409ff8:	27bd0020 	addiu	sp,sp,32
80409ffc:	8e220030 	lw	v0,48(s1)
8040a000:	001228c0 	sll	a1,s2,0x3
8040a004:	00a21024 	and	v0,a1,v0
8040a008:	8fbf001c 	lw	ra,28(sp)
8040a00c:	00a21026 	xor	v0,a1,v0
8040a010:	2c420001 	sltiu	v0,v0,1
8040a014:	8fb20018 	lw	s2,24(sp)
8040a018:	8fb10014 	lw	s1,20(sp)
8040a01c:	8fb00010 	lw	s0,16(sp)
8040a020:	03e00008 	jr	ra
8040a024:	27bd0020 	addiu	sp,sp,32
8040a028:	8e220030 	lw	v0,48(s1)
8040a02c:	00a21024 	and	v0,a1,v0
8040a030:	8fbf001c 	lw	ra,28(sp)
8040a034:	00a21026 	xor	v0,a1,v0
8040a038:	2c420001 	sltiu	v0,v0,1
8040a03c:	8fb20018 	lw	s2,24(sp)
8040a040:	8fb10014 	lw	s1,20(sp)
8040a044:	8fb00010 	lw	s0,16(sp)
8040a048:	03e00008 	jr	ra
8040a04c:	27bd0020 	addiu	sp,sp,32

8040a050 <IMFS_evaluate_hard_link>:
8040a050:	8c860000 	lw	a2,0(a0)
8040a054:	27bdffe0 	addiu	sp,sp,-32
8040a058:	8cc3004c 	lw	v1,76(a2)
8040a05c:	24020003 	li	v0,3
8040a060:	afb10018 	sw	s1,24(sp)
8040a064:	afb00014 	sw	s0,20(sp)
8040a068:	afbf001c 	sw	ra,28(sp)
8040a06c:	00808021 	move	s0,a0
8040a070:	14620015 	bne	v1,v0,8040a0c8 <IMFS_evaluate_hard_link+0x78>
8040a074:	00a08821 	move	s1,a1
8040a078:	8cc20050 	lw	v0,80(a2)
8040a07c:	0c1027c4 	jal	80409f10 <IMFS_Set_handlers>
8040a080:	ac820000 	sw	v0,0(a0)
8040a084:	02002021 	move	a0,s0
8040a088:	0c1027e4 	jal	80409f90 <IMFS_evaluate_permission>
8040a08c:	02202821 	move	a1,s1
8040a090:	10400007 	beqz	v0,8040a0b0 <IMFS_evaluate_hard_link+0x60>
8040a094:	00000000 	nop
8040a098:	00001021 	move	v0,zero
8040a09c:	8fbf001c 	lw	ra,28(sp)
8040a0a0:	8fb10018 	lw	s1,24(sp)
8040a0a4:	8fb00014 	lw	s0,20(sp)
8040a0a8:	03e00008 	jr	ra
8040a0ac:	27bd0020 	addiu	sp,sp,32
8040a0b0:	0c103b34 	jal	8040ecd0 <__errno>
8040a0b4:	00000000 	nop
8040a0b8:	2403000d 	li	v1,13
8040a0bc:	ac430000 	sw	v1,0(v0)
8040a0c0:	08102827 	j	8040a09c <IMFS_evaluate_hard_link+0x4c>
8040a0c4:	2402ffff 	li	v0,-1
8040a0c8:	0c1016d4 	jal	80405b50 <rtems_fatal_error_occurred>
8040a0cc:	3c04abcd 	lui	a0,0xabcd

8040a0d0 <IMFS_evaluate_sym_link>:
8040a0d0:	27bdffe0 	addiu	sp,sp,-32
8040a0d4:	afb00010 	sw	s0,16(sp)
8040a0d8:	00808021 	move	s0,a0
8040a0dc:	8c840000 	lw	a0,0(a0)
8040a0e0:	24020004 	li	v0,4
8040a0e4:	8c83004c 	lw	v1,76(a0)
8040a0e8:	afb20018 	sw	s2,24(sp)
8040a0ec:	afbf001c 	sw	ra,28(sp)
8040a0f0:	afb10014 	sw	s1,20(sp)
8040a0f4:	14620033 	bne	v1,v0,8040a1c4 <IMFS_evaluate_sym_link+0xf4>
8040a0f8:	00a09021 	move	s2,a1
8040a0fc:	8c820008 	lw	v0,8(a0)
8040a100:	10400032 	beqz	v0,8040a1cc <IMFS_evaluate_sym_link+0xfc>
8040a104:	00000000 	nop
8040a108:	ae020000 	sw	v0,0(s0)
8040a10c:	8c880050 	lw	t0,80(a0)
8040a110:	2402002f 	li	v0,47
8040a114:	81030000 	lb	v1,0(t0)
8040a118:	10620007 	beq	v1,v0,8040a138 <IMFS_evaluate_sym_link+0x68>
8040a11c:	2402005c 	li	v0,92
8040a120:	10620006 	beq	v1,v0,8040a13c <IMFS_evaluate_sym_link+0x6c>
8040a124:	3c028041 	lui	v0,0x8041
8040a128:	10600005 	beqz	v1,8040a140 <IMFS_evaluate_sym_link+0x70>
8040a12c:	8c4337c0 	lw	v1,14272(v0)
8040a130:	08102859 	j	8040a164 <IMFS_evaluate_sym_link+0x94>
8040a134:	00003821 	move	a3,zero
8040a138:	3c028041 	lui	v0,0x8041
8040a13c:	8c4337c0 	lw	v1,14272(v0)
8040a140:	24070001 	li	a3,1
8040a144:	8c660020 	lw	a2,32(v1)
8040a148:	8c620014 	lw	v0,20(v1)
8040a14c:	8c640018 	lw	a0,24(v1)
8040a150:	8c65001c 	lw	a1,28(v1)
8040a154:	ae020000 	sw	v0,0(s0)
8040a158:	ae040004 	sw	a0,4(s0)
8040a15c:	ae050008 	sw	a1,8(s0)
8040a160:	ae06000c 	sw	a2,12(s0)
8040a164:	01072021 	addu	a0,t0,a3
8040a168:	02402821 	move	a1,s2
8040a16c:	0c102875 	jal	8040a1d4 <IMFS_eval_path>
8040a170:	02003021 	move	a2,s0
8040a174:	02002021 	move	a0,s0
8040a178:	0c1027c4 	jal	80409f10 <IMFS_Set_handlers>
8040a17c:	00408821 	move	s1,v0
8040a180:	02002021 	move	a0,s0
8040a184:	0c1027e4 	jal	80409f90 <IMFS_evaluate_permission>
8040a188:	02402821 	move	a1,s2
8040a18c:	10400008 	beqz	v0,8040a1b0 <IMFS_evaluate_sym_link+0xe0>
8040a190:	00000000 	nop
8040a194:	8fbf001c 	lw	ra,28(sp)
8040a198:	02201021 	move	v0,s1
8040a19c:	8fb20018 	lw	s2,24(sp)
8040a1a0:	8fb10014 	lw	s1,20(sp)
8040a1a4:	8fb00010 	lw	s0,16(sp)
8040a1a8:	03e00008 	jr	ra
8040a1ac:	27bd0020 	addiu	sp,sp,32
8040a1b0:	0c103b34 	jal	8040ecd0 <__errno>
8040a1b4:	2411ffff 	li	s1,-1
8040a1b8:	2403000d 	li	v1,13
8040a1bc:	08102865 	j	8040a194 <IMFS_evaluate_sym_link+0xc4>
8040a1c0:	ac430000 	sw	v1,0(v0)
8040a1c4:	0c1016d4 	jal	80405b50 <rtems_fatal_error_occurred>
8040a1c8:	3c04abcd 	lui	a0,0xabcd
8040a1cc:	0c1016d4 	jal	80405b50 <rtems_fatal_error_occurred>
8040a1d0:	3c04bad0 	lui	a0,0xbad0

8040a1d4 <IMFS_eval_path>:
8040a1d4:	27bdffa0 	addiu	sp,sp,-96
8040a1d8:	afb00038 	sw	s0,56(sp)
8040a1dc:	8cd00000 	lw	s0,0(a2)
8040a1e0:	afbe0058 	sw	s8,88(sp)
8040a1e4:	afb70054 	sw	s7,84(sp)
8040a1e8:	afb60050 	sw	s6,80(sp)
8040a1ec:	afb5004c 	sw	s5,76(sp)
8040a1f0:	afb40048 	sw	s4,72(sp)
8040a1f4:	afb30044 	sw	s3,68(sp)
8040a1f8:	afb20040 	sw	s2,64(sp)
8040a1fc:	afbf005c 	sw	ra,92(sp)
8040a200:	afb1003c 	sw	s1,60(sp)
8040a204:	00c09821 	move	s3,a2
8040a208:	0080a821 	move	s5,a0
8040a20c:	afa50064 	sw	a1,100(sp)
8040a210:	00009021 	move	s2,zero
8040a214:	27b60014 	addiu	s6,sp,20
8040a218:	27b70010 	addiu	s7,sp,16
8040a21c:	241e0003 	li	s8,3
8040a220:	24140004 	li	s4,4
8040a224:	02b22021 	addu	a0,s5,s2
8040a228:	02c02821 	move	a1,s6
8040a22c:	0c102aa4 	jal	8040aa90 <IMFS_get_token>
8040a230:	02e03021 	move	a2,s7
8040a234:	8e640000 	lw	a0,0(s3)
8040a238:	00408821 	move	s1,v0
8040a23c:	1080006f 	beqz	a0,8040a3fc <IMFS_eval_path+0x228>
8040a240:	8fa20010 	lw	v0,16(sp)
8040a244:	16200019 	bnez	s1,8040a2ac <IMFS_eval_path+0xd8>
8040a248:	02429021 	addu	s2,s2,v0
8040a24c:	8c83004c 	lw	v1,76(a0)
8040a250:	24020001 	li	v0,1
8040a254:	1462005c 	bne	v1,v0,8040a3c8 <IMFS_eval_path+0x1f4>
8040a258:	00000000 	nop
8040a25c:	8c84005c 	lw	a0,92(a0)
8040a260:	10800059 	beqz	a0,8040a3c8 <IMFS_eval_path+0x1f4>
8040a264:	00000000 	nop
8040a268:	8c860020 	lw	a2,32(a0)
8040a26c:	8c850018 	lw	a1,24(a0)
8040a270:	8c820024 	lw	v0,36(a0)
8040a274:	8c83001c 	lw	v1,28(a0)
8040a278:	8fa40010 	lw	a0,16(sp)
8040a27c:	8cc70000 	lw	a3,0(a2)
8040a280:	ae650000 	sw	a1,0(s3)
8040a284:	02442023 	subu	a0,s2,a0
8040a288:	8fa50064 	lw	a1,100(sp)
8040a28c:	ae660008 	sw	a2,8(s3)
8040a290:	ae62000c 	sw	v0,12(s3)
8040a294:	ae630004 	sw	v1,4(s3)
8040a298:	02a42021 	addu	a0,s5,a0
8040a29c:	00e0f809 	jalr	a3
8040a2a0:	02603021 	move	a2,s3
8040a2a4:	081028de 	j	8040a378 <IMFS_eval_path+0x1a4>
8040a2a8:	00408021 	move	s0,v0
8040a2ac:	8e02004c 	lw	v0,76(s0)
8040a2b0:	24030001 	li	v1,1
8040a2b4:	1043003d 	beq	v0,v1,8040a3ac <IMFS_eval_path+0x1d8>
8040a2b8:	00000000 	nop
8040a2bc:	123e0009 	beq	s1,s8,8040a2e4 <IMFS_eval_path+0x110>
8040a2c0:	00808021 	move	s0,a0
8040a2c4:	12340028 	beq	s1,s4,8040a368 <IMFS_eval_path+0x194>
8040a2c8:	24020002 	li	v0,2
8040a2cc:	12220017 	beq	s1,v0,8040a32c <IMFS_eval_path+0x158>
8040a2d0:	3c038041 	lui	v1,0x8041
8040a2d4:	1634ffd3 	bne	s1,s4,8040a224 <IMFS_eval_path+0x50>
8040a2d8:	00000000 	nop
8040a2dc:	08102894 	j	8040a250 <IMFS_eval_path+0x7c>
8040a2e0:	8c83004c 	lw	v1,76(a0)
8040a2e4:	8c82004c 	lw	v0,76(a0)
8040a2e8:	105e0049 	beq	v0,s8,8040a410 <IMFS_eval_path+0x23c>
8040a2ec:	00000000 	nop
8040a2f0:	10540054 	beq	v0,s4,8040a444 <IMFS_eval_path+0x270>
8040a2f4:	02602021 	move	a0,s3
8040a2f8:	24030001 	li	v1,1
8040a2fc:	1443004c 	bne	v0,v1,8040a430 <IMFS_eval_path+0x25c>
8040a300:	00000000 	nop
8040a304:	8e04005c 	lw	a0,92(s0)
8040a308:	1480ffd7 	bnez	a0,8040a268 <IMFS_eval_path+0x94>
8040a30c:	00000000 	nop
8040a310:	02002021 	move	a0,s0
8040a314:	0c102a60 	jal	8040a980 <IMFS_find_match_in_dir>
8040a318:	02c02821 	move	a1,s6
8040a31c:	10400037 	beqz	v0,8040a3fc <IMFS_eval_path+0x228>
8040a320:	00408021 	move	s0,v0
8040a324:	08102889 	j	8040a224 <IMFS_eval_path+0x50>
8040a328:	ae700000 	sw	s0,0(s3)
8040a32c:	8c6237c0 	lw	v0,14272(v1)
8040a330:	8c430014 	lw	v1,20(v0)
8040a334:	1064ffbb 	beq	v1,a0,8040a224 <IMFS_eval_path+0x50>
8040a338:	00000000 	nop
8040a33c:	8e66000c 	lw	a2,12(s3)
8040a340:	8cc20018 	lw	v0,24(a2)
8040a344:	10440048 	beq	v0,a0,8040a468 <IMFS_eval_path+0x294>
8040a348:	00000000 	nop
8040a34c:	8c900008 	lw	s0,8(a0)
8040a350:	1600fff4 	bnez	s0,8040a324 <IMFS_eval_path+0x150>
8040a354:	00000000 	nop
8040a358:	0c103b34 	jal	8040ecd0 <__errno>
8040a35c:	2410ffff 	li	s0,-1
8040a360:	081028de 	j	8040a378 <IMFS_eval_path+0x1a4>
8040a364:	ac510000 	sw	s1,0(v0)
8040a368:	0c103b34 	jal	8040ecd0 <__errno>
8040a36c:	2410ffff 	li	s0,-1
8040a370:	2403005b 	li	v1,91
8040a374:	ac430000 	sw	v1,0(v0)
8040a378:	8fbf005c 	lw	ra,92(sp)
8040a37c:	02001021 	move	v0,s0
8040a380:	8fbe0058 	lw	s8,88(sp)
8040a384:	8fb70054 	lw	s7,84(sp)
8040a388:	8fb60050 	lw	s6,80(sp)
8040a38c:	8fb5004c 	lw	s5,76(sp)
8040a390:	8fb40048 	lw	s4,72(sp)
8040a394:	8fb30044 	lw	s3,68(sp)
8040a398:	8fb20040 	lw	s2,64(sp)
8040a39c:	8fb1003c 	lw	s1,60(sp)
8040a3a0:	8fb00038 	lw	s0,56(sp)
8040a3a4:	03e00008 	jr	ra
8040a3a8:	27bd0060 	addiu	sp,sp,96
8040a3ac:	02602021 	move	a0,s3
8040a3b0:	0c1027e4 	jal	80409f90 <IMFS_evaluate_permission>
8040a3b4:	24050001 	li	a1,1
8040a3b8:	1040000b 	beqz	v0,8040a3e8 <IMFS_eval_path+0x214>
8040a3bc:	00000000 	nop
8040a3c0:	081028af 	j	8040a2bc <IMFS_eval_path+0xe8>
8040a3c4:	8e640000 	lw	a0,0(s3)
8040a3c8:	0c1027c4 	jal	80409f10 <IMFS_Set_handlers>
8040a3cc:	02602021 	move	a0,s3
8040a3d0:	8fa50064 	lw	a1,100(sp)
8040a3d4:	02602021 	move	a0,s3
8040a3d8:	0c1027e4 	jal	80409f90 <IMFS_evaluate_permission>
8040a3dc:	00408021 	move	s0,v0
8040a3e0:	1440ffe6 	bnez	v0,8040a37c <IMFS_eval_path+0x1a8>
8040a3e4:	8fbf005c 	lw	ra,92(sp)
8040a3e8:	0c103b34 	jal	8040ecd0 <__errno>
8040a3ec:	2410ffff 	li	s0,-1
8040a3f0:	2403000d 	li	v1,13
8040a3f4:	081028de 	j	8040a378 <IMFS_eval_path+0x1a4>
8040a3f8:	ac430000 	sw	v1,0(v0)
8040a3fc:	0c103b34 	jal	8040ecd0 <__errno>
8040a400:	2410ffff 	li	s0,-1
8040a404:	24030002 	li	v1,2
8040a408:	081028de 	j	8040a378 <IMFS_eval_path+0x1a4>
8040a40c:	ac430000 	sw	v1,0(v0)
8040a410:	02602021 	move	a0,s3
8040a414:	0c102814 	jal	8040a050 <IMFS_evaluate_hard_link>
8040a418:	00002821 	move	a1,zero
8040a41c:	8e700000 	lw	s0,0(s3)
8040a420:	12000003 	beqz	s0,8040a430 <IMFS_eval_path+0x25c>
8040a424:	00000000 	nop
8040a428:	081028be 	j	8040a2f8 <IMFS_eval_path+0x124>
8040a42c:	8e02004c 	lw	v0,76(s0)
8040a430:	0c103b34 	jal	8040ecd0 <__errno>
8040a434:	2410ffff 	li	s0,-1
8040a438:	24030014 	li	v1,20
8040a43c:	081028de 	j	8040a378 <IMFS_eval_path+0x1a4>
8040a440:	ac430000 	sw	v1,0(v0)
8040a444:	0c102834 	jal	8040a0d0 <IMFS_evaluate_sym_link>
8040a448:	00002821 	move	a1,zero
8040a44c:	00408021 	move	s0,v0
8040a450:	2403ffff 	li	v1,-1
8040a454:	1203ffc8 	beq	s0,v1,8040a378 <IMFS_eval_path+0x1a4>
8040a458:	8e620000 	lw	v0,0(s3)
8040a45c:	00408021 	move	s0,v0
8040a460:	081028be 	j	8040a2f8 <IMFS_eval_path+0x124>
8040a464:	8e02004c 	lw	v0,76(s0)
8040a468:	8cc20010 	lw	v0,16(a2)
8040a46c:	8cc5000c 	lw	a1,12(a2)
8040a470:	8fa40010 	lw	a0,16(sp)
8040a474:	8cc30014 	lw	v1,20(a2)
8040a478:	8cc60008 	lw	a2,8(a2)
8040a47c:	ae650004 	sw	a1,4(s3)
8040a480:	02442023 	subu	a0,s2,a0
8040a484:	8c470000 	lw	a3,0(v0)
8040a488:	8fa50064 	lw	a1,100(sp)
8040a48c:	ae660000 	sw	a2,0(s3)
8040a490:	ae63000c 	sw	v1,12(s3)
8040a494:	02a42021 	addu	a0,s5,a0
8040a498:	ae620008 	sw	v0,8(s3)
8040a49c:	00e0f809 	jalr	a3
8040a4a0:	02603021 	move	a2,s3
8040a4a4:	081028de 	j	8040a378 <IMFS_eval_path+0x1a4>
8040a4a8:	00408021 	move	s0,v0

8040a4ac <IMFS_evaluate_link>:
8040a4ac:	27bdffd0 	addiu	sp,sp,-48
8040a4b0:	afb50028 	sw	s5,40(sp)
8040a4b4:	afb40024 	sw	s4,36(sp)
8040a4b8:	afb30020 	sw	s3,32(sp)
8040a4bc:	afb2001c 	sw	s2,28(sp)
8040a4c0:	afb10018 	sw	s1,24(sp)
8040a4c4:	afbf002c 	sw	ra,44(sp)
8040a4c8:	afb00014 	sw	s0,20(sp)
8040a4cc:	00808821 	move	s1,a0
8040a4d0:	00a0a821 	move	s5,a1
8040a4d4:	3c128041 	lui	s2,0x8041
8040a4d8:	24130003 	li	s3,3
8040a4dc:	0810293e 	j	8040a4f8 <IMFS_evaluate_link+0x4c>
8040a4e0:	24140004 	li	s4,4
8040a4e4:	10540026 	beq	v0,s4,8040a580 <IMFS_evaluate_link+0xd4>
8040a4e8:	2442fffd 	addiu	v0,v0,-3
8040a4ec:	2c420002 	sltiu	v0,v0,2
8040a4f0:	10400017 	beqz	v0,8040a550 <IMFS_evaluate_link+0xa4>
8040a4f4:	00001821 	move	v1,zero
8040a4f8:	8e4437c0 	lw	a0,14272(s2)
8040a4fc:	8e300000 	lw	s0,0(s1)
8040a500:	94820028 	lhu	v0,40(a0)
8040a504:	24420001 	addiu	v0,v0,1
8040a508:	3042ffff 	andi	v0,v0,0xffff
8040a50c:	2c430006 	sltiu	v1,v0,6
8040a510:	10600020 	beqz	v1,8040a594 <IMFS_evaluate_link+0xe8>
8040a514:	a4820028 	sh	v0,40(a0)
8040a518:	8e02004c 	lw	v0,76(s0)
8040a51c:	1453fff1 	bne	v0,s3,8040a4e4 <IMFS_evaluate_link+0x38>
8040a520:	02202021 	move	a0,s1
8040a524:	0c102814 	jal	8040a050 <IMFS_evaluate_hard_link>
8040a528:	02a02821 	move	a1,s5
8040a52c:	00401821 	move	v1,v0
8040a530:	14600008 	bnez	v1,8040a554 <IMFS_evaluate_link+0xa8>
8040a534:	8e4237c0 	lw	v0,14272(s2)
8040a538:	8e02004c 	lw	v0,76(s0)
8040a53c:	2442fffd 	addiu	v0,v0,-3
8040a540:	2c420002 	sltiu	v0,v0,2
8040a544:	1440ffed 	bnez	v0,8040a4fc <IMFS_evaluate_link+0x50>
8040a548:	8e4437c0 	lw	a0,14272(s2)
8040a54c:	00001821 	move	v1,zero
8040a550:	8e4237c0 	lw	v0,14272(s2)
8040a554:	8fbf002c 	lw	ra,44(sp)
8040a558:	a4400028 	sh	zero,40(v0)
8040a55c:	8fb50028 	lw	s5,40(sp)
8040a560:	00601021 	move	v0,v1
8040a564:	8fb40024 	lw	s4,36(sp)
8040a568:	8fb30020 	lw	s3,32(sp)
8040a56c:	8fb2001c 	lw	s2,28(sp)
8040a570:	8fb10018 	lw	s1,24(sp)
8040a574:	8fb00014 	lw	s0,20(sp)
8040a578:	03e00008 	jr	ra
8040a57c:	27bd0030 	addiu	sp,sp,48
8040a580:	02202021 	move	a0,s1
8040a584:	0c102834 	jal	8040a0d0 <IMFS_evaluate_sym_link>
8040a588:	02a02821 	move	a1,s5
8040a58c:	0810294c 	j	8040a530 <IMFS_evaluate_link+0x84>
8040a590:	00401821 	move	v1,v0
8040a594:	0c103b34 	jal	8040ecd0 <__errno>
8040a598:	a4800028 	sh	zero,40(a0)
8040a59c:	2403005c 	li	v1,92
8040a5a0:	8fbf002c 	lw	ra,44(sp)
8040a5a4:	ac430000 	sw	v1,0(v0)
8040a5a8:	2403ffff 	li	v1,-1
8040a5ac:	00601021 	move	v0,v1
8040a5b0:	8fb50028 	lw	s5,40(sp)
8040a5b4:	8fb40024 	lw	s4,36(sp)
8040a5b8:	8fb30020 	lw	s3,32(sp)
8040a5bc:	8fb2001c 	lw	s2,28(sp)
8040a5c0:	8fb10018 	lw	s1,24(sp)
8040a5c4:	8fb00014 	lw	s0,20(sp)
8040a5c8:	03e00008 	jr	ra
8040a5cc:	27bd0030 	addiu	sp,sp,48

8040a5d0 <IMFS_evaluate_for_make>:
8040a5d0:	27bdffa0 	addiu	sp,sp,-96
8040a5d4:	afb1003c 	sw	s1,60(sp)
8040a5d8:	8cb10000 	lw	s1,0(a1)
8040a5dc:	afbe0058 	sw	s8,88(sp)
8040a5e0:	afb70054 	sw	s7,84(sp)
8040a5e4:	afb60050 	sw	s6,80(sp)
8040a5e8:	afb5004c 	sw	s5,76(sp)
8040a5ec:	afb40048 	sw	s4,72(sp)
8040a5f0:	afb30044 	sw	s3,68(sp)
8040a5f4:	afbf005c 	sw	ra,92(sp)
8040a5f8:	afb20040 	sw	s2,64(sp)
8040a5fc:	afb00038 	sw	s0,56(sp)
8040a600:	00a0a021 	move	s4,a1
8040a604:	0080a821 	move	s5,a0
8040a608:	afa60068 	sw	a2,104(sp)
8040a60c:	00009821 	move	s3,zero
8040a610:	27b60014 	addiu	s6,sp,20
8040a614:	27b70010 	addiu	s7,sp,16
8040a618:	241e0001 	li	s8,1
8040a61c:	02b32021 	addu	a0,s5,s3
8040a620:	02c02821 	move	a1,s6
8040a624:	0c102aa4 	jal	8040aa90 <IMFS_get_token>
8040a628:	02e03021 	move	a2,s7
8040a62c:	8e840000 	lw	a0,0(s4)
8040a630:	00408021 	move	s0,v0
8040a634:	1080005e 	beqz	a0,8040a7b0 <IMFS_evaluate_for_make+0x1e0>
8040a638:	8fb20010 	lw	s2,16(sp)
8040a63c:	14400012 	bnez	v0,8040a688 <IMFS_evaluate_for_make+0xb8>
8040a640:	00000000 	nop
8040a644:	0c103b34 	jal	8040ecd0 <__errno>
8040a648:	2410ffff 	li	s0,-1
8040a64c:	24030011 	li	v1,17
8040a650:	ac430000 	sw	v1,0(v0)
8040a654:	8fbf005c 	lw	ra,92(sp)
8040a658:	02001021 	move	v0,s0
8040a65c:	8fbe0058 	lw	s8,88(sp)
8040a660:	8fb70054 	lw	s7,84(sp)
8040a664:	8fb60050 	lw	s6,80(sp)
8040a668:	8fb5004c 	lw	s5,76(sp)
8040a66c:	8fb40048 	lw	s4,72(sp)
8040a670:	8fb30044 	lw	s3,68(sp)
8040a674:	8fb20040 	lw	s2,64(sp)
8040a678:	8fb1003c 	lw	s1,60(sp)
8040a67c:	8fb00038 	lw	s0,56(sp)
8040a680:	03e00008 	jr	ra
8040a684:	27bd0060 	addiu	sp,sp,96
8040a688:	8e22004c 	lw	v0,76(s1)
8040a68c:	105e0059 	beq	v0,s8,8040a7f4 <IMFS_evaluate_for_make+0x224>
8040a690:	00000000 	nop
8040a694:	24020002 	li	v0,2
8040a698:	02729821 	addu	s3,s3,s2
8040a69c:	12020033 	beq	s0,v0,8040a76c <IMFS_evaluate_for_make+0x19c>
8040a6a0:	00808821 	move	s1,a0
8040a6a4:	2e020003 	sltiu	v0,s0,3
8040a6a8:	14400017 	bnez	v0,8040a708 <IMFS_evaluate_for_make+0x138>
8040a6ac:	24030003 	li	v1,3
8040a6b0:	12030019 	beq	s0,v1,8040a718 <IMFS_evaluate_for_make+0x148>
8040a6b4:	00000000 	nop
8040a6b8:	24040004 	li	a0,4
8040a6bc:	1604ffd8 	bne	s0,a0,8040a620 <IMFS_evaluate_for_make+0x50>
8040a6c0:	02b32021 	addu	a0,s5,s3
8040a6c4:	0c103b34 	jal	8040ecd0 <__errno>
8040a6c8:	2410ffff 	li	s0,-1
8040a6cc:	8fbf005c 	lw	ra,92(sp)
8040a6d0:	2403005b 	li	v1,91
8040a6d4:	ac430000 	sw	v1,0(v0)
8040a6d8:	8fbe0058 	lw	s8,88(sp)
8040a6dc:	02001021 	move	v0,s0
8040a6e0:	8fb70054 	lw	s7,84(sp)
8040a6e4:	8fb60050 	lw	s6,80(sp)
8040a6e8:	8fb5004c 	lw	s5,76(sp)
8040a6ec:	8fb40048 	lw	s4,72(sp)
8040a6f0:	8fb30044 	lw	s3,68(sp)
8040a6f4:	8fb20040 	lw	s2,64(sp)
8040a6f8:	8fb1003c 	lw	s1,60(sp)
8040a6fc:	8fb00038 	lw	s0,56(sp)
8040a700:	03e00008 	jr	ra
8040a704:	27bd0060 	addiu	sp,sp,96
8040a708:	1200ffce 	beqz	s0,8040a644 <IMFS_evaluate_for_make+0x74>
8040a70c:	02b32021 	addu	a0,s5,s3
8040a710:	08102989 	j	8040a624 <IMFS_evaluate_for_make+0x54>
8040a714:	02c02821 	move	a1,s6
8040a718:	8c82004c 	lw	v0,76(a0)
8040a71c:	24040003 	li	a0,3
8040a720:	1044007a 	beq	v0,a0,8040a90c <IMFS_evaluate_for_make+0x33c>
8040a724:	24030004 	li	v1,4
8040a728:	1043005b 	beq	v0,v1,8040a898 <IMFS_evaluate_for_make+0x2c8>
8040a72c:	02802021 	move	a0,s4
8040a730:	12200060 	beqz	s1,8040a8b4 <IMFS_evaluate_for_make+0x2e4>
8040a734:	00000000 	nop
8040a738:	8e22004c 	lw	v0,76(s1)
8040a73c:	145e005d 	bne	v0,s8,8040a8b4 <IMFS_evaluate_for_make+0x2e4>
8040a740:	00000000 	nop
8040a744:	8e24005c 	lw	a0,92(s1)
8040a748:	1480005f 	bnez	a0,8040a8c8 <IMFS_evaluate_for_make+0x2f8>
8040a74c:	00000000 	nop
8040a750:	02202021 	move	a0,s1
8040a754:	0c102a60 	jal	8040a980 <IMFS_find_match_in_dir>
8040a758:	02c02821 	move	a1,s6
8040a75c:	1040002c 	beqz	v0,8040a810 <IMFS_evaluate_for_make+0x240>
8040a760:	00408821 	move	s1,v0
8040a764:	08102987 	j	8040a61c <IMFS_evaluate_for_make+0x4c>
8040a768:	ae910000 	sw	s1,0(s4)
8040a76c:	3c038041 	lui	v1,0x8041
8040a770:	8c6237c0 	lw	v0,14272(v1)
8040a774:	8c430014 	lw	v1,20(v0)
8040a778:	1064ffa8 	beq	v1,a0,8040a61c <IMFS_evaluate_for_make+0x4c>
8040a77c:	00000000 	nop
8040a780:	8e86000c 	lw	a2,12(s4)
8040a784:	8cc20018 	lw	v0,24(a2)
8040a788:	10440069 	beq	v0,a0,8040a930 <IMFS_evaluate_for_make+0x360>
8040a78c:	00000000 	nop
8040a790:	8c910008 	lw	s1,8(a0)
8040a794:	1620fff3 	bnez	s1,8040a764 <IMFS_evaluate_for_make+0x194>
8040a798:	00000000 	nop
8040a79c:	0c103b34 	jal	8040ecd0 <__errno>
8040a7a0:	00000000 	nop
8040a7a4:	ac500000 	sw	s0,0(v0)
8040a7a8:	08102995 	j	8040a654 <IMFS_evaluate_for_make+0x84>
8040a7ac:	2410ffff 	li	s0,-1
8040a7b0:	0c103b34 	jal	8040ecd0 <__errno>
8040a7b4:	2410ffff 	li	s0,-1
8040a7b8:	8fbf005c 	lw	ra,92(sp)
8040a7bc:	24030002 	li	v1,2
8040a7c0:	ac430000 	sw	v1,0(v0)
8040a7c4:	8fbe0058 	lw	s8,88(sp)
8040a7c8:	02001021 	move	v0,s0
8040a7cc:	8fb70054 	lw	s7,84(sp)
8040a7d0:	8fb60050 	lw	s6,80(sp)
8040a7d4:	8fb5004c 	lw	s5,76(sp)
8040a7d8:	8fb40048 	lw	s4,72(sp)
8040a7dc:	8fb30044 	lw	s3,68(sp)
8040a7e0:	8fb20040 	lw	s2,64(sp)
8040a7e4:	8fb1003c 	lw	s1,60(sp)
8040a7e8:	8fb00038 	lw	s0,56(sp)
8040a7ec:	03e00008 	jr	ra
8040a7f0:	27bd0060 	addiu	sp,sp,96
8040a7f4:	02802021 	move	a0,s4
8040a7f8:	0c1027e4 	jal	80409f90 <IMFS_evaluate_permission>
8040a7fc:	24050001 	li	a1,1
8040a800:	10400020 	beqz	v0,8040a884 <IMFS_evaluate_for_make+0x2b4>
8040a804:	00000000 	nop
8040a808:	081029a5 	j	8040a694 <IMFS_evaluate_for_make+0xc4>
8040a80c:	8e840000 	lw	a0,0(s4)
8040a810:	8fa20010 	lw	v0,16(sp)
8040a814:	8fa40068 	lw	a0,104(sp)
8040a818:	02621023 	subu	v0,s3,v0
8040a81c:	02a21021 	addu	v0,s5,v0
8040a820:	02b31821 	addu	v1,s5,s3
8040a824:	ac820000 	sw	v0,0(a0)
8040a828:	80620000 	lb	v0,0(v1)
8040a82c:	10400009 	beqz	v0,8040a854 <IMFS_evaluate_for_make+0x284>
8040a830:	2404002f 	li	a0,47
8040a834:	2405005c 	li	a1,92
8040a838:	10440003 	beq	v0,a0,8040a848 <IMFS_evaluate_for_make+0x278>
8040a83c:	00000000 	nop
8040a840:	1445ffdb 	bne	v0,a1,8040a7b0 <IMFS_evaluate_for_make+0x1e0>
8040a844:	00000000 	nop
8040a848:	80620001 	lb	v0,1(v1)
8040a84c:	1440fffa 	bnez	v0,8040a838 <IMFS_evaluate_for_make+0x268>
8040a850:	24630001 	addiu	v1,v1,1
8040a854:	0c1027c4 	jal	80409f10 <IMFS_Set_handlers>
8040a858:	02802021 	move	a0,s4
8040a85c:	00408021 	move	s0,v0
8040a860:	8e820000 	lw	v0,0(s4)
8040a864:	24030001 	li	v1,1
8040a868:	8c44004c 	lw	a0,76(v0)
8040a86c:	14830011 	bne	a0,v1,8040a8b4 <IMFS_evaluate_for_make+0x2e4>
8040a870:	02802021 	move	a0,s4
8040a874:	0c1027e4 	jal	80409f90 <IMFS_evaluate_permission>
8040a878:	24050003 	li	a1,3
8040a87c:	1440ff76 	bnez	v0,8040a658 <IMFS_evaluate_for_make+0x88>
8040a880:	8fbf005c 	lw	ra,92(sp)
8040a884:	0c103b34 	jal	8040ecd0 <__errno>
8040a888:	2410ffff 	li	s0,-1
8040a88c:	2403000d 	li	v1,13
8040a890:	08102995 	j	8040a654 <IMFS_evaluate_for_make+0x84>
8040a894:	ac430000 	sw	v1,0(v0)
8040a898:	0c10292b 	jal	8040a4ac <IMFS_evaluate_link>
8040a89c:	00002821 	move	a1,zero
8040a8a0:	2404ffff 	li	a0,-1
8040a8a4:	1044ff6b 	beq	v0,a0,8040a654 <IMFS_evaluate_for_make+0x84>
8040a8a8:	00408021 	move	s0,v0
8040a8ac:	081029cc 	j	8040a730 <IMFS_evaluate_for_make+0x160>
8040a8b0:	8e910000 	lw	s1,0(s4)
8040a8b4:	0c103b34 	jal	8040ecd0 <__errno>
8040a8b8:	2410ffff 	li	s0,-1
8040a8bc:	24030014 	li	v1,20
8040a8c0:	08102995 	j	8040a654 <IMFS_evaluate_for_make+0x84>
8040a8c4:	ac430000 	sw	v1,0(v0)
8040a8c8:	8c860020 	lw	a2,32(a0)
8040a8cc:	8c850018 	lw	a1,24(a0)
8040a8d0:	8c820024 	lw	v0,36(a0)
8040a8d4:	8c83001c 	lw	v1,28(a0)
8040a8d8:	8fa40010 	lw	a0,16(sp)
8040a8dc:	8cc70004 	lw	a3,4(a2)
8040a8e0:	ae860008 	sw	a2,8(s4)
8040a8e4:	02642023 	subu	a0,s3,a0
8040a8e8:	8fa60068 	lw	a2,104(sp)
8040a8ec:	ae850000 	sw	a1,0(s4)
8040a8f0:	ae82000c 	sw	v0,12(s4)
8040a8f4:	ae830004 	sw	v1,4(s4)
8040a8f8:	02a42021 	addu	a0,s5,a0
8040a8fc:	00e0f809 	jalr	a3
8040a900:	02802821 	move	a1,s4
8040a904:	08102995 	j	8040a654 <IMFS_evaluate_for_make+0x84>
8040a908:	00408021 	move	s0,v0
8040a90c:	02802021 	move	a0,s4
8040a910:	0c10292b 	jal	8040a4ac <IMFS_evaluate_link>
8040a914:	00002821 	move	a1,zero
8040a918:	00408021 	move	s0,v0
8040a91c:	2402ffff 	li	v0,-1
8040a920:	1202ff4d 	beq	s0,v0,8040a658 <IMFS_evaluate_for_make+0x88>
8040a924:	8fbf005c 	lw	ra,92(sp)
8040a928:	081029cc 	j	8040a730 <IMFS_evaluate_for_make+0x160>
8040a92c:	8e910000 	lw	s1,0(s4)
8040a930:	8cc20010 	lw	v0,16(a2)
8040a934:	8cc5000c 	lw	a1,12(a2)
8040a938:	8cc30014 	lw	v1,20(a2)
8040a93c:	8fa40010 	lw	a0,16(sp)
8040a940:	8cc60008 	lw	a2,8(a2)
8040a944:	02642023 	subu	a0,s3,a0
8040a948:	ae860000 	sw	a2,0(s4)
8040a94c:	8c470004 	lw	a3,4(v0)
8040a950:	8fa60068 	lw	a2,104(sp)
8040a954:	ae850004 	sw	a1,4(s4)
8040a958:	ae83000c 	sw	v1,12(s4)
8040a95c:	02a42021 	addu	a0,s5,a0
8040a960:	ae820008 	sw	v0,8(s4)
8040a964:	00e0f809 	jalr	a3
8040a968:	02802821 	move	a1,s4
8040a96c:	08102995 	j	8040a654 <IMFS_evaluate_for_make+0x84>
8040a970:	00408021 	move	s0,v0
	...

8040a980 <IMFS_find_match_in_dir>:
8040a980:	27bdffe0 	addiu	sp,sp,-32
8040a984:	afb10014 	sw	s1,20(sp)
8040a988:	afb00010 	sw	s0,16(sp)
8040a98c:	afbf001c 	sw	ra,28(sp)
8040a990:	afb20018 	sw	s2,24(sp)
8040a994:	00808021 	move	s0,a0
8040a998:	10800023 	beqz	a0,8040aa28 <IMFS_find_match_in_dir+0xa8>
8040a99c:	00a08821 	move	s1,a1
8040a9a0:	10a00019 	beqz	a1,8040aa08 <IMFS_find_match_in_dir+0x88>
8040a9a4:	3c058041 	lui	a1,0x8041
8040a9a8:	24a529a0 	addiu	a1,a1,10656
8040a9ac:	0c104120 	jal	80410480 <strcmp>
8040a9b0:	02202021 	move	a0,s1
8040a9b4:	14400008 	bnez	v0,8040a9d8 <IMFS_find_match_in_dir+0x58>
8040a9b8:	3c058041 	lui	a1,0x8041
8040a9bc:	8fbf001c 	lw	ra,28(sp)
8040a9c0:	02001021 	move	v0,s0
8040a9c4:	8fb20018 	lw	s2,24(sp)
8040a9c8:	8fb10014 	lw	s1,20(sp)
8040a9cc:	8fb00010 	lw	s0,16(sp)
8040a9d0:	03e00008 	jr	ra
8040a9d4:	27bd0020 	addiu	sp,sp,32
8040a9d8:	24a529a4 	addiu	a1,a1,10660
8040a9dc:	0c104120 	jal	80410480 <strcmp>
8040a9e0:	02202021 	move	a0,s1
8040a9e4:	14400018 	bnez	v0,8040aa48 <IMFS_find_match_in_dir+0xc8>
8040a9e8:	8fbf001c 	lw	ra,28(sp)
8040a9ec:	8e100008 	lw	s0,8(s0)
8040a9f0:	02001021 	move	v0,s0
8040a9f4:	8fb20018 	lw	s2,24(sp)
8040a9f8:	8fb10014 	lw	s1,20(sp)
8040a9fc:	8fb00010 	lw	s0,16(sp)
8040aa00:	03e00008 	jr	ra
8040aa04:	27bd0020 	addiu	sp,sp,32
8040aa08:	8fbf001c 	lw	ra,28(sp)
8040aa0c:	00008021 	move	s0,zero
8040aa10:	02001021 	move	v0,s0
8040aa14:	8fb20018 	lw	s2,24(sp)
8040aa18:	8fb10014 	lw	s1,20(sp)
8040aa1c:	8fb00010 	lw	s0,16(sp)
8040aa20:	03e00008 	jr	ra
8040aa24:	27bd0020 	addiu	sp,sp,32
8040aa28:	3c048041 	lui	a0,0x8041
8040aa2c:	3c068041 	lui	a2,0x8041
8040aa30:	3c078041 	lui	a3,0x8041
8040aa34:	2484348c 	addiu	a0,a0,13452
8040aa38:	24c629a8 	addiu	a2,a2,10664
8040aa3c:	24e734dc 	addiu	a3,a3,13532
8040aa40:	0c10031c 	jal	80400c70 <__assert_func>
8040aa44:	2405002a 	li	a1,42
8040aa48:	8e120050 	lw	s2,80(s0)
8040aa4c:	26100054 	addiu	s0,s0,84
8040aa50:	16500006 	bne	s2,s0,8040aa6c <IMFS_find_match_in_dir+0xec>
8040aa54:	02202021 	move	a0,s1
8040aa58:	08102a83 	j	8040aa0c <IMFS_find_match_in_dir+0x8c>
8040aa5c:	8fbf001c 	lw	ra,28(sp)
8040aa60:	8e520000 	lw	s2,0(s2)
8040aa64:	1250ffe8 	beq	s2,s0,8040aa08 <IMFS_find_match_in_dir+0x88>
8040aa68:	02202021 	move	a0,s1
8040aa6c:	0c104120 	jal	80410480 <strcmp>
8040aa70:	2645000c 	addiu	a1,s2,12
8040aa74:	1440fffa 	bnez	v0,8040aa60 <IMFS_find_match_in_dir+0xe0>
8040aa78:	00000000 	nop
8040aa7c:	08102a6f 	j	8040a9bc <IMFS_find_match_in_dir+0x3c>
8040aa80:	02408021 	move	s0,s2
	...

8040aa90 <IMFS_get_token>:
8040aa90:	27bdffe8 	addiu	sp,sp,-24
8040aa94:	afb00010 	sw	s0,16(sp)
8040aa98:	afbf0014 	sw	ra,20(sp)
8040aa9c:	80830000 	lb	v1,0(a0)
8040aaa0:	2402002f 	li	v0,47
8040aaa4:	1062003d 	beq	v1,v0,8040ab9c <IMFS_get_token+0x10c>
8040aaa8:	00a08021 	move	s0,a1
8040aaac:	2402005c 	li	v0,92
8040aab0:	1062003b 	beq	v1,v0,8040aba0 <IMFS_get_token+0x110>
8040aab4:	24020001 	li	v0,1
8040aab8:	10600041 	beqz	v1,8040abc0 <IMFS_get_token+0x130>
8040aabc:	240a002f 	li	t2,47
8040aac0:	a0a30000 	sb	v1,0(a1)
8040aac4:	00001821 	move	v1,zero
8040aac8:	2409005c 	li	t1,92
8040aacc:	08102ab7 	j	8040aadc <IMFS_get_token+0x4c>
8040aad0:	24080020 	li	t0,32
8040aad4:	1068001d 	beq	v1,t0,8040ab4c <IMFS_get_token+0xbc>
8040aad8:	a0e20000 	sb	v0,0(a3)
8040aadc:	24630001 	addiu	v1,v1,1
8040aae0:	00831021 	addu	v0,a0,v1
8040aae4:	80420000 	lb	v0,0(v0)
8040aae8:	02033821 	addu	a3,s0,v1
8040aaec:	104a0007 	beq	v0,t2,8040ab0c <IMFS_get_token+0x7c>
8040aaf0:	28650021 	slti	a1,v1,33
8040aaf4:	10490005 	beq	v0,t1,8040ab0c <IMFS_get_token+0x7c>
8040aaf8:	00000000 	nop
8040aafc:	10400003 	beqz	v0,8040ab0c <IMFS_get_token+0x7c>
8040ab00:	00000000 	nop
8040ab04:	14a0fff3 	bnez	a1,8040aad4 <IMFS_get_token+0x44>
8040ab08:	00000000 	nop
8040ab0c:	02032021 	addu	a0,s0,v1
8040ab10:	8082ffff 	lb	v0,-1(a0)
8040ab14:	14400013 	bnez	v0,8040ab64 <IMFS_get_token+0xd4>
8040ab18:	3c058041 	lui	a1,0x8041
8040ab1c:	acc30000 	sw	v1,0(a2)
8040ab20:	24a53454 	addiu	a1,a1,13396
8040ab24:	0c104120 	jal	80410480 <strcmp>
8040ab28:	02002021 	move	a0,s0
8040ab2c:	14400014 	bnez	v0,8040ab80 <IMFS_get_token+0xf0>
8040ab30:	3c058041 	lui	a1,0x8041
8040ab34:	24040002 	li	a0,2
8040ab38:	8fbf0014 	lw	ra,20(sp)
8040ab3c:	00801021 	move	v0,a0
8040ab40:	8fb00010 	lw	s0,16(sp)
8040ab44:	03e00008 	jr	ra
8040ab48:	27bd0018 	addiu	sp,sp,24
8040ab4c:	8fbf0014 	lw	ra,20(sp)
8040ab50:	24040004 	li	a0,4
8040ab54:	00801021 	move	v0,a0
8040ab58:	8fb00010 	lw	s0,16(sp)
8040ab5c:	03e00008 	jr	ra
8040ab60:	27bd0018 	addiu	sp,sp,24
8040ab64:	a0800000 	sb	zero,0(a0)
8040ab68:	24a53454 	addiu	a1,a1,13396
8040ab6c:	acc30000 	sw	v1,0(a2)
8040ab70:	0c104120 	jal	80410480 <strcmp>
8040ab74:	02002021 	move	a0,s0
8040ab78:	1040ffee 	beqz	v0,8040ab34 <IMFS_get_token+0xa4>
8040ab7c:	3c058041 	lui	a1,0x8041
8040ab80:	02002021 	move	a0,s0
8040ab84:	0c104120 	jal	80410480 <strcmp>
8040ab88:	24a530c8 	addiu	a1,a1,12488
8040ab8c:	24040001 	li	a0,1
8040ab90:	24030003 	li	v1,3
8040ab94:	08102ace 	j	8040ab38 <IMFS_get_token+0xa8>
8040ab98:	0062200b 	movn	a0,v1,v0
8040ab9c:	24020001 	li	v0,1
8040aba0:	a2030000 	sb	v1,0(s0)
8040aba4:	24040001 	li	a0,1
8040aba8:	acc20000 	sw	v0,0(a2)
8040abac:	8fbf0014 	lw	ra,20(sp)
8040abb0:	00801021 	move	v0,a0
8040abb4:	8fb00010 	lw	s0,16(sp)
8040abb8:	03e00008 	jr	ra
8040abbc:	27bd0018 	addiu	sp,sp,24
8040abc0:	00001021 	move	v0,zero
8040abc4:	a0a30000 	sb	v1,0(a1)
8040abc8:	00002021 	move	a0,zero
8040abcc:	08102aeb 	j	8040abac <IMFS_get_token+0x11c>
8040abd0:	acc20000 	sw	v0,0(a2)
	...

8040abe0 <IMFS_initialize_support>:
8040abe0:	3c028041 	lui	v0,0x8041
8040abe4:	8c483694 	lw	t0,13972(v0)
8040abe8:	27bdffd0 	addiu	sp,sp,-48
8040abec:	24020010 	li	v0,16
8040abf0:	afb30028 	sw	s3,40(sp)
8040abf4:	afb20024 	sw	s2,36(sp)
8040abf8:	afb10020 	sw	s1,32(sp)
8040abfc:	afb0001c 	sw	s0,28(sp)
8040ac00:	afbf002c 	sw	ra,44(sp)
8040ac04:	00808021 	move	s0,a0
8040ac08:	00a08821 	move	s1,a1
8040ac0c:	00c09821 	move	s3,a2
8040ac10:	11020009 	beq	t0,v0,8040ac38 <IMFS_initialize_support+0x58>
8040ac14:	00e09021 	move	s2,a3
8040ac18:	24030020 	li	v1,32
8040ac1c:	00001021 	move	v0,zero
8040ac20:	24040005 	li	a0,5
8040ac24:	11030004 	beq	t0,v1,8040ac38 <IMFS_initialize_support+0x58>
8040ac28:	24420001 	addiu	v0,v0,1
8040ac2c:	1444fffd 	bne	v0,a0,8040ac24 <IMFS_initialize_support+0x44>
8040ac30:	00031840 	sll	v1,v1,0x1
8040ac34:	24080080 	li	t0,128
8040ac38:	3c068041 	lui	a2,0x8041
8040ac3c:	24c63684 	addiu	a2,a2,13956
8040ac40:	240741ed 	li	a3,16877
8040ac44:	3c028041 	lui	v0,0x8041
8040ac48:	00002021 	move	a0,zero
8040ac4c:	24050001 	li	a1,1
8040ac50:	ac484300 	sw	t0,17152(v0)
8040ac54:	0c10371c 	jal	8040dc70 <IMFS_create_node>
8040ac58:	afa00010 	sw	zero,16(sp)
8040ac5c:	3c038041 	lui	v1,0x8041
8040ac60:	24662cf0 	addiu	a2,v1,11504
8040ac64:	ae020018 	sw	v0,24(s0)
8040ac68:	ae110020 	sw	s1,32(s0)
8040ac6c:	ae12001c 	sw	s2,28(s0)
8040ac70:	26070030 	addiu	a3,s0,48
8040ac74:	24c80030 	addiu	t0,a2,48
8040ac78:	8cc20000 	lw	v0,0(a2)
8040ac7c:	8cc30004 	lw	v1,4(a2)
8040ac80:	8cc40008 	lw	a0,8(a2)
8040ac84:	8cc5000c 	lw	a1,12(a2)
8040ac88:	24c60010 	addiu	a2,a2,16
8040ac8c:	ace20000 	sw	v0,0(a3)
8040ac90:	ace30004 	sw	v1,4(a3)
8040ac94:	ace40008 	sw	a0,8(a3)
8040ac98:	ace5000c 	sw	a1,12(a3)
8040ac9c:	14c8fff6 	bne	a2,t0,8040ac78 <IMFS_initialize_support+0x98>
8040aca0:	24e70010 	addiu	a3,a3,16
8040aca4:	24040001 	li	a0,1
8040aca8:	0c102c48 	jal	8040b120 <calloc>
8040acac:	2405000c 	li	a1,12
8040acb0:	10400010 	beqz	v0,8040acf4 <IMFS_initialize_support+0x114>
8040acb4:	00402021 	move	a0,v0
8040acb8:	8e030018 	lw	v1,24(s0)
8040acbc:	24020001 	li	v0,1
8040acc0:	ac820000 	sw	v0,0(a0)
8040acc4:	ac920008 	sw	s2,8(a0)
8040acc8:	ac620038 	sw	v0,56(v1)
8040accc:	ac930004 	sw	s3,4(a0)
8040acd0:	ae04002c 	sw	a0,44(s0)
8040acd4:	00001021 	move	v0,zero
8040acd8:	8fbf002c 	lw	ra,44(sp)
8040acdc:	8fb30028 	lw	s3,40(sp)
8040ace0:	8fb20024 	lw	s2,36(sp)
8040ace4:	8fb10020 	lw	s1,32(sp)
8040ace8:	8fb0001c 	lw	s0,28(sp)
8040acec:	03e00008 	jr	ra
8040acf0:	27bd0030 	addiu	sp,sp,48
8040acf4:	0c102c9c 	jal	8040b270 <free>
8040acf8:	8e040018 	lw	a0,24(s0)
8040acfc:	0c103b34 	jal	8040ecd0 <__errno>
8040ad00:	00000000 	nop
8040ad04:	2403000c 	li	v1,12
8040ad08:	ac430000 	sw	v1,0(v0)
8040ad0c:	08102b36 	j	8040acd8 <IMFS_initialize_support+0xf8>
8040ad10:	2402ffff 	li	v0,-1
	...

8040ad20 <IMFS_mknod>:
8040ad20:	27bdff98 	addiu	sp,sp,-104
8040ad24:	afb30060 	sw	s3,96(sp)
8040ad28:	27b3002c 	addiu	s3,sp,44
8040ad2c:	afb2005c 	sw	s2,92(sp)
8040ad30:	afb10058 	sw	s1,88(sp)
8040ad34:	00a09021 	move	s2,a1
8040ad38:	00c08821 	move	s1,a2
8040ad3c:	02602821 	move	a1,s3
8040ad40:	27a60018 	addiu	a2,sp,24
8040ad44:	afb00054 	sw	s0,84(sp)
8040ad48:	afbf0064 	sw	ra,100(sp)
8040ad4c:	0c102aa4 	jal	8040aa90 <IMFS_get_token>
8040ad50:	00e08021 	move	s0,a3
8040ad54:	3243f000 	andi	v1,s2,0xf000
8040ad58:	24024000 	li	v0,16384
8040ad5c:	1062001c 	beq	v1,v0,8040add0 <IMFS_mknod+0xb0>
8040ad60:	34028000 	li	v0,0x8000
8040ad64:	10620018 	beq	v1,v0,8040adc8 <IMFS_mknod+0xa8>
8040ad68:	24026000 	li	v0,24576
8040ad6c:	10620003 	beq	v1,v0,8040ad7c <IMFS_mknod+0x5c>
8040ad70:	24022000 	li	v0,8192
8040ad74:	14620018 	bne	v1,v0,8040add8 <IMFS_mknod+0xb8>
8040ad78:	00000000 	nop
8040ad7c:	afb1001c 	sw	s1,28(sp)
8040ad80:	afb00020 	sw	s0,32(sp)
8040ad84:	24050002 	li	a1,2
8040ad88:	8fa40078 	lw	a0,120(sp)
8040ad8c:	27a2001c 	addiu	v0,sp,28
8040ad90:	02603021 	move	a2,s3
8040ad94:	02403821 	move	a3,s2
8040ad98:	0c10371c 	jal	8040dc70 <IMFS_create_node>
8040ad9c:	afa20010 	sw	v0,16(sp)
8040ada0:	10400013 	beqz	v0,8040adf0 <IMFS_mknod+0xd0>
8040ada4:	00000000 	nop
8040ada8:	00001021 	move	v0,zero
8040adac:	8fbf0064 	lw	ra,100(sp)
8040adb0:	8fb30060 	lw	s3,96(sp)
8040adb4:	8fb2005c 	lw	s2,92(sp)
8040adb8:	8fb10058 	lw	s1,88(sp)
8040adbc:	8fb00054 	lw	s0,84(sp)
8040adc0:	03e00008 	jr	ra
8040adc4:	27bd0068 	addiu	sp,sp,104
8040adc8:	08102b62 	j	8040ad88 <IMFS_mknod+0x68>
8040adcc:	24050005 	li	a1,5
8040add0:	08102b62 	j	8040ad88 <IMFS_mknod+0x68>
8040add4:	24050001 	li	a1,1
8040add8:	0c103b34 	jal	8040ecd0 <__errno>
8040addc:	00000000 	nop
8040ade0:	24030016 	li	v1,22
8040ade4:	ac430000 	sw	v1,0(v0)
8040ade8:	08102b6b 	j	8040adac <IMFS_mknod+0x8c>
8040adec:	2402ffff 	li	v0,-1
8040adf0:	0c103b34 	jal	8040ecd0 <__errno>
8040adf4:	00000000 	nop
8040adf8:	2403000c 	li	v1,12
8040adfc:	ac430000 	sw	v1,0(v0)
8040ae00:	08102b6b 	j	8040adac <IMFS_mknod+0x8c>
8040ae04:	2402ffff 	li	v0,-1
	...

8040ae10 <IMFS_node_type>:
8040ae10:	8c830000 	lw	v1,0(a0)
8040ae14:	03e00008 	jr	ra
8040ae18:	8c62004c 	lw	v0,76(v1)
8040ae1c:	00000000 	nop

8040ae20 <IMFS_rmnod>:
8040ae20:	27bdffd8 	addiu	sp,sp,-40
8040ae24:	afb0001c 	sw	s0,28(sp)
8040ae28:	8c900000 	lw	s0,0(a0)
8040ae2c:	afb10020 	sw	s1,32(sp)
8040ae30:	8e020008 	lw	v0,8(s0)
8040ae34:	afbf0024 	sw	ra,36(sp)
8040ae38:	10400004 	beqz	v0,8040ae4c <IMFS_rmnod+0x2c>
8040ae3c:	00808821 	move	s1,a0
8040ae40:	0c10334c 	jal	8040cd30 <_Chain_Extract>
8040ae44:	02002021 	move	a0,s0
8040ae48:	ae000008 	sw	zero,8(s0)
8040ae4c:	96020034 	lhu	v0,52(s0)
8040ae50:	27a40010 	addiu	a0,sp,16
8040ae54:	2442ffff 	addiu	v0,v0,-1
8040ae58:	a6020034 	sh	v0,52(s0)
8040ae5c:	0c102d28 	jal	8040b4a0 <gettimeofday>
8040ae60:	00002821 	move	a1,zero
8040ae64:	8fa20010 	lw	v0,16(sp)
8040ae68:	02002021 	move	a0,s0
8040ae6c:	0c102d80 	jal	8040b600 <rtems_libio_is_file_open>
8040ae70:	ae020048 	sw	v0,72(s0)
8040ae74:	14400010 	bnez	v0,8040aeb8 <IMFS_rmnod+0x98>
8040ae78:	8fbf0024 	lw	ra,36(sp)
8040ae7c:	96020034 	lhu	v0,52(s0)
8040ae80:	1440000d 	bnez	v0,8040aeb8 <IMFS_rmnod+0x98>
8040ae84:	3c028041 	lui	v0,0x8041
8040ae88:	8c4437c0 	lw	a0,14272(v0)
8040ae8c:	8e230000 	lw	v1,0(s1)
8040ae90:	8c820004 	lw	v0,4(a0)
8040ae94:	10430014 	beq	v0,v1,8040aee8 <IMFS_rmnod+0xc8>
8040ae98:	00000000 	nop
8040ae9c:	8e03004c 	lw	v1,76(s0)
8040aea0:	24020004 	li	v0,4
8040aea4:	10620009 	beq	v1,v0,8040aecc <IMFS_rmnod+0xac>
8040aea8:	00000000 	nop
8040aeac:	0c102c9c 	jal	8040b270 <free>
8040aeb0:	02002021 	move	a0,s0
8040aeb4:	8fbf0024 	lw	ra,36(sp)
8040aeb8:	00001021 	move	v0,zero
8040aebc:	8fb10020 	lw	s1,32(sp)
8040aec0:	8fb0001c 	lw	s0,28(sp)
8040aec4:	03e00008 	jr	ra
8040aec8:	27bd0028 	addiu	sp,sp,40
8040aecc:	8e040050 	lw	a0,80(s0)
8040aed0:	1080fff6 	beqz	a0,8040aeac <IMFS_rmnod+0x8c>
8040aed4:	00000000 	nop
8040aed8:	0c102c9c 	jal	8040b270 <free>
8040aedc:	00000000 	nop
8040aee0:	08102bab 	j	8040aeac <IMFS_rmnod+0x8c>
8040aee4:	00000000 	nop
8040aee8:	08102ba7 	j	8040ae9c <IMFS_rmnod+0x7c>
8040aeec:	ac800004 	sw	zero,4(a0)

8040aef0 <IMFS_stat>:
8040aef0:	8c860000 	lw	a2,0(a0)
8040aef4:	27bdffe8 	addiu	sp,sp,-24
8040aef8:	8cc3004c 	lw	v1,76(a2)
8040aefc:	24020004 	li	v0,4
8040af00:	10620027 	beq	v1,v0,8040afa0 <IMFS_stat+0xb0>
8040af04:	afbf0014 	sw	ra,20(sp)
8040af08:	28620005 	slti	v0,v1,5
8040af0c:	1040000c 	beqz	v0,8040af40 <IMFS_stat+0x50>
8040af10:	28620007 	slti	v0,v1,7
8040af14:	24020002 	li	v0,2
8040af18:	10620023 	beq	v1,v0,8040afa8 <IMFS_stat+0xb8>
8040af1c:	00000000 	nop
8040af20:	0c103b34 	jal	8040ecd0 <__errno>
8040af24:	00000000 	nop
8040af28:	8fbf0014 	lw	ra,20(sp)
8040af2c:	24030086 	li	v1,134
8040af30:	ac430000 	sw	v1,0(v0)
8040af34:	27bd0018 	addiu	sp,sp,24
8040af38:	03e00008 	jr	ra
8040af3c:	2402ffff 	li	v0,-1
8040af40:	1040fff7 	beqz	v0,8040af20 <IMFS_stat+0x30>
8040af44:	00000000 	nop
8040af48:	8cc20050 	lw	v0,80(a2)
8040af4c:	aca20020 	sw	v0,32(a1)
8040af50:	8cc20038 	lw	v0,56(a2)
8040af54:	94c40034 	lhu	a0,52(a2)
8040af58:	aca20008 	sw	v0,8(a1)
8040af5c:	8cc30040 	lw	v1,64(a2)
8040af60:	a4a40010 	sh	a0,16(a1)
8040af64:	aca30024 	sw	v1,36(a1)
8040af68:	94c2003c 	lhu	v0,60(a2)
8040af6c:	8cc30044 	lw	v1,68(a2)
8040af70:	a4a20012 	sh	v0,18(a1)
8040af74:	aca3002c 	sw	v1,44(a1)
8040af78:	8cc20048 	lw	v0,72(a2)
8040af7c:	8cc30030 	lw	v1,48(a2)
8040af80:	94c4003e 	lhu	a0,62(a2)
8040af84:	8fbf0014 	lw	ra,20(sp)
8040af88:	aca20034 	sw	v0,52(a1)
8040af8c:	aca3000c 	sw	v1,12(a1)
8040af90:	00001021 	move	v0,zero
8040af94:	a4a40014 	sh	a0,20(a1)
8040af98:	03e00008 	jr	ra
8040af9c:	27bd0018 	addiu	sp,sp,24
8040afa0:	08102bd4 	j	8040af50 <IMFS_stat+0x60>
8040afa4:	aca00020 	sw	zero,32(a1)
8040afa8:	8cc20054 	lw	v0,84(a2)
8040afac:	8cc30050 	lw	v1,80(a2)
8040afb0:	aca20004 	sw	v0,4(a1)
8040afb4:	08102bd4 	j	8040af50 <IMFS_stat+0x60>
8040afb8:	aca30000 	sw	v1,0(a1)
8040afbc:	00000000 	nop

8040afc0 <rtems_filesystem_initialize>:
8040afc0:	27bdffc0 	addiu	sp,sp,-64
8040afc4:	afb20038 	sw	s2,56(sp)
8040afc8:	3c128041 	lui	s2,0x8041
8040afcc:	8e4337c0 	lw	v1,14272(s2)
8040afd0:	24020012 	li	v0,18
8040afd4:	ac620024 	sw	v0,36(v1)
8040afd8:	afbf003c 	sw	ra,60(sp)
8040afdc:	afb10034 	sw	s1,52(sp)
8040afe0:	0c102e74 	jal	8040b9d0 <init_fs_mount_table>
8040afe4:	afb00030 	sw	s0,48(sp)
8040afe8:	3c038041 	lui	v1,0x8041
8040afec:	8c6224b0 	lw	v0,9392(v1)
8040aff0:	1040003f 	beqz	v0,8040b0f0 <rtems_filesystem_initialize+0x130>
8040aff4:	3c028041 	lui	v0,0x8041
8040aff8:	8c433698 	lw	v1,13976(v0)
8040affc:	27a40018 	addiu	a0,sp,24
8040b000:	8c650000 	lw	a1,0(v1)
8040b004:	8c660004 	lw	a2,4(v1)
8040b008:	8c670008 	lw	a3,8(v1)
8040b00c:	8c62000c 	lw	v0,12(v1)
8040b010:	0c102e7d 	jal	8040b9f4 <mount>
8040b014:	afa20010 	sw	v0,16(sp)
8040b018:	2403ffff 	li	v1,-1
8040b01c:	10430037 	beq	v0,v1,8040b0fc <rtems_filesystem_initialize+0x13c>
8040b020:	8fa20018 	lw	v0,24(sp)
8040b024:	8e4337c0 	lw	v1,14272(s2)
8040b028:	8c440024 	lw	a0,36(v0)
8040b02c:	8c450018 	lw	a1,24(v0)
8040b030:	8c46001c 	lw	a2,28(v0)
8040b034:	8c470020 	lw	a3,32(v0)
8040b038:	27b1001c 	addiu	s1,sp,28
8040b03c:	3c108041 	lui	s0,0x8041
8040b040:	ac640020 	sw	a0,32(v1)
8040b044:	ac650014 	sw	a1,20(v1)
8040b048:	ac660018 	sw	a2,24(v1)
8040b04c:	ac67001c 	sw	a3,28(v1)
8040b050:	a4600028 	sh	zero,40(v1)
8040b054:	260434e8 	addiu	a0,s0,13544
8040b058:	00002821 	move	a1,zero
8040b05c:	02203021 	move	a2,s1
8040b060:	0c100370 	jal	80400dc0 <rtems_filesystem_evaluate_path>
8040b064:	00003821 	move	a3,zero
8040b068:	8e4337c0 	lw	v1,14272(s2)
8040b06c:	8fa50020 	lw	a1,32(sp)
8040b070:	8fa60024 	lw	a2,36(sp)
8040b074:	8fa40028 	lw	a0,40(sp)
8040b078:	8fa2001c 	lw	v0,28(sp)
8040b07c:	00003821 	move	a3,zero
8040b080:	ac640020 	sw	a0,32(v1)
8040b084:	ac650018 	sw	a1,24(v1)
8040b088:	ac66001c 	sw	a2,28(v1)
8040b08c:	ac620014 	sw	v0,20(v1)
8040b090:	260434e8 	addiu	a0,s0,13544
8040b094:	02203021 	move	a2,s1
8040b098:	0c100370 	jal	80400dc0 <rtems_filesystem_evaluate_path>
8040b09c:	00002821 	move	a1,zero
8040b0a0:	8fa4001c 	lw	a0,28(sp)
8040b0a4:	8e4337c0 	lw	v1,14272(s2)
8040b0a8:	8fa50020 	lw	a1,32(sp)
8040b0ac:	8fa60024 	lw	a2,36(sp)
8040b0b0:	8fa20028 	lw	v0,40(sp)
8040b0b4:	ac640004 	sw	a0,4(v1)
8040b0b8:	3c048041 	lui	a0,0x8041
8040b0bc:	ac650008 	sw	a1,8(v1)
8040b0c0:	ac620010 	sw	v0,16(v1)
8040b0c4:	ac66000c 	sw	a2,12(v1)
8040b0c8:	248434ec 	addiu	a0,a0,13548
8040b0cc:	0c102e70 	jal	8040b9c0 <mkdir>
8040b0d0:	240501ff 	li	a1,511
8040b0d4:	1440000c 	bnez	v0,8040b108 <rtems_filesystem_initialize+0x148>
8040b0d8:	8fbf003c 	lw	ra,60(sp)
8040b0dc:	8fb20038 	lw	s2,56(sp)
8040b0e0:	8fb10034 	lw	s1,52(sp)
8040b0e4:	8fb00030 	lw	s0,48(sp)
8040b0e8:	03e00008 	jr	ra
8040b0ec:	27bd0040 	addiu	sp,sp,64
8040b0f0:	3c04abcd 	lui	a0,0xabcd
8040b0f4:	0c1016d4 	jal	80405b50 <rtems_fatal_error_occurred>
8040b0f8:	34840001 	ori	a0,a0,0x1
8040b0fc:	3c04abcd 	lui	a0,0xabcd
8040b100:	0c1016d4 	jal	80405b50 <rtems_fatal_error_occurred>
8040b104:	34840002 	ori	a0,a0,0x2
8040b108:	3c04abcd 	lui	a0,0xabcd
8040b10c:	0c1016d4 	jal	80405b50 <rtems_fatal_error_occurred>
8040b110:	34840003 	ori	a0,a0,0x3
	...

8040b120 <calloc>:
8040b120:	27bdffe0 	addiu	sp,sp,-32
8040b124:	afb20018 	sw	s2,24(sp)
8040b128:	3c038041 	lui	v1,0x8041
8040b12c:	70a49002 	mul	s2,a1,a0
8040b130:	afb10014 	sw	s1,20(sp)
8040b134:	247143f8 	addiu	s1,v1,17400
8040b138:	8e220014 	lw	v0,20(s1)
8040b13c:	02402021 	move	a0,s2
8040b140:	24420001 	addiu	v0,v0,1
8040b144:	afb00010 	sw	s0,16(sp)
8040b148:	afbf001c 	sw	ra,28(sp)
8040b14c:	0c10044c 	jal	80401130 <malloc>
8040b150:	ae220014 	sw	v0,20(s1)
8040b154:	10400005 	beqz	v0,8040b16c <calloc+0x4c>
8040b158:	00408021 	move	s0,v0
8040b15c:	02403021 	move	a2,s2
8040b160:	00402021 	move	a0,v0
8040b164:	0c103dd8 	jal	8040f760 <memset>
8040b168:	00002821 	move	a1,zero
8040b16c:	8e230004 	lw	v1,4(s1)
8040b170:	8fbf001c 	lw	ra,28(sp)
8040b174:	2463ffff 	addiu	v1,v1,-1
8040b178:	02001021 	move	v0,s0
8040b17c:	ae230004 	sw	v1,4(s1)
8040b180:	8fb20018 	lw	s2,24(sp)
8040b184:	8fb10014 	lw	s1,20(sp)
8040b188:	8fb00010 	lw	s0,16(sp)
8040b18c:	03e00008 	jr	ra
8040b190:	27bd0020 	addiu	sp,sp,32
	...

8040b1a0 <close>:
8040b1a0:	3c038041 	lui	v1,0x8041
8040b1a4:	8c623690 	lw	v0,13968(v1)
8040b1a8:	27bdffe0 	addiu	sp,sp,-32
8040b1ac:	0082102b 	sltu	v0,a0,v0
8040b1b0:	afbf001c 	sw	ra,28(sp)
8040b1b4:	afb10018 	sw	s1,24(sp)
8040b1b8:	10400024 	beqz	v0,8040b24c <close+0xac>
8040b1bc:	afb00014 	sw	s0,20(sp)
8040b1c0:	00041880 	sll	v1,a0,0x2
8040b1c4:	00041100 	sll	v0,a0,0x4
8040b1c8:	00431023 	subu	v0,v0,v1
8040b1cc:	3c038041 	lui	v1,0x8041
8040b1d0:	00441021 	addu	v0,v0,a0
8040b1d4:	8c644394 	lw	a0,17300(v1)
8040b1d8:	00021080 	sll	v0,v0,0x2
8040b1dc:	00828021 	addu	s0,a0,v0
8040b1e0:	8e03000c 	lw	v1,12(s0)
8040b1e4:	30630100 	andi	v1,v1,0x100
8040b1e8:	10600018 	beqz	v1,8040b24c <close+0xac>
8040b1ec:	00000000 	nop
8040b1f0:	8e020030 	lw	v0,48(s0)
8040b1f4:	8c420004 	lw	v0,4(v0)
8040b1f8:	10400004 	beqz	v0,8040b20c <close+0x6c>
8040b1fc:	00008821 	move	s1,zero
8040b200:	0040f809 	jalr	v0
8040b204:	02002021 	move	a0,s0
8040b208:	00408821 	move	s1,v0
8040b20c:	8e020018 	lw	v0,24(s0)
8040b210:	10400006 	beqz	v0,8040b22c <close+0x8c>
8040b214:	00000000 	nop
8040b218:	8c42001c 	lw	v0,28(v0)
8040b21c:	10400003 	beqz	v0,8040b22c <close+0x8c>
8040b220:	00000000 	nop
8040b224:	0040f809 	jalr	v0
8040b228:	26040010 	addiu	a0,s0,16
8040b22c:	0c102dd8 	jal	8040b760 <rtems_libio_free>
8040b230:	02002021 	move	a0,s0
8040b234:	8fbf001c 	lw	ra,28(sp)
8040b238:	02201021 	move	v0,s1
8040b23c:	8fb10018 	lw	s1,24(sp)
8040b240:	8fb00014 	lw	s0,20(sp)
8040b244:	03e00008 	jr	ra
8040b248:	27bd0020 	addiu	sp,sp,32
8040b24c:	0c103b34 	jal	8040ecd0 <__errno>
8040b250:	2411ffff 	li	s1,-1
8040b254:	24030009 	li	v1,9
8040b258:	08102c8d 	j	8040b234 <close+0x94>
8040b25c:	ac430000 	sw	v1,0(v0)

8040b260 <_close_r>:
8040b260:	08102c68 	j	8040b1a0 <close>
8040b264:	00a02021 	move	a0,a1
	...

8040b270 <free>:
8040b270:	3c038041 	lui	v1,0x8041
8040b274:	246343f8 	addiu	v1,v1,17400
8040b278:	8c62000c 	lw	v0,12(v1)
8040b27c:	27bdffe0 	addiu	sp,sp,-32
8040b280:	24420001 	addiu	v0,v0,1
8040b284:	afb00014 	sw	s0,20(sp)
8040b288:	afbf001c 	sw	ra,28(sp)
8040b28c:	afb10018 	sw	s1,24(sp)
8040b290:	00808021 	move	s0,a0
8040b294:	10800012 	beqz	a0,8040b2e0 <free+0x70>
8040b298:	ac62000c 	sw	v0,12(v1)
8040b29c:	3c028041 	lui	v0,0x8041
8040b2a0:	8c4446b4 	lw	a0,18100(v0)
8040b2a4:	24030003 	li	v1,3
8040b2a8:	1083001c 	beq	a0,v1,8040b31c <free+0xac>
8040b2ac:	3c028041 	lui	v0,0x8041
8040b2b0:	8c424144 	lw	v0,16708(v0)
8040b2b4:	10400005 	beqz	v0,8040b2cc <free+0x5c>
8040b2b8:	3c118041 	lui	s1,0x8041
8040b2bc:	8c420008 	lw	v0,8(v0)
8040b2c0:	0040f809 	jalr	v0
8040b2c4:	02002021 	move	a0,s0
8040b2c8:	3c118041 	lui	s1,0x8041
8040b2cc:	262443a0 	addiu	a0,s1,17312
8040b2d0:	0c1034a0 	jal	8040d280 <_Protected_heap_Free>
8040b2d4:	02002821 	move	a1,s0
8040b2d8:	10400006 	beqz	v0,8040b2f4 <free+0x84>
8040b2dc:	262243a0 	addiu	v0,s1,17312
8040b2e0:	8fbf001c 	lw	ra,28(sp)
8040b2e4:	8fb10018 	lw	s1,24(sp)
8040b2e8:	8fb00014 	lw	s0,20(sp)
8040b2ec:	03e00008 	jr	ra
8040b2f0:	27bd0020 	addiu	sp,sp,32
8040b2f4:	3c048041 	lui	a0,0x8041
8040b2f8:	8c47001c 	lw	a3,28(v0)
8040b2fc:	8c460020 	lw	a2,32(v0)
8040b300:	02002821 	move	a1,s0
8040b304:	8fbf001c 	lw	ra,28(sp)
8040b308:	8fb10018 	lw	s1,24(sp)
8040b30c:	8fb00014 	lw	s0,20(sp)
8040b310:	248434f4 	addiu	a0,a0,13556
8040b314:	08100789 	j	80401e24 <printk>
8040b318:	27bd0020 	addiu	sp,sp,32
8040b31c:	0c102e48 	jal	8040b920 <malloc_is_system_state_OK>
8040b320:	00000000 	nop
8040b324:	1440ffe2 	bnez	v0,8040b2b0 <free+0x40>
8040b328:	3c028041 	lui	v0,0x8041
8040b32c:	02002021 	move	a0,s0
8040b330:	8fbf001c 	lw	ra,28(sp)
8040b334:	8fb10018 	lw	s1,24(sp)
8040b338:	8fb00014 	lw	s0,20(sp)
8040b33c:	08102e5a 	j	8040b968 <malloc_deferred_free>
8040b340:	27bd0020 	addiu	sp,sp,32
	...

8040b350 <ftruncate>:
8040b350:	3c028041 	lui	v0,0x8041
8040b354:	8c433690 	lw	v1,13968(v0)
8040b358:	27bdffd0 	addiu	sp,sp,-48
8040b35c:	0083182b 	sltu	v1,a0,v1
8040b360:	afb10028 	sw	s1,40(sp)
8040b364:	afbf002c 	sw	ra,44(sp)
8040b368:	afb00024 	sw	s0,36(sp)
8040b36c:	1060002b 	beqz	v1,8040b41c <ftruncate+0xcc>
8040b370:	00a08821 	move	s1,a1
8040b374:	00041880 	sll	v1,a0,0x2
8040b378:	00041100 	sll	v0,a0,0x4
8040b37c:	00431023 	subu	v0,v0,v1
8040b380:	3c038041 	lui	v1,0x8041
8040b384:	00441021 	addu	v0,v0,a0
8040b388:	8c644394 	lw	a0,17300(v1)
8040b38c:	00021080 	sll	v0,v0,0x2
8040b390:	00828021 	addu	s0,a0,v0
8040b394:	8e03000c 	lw	v1,12(s0)
8040b398:	30630100 	andi	v1,v1,0x100
8040b39c:	1060001f 	beqz	v1,8040b41c <ftruncate+0xcc>
8040b3a0:	00000000 	nop
8040b3a4:	8e050018 	lw	a1,24(s0)
8040b3a8:	8e040010 	lw	a0,16(s0)
8040b3ac:	8e020014 	lw	v0,20(s0)
8040b3b0:	8e03001c 	lw	v1,28(s0)
8040b3b4:	8ca60010 	lw	a2,16(a1)
8040b3b8:	afa40010 	sw	a0,16(sp)
8040b3bc:	afa20014 	sw	v0,20(sp)
8040b3c0:	afa3001c 	sw	v1,28(sp)
8040b3c4:	10c00021 	beqz	a2,8040b44c <ftruncate+0xfc>
8040b3c8:	afa50018 	sw	a1,24(sp)
8040b3cc:	00c0f809 	jalr	a2
8040b3d0:	27a40010 	addiu	a0,sp,16
8040b3d4:	24030001 	li	v1,1
8040b3d8:	10430022 	beq	v0,v1,8040b464 <ftruncate+0x114>
8040b3dc:	00000000 	nop
8040b3e0:	8e02000c 	lw	v0,12(s0)
8040b3e4:	30420004 	andi	v0,v0,0x4
8040b3e8:	10400012 	beqz	v0,8040b434 <ftruncate+0xe4>
8040b3ec:	00000000 	nop
8040b3f0:	8e020030 	lw	v0,48(s0)
8040b3f4:	8c420020 	lw	v0,32(v0)
8040b3f8:	10400014 	beqz	v0,8040b44c <ftruncate+0xfc>
8040b3fc:	02002021 	move	a0,s0
8040b400:	0040f809 	jalr	v0
8040b404:	02202821 	move	a1,s1
8040b408:	8fbf002c 	lw	ra,44(sp)
8040b40c:	8fb10028 	lw	s1,40(sp)
8040b410:	8fb00024 	lw	s0,36(sp)
8040b414:	03e00008 	jr	ra
8040b418:	27bd0030 	addiu	sp,sp,48
8040b41c:	0c103b34 	jal	8040ecd0 <__errno>
8040b420:	00000000 	nop
8040b424:	24030009 	li	v1,9
8040b428:	ac430000 	sw	v1,0(v0)
8040b42c:	08102d02 	j	8040b408 <ftruncate+0xb8>
8040b430:	2402ffff 	li	v0,-1
8040b434:	0c103b34 	jal	8040ecd0 <__errno>
8040b438:	00000000 	nop
8040b43c:	24030016 	li	v1,22
8040b440:	ac430000 	sw	v1,0(v0)
8040b444:	08102d02 	j	8040b408 <ftruncate+0xb8>
8040b448:	2402ffff 	li	v0,-1
8040b44c:	0c103b34 	jal	8040ecd0 <__errno>
8040b450:	00000000 	nop
8040b454:	24030086 	li	v1,134
8040b458:	ac430000 	sw	v1,0(v0)
8040b45c:	08102d02 	j	8040b408 <ftruncate+0xb8>
8040b460:	2402ffff 	li	v0,-1
8040b464:	0c103b34 	jal	8040ecd0 <__errno>
8040b468:	00000000 	nop
8040b46c:	24030015 	li	v1,21
8040b470:	ac430000 	sw	v1,0(v0)
8040b474:	08102d02 	j	8040b408 <ftruncate+0xb8>
8040b478:	2402ffff 	li	v0,-1
8040b47c:	00000000 	nop

8040b480 <getegid>:
8040b480:	3c028041 	lui	v0,0x8041
8040b484:	8c4337c0 	lw	v1,14272(v0)
8040b488:	03e00008 	jr	ra
8040b48c:	94620030 	lhu	v0,48(v1)

8040b490 <geteuid>:
8040b490:	3c028041 	lui	v0,0x8041
8040b494:	8c4337c0 	lw	v1,14272(v0)
8040b498:	03e00008 	jr	ra
8040b49c:	9462002e 	lhu	v0,46(v1)

8040b4a0 <gettimeofday>:
8040b4a0:	27bdffd8 	addiu	sp,sp,-40
8040b4a4:	afb10020 	sw	s1,32(sp)
8040b4a8:	afbf0024 	sw	ra,36(sp)
8040b4ac:	afb0001c 	sw	s0,28(sp)
8040b4b0:	10800020 	beqz	a0,8040b534 <gettimeofday+0x94>
8040b4b4:	00808821 	move	s1,a0
8040b4b8:	40106000 	mfc0	s0,c0_status
8040b4bc:	00000000 	nop
8040b4c0:	2402fffe 	li	v0,-2
8040b4c4:	02021024 	and	v0,s0,v0
8040b4c8:	40826000 	mtc0	v0,c0_status
8040b4cc:	00000000 	nop
8040b4d0:	0c1019e8 	jal	804067a0 <_TOD_Get>
8040b4d4:	27a40010 	addiu	a0,sp,16
8040b4d8:	40026000 	mfc0	v0,c0_status
8040b4dc:	00000000 	nop
8040b4e0:	2403fffe 	li	v1,-2
8040b4e4:	00431024 	and	v0,v0,v1
8040b4e8:	32100001 	andi	s0,s0,0x1
8040b4ec:	02028025 	or	s0,s0,v0
8040b4f0:	40906000 	mtc0	s0,c0_status
8040b4f4:	00000000 	nop
8040b4f8:	3c031062 	lui	v1,0x1062
8040b4fc:	8fa20014 	lw	v0,20(sp)
8040b500:	34634dd3 	ori	v1,v1,0x4dd3
8040b504:	00430019 	multu	v0,v1
8040b508:	8fa40010 	lw	a0,16(sp)
8040b50c:	00001010 	mfhi	v0
8040b510:	ae240000 	sw	a0,0(s1)
8040b514:	00021182 	srl	v0,v0,0x6
8040b518:	ae220004 	sw	v0,4(s1)
8040b51c:	00001021 	move	v0,zero
8040b520:	8fbf0024 	lw	ra,36(sp)
8040b524:	8fb10020 	lw	s1,32(sp)
8040b528:	8fb0001c 	lw	s0,28(sp)
8040b52c:	03e00008 	jr	ra
8040b530:	27bd0028 	addiu	sp,sp,40
8040b534:	0c103b34 	jal	8040ecd0 <__errno>
8040b538:	00000000 	nop
8040b53c:	2403000e 	li	v1,14
8040b540:	ac430000 	sw	v1,0(v0)
8040b544:	08102d48 	j	8040b520 <gettimeofday+0x80>
8040b548:	2402ffff 	li	v0,-1

8040b54c <_gettimeofday>:
8040b54c:	08102d28 	j	8040b4a0 <gettimeofday>
8040b550:	00000000 	nop

8040b554 <_gettimeofday_r>:
8040b554:	00a02021 	move	a0,a1
8040b558:	08102d28 	j	8040b4a0 <gettimeofday>
8040b55c:	00c02821 	move	a1,a2

8040b560 <rtems_libio_to_fcntl_flags>:
8040b560:	30830006 	andi	v1,a0,0x6
8040b564:	24020006 	li	v0,6
8040b568:	1062001a 	beq	v1,v0,8040b5d4 <rtems_libio_to_fcntl_flags+0x74>
8040b56c:	00803021 	move	a2,a0
8040b570:	30820002 	andi	v0,a0,0x2
8040b574:	1440000d 	bnez	v0,8040b5ac <rtems_libio_to_fcntl_flags+0x4c>
8040b578:	00002821 	move	a1,zero
8040b57c:	00041082 	srl	v0,a0,0x2
8040b580:	30450001 	andi	a1,v0,0x1
8040b584:	30c30001 	andi	v1,a2,0x1
8040b588:	34a24000 	ori	v0,a1,0x4000
8040b58c:	0043280b 	movn	a1,v0,v1
8040b590:	30c40200 	andi	a0,a2,0x200
8040b594:	34a20008 	ori	v0,a1,0x8
8040b598:	0044280b 	movn	a1,v0,a0
8040b59c:	30c30400 	andi	v1,a2,0x400
8040b5a0:	34a20200 	ori	v0,a1,0x200
8040b5a4:	03e00008 	jr	ra
8040b5a8:	00a3100a 	movz	v0,a1,v1
8040b5ac:	30c30001 	andi	v1,a2,0x1
8040b5b0:	34a24000 	ori	v0,a1,0x4000
8040b5b4:	0043280b 	movn	a1,v0,v1
8040b5b8:	30c40200 	andi	a0,a2,0x200
8040b5bc:	34a20008 	ori	v0,a1,0x8
8040b5c0:	0044280b 	movn	a1,v0,a0
8040b5c4:	30c30400 	andi	v1,a2,0x400
8040b5c8:	34a20200 	ori	v0,a1,0x200
8040b5cc:	03e00008 	jr	ra
8040b5d0:	00a3100a 	movz	v0,a1,v1
8040b5d4:	24050002 	li	a1,2
8040b5d8:	30c30001 	andi	v1,a2,0x1
8040b5dc:	34a24000 	ori	v0,a1,0x4000
8040b5e0:	0043280b 	movn	a1,v0,v1
8040b5e4:	30c40200 	andi	a0,a2,0x200
8040b5e8:	34a20008 	ori	v0,a1,0x8
8040b5ec:	0044280b 	movn	a1,v0,a0
8040b5f0:	30c30400 	andi	v1,a2,0x400
8040b5f4:	34a20200 	ori	v0,a1,0x200
8040b5f8:	03e00008 	jr	ra
8040b5fc:	00a3100a 	movz	v0,a1,v1

8040b600 <rtems_libio_is_file_open>:
8040b600:	27bdffe0 	addiu	sp,sp,-32
8040b604:	afb10018 	sw	s1,24(sp)
8040b608:	3c118041 	lui	s1,0x8041
8040b60c:	afb00014 	sw	s0,20(sp)
8040b610:	00808021 	move	s0,a0
8040b614:	8e24439c 	lw	a0,17308(s1)
8040b618:	00003021 	move	a2,zero
8040b61c:	afbf001c 	sw	ra,28(sp)
8040b620:	0c1013f0 	jal	80404fc0 <rtems_semaphore_obtain>
8040b624:	00002821 	move	a1,zero
8040b628:	3c038041 	lui	v1,0x8041
8040b62c:	8c663690 	lw	a2,13968(v1)
8040b630:	3c028041 	lui	v0,0x8041
8040b634:	10c0000c 	beqz	a2,8040b668 <rtems_libio_is_file_open+0x68>
8040b638:	8c444394 	lw	a0,17300(v0)
8040b63c:	00001821 	move	v1,zero
8040b640:	8c82000c 	lw	v0,12(a0)
8040b644:	24630001 	addiu	v1,v1,1
8040b648:	30420100 	andi	v0,v0,0x100
8040b64c:	10400004 	beqz	v0,8040b660 <rtems_libio_is_file_open+0x60>
8040b650:	0066282b 	sltu	a1,v1,a2
8040b654:	8c820010 	lw	v0,16(a0)
8040b658:	1050000c 	beq	v0,s0,8040b68c <rtems_libio_is_file_open+0x8c>
8040b65c:	00000000 	nop
8040b660:	14a0fff7 	bnez	a1,8040b640 <rtems_libio_is_file_open+0x40>
8040b664:	24840034 	addiu	a0,a0,52
8040b668:	8e24439c 	lw	a0,17308(s1)
8040b66c:	0c101504 	jal	80405410 <rtems_semaphore_release>
8040b670:	00008021 	move	s0,zero
8040b674:	8fbf001c 	lw	ra,28(sp)
8040b678:	02001021 	move	v0,s0
8040b67c:	8fb10018 	lw	s1,24(sp)
8040b680:	8fb00014 	lw	s0,20(sp)
8040b684:	03e00008 	jr	ra
8040b688:	27bd0020 	addiu	sp,sp,32
8040b68c:	8e24439c 	lw	a0,17308(s1)
8040b690:	0c101504 	jal	80405410 <rtems_semaphore_release>
8040b694:	24100001 	li	s0,1
8040b698:	8fbf001c 	lw	ra,28(sp)
8040b69c:	02001021 	move	v0,s0
8040b6a0:	8fb10018 	lw	s1,24(sp)
8040b6a4:	8fb00014 	lw	s0,20(sp)
8040b6a8:	03e00008 	jr	ra
8040b6ac:	27bd0020 	addiu	sp,sp,32

8040b6b0 <rtems_libio_is_open_files_in_fs>:
8040b6b0:	27bdffe0 	addiu	sp,sp,-32
8040b6b4:	afb10018 	sw	s1,24(sp)
8040b6b8:	3c118041 	lui	s1,0x8041
8040b6bc:	afb00014 	sw	s0,20(sp)
8040b6c0:	00808021 	move	s0,a0
8040b6c4:	8e24439c 	lw	a0,17308(s1)
8040b6c8:	00003021 	move	a2,zero
8040b6cc:	afbf001c 	sw	ra,28(sp)
8040b6d0:	0c1013f0 	jal	80404fc0 <rtems_semaphore_obtain>
8040b6d4:	00002821 	move	a1,zero
8040b6d8:	3c038041 	lui	v1,0x8041
8040b6dc:	8c663690 	lw	a2,13968(v1)
8040b6e0:	3c028041 	lui	v0,0x8041
8040b6e4:	10c0000c 	beqz	a2,8040b718 <rtems_libio_is_open_files_in_fs+0x68>
8040b6e8:	8c444394 	lw	a0,17300(v0)
8040b6ec:	00001821 	move	v1,zero
8040b6f0:	8c82000c 	lw	v0,12(a0)
8040b6f4:	24630001 	addiu	v1,v1,1
8040b6f8:	30420100 	andi	v0,v0,0x100
8040b6fc:	10400004 	beqz	v0,8040b710 <rtems_libio_is_open_files_in_fs+0x60>
8040b700:	0066282b 	sltu	a1,v1,a2
8040b704:	8c82001c 	lw	v0,28(a0)
8040b708:	1050000c 	beq	v0,s0,8040b73c <rtems_libio_is_open_files_in_fs+0x8c>
8040b70c:	00000000 	nop
8040b710:	14a0fff7 	bnez	a1,8040b6f0 <rtems_libio_is_open_files_in_fs+0x40>
8040b714:	24840034 	addiu	a0,a0,52
8040b718:	8e24439c 	lw	a0,17308(s1)
8040b71c:	0c101504 	jal	80405410 <rtems_semaphore_release>
8040b720:	00008021 	move	s0,zero
8040b724:	8fbf001c 	lw	ra,28(sp)
8040b728:	02001021 	move	v0,s0
8040b72c:	8fb10018 	lw	s1,24(sp)
8040b730:	8fb00014 	lw	s0,20(sp)
8040b734:	03e00008 	jr	ra
8040b738:	27bd0020 	addiu	sp,sp,32
8040b73c:	8e24439c 	lw	a0,17308(s1)
8040b740:	0c101504 	jal	80405410 <rtems_semaphore_release>
8040b744:	24100001 	li	s0,1
8040b748:	8fbf001c 	lw	ra,28(sp)
8040b74c:	02001021 	move	v0,s0
8040b750:	8fb10018 	lw	s1,24(sp)
8040b754:	8fb00014 	lw	s0,20(sp)
8040b758:	03e00008 	jr	ra
8040b75c:	27bd0020 	addiu	sp,sp,32

8040b760 <rtems_libio_free>:
8040b760:	27bdffe0 	addiu	sp,sp,-32
8040b764:	afb10018 	sw	s1,24(sp)
8040b768:	3c118041 	lui	s1,0x8041
8040b76c:	afb00014 	sw	s0,20(sp)
8040b770:	00808021 	move	s0,a0
8040b774:	8e24439c 	lw	a0,17308(s1)
8040b778:	00002821 	move	a1,zero
8040b77c:	afbf001c 	sw	ra,28(sp)
8040b780:	0c1013f0 	jal	80404fc0 <rtems_semaphore_obtain>
8040b784:	00003021 	move	a2,zero
8040b788:	8e040020 	lw	a0,32(s0)
8040b78c:	10800003 	beqz	a0,8040b79c <rtems_libio_free+0x3c>
8040b790:	00000000 	nop
8040b794:	0c1013b4 	jal	80404ed0 <rtems_semaphore_delete>
8040b798:	00000000 	nop
8040b79c:	8e03000c 	lw	v1,12(s0)
8040b7a0:	3c058041 	lui	a1,0x8041
8040b7a4:	8ca64398 	lw	a2,17304(a1)
8040b7a8:	2402feff 	li	v0,-257
8040b7ac:	8e24439c 	lw	a0,17308(s1)
8040b7b0:	00621824 	and	v1,v1,v0
8040b7b4:	ae03000c 	sw	v1,12(s0)
8040b7b8:	ae060028 	sw	a2,40(s0)
8040b7bc:	acb04398 	sw	s0,17304(a1)
8040b7c0:	8fbf001c 	lw	ra,28(sp)
8040b7c4:	8fb10018 	lw	s1,24(sp)
8040b7c8:	8fb00014 	lw	s0,20(sp)
8040b7cc:	08101504 	j	80405410 <rtems_semaphore_release>
8040b7d0:	27bd0020 	addiu	sp,sp,32

8040b7d4 <rtems_libio_allocate>:
8040b7d4:	27bdffd0 	addiu	sp,sp,-48
8040b7d8:	afb10020 	sw	s1,32(sp)
8040b7dc:	3c118041 	lui	s1,0x8041
8040b7e0:	8e24439c 	lw	a0,17308(s1)
8040b7e4:	afb20024 	sw	s2,36(sp)
8040b7e8:	00002821 	move	a1,zero
8040b7ec:	00003021 	move	a2,zero
8040b7f0:	3c128041 	lui	s2,0x8041
8040b7f4:	afb0001c 	sw	s0,28(sp)
8040b7f8:	afbf002c 	sw	ra,44(sp)
8040b7fc:	0c1013f0 	jal	80404fc0 <rtems_semaphore_obtain>
8040b800:	afb30028 	sw	s3,40(sp)
8040b804:	8e504398 	lw	s0,17304(s2)
8040b808:	1600000b 	bnez	s0,8040b838 <rtems_libio_allocate+0x64>
8040b80c:	3c028041 	lui	v0,0x8041
8040b810:	0c101504 	jal	80405410 <rtems_semaphore_release>
8040b814:	8e24439c 	lw	a0,17308(s1)
8040b818:	8fbf002c 	lw	ra,44(sp)
8040b81c:	02001021 	move	v0,s0
8040b820:	8fb30028 	lw	s3,40(sp)
8040b824:	8fb20024 	lw	s2,36(sp)
8040b828:	8fb10020 	lw	s1,32(sp)
8040b82c:	8fb0001c 	lw	s0,28(sp)
8040b830:	03e00008 	jr	ra
8040b834:	27bd0030 	addiu	sp,sp,48
8040b838:	ae000000 	sw	zero,0(s0)
8040b83c:	ae000004 	sw	zero,4(s0)
8040b840:	ae000008 	sw	zero,8(s0)
8040b844:	ae000010 	sw	zero,16(s0)
8040b848:	ae000014 	sw	zero,20(s0)
8040b84c:	ae000018 	sw	zero,24(s0)
8040b850:	ae00001c 	sw	zero,28(s0)
8040b854:	ae000020 	sw	zero,32(s0)
8040b858:	ae000024 	sw	zero,36(s0)
8040b85c:	ae00002c 	sw	zero,44(s0)
8040b860:	ae000030 	sw	zero,48(s0)
8040b864:	8e130028 	lw	s3,40(s0)
8040b868:	ae000028 	sw	zero,40(s0)
8040b86c:	8c434394 	lw	v1,17300(v0)
8040b870:	3c02c4ec 	lui	v0,0xc4ec
8040b874:	02031823 	subu	v1,s0,v1
8040b878:	34424ec5 	ori	v0,v0,0x4ec5
8040b87c:	00031883 	sra	v1,v1,0x2
8040b880:	70621802 	mul	v1,v1,v0
8040b884:	24040100 	li	a0,256
8040b888:	ae04000c 	sw	a0,12(s0)
8040b88c:	3c044c42 	lui	a0,0x4c42
8040b890:	34844900 	ori	a0,a0,0x4900
8040b894:	26020020 	addiu	v0,s0,32
8040b898:	00642025 	or	a0,v1,a0
8040b89c:	24050001 	li	a1,1
8040b8a0:	24060054 	li	a2,84
8040b8a4:	00003821 	move	a3,zero
8040b8a8:	0c101318 	jal	80404c60 <rtems_semaphore_create>
8040b8ac:	afa20010 	sw	v0,16(sp)
8040b8b0:	14400003 	bnez	v0,8040b8c0 <rtems_libio_allocate+0xec>
8040b8b4:	00000000 	nop
8040b8b8:	08102e04 	j	8040b810 <rtems_libio_allocate+0x3c>
8040b8bc:	ae534398 	sw	s3,17304(s2)
8040b8c0:	08102e04 	j	8040b810 <rtems_libio_allocate+0x3c>
8040b8c4:	00008021 	move	s0,zero

8040b8c8 <rtems_libio_fcntl_flags>:
8040b8c8:	27bdffe0 	addiu	sp,sp,-32
8040b8cc:	afb00014 	sw	s0,20(sp)
8040b8d0:	00808021 	move	s0,a0
8040b8d4:	3c048041 	lui	a0,0x8041
8040b8d8:	32050003 	andi	a1,s0,0x3
8040b8dc:	24842a40 	addiu	a0,a0,10816
8040b8e0:	afbf001c 	sw	ra,28(sp)
8040b8e4:	0c1037d8 	jal	8040df60 <rtems_assoc_local_by_remote>
8040b8e8:	afb10018 	sw	s1,24(sp)
8040b8ec:	2405fffc 	li	a1,-4
8040b8f0:	3c048041 	lui	a0,0x8041
8040b8f4:	02052824 	and	a1,s0,a1
8040b8f8:	24842a70 	addiu	a0,a0,10864
8040b8fc:	0c1037b4 	jal	8040ded0 <rtems_assoc_local_by_remote_bitfield>
8040b900:	00408821 	move	s1,v0
8040b904:	8fbf001c 	lw	ra,28(sp)
8040b908:	00511025 	or	v0,v0,s1
8040b90c:	8fb10018 	lw	s1,24(sp)
8040b910:	8fb00014 	lw	s0,20(sp)
8040b914:	03e00008 	jr	ra
8040b918:	27bd0020 	addiu	sp,sp,32
8040b91c:	00000000 	nop

8040b920 <malloc_is_system_state_OK>:
8040b920:	3c028041 	lui	v0,0x8041
8040b924:	8c434514 	lw	v1,17684(v0)
8040b928:	14600005 	bnez	v1,8040b940 <malloc_is_system_state_OK+0x20>
8040b92c:	00000000 	nop
8040b930:	3c028041 	lui	v0,0x8041
8040b934:	8c4345b0 	lw	v1,17840(v0)
8040b938:	03e00008 	jr	ra
8040b93c:	2c620001 	sltiu	v0,v1,1
8040b940:	03e00008 	jr	ra
8040b944:	00001021 	move	v0,zero

8040b948 <malloc_deferred_frees_initialize>:
8040b948:	3c048041 	lui	a0,0x8041
8040b94c:	3c028041 	lui	v0,0x8041
8040b950:	24834c6c 	addiu	v1,a0,19564
8040b954:	24424c70 	addiu	v0,v0,19568
8040b958:	ac824c6c 	sw	v0,19564(a0)
8040b95c:	ac630008 	sw	v1,8(v1)
8040b960:	03e00008 	jr	ra
8040b964:	ac600004 	sw	zero,4(v1)

8040b968 <malloc_deferred_free>:
8040b968:	00802821 	move	a1,a0
8040b96c:	3c048041 	lui	a0,0x8041
8040b970:	081018d8 	j	80406360 <_Chain_Append>
8040b974:	24844c6c 	addiu	a0,a0,19564

8040b978 <malloc_deferred_frees_process>:
8040b978:	27bdffe8 	addiu	sp,sp,-24
8040b97c:	3c028041 	lui	v0,0x8041
8040b980:	afb00010 	sw	s0,16(sp)
8040b984:	afbf0014 	sw	ra,20(sp)
8040b988:	08102e66 	j	8040b998 <malloc_deferred_frees_process+0x20>
8040b98c:	24504c6c 	addiu	s0,v0,19564
8040b990:	0c102c9c 	jal	8040b270 <free>
8040b994:	00000000 	nop
8040b998:	0c103360 	jal	8040cd80 <_Chain_Get>
8040b99c:	02002021 	move	a0,s0
8040b9a0:	1440fffb 	bnez	v0,8040b990 <malloc_deferred_frees_process+0x18>
8040b9a4:	00402021 	move	a0,v0
8040b9a8:	8fbf0014 	lw	ra,20(sp)
8040b9ac:	8fb00010 	lw	s0,16(sp)
8040b9b0:	03e00008 	jr	ra
8040b9b4:	27bd0018 	addiu	sp,sp,24
	...

8040b9c0 <mkdir>:
8040b9c0:	34a54000 	ori	a1,a1,0x4000
8040b9c4:	00003821 	move	a3,zero
8040b9c8:	08100494 	j	80401250 <mknod>
8040b9cc:	00003021 	move	a2,zero

8040b9d0 <init_fs_mount_table>:
8040b9d0:	3c048041 	lui	a0,0x8041
8040b9d4:	3c028041 	lui	v0,0x8041
8040b9d8:	24834c78 	addiu	v1,a0,19576
8040b9dc:	24424c7c 	addiu	v0,v0,19580
8040b9e0:	ac824c78 	sw	v0,19576(a0)
8040b9e4:	ac630008 	sw	v1,8(v1)
8040b9e8:	ac600004 	sw	zero,4(v1)
8040b9ec:	03e00008 	jr	ra
8040b9f0:	00001021 	move	v0,zero

8040b9f4 <mount>:
8040b9f4:	27bdffc0 	addiu	sp,sp,-64
8040b9f8:	afb60038 	sw	s6,56(sp)
8040b9fc:	afb50034 	sw	s5,52(sp)
8040ba00:	afb40030 	sw	s4,48(sp)
8040ba04:	afb20028 	sw	s2,40(sp)
8040ba08:	afb10024 	sw	s1,36(sp)
8040ba0c:	afbf003c 	sw	ra,60(sp)
8040ba10:	afb3002c 	sw	s3,44(sp)
8040ba14:	afb00020 	sw	s0,32(sp)
8040ba18:	00a0a821 	move	s5,a1
8040ba1c:	0080b021 	move	s6,a0
8040ba20:	00c09021 	move	s2,a2
8040ba24:	00e08821 	move	s1,a3
8040ba28:	10a000ac 	beqz	a1,8040bcdc <mount+0x2e8>
8040ba2c:	8fb40050 	lw	s4,80(sp)
8040ba30:	2cc20002 	sltiu	v0,a2,2
8040ba34:	104000a9 	beqz	v0,8040bcdc <mount+0x2e8>
8040ba38:	00000000 	nop
8040ba3c:	8ca20024 	lw	v0,36(a1)
8040ba40:	10400039 	beqz	v0,8040bb28 <mount+0x134>
8040ba44:	00000000 	nop
8040ba48:	10e00004 	beqz	a3,8040ba5c <mount+0x68>
8040ba4c:	24040064 	li	a0,100
8040ba50:	0c104164 	jal	80410590 <strlen>
8040ba54:	00e02021 	move	a0,a3
8040ba58:	24440065 	addiu	a0,v0,101
8040ba5c:	0c10044c 	jal	80401130 <malloc>
8040ba60:	00000000 	nop
8040ba64:	00408021 	move	s0,v0
8040ba68:	104000a2 	beqz	v0,8040bcf4 <mount+0x300>
8040ba6c:	00409821 	move	s3,v0
8040ba70:	ac520028 	sw	s2,40(v0)
8040ba74:	12200055 	beqz	s1,8040bbcc <mount+0x1d8>
8040ba78:	ae020024 	sw	v0,36(s0)
8040ba7c:	24420064 	addiu	v0,v0,100
8040ba80:	00402021 	move	a0,v0
8040ba84:	02202821 	move	a1,s1
8040ba88:	0c104140 	jal	80410500 <strcpy>
8040ba8c:	ae020060 	sw	v0,96(s0)
8040ba90:	12800036 	beqz	s4,8040bb6c <mount+0x178>
8040ba94:	27b10010 	addiu	s1,sp,16
8040ba98:	02802021 	move	a0,s4
8040ba9c:	24050007 	li	a1,7
8040baa0:	02203021 	move	a2,s1
8040baa4:	0c100370 	jal	80400dc0 <rtems_filesystem_evaluate_path>
8040baa8:	24070001 	li	a3,1
8040baac:	2403ffff 	li	v1,-1
8040bab0:	10430021 	beq	v0,v1,8040bb38 <mount+0x144>
8040bab4:	8fa20018 	lw	v0,24(sp)
8040bab8:	8c420010 	lw	v0,16(v0)
8040babc:	1040007b 	beqz	v0,8040bcac <mount+0x2b8>
8040bac0:	00000000 	nop
8040bac4:	0040f809 	jalr	v0
8040bac8:	02202021 	move	a0,s1
8040bacc:	24030001 	li	v1,1
8040bad0:	10430040 	beq	v0,v1,8040bbd4 <mount+0x1e0>
8040bad4:	3c028041 	lui	v0,0x8041
8040bad8:	0c103b34 	jal	8040ecd0 <__errno>
8040badc:	00000000 	nop
8040bae0:	24030014 	li	v1,20
8040bae4:	ac430000 	sw	v1,0(v0)
8040bae8:	0c102c9c 	jal	8040b270 <free>
8040baec:	02002021 	move	a0,s0
8040baf0:	8e220008 	lw	v0,8(s1)
8040baf4:	14400072 	bnez	v0,8040bcc0 <mount+0x2cc>
8040baf8:	00000000 	nop
8040bafc:	2402ffff 	li	v0,-1
8040bb00:	8fbf003c 	lw	ra,60(sp)
8040bb04:	8fb60038 	lw	s6,56(sp)
8040bb08:	8fb50034 	lw	s5,52(sp)
8040bb0c:	8fb40030 	lw	s4,48(sp)
8040bb10:	8fb3002c 	lw	s3,44(sp)
8040bb14:	8fb20028 	lw	s2,40(sp)
8040bb18:	8fb10024 	lw	s1,36(sp)
8040bb1c:	8fb00020 	lw	s0,32(sp)
8040bb20:	03e00008 	jr	ra
8040bb24:	27bd0040 	addiu	sp,sp,64
8040bb28:	0c103b34 	jal	8040ecd0 <__errno>
8040bb2c:	00009821 	move	s3,zero
8040bb30:	24030086 	li	v1,134
8040bb34:	ac430000 	sw	v1,0(v0)
8040bb38:	0c102c9c 	jal	8040b270 <free>
8040bb3c:	02602021 	move	a0,s3
8040bb40:	2402ffff 	li	v0,-1
8040bb44:	8fbf003c 	lw	ra,60(sp)
8040bb48:	8fb60038 	lw	s6,56(sp)
8040bb4c:	8fb50034 	lw	s5,52(sp)
8040bb50:	8fb40030 	lw	s4,48(sp)
8040bb54:	8fb3002c 	lw	s3,44(sp)
8040bb58:	8fb20028 	lw	s2,40(sp)
8040bb5c:	8fb10024 	lw	s1,36(sp)
8040bb60:	8fb00020 	lw	s0,32(sp)
8040bb64:	03e00008 	jr	ra
8040bb68:	27bd0040 	addiu	sp,sp,64
8040bb6c:	ae000018 	sw	zero,24(s0)
8040bb70:	ae00001c 	sw	zero,28(s0)
8040bb74:	ae000020 	sw	zero,32(s0)
8040bb78:	ae000008 	sw	zero,8(s0)
8040bb7c:	ae00000c 	sw	zero,12(s0)
8040bb80:	ae000010 	sw	zero,16(s0)
8040bb84:	ae000014 	sw	zero,20(s0)
8040bb88:	00008821 	move	s1,zero
8040bb8c:	8ea30024 	lw	v1,36(s5)
8040bb90:	0060f809 	jalr	v1
8040bb94:	02002021 	move	a0,s0
8040bb98:	1040002d 	beqz	v0,8040bc50 <mount+0x25c>
8040bb9c:	8fa20018 	lw	v0,24(sp)
8040bba0:	8c420028 	lw	v0,40(v0)
8040bba4:	10400003 	beqz	v0,8040bbb4 <mount+0x1c0>
8040bba8:	00000000 	nop
8040bbac:	0040f809 	jalr	v0
8040bbb0:	02002021 	move	a0,s0
8040bbb4:	0c102c9c 	jal	8040b270 <free>
8040bbb8:	02002021 	move	a0,s0
8040bbbc:	1620ffcc 	bnez	s1,8040baf0 <mount+0xfc>
8040bbc0:	2402ffff 	li	v0,-1
8040bbc4:	08102ec1 	j	8040bb04 <mount+0x110>
8040bbc8:	8fbf003c 	lw	ra,60(sp)
8040bbcc:	08102ea4 	j	8040ba90 <mount+0x9c>
8040bbd0:	ac400060 	sw	zero,96(v0)
8040bbd4:	3c038041 	lui	v1,0x8041
8040bbd8:	8c444c78 	lw	a0,19576(v0)
8040bbdc:	24634c7c 	addiu	v1,v1,19580
8040bbe0:	1083000c 	beq	a0,v1,8040bc14 <mount+0x220>
8040bbe4:	8fa50010 	lw	a1,16(sp)
8040bbe8:	8c820018 	lw	v0,24(a0)
8040bbec:	14450006 	bne	v0,a1,8040bc08 <mount+0x214>
8040bbf0:	00000000 	nop
8040bbf4:	08102f26 	j	8040bc98 <mount+0x2a4>
8040bbf8:	00000000 	nop
8040bbfc:	8c820018 	lw	v0,24(a0)
8040bc00:	10450025 	beq	v0,a1,8040bc98 <mount+0x2a4>
8040bc04:	00000000 	nop
8040bc08:	8c840000 	lw	a0,0(a0)
8040bc0c:	1483fffb 	bne	a0,v1,8040bbfc <mount+0x208>
8040bc10:	00000000 	nop
8040bc14:	8fa20018 	lw	v0,24(sp)
8040bc18:	8fa30014 	lw	v1,20(sp)
8040bc1c:	8fa4001c 	lw	a0,28(sp)
8040bc20:	8c460020 	lw	a2,32(v0)
8040bc24:	ae050008 	sw	a1,8(s0)
8040bc28:	ae03000c 	sw	v1,12(s0)
8040bc2c:	ae040014 	sw	a0,20(s0)
8040bc30:	10c0001e 	beqz	a2,8040bcac <mount+0x2b8>
8040bc34:	ae020010 	sw	v0,16(s0)
8040bc38:	00c0f809 	jalr	a2
8040bc3c:	02002021 	move	a0,s0
8040bc40:	1440ffa9 	bnez	v0,8040bae8 <mount+0xf4>
8040bc44:	00000000 	nop
8040bc48:	08102ee4 	j	8040bb90 <mount+0x19c>
8040bc4c:	8ea30024 	lw	v1,36(s5)
8040bc50:	3c048041 	lui	a0,0x8041
8040bc54:	24844c78 	addiu	a0,a0,19576
8040bc58:	0c1018d8 	jal	80406360 <_Chain_Append>
8040bc5c:	02002821 	move	a1,s0
8040bc60:	12c00003 	beqz	s6,8040bc70 <mount+0x27c>
8040bc64:	8fbf003c 	lw	ra,60(sp)
8040bc68:	aed00000 	sw	s0,0(s6)
8040bc6c:	8fbf003c 	lw	ra,60(sp)
8040bc70:	00001021 	move	v0,zero
8040bc74:	8fb60038 	lw	s6,56(sp)
8040bc78:	8fb50034 	lw	s5,52(sp)
8040bc7c:	8fb40030 	lw	s4,48(sp)
8040bc80:	8fb3002c 	lw	s3,44(sp)
8040bc84:	8fb20028 	lw	s2,40(sp)
8040bc88:	8fb10024 	lw	s1,36(sp)
8040bc8c:	8fb00020 	lw	s0,32(sp)
8040bc90:	03e00008 	jr	ra
8040bc94:	27bd0040 	addiu	sp,sp,64
8040bc98:	0c103b34 	jal	8040ecd0 <__errno>
8040bc9c:	00000000 	nop
8040bca0:	24030010 	li	v1,16
8040bca4:	08102eba 	j	8040bae8 <mount+0xf4>
8040bca8:	ac430000 	sw	v1,0(v0)
8040bcac:	0c103b34 	jal	8040ecd0 <__errno>
8040bcb0:	00000000 	nop
8040bcb4:	24030086 	li	v1,134
8040bcb8:	08102eba 	j	8040bae8 <mount+0xf4>
8040bcbc:	ac430000 	sw	v1,0(v0)
8040bcc0:	8c42001c 	lw	v0,28(v0)
8040bcc4:	1040ff8d 	beqz	v0,8040bafc <mount+0x108>
8040bcc8:	00000000 	nop
8040bccc:	0040f809 	jalr	v0
8040bcd0:	02202021 	move	a0,s1
8040bcd4:	08102ed1 	j	8040bb44 <mount+0x150>
8040bcd8:	2402ffff 	li	v0,-1
8040bcdc:	0c103b34 	jal	8040ecd0 <__errno>
8040bce0:	00000000 	nop
8040bce4:	24030016 	li	v1,22
8040bce8:	ac430000 	sw	v1,0(v0)
8040bcec:	08102ed1 	j	8040bb44 <mount+0x150>
8040bcf0:	2402ffff 	li	v0,-1
8040bcf4:	0c103b34 	jal	8040ecd0 <__errno>
8040bcf8:	00000000 	nop
8040bcfc:	2403000c 	li	v1,12
8040bd00:	ac430000 	sw	v1,0(v0)
8040bd04:	08102ed1 	j	8040bb44 <mount+0x150>
8040bd08:	2402ffff 	li	v0,-1
8040bd0c:	00000000 	nop

8040bd10 <_ITRON_Eventflags_Manager_initialization>:
8040bd10:	00803821 	move	a3,a0
8040bd14:	3c048041 	lui	a0,0x8041
8040bd18:	27bdffd8 	addiu	sp,sp,-40
8040bd1c:	24020014 	li	v0,20
8040bd20:	24844804 	addiu	a0,a0,18436
8040bd24:	24050004 	li	a1,4
8040bd28:	24060002 	li	a2,2
8040bd2c:	afbf0024 	sw	ra,36(sp)
8040bd30:	afa20010 	sw	v0,16(sp)
8040bd34:	afa00014 	sw	zero,20(sp)
8040bd38:	0c101cb4 	jal	804072d0 <_Objects_Initialize_information>
8040bd3c:	afa00018 	sw	zero,24(sp)
8040bd40:	8fbf0024 	lw	ra,36(sp)
8040bd44:	03e00008 	jr	ra
8040bd48:	27bd0028 	addiu	sp,sp,40
8040bd4c:	00000000 	nop

8040bd50 <_ITRON_Fixed_memory_pool_Manager_initialization>:
8040bd50:	00803821 	move	a3,a0
8040bd54:	3c048041 	lui	a0,0x8041
8040bd58:	27bdffd8 	addiu	sp,sp,-40
8040bd5c:	24020014 	li	v0,20
8040bd60:	248446d8 	addiu	a0,a0,18136
8040bd64:	24050004 	li	a1,4
8040bd68:	24060008 	li	a2,8
8040bd6c:	afbf0024 	sw	ra,36(sp)
8040bd70:	afa20010 	sw	v0,16(sp)
8040bd74:	afa00014 	sw	zero,20(sp)
8040bd78:	0c101cb4 	jal	804072d0 <_Objects_Initialize_information>
8040bd7c:	afa00018 	sw	zero,24(sp)
8040bd80:	8fbf0024 	lw	ra,36(sp)
8040bd84:	03e00008 	jr	ra
8040bd88:	27bd0028 	addiu	sp,sp,40
8040bd8c:	00000000 	nop

8040bd90 <_ITRON_Semaphore_Manager_initialization>:
8040bd90:	00803821 	move	a3,a0
8040bd94:	3c048041 	lui	a0,0x8041
8040bd98:	27bdffd8 	addiu	sp,sp,-40
8040bd9c:	24020060 	li	v0,96
8040bda0:	24844844 	addiu	a0,a0,18500
8040bda4:	24050004 	li	a1,4
8040bda8:	24060006 	li	a2,6
8040bdac:	afbf0024 	sw	ra,36(sp)
8040bdb0:	afa20010 	sw	v0,16(sp)
8040bdb4:	afa00014 	sw	zero,20(sp)
8040bdb8:	0c101cb4 	jal	804072d0 <_Objects_Initialize_information>
8040bdbc:	afa00018 	sw	zero,24(sp)
8040bdc0:	8fbf0024 	lw	ra,36(sp)
8040bdc4:	03e00008 	jr	ra
8040bdc8:	27bd0028 	addiu	sp,sp,40
8040bdcc:	00000000 	nop

8040bdd0 <_ITRON_Mailbox_Manager_initialization>:
8040bdd0:	00803821 	move	a3,a0
8040bdd4:	3c048041 	lui	a0,0x8041
8040bdd8:	27bdffd8 	addiu	sp,sp,-40
8040bddc:	2402008c 	li	v0,140
8040bde0:	24844740 	addiu	a0,a0,18240
8040bde4:	24050004 	li	a1,4
8040bde8:	24060003 	li	a2,3
8040bdec:	afbf0024 	sw	ra,36(sp)
8040bdf0:	afa20010 	sw	v0,16(sp)
8040bdf4:	afa00014 	sw	zero,20(sp)
8040bdf8:	0c101cb4 	jal	804072d0 <_Objects_Initialize_information>
8040bdfc:	afa00018 	sw	zero,24(sp)
8040be00:	8fbf0024 	lw	ra,36(sp)
8040be04:	03e00008 	jr	ra
8040be08:	27bd0028 	addiu	sp,sp,40
8040be0c:	00000000 	nop

8040be10 <_ITRON_Message_buffer_Manager_initialization>:
8040be10:	00803821 	move	a3,a0
8040be14:	3c048041 	lui	a0,0x8041
8040be18:	27bdffd8 	addiu	sp,sp,-40
8040be1c:	24020088 	li	v0,136
8040be20:	248448c4 	addiu	a0,a0,18628
8040be24:	24050004 	li	a1,4
8040be28:	24060004 	li	a2,4
8040be2c:	afbf0024 	sw	ra,36(sp)
8040be30:	afa20010 	sw	v0,16(sp)
8040be34:	afa00014 	sw	zero,20(sp)
8040be38:	0c101cb4 	jal	804072d0 <_Objects_Initialize_information>
8040be3c:	afa00018 	sw	zero,24(sp)
8040be40:	8fbf0024 	lw	ra,36(sp)
8040be44:	03e00008 	jr	ra
8040be48:	27bd0028 	addiu	sp,sp,40
8040be4c:	00000000 	nop

8040be50 <_ITRON_Port_Manager_initialization>:
8040be50:	00803821 	move	a3,a0
8040be54:	3c048041 	lui	a0,0x8041
8040be58:	27bdffd8 	addiu	sp,sp,-40
8040be5c:	24020014 	li	v0,20
8040be60:	24844884 	addiu	a0,a0,18564
8040be64:	24050004 	li	a1,4
8040be68:	24060005 	li	a2,5
8040be6c:	afbf0024 	sw	ra,36(sp)
8040be70:	afa20010 	sw	v0,16(sp)
8040be74:	afa00014 	sw	zero,20(sp)
8040be78:	0c101cb4 	jal	804072d0 <_Objects_Initialize_information>
8040be7c:	afa00018 	sw	zero,24(sp)
8040be80:	8fbf0024 	lw	ra,36(sp)
8040be84:	03e00008 	jr	ra
8040be88:	27bd0028 	addiu	sp,sp,40
8040be8c:	00000000 	nop

8040be90 <_ITRON_Task_Initialize_user_tasks>:
8040be90:	3c028041 	lui	v0,0x8041
8040be94:	8c5941b0 	lw	t9,16816(v0)
8040be98:	13200003 	beqz	t9,8040bea8 <_ITRON_Task_Initialize_user_tasks+0x18>
8040be9c:	00000000 	nop
8040bea0:	03200008 	jr	t9
8040bea4:	00000000 	nop
8040bea8:	03e00008 	jr	ra
8040beac:	00000000 	nop

8040beb0 <_ITRON_Task_Manager_initialization>:
8040beb0:	00803821 	move	a3,a0
8040beb4:	3c028041 	lui	v0,0x8041
8040beb8:	3c038041 	lui	v1,0x8041
8040bebc:	3c048041 	lui	a0,0x8041
8040bec0:	27bdffd8 	addiu	sp,sp,-40
8040bec4:	ac45473c 	sw	a1,18236(v0)
8040bec8:	ac6647c0 	sw	a2,18368(v1)
8040becc:	248447c4 	addiu	a0,a0,18372
8040bed0:	2402011c 	li	v0,284
8040bed4:	24050004 	li	a1,4
8040bed8:	24060001 	li	a2,1
8040bedc:	afbf0024 	sw	ra,36(sp)
8040bee0:	afa20010 	sw	v0,16(sp)
8040bee4:	afa00014 	sw	zero,20(sp)
8040bee8:	0c101cb4 	jal	804072d0 <_Objects_Initialize_information>
8040beec:	afa00018 	sw	zero,24(sp)
8040bef0:	3c048041 	lui	a0,0x8041
8040bef4:	8fbf0024 	lw	ra,36(sp)
8040bef8:	248437d0 	addiu	a0,a0,14288
8040befc:	081017f1 	j	80405fc4 <_API_extensions_Add>
8040bf00:	27bd0028 	addiu	sp,sp,40
	...

8040bf10 <_ITRON_Variable_memory_pool_Manager_initialization>:
8040bf10:	00803821 	move	a3,a0
8040bf14:	3c048041 	lui	a0,0x8041
8040bf18:	27bdffd8 	addiu	sp,sp,-40
8040bf1c:	24020014 	li	v0,20
8040bf20:	24844780 	addiu	a0,a0,18304
8040bf24:	24050004 	li	a1,4
8040bf28:	24060007 	li	a2,7
8040bf2c:	afbf0024 	sw	ra,36(sp)
8040bf30:	afa20010 	sw	v0,16(sp)
8040bf34:	afa00014 	sw	zero,20(sp)
8040bf38:	0c101cb4 	jal	804072d0 <_Objects_Initialize_information>
8040bf3c:	afa00018 	sw	zero,24(sp)
8040bf40:	8fbf0024 	lw	ra,36(sp)
8040bf44:	03e00008 	jr	ra
8040bf48:	27bd0028 	addiu	sp,sp,40
8040bf4c:	00000000 	nop

8040bf50 <_POSIX_Condition_variables_Manager_initialization>:
8040bf50:	27bdffd8 	addiu	sp,sp,-40
8040bf54:	00803821 	move	a3,a0
8040bf58:	24020058 	li	v0,88
8040bf5c:	3c048041 	lui	a0,0x8041
8040bf60:	afa20010 	sw	v0,16(sp)
8040bf64:	24030001 	li	v1,1
8040bf68:	240200ff 	li	v0,255
8040bf6c:	24844b48 	addiu	a0,a0,19272
8040bf70:	24050003 	li	a1,3
8040bf74:	24060008 	li	a2,8
8040bf78:	afbf0024 	sw	ra,36(sp)
8040bf7c:	afa30014 	sw	v1,20(sp)
8040bf80:	0c101cb4 	jal	804072d0 <_Objects_Initialize_information>
8040bf84:	afa20018 	sw	v0,24(sp)
8040bf88:	8fbf0024 	lw	ra,36(sp)
8040bf8c:	03e00008 	jr	ra
8040bf90:	27bd0028 	addiu	sp,sp,40
	...

8040bfa0 <_POSIX_Key_Manager_initialization>:
8040bfa0:	27bdffd8 	addiu	sp,sp,-40
8040bfa4:	00803821 	move	a3,a0
8040bfa8:	2402002c 	li	v0,44
8040bfac:	3c048041 	lui	a0,0x8041
8040bfb0:	afa20010 	sw	v0,16(sp)
8040bfb4:	24030001 	li	v1,1
8040bfb8:	240200ff 	li	v0,255
8040bfbc:	24844b08 	addiu	a0,a0,19208
8040bfc0:	24050003 	li	a1,3
8040bfc4:	24060002 	li	a2,2
8040bfc8:	afbf0024 	sw	ra,36(sp)
8040bfcc:	afa30014 	sw	v1,20(sp)
8040bfd0:	0c101cb4 	jal	804072d0 <_Objects_Initialize_information>
8040bfd4:	afa20018 	sw	v0,24(sp)
8040bfd8:	8fbf0024 	lw	ra,36(sp)
8040bfdc:	03e00008 	jr	ra
8040bfe0:	27bd0028 	addiu	sp,sp,40
	...

8040bff0 <_POSIX_Message_queue_Manager_initialization>:
8040bff0:	27bdffd0 	addiu	sp,sp,-48
8040bff4:	afb00020 	sw	s0,32(sp)
8040bff8:	00808021 	move	s0,a0
8040bffc:	3c048041 	lui	a0,0x8041
8040c000:	afb20028 	sw	s2,40(sp)
8040c004:	afb10024 	sw	s1,36(sp)
8040c008:	241200ff 	li	s2,255
8040c00c:	24110001 	li	s1,1
8040c010:	02003821 	move	a3,s0
8040c014:	240200a4 	li	v0,164
8040c018:	24844a44 	addiu	a0,a0,19012
8040c01c:	24050003 	li	a1,3
8040c020:	24060005 	li	a2,5
8040c024:	afbf002c 	sw	ra,44(sp)
8040c028:	afa20010 	sw	v0,16(sp)
8040c02c:	afb10014 	sw	s1,20(sp)
8040c030:	0c101cb4 	jal	804072d0 <_Objects_Initialize_information>
8040c034:	afb20018 	sw	s2,24(sp)
8040c038:	3c048041 	lui	a0,0x8041
8040c03c:	02003821 	move	a3,s0
8040c040:	24020018 	li	v0,24
8040c044:	24844bc0 	addiu	a0,a0,19392
8040c048:	24050003 	li	a1,3
8040c04c:	24060004 	li	a2,4
8040c050:	afb10014 	sw	s1,20(sp)
8040c054:	afb20018 	sw	s2,24(sp)
8040c058:	0c101cb4 	jal	804072d0 <_Objects_Initialize_information>
8040c05c:	afa20010 	sw	v0,16(sp)
8040c060:	8fbf002c 	lw	ra,44(sp)
8040c064:	8fb20028 	lw	s2,40(sp)
8040c068:	8fb10024 	lw	s1,36(sp)
8040c06c:	8fb00020 	lw	s0,32(sp)
8040c070:	03e00008 	jr	ra
8040c074:	27bd0030 	addiu	sp,sp,48
	...

8040c080 <_POSIX_Mutex_Manager_initialization>:
8040c080:	27bdffd8 	addiu	sp,sp,-40
8040c084:	00803821 	move	a3,a0
8040c088:	24020078 	li	v0,120
8040c08c:	3c048041 	lui	a0,0x8041
8040c090:	afa20010 	sw	v0,16(sp)
8040c094:	24030001 	li	v1,1
8040c098:	240200ff 	li	v0,255
8040c09c:	24844a84 	addiu	a0,a0,19076
8040c0a0:	24050003 	li	a1,3
8040c0a4:	24060006 	li	a2,6
8040c0a8:	afbf0024 	sw	ra,36(sp)
8040c0ac:	afa30014 	sw	v1,20(sp)
8040c0b0:	0c101cb4 	jal	804072d0 <_Objects_Initialize_information>
8040c0b4:	afa20018 	sw	v0,24(sp)
8040c0b8:	8fbf0024 	lw	ra,36(sp)
8040c0bc:	03e00008 	jr	ra
8040c0c0:	27bd0028 	addiu	sp,sp,40
	...

8040c0d0 <_POSIX_Barrier_Manager_initialization>:
8040c0d0:	27bdffd8 	addiu	sp,sp,-40
8040c0d4:	00803821 	move	a3,a0
8040c0d8:	2402005c 	li	v0,92
8040c0dc:	3c048041 	lui	a0,0x8041
8040c0e0:	afa20010 	sw	v0,16(sp)
8040c0e4:	24030001 	li	v1,1
8040c0e8:	240200ff 	li	v0,255
8040c0ec:	24844ac4 	addiu	a0,a0,19140
8040c0f0:	24050003 	li	a1,3
8040c0f4:	2406000a 	li	a2,10
8040c0f8:	afbf0024 	sw	ra,36(sp)
8040c0fc:	afa30014 	sw	v1,20(sp)
8040c100:	0c101cb4 	jal	804072d0 <_Objects_Initialize_information>
8040c104:	afa20018 	sw	v0,24(sp)
8040c108:	8fbf0024 	lw	ra,36(sp)
8040c10c:	03e00008 	jr	ra
8040c110:	27bd0028 	addiu	sp,sp,40
	...

8040c120 <_POSIX_RWLock_Manager_initialization>:
8040c120:	27bdffd8 	addiu	sp,sp,-40
8040c124:	00803821 	move	a3,a0
8040c128:	2402005c 	li	v0,92
8040c12c:	3c048041 	lui	a0,0x8041
8040c130:	afa20010 	sw	v0,16(sp)
8040c134:	24030001 	li	v1,1
8040c138:	240200ff 	li	v0,255
8040c13c:	24844904 	addiu	a0,a0,18692
8040c140:	24050003 	li	a1,3
8040c144:	2406000b 	li	a2,11
8040c148:	afbf0024 	sw	ra,36(sp)
8040c14c:	afa30014 	sw	v1,20(sp)
8040c150:	0c101cb4 	jal	804072d0 <_Objects_Initialize_information>
8040c154:	afa20018 	sw	v0,24(sp)
8040c158:	8fbf0024 	lw	ra,36(sp)
8040c15c:	03e00008 	jr	ra
8040c160:	27bd0028 	addiu	sp,sp,40
	...

8040c170 <_POSIX_signals_Manager_Initialization>:
8040c170:	3c028041 	lui	v0,0x8041
8040c174:	27bdffe8 	addiu	sp,sp,-24
8040c178:	24462aa0 	addiu	a2,v0,10912
8040c17c:	3c028041 	lui	v0,0x8041
8040c180:	afb00010 	sw	s0,16(sp)
8040c184:	afbf0014 	sw	ra,20(sp)
8040c188:	00808021 	move	s0,a0
8040c18c:	24474c84 	addiu	a3,v0,19588
8040c190:	24c80180 	addiu	t0,a2,384
8040c194:	8cc20000 	lw	v0,0(a2)
8040c198:	8cc30004 	lw	v1,4(a2)
8040c19c:	8cc40008 	lw	a0,8(a2)
8040c1a0:	8cc5000c 	lw	a1,12(a2)
8040c1a4:	24c60010 	addiu	a2,a2,16
8040c1a8:	ace20000 	sw	v0,0(a3)
8040c1ac:	ace30004 	sw	v1,4(a3)
8040c1b0:	ace40008 	sw	a0,8(a3)
8040c1b4:	ace5000c 	sw	a1,12(a3)
8040c1b8:	14c8fff6 	bne	a2,t0,8040c194 <_POSIX_signals_Manager_Initialization+0x24>
8040c1bc:	24e70010 	addiu	a3,a3,16
8040c1c0:	3c048041 	lui	a0,0x8041
8040c1c4:	0c103234 	jal	8040c8d0 <sigemptyset>
8040c1c8:	24844e50 	addiu	a0,a0,20048
8040c1cc:	3c048041 	lui	a0,0x8041
8040c1d0:	3c061000 	lui	a2,0x1000
8040c1d4:	24844e10 	addiu	a0,a0,19984
8040c1d8:	34c68000 	ori	a2,a2,0x8000
8040c1dc:	24050001 	li	a1,1
8040c1e0:	0c102260 	jal	80408980 <_Thread_queue_Initialize>
8040c1e4:	2407000b 	li	a3,11
8040c1e8:	3c028041 	lui	v0,0x8041
8040c1ec:	3c038041 	lui	v1,0x8041
8040c1f0:	24444e60 	addiu	a0,v0,20064
8040c1f4:	24634fd4 	addiu	v1,v1,20436
8040c1f8:	24820004 	addiu	v0,a0,4
8040c1fc:	ac820000 	sw	v0,0(a0)
8040c200:	ac800004 	sw	zero,4(a0)
8040c204:	ac840008 	sw	a0,8(a0)
8040c208:	2484000c 	addiu	a0,a0,12
8040c20c:	1464fffb 	bne	v1,a0,8040c1fc <_POSIX_signals_Manager_Initialization+0x8c>
8040c210:	24820004 	addiu	v0,a0,4
8040c214:	1600000b 	bnez	s0,8040c244 <_POSIX_signals_Manager_Initialization+0xd4>
8040c218:	3c028041 	lui	v0,0x8041
8040c21c:	3c048041 	lui	a0,0x8041
8040c220:	8fbf0014 	lw	ra,20(sp)
8040c224:	24834e04 	addiu	v1,a0,19972
8040c228:	24424e08 	addiu	v0,v0,19976
8040c22c:	8fb00010 	lw	s0,16(sp)
8040c230:	ac824e04 	sw	v0,19972(a0)
8040c234:	ac630008 	sw	v1,8(v1)
8040c238:	ac600004 	sw	zero,4(v1)
8040c23c:	03e00008 	jr	ra
8040c240:	27bd0018 	addiu	sp,sp,24
8040c244:	00101100 	sll	v0,s0,0x4
8040c248:	00102080 	sll	a0,s0,0x2
8040c24c:	0c102654 	jal	80409950 <_Workspace_Allocate_or_fatal_error>
8040c250:	00822021 	addu	a0,a0,v0
8040c254:	3c048041 	lui	a0,0x8041
8040c258:	02003021 	move	a2,s0
8040c25c:	8fbf0014 	lw	ra,20(sp)
8040c260:	8fb00010 	lw	s0,16(sp)
8040c264:	24844e04 	addiu	a0,a0,19972
8040c268:	00402821 	move	a1,v0
8040c26c:	24070014 	li	a3,20
8040c270:	08103384 	j	8040ce10 <_Chain_Initialize>
8040c274:	27bd0018 	addiu	sp,sp,24

8040c278 <_POSIX_signals_Post_switch_extension>:
8040c278:	27bdffd0 	addiu	sp,sp,-48
8040c27c:	afb10018 	sw	s1,24(sp)
8040c280:	8c91010c 	lw	s1,268(a0)
8040c284:	afbf002c 	sw	ra,44(sp)
8040c288:	afb50028 	sw	s5,40(sp)
8040c28c:	afb40024 	sw	s4,36(sp)
8040c290:	afb30020 	sw	s3,32(sp)
8040c294:	afb2001c 	sw	s2,28(sp)
8040c298:	1220004e 	beqz	s1,8040c3d4 <_POSIX_signals_Post_switch_extension+0x15c>
8040c29c:	afb00014 	sw	s0,20(sp)
8040c2a0:	3c158041 	lui	s5,0x8041
8040c2a4:	2414fffe 	li	s4,-2
8040c2a8:	2412001b 	li	s2,27
8040c2ac:	24130020 	li	s3,32
8040c2b0:	40036000 	mfc0	v1,c0_status
8040c2b4:	00000000 	nop
8040c2b8:	00741024 	and	v0,v1,s4
8040c2bc:	40826000 	mtc0	v0,c0_status
8040c2c0:	00000000 	nop
8040c2c4:	30650001 	andi	a1,v1,0x1
8040c2c8:	8ea34e50 	lw	v1,20048(s5)
8040c2cc:	8e2400c8 	lw	a0,200(s1)
8040c2d0:	8e2200c4 	lw	v0,196(s1)
8040c2d4:	00641825 	or	v1,v1,a0
8040c2d8:	00021027 	nor	v0,zero,v0
8040c2dc:	00621824 	and	v1,v1,v0
8040c2e0:	10600035 	beqz	v1,8040c3b8 <_POSIX_signals_Post_switch_extension+0x140>
8040c2e4:	00000000 	nop
8040c2e8:	40026000 	mfc0	v0,c0_status
8040c2ec:	00000000 	nop
8040c2f0:	00541024 	and	v0,v0,s4
8040c2f4:	00451025 	or	v0,v0,a1
8040c2f8:	40826000 	mtc0	v0,c0_status
8040c2fc:	00000000 	nop
8040c300:	2410001b 	li	s0,27
8040c304:	02002821 	move	a1,s0
8040c308:	02202021 	move	a0,s1
8040c30c:	0c103894 	jal	8040e250 <_POSIX_signals_Check_signal>
8040c310:	00003021 	move	a2,zero
8040c314:	02002821 	move	a1,s0
8040c318:	02202021 	move	a0,s1
8040c31c:	26100001 	addiu	s0,s0,1
8040c320:	1440ffe3 	bnez	v0,8040c2b0 <_POSIX_signals_Post_switch_extension+0x38>
8040c324:	24060001 	li	a2,1
8040c328:	0c103894 	jal	8040e250 <_POSIX_signals_Check_signal>
8040c32c:	00000000 	nop
8040c330:	1440ffdf 	bnez	v0,8040c2b0 <_POSIX_signals_Post_switch_extension+0x38>
8040c334:	00000000 	nop
8040c338:	1613fff3 	bne	s0,s3,8040c308 <_POSIX_signals_Post_switch_extension+0x90>
8040c33c:	02002821 	move	a1,s0
8040c340:	24100001 	li	s0,1
8040c344:	02002821 	move	a1,s0
8040c348:	02202021 	move	a0,s1
8040c34c:	0c103894 	jal	8040e250 <_POSIX_signals_Check_signal>
8040c350:	00003021 	move	a2,zero
8040c354:	02002821 	move	a1,s0
8040c358:	02202021 	move	a0,s1
8040c35c:	26100001 	addiu	s0,s0,1
8040c360:	1440ffd3 	bnez	v0,8040c2b0 <_POSIX_signals_Post_switch_extension+0x38>
8040c364:	24060001 	li	a2,1
8040c368:	0c103894 	jal	8040e250 <_POSIX_signals_Check_signal>
8040c36c:	00000000 	nop
8040c370:	1440ffcf 	bnez	v0,8040c2b0 <_POSIX_signals_Post_switch_extension+0x38>
8040c374:	00000000 	nop
8040c378:	1612fff3 	bne	s0,s2,8040c348 <_POSIX_signals_Post_switch_extension+0xd0>
8040c37c:	02002821 	move	a1,s0
8040c380:	40036000 	mfc0	v1,c0_status
8040c384:	00000000 	nop
8040c388:	00741024 	and	v0,v1,s4
8040c38c:	40826000 	mtc0	v0,c0_status
8040c390:	00000000 	nop
8040c394:	30650001 	andi	a1,v1,0x1
8040c398:	8ea34e50 	lw	v1,20048(s5)
8040c39c:	8e2400c8 	lw	a0,200(s1)
8040c3a0:	8e2200c4 	lw	v0,196(s1)
8040c3a4:	00641825 	or	v1,v1,a0
8040c3a8:	00021027 	nor	v0,zero,v0
8040c3ac:	00621824 	and	v1,v1,v0
8040c3b0:	1460ffcd 	bnez	v1,8040c2e8 <_POSIX_signals_Post_switch_extension+0x70>
8040c3b4:	00000000 	nop
8040c3b8:	40026000 	mfc0	v0,c0_status
8040c3bc:	00000000 	nop
8040c3c0:	2403fffe 	li	v1,-2
8040c3c4:	00431024 	and	v0,v0,v1
8040c3c8:	00a21025 	or	v0,a1,v0
8040c3cc:	40826000 	mtc0	v0,c0_status
8040c3d0:	00000000 	nop
8040c3d4:	8fbf002c 	lw	ra,44(sp)
8040c3d8:	8fb50028 	lw	s5,40(sp)
8040c3dc:	8fb40024 	lw	s4,36(sp)
8040c3e0:	8fb30020 	lw	s3,32(sp)
8040c3e4:	8fb2001c 	lw	s2,28(sp)
8040c3e8:	8fb10018 	lw	s1,24(sp)
8040c3ec:	8fb00014 	lw	s0,20(sp)
8040c3f0:	03e00008 	jr	ra
8040c3f4:	27bd0030 	addiu	sp,sp,48

8040c3f8 <_POSIX_signals_Abnormal_termination_handler>:
8040c3f8:	27bdffe8 	addiu	sp,sp,-24
8040c3fc:	afbf0014 	sw	ra,20(sp)
8040c400:	0c103b38 	jal	8040ece0 <exit>
8040c404:	24040001 	li	a0,1
	...

8040c410 <_POSIX_Spinlock_Manager_initialization>:
8040c410:	27bdffd8 	addiu	sp,sp,-40
8040c414:	00803821 	move	a3,a0
8040c418:	24020020 	li	v0,32
8040c41c:	3c048041 	lui	a0,0x8041
8040c420:	afa20010 	sw	v0,16(sp)
8040c424:	24030001 	li	v1,1
8040c428:	240200ff 	li	v0,255
8040c42c:	24844984 	addiu	a0,a0,18820
8040c430:	24050003 	li	a1,3
8040c434:	2406000b 	li	a2,11
8040c438:	afbf0024 	sw	ra,36(sp)
8040c43c:	afa30014 	sw	v1,20(sp)
8040c440:	0c101cb4 	jal	804072d0 <_Objects_Initialize_information>
8040c444:	afa20018 	sw	v0,24(sp)
8040c448:	8fbf0024 	lw	ra,36(sp)
8040c44c:	03e00008 	jr	ra
8040c450:	27bd0028 	addiu	sp,sp,40
	...

8040c460 <_POSIX_Threads_Initialize_user_threads>:
8040c460:	3c028041 	lui	v0,0x8041
8040c464:	8c5941ac 	lw	t9,16812(v0)
8040c468:	13200003 	beqz	t9,8040c478 <_POSIX_Threads_Initialize_user_threads+0x18>
8040c46c:	00000000 	nop
8040c470:	03200008 	jr	t9
8040c474:	00000000 	nop
8040c478:	03e00008 	jr	ra
8040c47c:	00000000 	nop

8040c480 <_POSIX_Threads_Manager_initialization>:
8040c480:	3c028041 	lui	v0,0x8041
8040c484:	27bdffd8 	addiu	sp,sp,-40
8040c488:	ac454bbc 	sw	a1,19388(v0)
8040c48c:	00803821 	move	a3,a0
8040c490:	3c038041 	lui	v1,0x8041
8040c494:	2402011c 	li	v0,284
8040c498:	3c048041 	lui	a0,0x8041
8040c49c:	ac664b04 	sw	a2,19204(v1)
8040c4a0:	24844944 	addiu	a0,a0,18756
8040c4a4:	afa20010 	sw	v0,16(sp)
8040c4a8:	24030001 	li	v1,1
8040c4ac:	240200ff 	li	v0,255
8040c4b0:	24050003 	li	a1,3
8040c4b4:	24060001 	li	a2,1
8040c4b8:	afbf0024 	sw	ra,36(sp)
8040c4bc:	afa30014 	sw	v1,20(sp)
8040c4c0:	0c101cb4 	jal	804072d0 <_Objects_Initialize_information>
8040c4c4:	afa20018 	sw	v0,24(sp)
8040c4c8:	3c048041 	lui	a0,0x8041
8040c4cc:	0c103658 	jal	8040d960 <_User_extensions_Add_API_set>
8040c4d0:	24843804 	addiu	a0,a0,14340
8040c4d4:	3c048041 	lui	a0,0x8041
8040c4d8:	8fbf0024 	lw	ra,36(sp)
8040c4dc:	248437f0 	addiu	a0,a0,14320
8040c4e0:	081017f1 	j	80405fc4 <_API_extensions_Add>
8040c4e4:	27bd0028 	addiu	sp,sp,40

8040c4e8 <_POSIX_Threads_Exitted_extension>:
8040c4e8:	90820008 	lbu	v0,8(a0)
8040c4ec:	24030003 	li	v1,3
8040c4f0:	30420007 	andi	v0,v0,0x7
8040c4f4:	10430003 	beq	v0,v1,8040c504 <_POSIX_Threads_Exitted_extension+0x1c>
8040c4f8:	00000000 	nop
8040c4fc:	03e00008 	jr	ra
8040c500:	00000000 	nop
8040c504:	08103963 	j	8040e58c <pthread_exit>
8040c508:	8c840028 	lw	a0,40(a0)

8040c50c <_POSIX_Threads_Delete_extension>:
8040c50c:	27bdffd8 	addiu	sp,sp,-40
8040c510:	00a02021 	move	a0,a1
8040c514:	afb30020 	sw	s3,32(sp)
8040c518:	afb2001c 	sw	s2,28(sp)
8040c51c:	8cb3010c 	lw	s3,268(a1)
8040c520:	00a09021 	move	s2,a1
8040c524:	afbf0024 	sw	ra,36(sp)
8040c528:	afb10018 	sw	s1,24(sp)
8040c52c:	0c103820 	jal	8040e080 <_POSIX_Threads_cancel_run>
8040c530:	afb00014 	sw	s0,20(sp)
8040c534:	0c103850 	jal	8040e140 <_POSIX_Keys_Run_destructors>
8040c538:	02402021 	move	a0,s2
8040c53c:	2671003c 	addiu	s1,s3,60
8040c540:	08103154 	j	8040c550 <_POSIX_Threads_Delete_extension+0x44>
8040c544:	8e500028 	lw	s0,40(s2)
8040c548:	8c420028 	lw	v0,40(v0)
8040c54c:	ac500000 	sw	s0,0(v0)
8040c550:	0c102084 	jal	80408210 <_Thread_queue_Dequeue>
8040c554:	02202021 	move	a0,s1
8040c558:	1440fffb 	bnez	v0,8040c548 <_POSIX_Threads_Delete_extension+0x3c>
8040c55c:	00000000 	nop
8040c560:	8e63007c 	lw	v1,124(s3)
8040c564:	24020003 	li	v0,3
8040c568:	10620009 	beq	v1,v0,8040c590 <_POSIX_Threads_Delete_extension+0x84>
8040c56c:	02602021 	move	a0,s3
8040c570:	ae40010c 	sw	zero,268(s2)
8040c574:	8fbf0024 	lw	ra,36(sp)
8040c578:	8fb30020 	lw	s3,32(sp)
8040c57c:	8fb2001c 	lw	s2,28(sp)
8040c580:	8fb10018 	lw	s1,24(sp)
8040c584:	8fb00014 	lw	s0,20(sp)
8040c588:	0810264c 	j	80409930 <_Workspace_Free>
8040c58c:	27bd0028 	addiu	sp,sp,40
8040c590:	0c102600 	jal	80409800 <_Watchdog_Remove>
8040c594:	2664009c 	addiu	a0,s3,156
8040c598:	ae40010c 	sw	zero,268(s2)
8040c59c:	02602021 	move	a0,s3
8040c5a0:	8fbf0024 	lw	ra,36(sp)
8040c5a4:	8fb30020 	lw	s3,32(sp)
8040c5a8:	8fb2001c 	lw	s2,28(sp)
8040c5ac:	8fb10018 	lw	s1,24(sp)
8040c5b0:	8fb00014 	lw	s0,20(sp)
8040c5b4:	0810264c 	j	80409930 <_Workspace_Free>
8040c5b8:	27bd0028 	addiu	sp,sp,40

8040c5bc <_POSIX_Threads_Create_extension>:
8040c5bc:	27bdffe0 	addiu	sp,sp,-32
8040c5c0:	240400e4 	li	a0,228
8040c5c4:	afb10018 	sw	s1,24(sp)
8040c5c8:	afb00014 	sw	s0,20(sp)
8040c5cc:	afbf001c 	sw	ra,28(sp)
8040c5d0:	0c102650 	jal	80409940 <_Workspace_Allocate>
8040c5d4:	00a08821 	move	s1,a1
8040c5d8:	10400054 	beqz	v0,8040c72c <_POSIX_Threads_Create_extension+0x170>
8040c5dc:	00408021 	move	s0,v0
8040c5e0:	3c028041 	lui	v0,0x8041
8040c5e4:	24472c20 	addiu	a3,v0,11296
8040c5e8:	ae30010c 	sw	s0,268(s1)
8040c5ec:	00e03021 	move	a2,a3
8040c5f0:	02005021 	move	t2,s0
8040c5f4:	24e80030 	addiu	t0,a3,48
8040c5f8:	8cc20000 	lw	v0,0(a2)
8040c5fc:	8cc30004 	lw	v1,4(a2)
8040c600:	8cc40008 	lw	a0,8(a2)
8040c604:	8cc5000c 	lw	a1,12(a2)
8040c608:	24c60010 	addiu	a2,a2,16
8040c60c:	ad420000 	sw	v0,0(t2)
8040c610:	ad430004 	sw	v1,4(t2)
8040c614:	ad440008 	sw	a0,8(t2)
8040c618:	ad45000c 	sw	a1,12(t2)
8040c61c:	14c8fff6 	bne	a2,t0,8040c5f8 <_POSIX_Threads_Create_extension+0x3c>
8040c620:	254a0010 	addiu	t2,t2,16
8040c624:	8cc20000 	lw	v0,0(a2)
8040c628:	8ce30018 	lw	v1,24(a3)
8040c62c:	8ce4001c 	lw	a0,28(a3)
8040c630:	8ce50020 	lw	a1,32(a3)
8040c634:	8cc80004 	lw	t0,4(a2)
8040c638:	8ce9002c 	lw	t1,44(a3)
8040c63c:	8ce60024 	lw	a2,36(a3)
8040c640:	8ce70028 	lw	a3,40(a3)
8040c644:	ad420000 	sw	v0,0(t2)
8040c648:	ad480004 	sw	t0,4(t2)
8040c64c:	ae030080 	sw	v1,128(s0)
8040c650:	ae040084 	sw	a0,132(s0)
8040c654:	ae050088 	sw	a1,136(s0)
8040c658:	ae06008c 	sw	a2,140(s0)
8040c65c:	ae070090 	sw	a3,144(s0)
8040c660:	ae090094 	sw	t1,148(s0)
8040c664:	8e230014 	lw	v1,20(s1)
8040c668:	ae0000c8 	sw	zero,200(s0)
8040c66c:	8e270008 	lw	a3,8(s1)
8040c670:	240200ff 	li	v0,255
8040c674:	00431023 	subu	v0,v0,v1
8040c678:	00072e02 	srl	a1,a3,0x18
8040c67c:	24060001 	li	a2,1
8040c680:	260300dc 	addiu	v1,s0,220
8040c684:	260400d8 	addiu	a0,s0,216
8040c688:	ae020080 	sw	v0,128(s0)
8040c68c:	30a50007 	andi	a1,a1,0x7
8040c690:	24020003 	li	v0,3
8040c694:	ae0300d8 	sw	v1,216(s0)
8040c698:	ae0400e0 	sw	a0,224(s0)
8040c69c:	ae060038 	sw	a2,56(s0)
8040c6a0:	ae06007c 	sw	a2,124(s0)
8040c6a4:	ae0000d4 	sw	zero,212(s0)
8040c6a8:	ae0000cc 	sw	zero,204(s0)
8040c6ac:	ae0000d0 	sw	zero,208(s0)
8040c6b0:	10a20015 	beq	a1,v0,8040c708 <_POSIX_Threads_Create_extension+0x14c>
8040c6b4:	ae0000dc 	sw	zero,220(s0)
8040c6b8:	2402ffff 	li	v0,-1
8040c6bc:	ae0200c4 	sw	v0,196(s0)
8040c6c0:	2604003c 	addiu	a0,s0,60
8040c6c4:	00002821 	move	a1,zero
8040c6c8:	24061000 	li	a2,4096
8040c6cc:	0c102260 	jal	80408980 <_Thread_queue_Initialize>
8040c6d0:	00003821 	move	a3,zero
8040c6d4:	8e230008 	lw	v1,8(s1)
8040c6d8:	3c028041 	lui	v0,0x8041
8040c6dc:	8fbf001c 	lw	ra,28(sp)
8040c6e0:	2442c794 	addiu	v0,v0,-14444
8040c6e4:	ae1100c0 	sw	s1,192(s0)
8040c6e8:	ae0200b8 	sw	v0,184(s0)
8040c6ec:	ae0300bc 	sw	v1,188(s0)
8040c6f0:	ae0000a4 	sw	zero,164(s0)
8040c6f4:	24020001 	li	v0,1
8040c6f8:	8fb10018 	lw	s1,24(sp)
8040c6fc:	8fb00014 	lw	s0,20(sp)
8040c700:	03e00008 	jr	ra
8040c704:	27bd0020 	addiu	sp,sp,32
8040c708:	000716c2 	srl	v0,a3,0x1b
8040c70c:	1446ffeb 	bne	v0,a2,8040c6bc <_POSIX_Threads_Create_extension+0x100>
8040c710:	2402ffff 	li	v0,-1
8040c714:	3c028041 	lui	v0,0x8041
8040c718:	8c4345d4 	lw	v1,17876(v0)
8040c71c:	8c64010c 	lw	a0,268(v1)
8040c720:	8c8200c4 	lw	v0,196(a0)
8040c724:	081031b0 	j	8040c6c0 <_POSIX_Threads_Create_extension+0x104>
8040c728:	ae0200c4 	sw	v0,196(s0)
8040c72c:	8fbf001c 	lw	ra,28(sp)
8040c730:	00001021 	move	v0,zero
8040c734:	8fb10018 	lw	s1,24(sp)
8040c738:	8fb00014 	lw	s0,20(sp)
8040c73c:	03e00008 	jr	ra
8040c740:	27bd0020 	addiu	sp,sp,32

8040c744 <_POSIX_Threads_Sporadic_budget_callout>:
8040c744:	8c82010c 	lw	v0,268(a0)
8040c748:	00803021 	move	a2,a0
8040c74c:	8c440084 	lw	a0,132(v0)
8040c750:	8cc5001c 	lw	a1,28(a2)
8040c754:	240200ff 	li	v0,255
8040c758:	00443823 	subu	a3,v0,a0
8040c75c:	2403ffff 	li	v1,-1
8040c760:	acc30078 	sw	v1,120(a2)
8040c764:	10a00005 	beqz	a1,8040c77c <_POSIX_Threads_Sporadic_budget_callout+0x38>
8040c768:	acc70018 	sw	a3,24(a2)
8040c76c:	8cc20014 	lw	v0,20(a2)
8040c770:	00e2102b 	sltu	v0,a3,v0
8040c774:	10400005 	beqz	v0,8040c78c <_POSIX_Threads_Sporadic_budget_callout+0x48>
8040c778:	00000000 	nop
8040c77c:	00c02021 	move	a0,a2
8040c780:	00e02821 	move	a1,a3
8040c784:	08101d98 	j	80407660 <_Thread_Change_priority>
8040c788:	24060001 	li	a2,1
8040c78c:	03e00008 	jr	ra
8040c790:	00000000 	nop

8040c794 <_POSIX_Threads_Sporadic_budget_TSR>:
8040c794:	27bdffe0 	addiu	sp,sp,-32
8040c798:	afb10018 	sw	s1,24(sp)
8040c79c:	8cb1010c 	lw	s1,268(a1)
8040c7a0:	afb00014 	sw	s0,20(sp)
8040c7a4:	26240090 	addiu	a0,s1,144
8040c7a8:	afbf001c 	sw	ra,28(sp)
8040c7ac:	0c103638 	jal	8040d8e0 <_Timespec_To_ticks>
8040c7b0:	00a08021 	move	s0,a1
8040c7b4:	8e240098 	lw	a0,152(s1)
8040c7b8:	24030001 	li	v1,1
8040c7bc:	0042180b 	movn	v1,v0,v0
8040c7c0:	8e05001c 	lw	a1,28(s0)
8040c7c4:	240200ff 	li	v0,255
8040c7c8:	00443023 	subu	a2,v0,a0
8040c7cc:	ae030078 	sw	v1,120(s0)
8040c7d0:	10a00005 	beqz	a1,8040c7e8 <_POSIX_Threads_Sporadic_budget_TSR+0x54>
8040c7d4:	ae060018 	sw	a2,24(s0)
8040c7d8:	8e020014 	lw	v0,20(s0)
8040c7dc:	00c2102b 	sltu	v0,a2,v0
8040c7e0:	10400005 	beqz	v0,8040c7f8 <_POSIX_Threads_Sporadic_budget_TSR+0x64>
8040c7e4:	00000000 	nop
8040c7e8:	00c02821 	move	a1,a2
8040c7ec:	02002021 	move	a0,s0
8040c7f0:	0c101d98 	jal	80407660 <_Thread_Change_priority>
8040c7f4:	24060001 	li	a2,1
8040c7f8:	0c103638 	jal	8040d8e0 <_Timespec_To_ticks>
8040c7fc:	26240088 	addiu	a0,s1,136
8040c800:	24030001 	li	v1,1
8040c804:	0042180b 	movn	v1,v0,v0
8040c808:	3c048041 	lui	a0,0x8041
8040c80c:	ae2300a8 	sw	v1,168(s1)
8040c810:	2625009c 	addiu	a1,s1,156
8040c814:	8fbf001c 	lw	ra,28(sp)
8040c818:	8fb10018 	lw	s1,24(sp)
8040c81c:	8fb00014 	lw	s0,20(sp)
8040c820:	248445f4 	addiu	a0,a0,17908
8040c824:	08102564 	j	80409590 <_Watchdog_Insert>
8040c828:	27bd0020 	addiu	sp,sp,32
8040c82c:	00000000 	nop

8040c830 <_POSIX_Timer_Manager_initialization>:
8040c830:	27bdffd8 	addiu	sp,sp,-40
8040c834:	00803821 	move	a3,a0
8040c838:	24020074 	li	v0,116
8040c83c:	3c048041 	lui	a0,0x8041
8040c840:	afa20010 	sw	v0,16(sp)
8040c844:	24030001 	li	v1,1
8040c848:	240200ff 	li	v0,255
8040c84c:	24844a04 	addiu	a0,a0,18948
8040c850:	24050003 	li	a1,3
8040c854:	24060009 	li	a2,9
8040c858:	afbf0024 	sw	ra,36(sp)
8040c85c:	afa30014 	sw	v1,20(sp)
8040c860:	0c101cb4 	jal	804072d0 <_Objects_Initialize_information>
8040c864:	afa20018 	sw	v0,24(sp)
8040c868:	8fbf0024 	lw	ra,36(sp)
8040c86c:	03e00008 	jr	ra
8040c870:	27bd0028 	addiu	sp,sp,40
	...

8040c880 <_POSIX_Semaphore_Manager_initialization>:
8040c880:	27bdffd8 	addiu	sp,sp,-40
8040c884:	00803821 	move	a3,a0
8040c888:	24020068 	li	v0,104
8040c88c:	3c048041 	lui	a0,0x8041
8040c890:	afa20010 	sw	v0,16(sp)
8040c894:	24030001 	li	v1,1
8040c898:	240200ff 	li	v0,255
8040c89c:	248449c4 	addiu	a0,a0,18884
8040c8a0:	24050003 	li	a1,3
8040c8a4:	24060007 	li	a2,7
8040c8a8:	afbf0024 	sw	ra,36(sp)
8040c8ac:	afa30014 	sw	v1,20(sp)
8040c8b0:	0c101cb4 	jal	804072d0 <_Objects_Initialize_information>
8040c8b4:	afa20018 	sw	v0,24(sp)
8040c8b8:	8fbf0024 	lw	ra,36(sp)
8040c8bc:	03e00008 	jr	ra
8040c8c0:	27bd0028 	addiu	sp,sp,40
	...

8040c8d0 <sigemptyset>:
8040c8d0:	27bdffe8 	addiu	sp,sp,-24
8040c8d4:	10800006 	beqz	a0,8040c8f0 <sigemptyset+0x20>
8040c8d8:	afbf0014 	sw	ra,20(sp)
8040c8dc:	ac800000 	sw	zero,0(a0)
8040c8e0:	00001021 	move	v0,zero
8040c8e4:	8fbf0014 	lw	ra,20(sp)
8040c8e8:	03e00008 	jr	ra
8040c8ec:	27bd0018 	addiu	sp,sp,24
8040c8f0:	0c103b34 	jal	8040ecd0 <__errno>
8040c8f4:	00000000 	nop
8040c8f8:	24030016 	li	v1,22
8040c8fc:	ac430000 	sw	v1,0(v0)
8040c900:	08103239 	j	8040c8e4 <sigemptyset+0x14>
8040c904:	2402ffff 	li	v0,-1
	...

8040c910 <_Interrupt_Manager_initialization>:
8040c910:	03e00008 	jr	ra
8040c914:	00000000 	nop
	...

8040c920 <_Semaphore_Manager_initialization>:
8040c920:	00803821 	move	a3,a0
8040c924:	3c048041 	lui	a0,0x8041
8040c928:	27bdffd8 	addiu	sp,sp,-40
8040c92c:	24020078 	li	v0,120
8040c930:	24030004 	li	v1,4
8040c934:	24844434 	addiu	a0,a0,17460
8040c938:	24050002 	li	a1,2
8040c93c:	24060003 	li	a2,3
8040c940:	afbf0024 	sw	ra,36(sp)
8040c944:	afa20010 	sw	v0,16(sp)
8040c948:	afa30018 	sw	v1,24(sp)
8040c94c:	0c101cb4 	jal	804072d0 <_Objects_Initialize_information>
8040c950:	afa00014 	sw	zero,20(sp)
8040c954:	8fbf0024 	lw	ra,36(sp)
8040c958:	03e00008 	jr	ra
8040c95c:	27bd0028 	addiu	sp,sp,40

8040c960 <_RTEMS_tasks_Start_extension>:
8040c960:	8ca20108 	lw	v0,264(a1)
8040c964:	24030001 	li	v1,1
8040c968:	a0430008 	sb	v1,8(v0)
8040c96c:	ac40001c 	sw	zero,28(v0)
8040c970:	ac400000 	sw	zero,0(v0)
8040c974:	ac40000c 	sw	zero,12(v0)
8040c978:	ac400010 	sw	zero,16(v0)
8040c97c:	ac400014 	sw	zero,20(v0)
8040c980:	03e00008 	jr	ra
8040c984:	ac400018 	sw	zero,24(v0)

8040c988 <_RTEMS_tasks_Switch_extension>:
8040c988:	8c860118 	lw	a2,280(a0)
8040c98c:	10c00008 	beqz	a2,8040c9b0 <_RTEMS_tasks_Switch_extension+0x28>
8040c990:	00000000 	nop
8040c994:	8cc20004 	lw	v0,4(a2)
8040c998:	8cc40008 	lw	a0,8(a2)
8040c99c:	8c430000 	lw	v1,0(v0)
8040c9a0:	acc3000c 	sw	v1,12(a2)
8040c9a4:	8cc60000 	lw	a2,0(a2)
8040c9a8:	14c0fffa 	bnez	a2,8040c994 <_RTEMS_tasks_Switch_extension+0xc>
8040c9ac:	ac440000 	sw	a0,0(v0)
8040c9b0:	8ca50118 	lw	a1,280(a1)
8040c9b4:	10a00008 	beqz	a1,8040c9d8 <_RTEMS_tasks_Switch_extension+0x50>
8040c9b8:	00000000 	nop
8040c9bc:	8ca20004 	lw	v0,4(a1)
8040c9c0:	8ca4000c 	lw	a0,12(a1)
8040c9c4:	8c430000 	lw	v1,0(v0)
8040c9c8:	aca30008 	sw	v1,8(a1)
8040c9cc:	8ca50000 	lw	a1,0(a1)
8040c9d0:	14a0fffa 	bnez	a1,8040c9bc <_RTEMS_tasks_Switch_extension+0x34>
8040c9d4:	ac440000 	sw	a0,0(v0)
8040c9d8:	03e00008 	jr	ra
8040c9dc:	00000000 	nop

8040c9e0 <_RTEMS_tasks_Initialize_user_tasks>:
8040c9e0:	3c028041 	lui	v0,0x8041
8040c9e4:	8c593774 	lw	t9,14196(v0)
8040c9e8:	13200003 	beqz	t9,8040c9f8 <_RTEMS_tasks_Initialize_user_tasks+0x18>
8040c9ec:	00000000 	nop
8040c9f0:	03200008 	jr	t9
8040c9f4:	00000000 	nop
8040c9f8:	03e00008 	jr	ra
8040c9fc:	00000000 	nop

8040ca00 <_RTEMS_tasks_Manager_initialization>:
8040ca00:	00803821 	move	a3,a0
8040ca04:	3c048041 	lui	a0,0x8041
8040ca08:	27bdffd8 	addiu	sp,sp,-40
8040ca0c:	2402011c 	li	v0,284
8040ca10:	24030004 	li	v1,4
8040ca14:	24844474 	addiu	a0,a0,17524
8040ca18:	24050002 	li	a1,2
8040ca1c:	24060001 	li	a2,1
8040ca20:	afbf0024 	sw	ra,36(sp)
8040ca24:	afa20010 	sw	v0,16(sp)
8040ca28:	afa30018 	sw	v1,24(sp)
8040ca2c:	0c101cb4 	jal	804072d0 <_Objects_Initialize_information>
8040ca30:	afa00014 	sw	zero,20(sp)
8040ca34:	3c048041 	lui	a0,0x8041
8040ca38:	0c103658 	jal	8040d960 <_User_extensions_Add_API_set>
8040ca3c:	24843854 	addiu	a0,a0,14420
8040ca40:	3c048041 	lui	a0,0x8041
8040ca44:	8fbf0024 	lw	ra,36(sp)
8040ca48:	24843840 	addiu	a0,a0,14400
8040ca4c:	081017f1 	j	80405fc4 <_API_extensions_Add>
8040ca50:	27bd0028 	addiu	sp,sp,40

8040ca54 <_RTEMS_tasks_Post_switch_extension>:
8040ca54:	27bdffd8 	addiu	sp,sp,-40
8040ca58:	afb1001c 	sw	s1,28(sp)
8040ca5c:	8c910108 	lw	s1,264(a0)
8040ca60:	afbf0024 	sw	ra,36(sp)
8040ca64:	afb20020 	sw	s2,32(sp)
8040ca68:	12200025 	beqz	s1,8040cb00 <_RTEMS_tasks_Post_switch_extension+0xac>
8040ca6c:	afb00018 	sw	s0,24(sp)
8040ca70:	40046000 	mfc0	a0,c0_status
8040ca74:	00000000 	nop
8040ca78:	2402fffe 	li	v0,-2
8040ca7c:	00821024 	and	v0,a0,v0
8040ca80:	40826000 	mtc0	v0,c0_status
8040ca84:	00000000 	nop
8040ca88:	8e320014 	lw	s2,20(s1)
8040ca8c:	ae200014 	sw	zero,20(s1)
8040ca90:	40026000 	mfc0	v0,c0_status
8040ca94:	00000000 	nop
8040ca98:	2403fffe 	li	v1,-2
8040ca9c:	00431024 	and	v0,v0,v1
8040caa0:	30840001 	andi	a0,a0,0x1
8040caa4:	00822025 	or	a0,a0,v0
8040caa8:	40846000 	mtc0	a0,c0_status
8040caac:	00000000 	nop
8040cab0:	12400014 	beqz	s2,8040cb04 <_RTEMS_tasks_Post_switch_extension+0xb0>
8040cab4:	8fbf0024 	lw	ra,36(sp)
8040cab8:	8e22001c 	lw	v0,28(s1)
8040cabc:	8e240010 	lw	a0,16(s1)
8040cac0:	24420001 	addiu	v0,v0,1
8040cac4:	27b00010 	addiu	s0,sp,16
8040cac8:	3405ffff 	li	a1,0xffff
8040cacc:	02003021 	move	a2,s0
8040cad0:	0c103968 	jal	8040e5a0 <rtems_task_mode>
8040cad4:	ae22001c 	sw	v0,28(s1)
8040cad8:	8e23000c 	lw	v1,12(s1)
8040cadc:	0060f809 	jalr	v1
8040cae0:	02402021 	move	a0,s2
8040cae4:	8e22001c 	lw	v0,28(s1)
8040cae8:	8fa40010 	lw	a0,16(sp)
8040caec:	2442ffff 	addiu	v0,v0,-1
8040caf0:	ae22001c 	sw	v0,28(s1)
8040caf4:	02003021 	move	a2,s0
8040caf8:	0c103968 	jal	8040e5a0 <rtems_task_mode>
8040cafc:	3405ffff 	li	a1,0xffff
8040cb00:	8fbf0024 	lw	ra,36(sp)
8040cb04:	8fb20020 	lw	s2,32(sp)
8040cb08:	8fb1001c 	lw	s1,28(sp)
8040cb0c:	8fb00018 	lw	s0,24(sp)
8040cb10:	03e00008 	jr	ra
8040cb14:	27bd0028 	addiu	sp,sp,40

8040cb18 <_RTEMS_tasks_Delete_extension>:
8040cb18:	27bdffe0 	addiu	sp,sp,-32
8040cb1c:	afb10018 	sw	s1,24(sp)
8040cb20:	00a08821 	move	s1,a1
8040cb24:	8ca50118 	lw	a1,280(a1)
8040cb28:	afbf001c 	sw	ra,28(sp)
8040cb2c:	afb00014 	sw	s0,20(sp)
8040cb30:	10a00006 	beqz	a1,8040cb4c <_RTEMS_tasks_Delete_extension+0x34>
8040cb34:	ae200118 	sw	zero,280(s1)
8040cb38:	8cb00000 	lw	s0,0(a1)
8040cb3c:	0c10330c 	jal	8040cc30 <_RTEMS_Tasks_Invoke_task_variable_dtor>
8040cb40:	02202021 	move	a0,s1
8040cb44:	1600fffc 	bnez	s0,8040cb38 <_RTEMS_tasks_Delete_extension+0x20>
8040cb48:	02002821 	move	a1,s0
8040cb4c:	0c10264c 	jal	80409930 <_Workspace_Free>
8040cb50:	8e240108 	lw	a0,264(s1)
8040cb54:	8fbf001c 	lw	ra,28(sp)
8040cb58:	ae200108 	sw	zero,264(s1)
8040cb5c:	8fb00014 	lw	s0,20(sp)
8040cb60:	8fb10018 	lw	s1,24(sp)
8040cb64:	03e00008 	jr	ra
8040cb68:	27bd0020 	addiu	sp,sp,32

8040cb6c <_RTEMS_tasks_Create_extension>:
8040cb6c:	27bdffe0 	addiu	sp,sp,-32
8040cb70:	afb00014 	sw	s0,20(sp)
8040cb74:	3c108041 	lui	s0,0x8041
8040cb78:	8e0245ac 	lw	v0,17836(s0)
8040cb7c:	24040060 	li	a0,96
8040cb80:	8c430040 	lw	v1,64(v0)
8040cb84:	24020020 	li	v0,32
8040cb88:	90660004 	lbu	a2,4(v1)
8040cb8c:	afb10018 	sw	s1,24(sp)
8040cb90:	0046200a 	movz	a0,v0,a2
8040cb94:	afbf001c 	sw	ra,28(sp)
8040cb98:	0c102650 	jal	80409940 <_Workspace_Allocate>
8040cb9c:	00a08821 	move	s1,a1
8040cba0:	1040001b 	beqz	v0,8040cc10 <_RTEMS_tasks_Create_extension+0xa4>
8040cba4:	00402821 	move	a1,v0
8040cba8:	8e0245ac 	lw	v0,17836(s0)
8040cbac:	24030001 	li	v1,1
8040cbb0:	8c440040 	lw	a0,64(v0)
8040cbb4:	a0a30008 	sb	v1,8(a1)
8040cbb8:	90820004 	lbu	v0,4(a0)
8040cbbc:	ae200118 	sw	zero,280(s1)
8040cbc0:	ae250108 	sw	a1,264(s1)
8040cbc4:	aca00000 	sw	zero,0(a1)
8040cbc8:	aca0000c 	sw	zero,12(a1)
8040cbcc:	aca00010 	sw	zero,16(a1)
8040cbd0:	aca00014 	sw	zero,20(a1)
8040cbd4:	aca00018 	sw	zero,24(a1)
8040cbd8:	10400007 	beqz	v0,8040cbf8 <_RTEMS_tasks_Create_extension+0x8c>
8040cbdc:	aca0001c 	sw	zero,28(a1)
8040cbe0:	00001821 	move	v1,zero
8040cbe4:	24040040 	li	a0,64
8040cbe8:	00a31021 	addu	v0,a1,v1
8040cbec:	24630004 	addiu	v1,v1,4
8040cbf0:	1464fffd 	bne	v1,a0,8040cbe8 <_RTEMS_tasks_Create_extension+0x7c>
8040cbf4:	ac400020 	sw	zero,32(v0)
8040cbf8:	8fbf001c 	lw	ra,28(sp)
8040cbfc:	24020001 	li	v0,1
8040cc00:	8fb10018 	lw	s1,24(sp)
8040cc04:	8fb00014 	lw	s0,20(sp)
8040cc08:	03e00008 	jr	ra
8040cc0c:	27bd0020 	addiu	sp,sp,32
8040cc10:	8fbf001c 	lw	ra,28(sp)
8040cc14:	00001021 	move	v0,zero
8040cc18:	8fb10018 	lw	s1,24(sp)
8040cc1c:	8fb00014 	lw	s0,20(sp)
8040cc20:	03e00008 	jr	ra
8040cc24:	27bd0020 	addiu	sp,sp,32
	...

8040cc30 <_RTEMS_Tasks_Invoke_task_variable_dtor>:
8040cc30:	3c028041 	lui	v0,0x8041
8040cc34:	8c4345d4 	lw	v1,17876(v0)
8040cc38:	27bdffe8 	addiu	sp,sp,-24
8040cc3c:	afb00010 	sw	s0,16(sp)
8040cc40:	afbf0014 	sw	ra,20(sp)
8040cc44:	00a08021 	move	s0,a1
8040cc48:	1064000b 	beq	v1,a0,8040cc78 <_RTEMS_Tasks_Invoke_task_variable_dtor+0x48>
8040cc4c:	8ca50010 	lw	a1,16(a1)
8040cc50:	8e04000c 	lw	a0,12(s0)
8040cc54:	10a00003 	beqz	a1,8040cc64 <_RTEMS_Tasks_Invoke_task_variable_dtor+0x34>
8040cc58:	00000000 	nop
8040cc5c:	00a0f809 	jalr	a1
8040cc60:	00000000 	nop
8040cc64:	02002021 	move	a0,s0
8040cc68:	8fbf0014 	lw	ra,20(sp)
8040cc6c:	8fb00010 	lw	s0,16(sp)
8040cc70:	0810264c 	j	80409930 <_Workspace_Free>
8040cc74:	27bd0018 	addiu	sp,sp,24
8040cc78:	8e020004 	lw	v0,4(s0)
8040cc7c:	8e030008 	lw	v1,8(s0)
8040cc80:	8c440000 	lw	a0,0(v0)
8040cc84:	08103315 	j	8040cc54 <_RTEMS_Tasks_Invoke_task_variable_dtor+0x24>
8040cc88:	ac430000 	sw	v1,0(v0)
8040cc8c:	00000000 	nop

8040cc90 <_Debug_Manager_initialization>:
8040cc90:	3c028041 	lui	v0,0x8041
8040cc94:	03e00008 	jr	ra
8040cc98:	ac4045d8 	sw	zero,17880(v0)

8040cc9c <rtems_debug_enable>:
8040cc9c:	3c028041 	lui	v0,0x8041
8040cca0:	8c4345d8 	lw	v1,17880(v0)
8040cca4:	00832025 	or	a0,a0,v1
8040cca8:	03e00008 	jr	ra
8040ccac:	ac4445d8 	sw	a0,17880(v0)

8040ccb0 <rtems_debug_disable>:
8040ccb0:	3c038041 	lui	v1,0x8041
8040ccb4:	8c6245d8 	lw	v0,17880(v1)
8040ccb8:	00042027 	nor	a0,zero,a0
8040ccbc:	00822024 	and	a0,a0,v0
8040ccc0:	03e00008 	jr	ra
8040ccc4:	ac6445d8 	sw	a0,17880(v1)

8040ccc8 <_Debug_Is_enabled>:
8040ccc8:	3c028041 	lui	v0,0x8041
8040cccc:	8c4345d8 	lw	v1,17880(v0)
8040ccd0:	00831024 	and	v0,a0,v1
8040ccd4:	03e00008 	jr	ra
8040ccd8:	0002102b 	sltu	v0,zero,v0
8040ccdc:	00000000 	nop

8040cce0 <rtems_io_initialize>:
8040cce0:	3c038041 	lui	v1,0x8041
8040cce4:	8c624fd8 	lw	v0,20440(v1)
8040cce8:	0082102b 	sltu	v0,a0,v0
8040ccec:	1040000b 	beqz	v0,8040cd1c <rtems_io_initialize+0x3c>
8040ccf0:	3c038041 	lui	v1,0x8041
8040ccf4:	8c674fdc 	lw	a3,20444(v1)
8040ccf8:	00041140 	sll	v0,a0,0x5
8040ccfc:	000418c0 	sll	v1,a0,0x3
8040cd00:	00431023 	subu	v0,v0,v1
8040cd04:	00e23821 	addu	a3,a3,v0
8040cd08:	8cf90000 	lw	t9,0(a3)
8040cd0c:	13200005 	beqz	t9,8040cd24 <rtems_io_initialize+0x44>
8040cd10:	00000000 	nop
8040cd14:	03200008 	jr	t9
8040cd18:	00000000 	nop
8040cd1c:	03e00008 	jr	ra
8040cd20:	2402000a 	li	v0,10
8040cd24:	03e00008 	jr	ra
8040cd28:	00001021 	move	v0,zero
8040cd2c:	00000000 	nop

8040cd30 <_Chain_Extract>:
8040cd30:	40056000 	mfc0	a1,c0_status
8040cd34:	00000000 	nop
8040cd38:	2402fffe 	li	v0,-2
8040cd3c:	00a21024 	and	v0,a1,v0
8040cd40:	40826000 	mtc0	v0,c0_status
8040cd44:	00000000 	nop
8040cd48:	8c830004 	lw	v1,4(a0)
8040cd4c:	8c820000 	lw	v0,0(a0)
8040cd50:	ac620000 	sw	v0,0(v1)
8040cd54:	ac430004 	sw	v1,4(v0)
8040cd58:	40026000 	mfc0	v0,c0_status
8040cd5c:	00000000 	nop
8040cd60:	2403fffe 	li	v1,-2
8040cd64:	00431024 	and	v0,v0,v1
8040cd68:	30a50001 	andi	a1,a1,0x1
8040cd6c:	00a22825 	or	a1,a1,v0
8040cd70:	40856000 	mtc0	a1,c0_status
8040cd74:	00000000 	nop
8040cd78:	03e00008 	jr	ra
8040cd7c:	00000000 	nop

8040cd80 <_Chain_Get>:
8040cd80:	40066000 	mfc0	a2,c0_status
8040cd84:	00000000 	nop
8040cd88:	2402fffe 	li	v0,-2
8040cd8c:	00c21024 	and	v0,a2,v0
8040cd90:	40826000 	mtc0	v0,c0_status
8040cd94:	00000000 	nop
8040cd98:	8c850000 	lw	a1,0(a0)
8040cd9c:	24820004 	addiu	v0,a0,4
8040cda0:	10a2000e 	beq	a1,v0,8040cddc <_Chain_Get+0x5c>
8040cda4:	00000000 	nop
8040cda8:	8ca20000 	lw	v0,0(a1)
8040cdac:	ac820000 	sw	v0,0(a0)
8040cdb0:	ac440004 	sw	a0,4(v0)
8040cdb4:	40026000 	mfc0	v0,c0_status
8040cdb8:	00000000 	nop
8040cdbc:	2403fffe 	li	v1,-2
8040cdc0:	00431024 	and	v0,v0,v1
8040cdc4:	30c40001 	andi	a0,a2,0x1
8040cdc8:	00441025 	or	v0,v0,a0
8040cdcc:	40826000 	mtc0	v0,c0_status
8040cdd0:	00000000 	nop
8040cdd4:	03e00008 	jr	ra
8040cdd8:	00a01021 	move	v0,a1
8040cddc:	00002821 	move	a1,zero
8040cde0:	40026000 	mfc0	v0,c0_status
8040cde4:	00000000 	nop
8040cde8:	2403fffe 	li	v1,-2
8040cdec:	00431024 	and	v0,v0,v1
8040cdf0:	30c40001 	andi	a0,a2,0x1
8040cdf4:	00441025 	or	v0,v0,a0
8040cdf8:	40826000 	mtc0	v0,c0_status
8040cdfc:	00000000 	nop
8040ce00:	03e00008 	jr	ra
8040ce04:	00a01021 	move	v0,a1
	...

8040ce10 <_Chain_Initialize>:
8040ce10:	ac800004 	sw	zero,4(a0)
8040ce14:	10c0000d 	beqz	a2,8040ce4c <_Chain_Initialize+0x3c>
8040ce18:	00801821 	move	v1,a0
8040ce1c:	24c6ffff 	addiu	a2,a2,-1
8040ce20:	00c04021 	move	t0,a2
8040ce24:	0810338c 	j	8040ce30 <_Chain_Initialize+0x20>
8040ce28:	00a01021 	move	v0,a1
8040ce2c:	24c6ffff 	addiu	a2,a2,-1
8040ce30:	ac430004 	sw	v1,4(v0)
8040ce34:	ac620000 	sw	v0,0(v1)
8040ce38:	00401821 	move	v1,v0
8040ce3c:	14c0fffb 	bnez	a2,8040ce2c <_Chain_Initialize+0x1c>
8040ce40:	00471021 	addu	v0,v0,a3
8040ce44:	70e81002 	mul	v0,a3,t0
8040ce48:	00451821 	addu	v1,v0,a1
8040ce4c:	24820004 	addiu	v0,a0,4
8040ce50:	ac620000 	sw	v0,0(v1)
8040ce54:	03e00008 	jr	ra
8040ce58:	ac830008 	sw	v1,8(a0)
8040ce5c:	00000000 	nop

8040ce60 <_TOD_Get_uptime>:
8040ce60:	27bdffd8 	addiu	sp,sp,-40
8040ce64:	afb0001c 	sw	s0,28(sp)
8040ce68:	afbf0024 	sw	ra,36(sp)
8040ce6c:	afb10020 	sw	s1,32(sp)
8040ce70:	00808021 	move	s0,a0
8040ce74:	afa00010 	sw	zero,16(sp)
8040ce78:	afa00014 	sw	zero,20(sp)
8040ce7c:	40116000 	mfc0	s1,c0_status
8040ce80:	00000000 	nop
8040ce84:	2402fffe 	li	v0,-2
8040ce88:	02221024 	and	v0,s1,v0
8040ce8c:	40826000 	mtc0	v0,c0_status
8040ce90:	00000000 	nop
8040ce94:	3c048041 	lui	a0,0x8041
8040ce98:	24824594 	addiu	v0,a0,17812
8040ce9c:	3c038041 	lui	v1,0x8041
8040cea0:	8c450004 	lw	a1,4(v0)
8040cea4:	8c6346b8 	lw	v1,18104(v1)
8040cea8:	8c824594 	lw	v0,17812(a0)
8040ceac:	ae050004 	sw	a1,4(s0)
8040ceb0:	10600004 	beqz	v1,8040cec4 <_TOD_Get_uptime+0x64>
8040ceb4:	ae020000 	sw	v0,0(s0)
8040ceb8:	0060f809 	jalr	v1
8040cebc:	00000000 	nop
8040cec0:	afa20014 	sw	v0,20(sp)
8040cec4:	40026000 	mfc0	v0,c0_status
8040cec8:	00000000 	nop
8040cecc:	2403fffe 	li	v1,-2
8040ced0:	00431024 	and	v0,v0,v1
8040ced4:	32240001 	andi	a0,s1,0x1
8040ced8:	00441025 	or	v0,v0,a0
8040cedc:	40826000 	mtc0	v0,c0_status
8040cee0:	00000000 	nop
8040cee4:	02002021 	move	a0,s0
8040cee8:	0c102434 	jal	804090d0 <_Timespec_Add_to>
8040ceec:	27a50010 	addiu	a1,sp,16
8040cef0:	8fbf0024 	lw	ra,36(sp)
8040cef4:	8fb10020 	lw	s1,32(sp)
8040cef8:	8fb0001c 	lw	s0,28(sp)
8040cefc:	03e00008 	jr	ra
8040cf00:	27bd0028 	addiu	sp,sp,40
	...

8040cf10 <_Heap_Allocate>:
8040cf10:	27bdffd8 	addiu	sp,sp,-40
8040cf14:	afb2001c 	sw	s2,28(sp)
8040cf18:	00809021 	move	s2,a0
8040cf1c:	8e460014 	lw	a2,20(s2)
8040cf20:	00a02021 	move	a0,a1
8040cf24:	8e450010 	lw	a1,16(s2)
8040cf28:	afbf0024 	sw	ra,36(sp)
8040cf2c:	afb30020 	sw	s3,32(sp)
8040cf30:	afb10018 	sw	s1,24(sp)
8040cf34:	0c101a72 	jal	804069c8 <_Heap_Calc_block_size>
8040cf38:	afb00014 	sw	s0,20(sp)
8040cf3c:	10400020 	beqz	v0,8040cfc0 <_Heap_Allocate+0xb0>
8040cf40:	00403021 	move	a2,v0
8040cf44:	8e500008 	lw	s0,8(s2)
8040cf48:	1250001e 	beq	s2,s0,8040cfc4 <_Heap_Allocate+0xb4>
8040cf4c:	8fbf0024 	lw	ra,36(sp)
8040cf50:	8e020004 	lw	v0,4(s0)
8040cf54:	0046102b 	sltu	v0,v0,a2
8040cf58:	1040002e 	beqz	v0,8040d014 <_Heap_Allocate+0x104>
8040cf5c:	00000000 	nop
8040cf60:	081033de 	j	8040cf78 <_Heap_Allocate+0x68>
8040cf64:	00008821 	move	s1,zero
8040cf68:	8e020004 	lw	v0,4(s0)
8040cf6c:	0046102b 	sltu	v0,v0,a2
8040cf70:	1040001c 	beqz	v0,8040cfe4 <_Heap_Allocate+0xd4>
8040cf74:	02209821 	move	s3,s1
8040cf78:	8e100008 	lw	s0,8(s0)
8040cf7c:	1650fffa 	bne	s2,s0,8040cf68 <_Heap_Allocate+0x58>
8040cf80:	26310001 	addiu	s1,s1,1
8040cf84:	02209821 	move	s3,s1
8040cf88:	00002821 	move	a1,zero
8040cf8c:	8e420044 	lw	v0,68(s2)
8040cf90:	0053102b 	sltu	v0,v0,s3
8040cf94:	10400003 	beqz	v0,8040cfa4 <_Heap_Allocate+0x94>
8040cf98:	8fbf0024 	lw	ra,36(sp)
8040cf9c:	ae530044 	sw	s3,68(s2)
8040cfa0:	8fbf0024 	lw	ra,36(sp)
8040cfa4:	00a01021 	move	v0,a1
8040cfa8:	8fb30020 	lw	s3,32(sp)
8040cfac:	8fb2001c 	lw	s2,28(sp)
8040cfb0:	8fb10018 	lw	s1,24(sp)
8040cfb4:	8fb00014 	lw	s0,20(sp)
8040cfb8:	03e00008 	jr	ra
8040cfbc:	27bd0028 	addiu	sp,sp,40
8040cfc0:	8fbf0024 	lw	ra,36(sp)
8040cfc4:	00002821 	move	a1,zero
8040cfc8:	00a01021 	move	v0,a1
8040cfcc:	8fb30020 	lw	s3,32(sp)
8040cfd0:	8fb2001c 	lw	s2,28(sp)
8040cfd4:	8fb10018 	lw	s1,24(sp)
8040cfd8:	8fb00014 	lw	s0,20(sp)
8040cfdc:	03e00008 	jr	ra
8040cfe0:	27bd0028 	addiu	sp,sp,40
8040cfe4:	02002821 	move	a1,s0
8040cfe8:	0c101a7f 	jal	804069fc <_Heap_Block_allocate>
8040cfec:	02402021 	move	a0,s2
8040cff0:	8e43004c 	lw	v1,76(s2)
8040cff4:	8e420048 	lw	v0,72(s2)
8040cff8:	24630001 	addiu	v1,v1,1
8040cffc:	00711821 	addu	v1,v1,s1
8040d000:	24420001 	addiu	v0,v0,1
8040d004:	ae420048 	sw	v0,72(s2)
8040d008:	ae43004c 	sw	v1,76(s2)
8040d00c:	081033e3 	j	8040cf8c <_Heap_Allocate+0x7c>
8040d010:	26050008 	addiu	a1,s0,8
8040d014:	00008821 	move	s1,zero
8040d018:	081033f9 	j	8040cfe4 <_Heap_Allocate+0xd4>
8040d01c:	00009821 	move	s3,zero

8040d020 <_Heap_Free>:
8040d020:	8c860020 	lw	a2,32(a0)
8040d024:	00804821 	move	t1,a0
8040d028:	00a6102b 	sltu	v0,a1,a2
8040d02c:	14400004 	bnez	v0,8040d040 <_Heap_Free+0x20>
8040d030:	8c870024 	lw	a3,36(a0)
8040d034:	00e5102b 	sltu	v0,a3,a1
8040d038:	10400003 	beqz	v0,8040d048 <_Heap_Free+0x28>
8040d03c:	00000000 	nop
8040d040:	03e00008 	jr	ra
8040d044:	00001021 	move	v0,zero
8040d048:	8c830010 	lw	v1,16(a0)
8040d04c:	24a4fff8 	addiu	a0,a1,-8
8040d050:	00a3001b 	divu	zero,a1,v1
8040d054:	006001f4 	teq	v1,zero,0x7
8040d058:	00001010 	mfhi	v0
8040d05c:	00824023 	subu	t0,a0,v0
8040d060:	0106182b 	sltu	v1,t0,a2
8040d064:	1460fff6 	bnez	v1,8040d040 <_Heap_Free+0x20>
8040d068:	00000000 	nop
8040d06c:	00e8102b 	sltu	v0,a3,t0
8040d070:	1440fff3 	bnez	v0,8040d040 <_Heap_Free+0x20>
8040d074:	2405fffe 	li	a1,-2
8040d078:	8d040004 	lw	a0,4(t0)
8040d07c:	00855824 	and	t3,a0,a1
8040d080:	010b5021 	addu	t2,t0,t3
8040d084:	0146102b 	sltu	v0,t2,a2
8040d088:	1440ffed 	bnez	v0,8040d040 <_Heap_Free+0x20>
8040d08c:	00000000 	nop
8040d090:	00ea102b 	sltu	v0,a3,t2
8040d094:	1440ffea 	bnez	v0,8040d040 <_Heap_Free+0x20>
8040d098:	00000000 	nop
8040d09c:	8d430004 	lw	v1,4(t2)
8040d0a0:	30620001 	andi	v0,v1,0x1
8040d0a4:	1040ffe6 	beqz	v0,8040d040 <_Heap_Free+0x20>
8040d0a8:	00000000 	nop
8040d0ac:	0147102b 	sltu	v0,t2,a3
8040d0b0:	1040002e 	beqz	v0,8040d16c <_Heap_Free+0x14c>
8040d0b4:	00652824 	and	a1,v1,a1
8040d0b8:	01451821 	addu	v1,t2,a1
8040d0bc:	8c620004 	lw	v0,4(v1)
8040d0c0:	38420001 	xori	v0,v0,0x1
8040d0c4:	30430001 	andi	v1,v0,0x1
8040d0c8:	30820001 	andi	v0,a0,0x1
8040d0cc:	14400029 	bnez	v0,8040d174 <_Heap_Free+0x154>
8040d0d0:	00000000 	nop
8040d0d4:	8d040000 	lw	a0,0(t0)
8040d0d8:	01044023 	subu	t0,t0,a0
8040d0dc:	0106102b 	sltu	v0,t0,a2
8040d0e0:	1440ffd7 	bnez	v0,8040d040 <_Heap_Free+0x20>
8040d0e4:	00000000 	nop
8040d0e8:	00e8102b 	sltu	v0,a3,t0
8040d0ec:	1440ffd4 	bnez	v0,8040d040 <_Heap_Free+0x20>
8040d0f0:	00000000 	nop
8040d0f4:	8d020004 	lw	v0,4(t0)
8040d0f8:	30420001 	andi	v0,v0,0x1
8040d0fc:	1040ffd0 	beqz	v0,8040d040 <_Heap_Free+0x20>
8040d100:	00000000 	nop
8040d104:	1060003c 	beqz	v1,8040d1f8 <_Heap_Free+0x1d8>
8040d108:	00000000 	nop
8040d10c:	8d230038 	lw	v1,56(t1)
8040d110:	01651021 	addu	v0,t3,a1
8040d114:	00441021 	addu	v0,v0,a0
8040d118:	8d47000c 	lw	a3,12(t2)
8040d11c:	8d460008 	lw	a2,8(t2)
8040d120:	2463ffff 	addiu	v1,v1,-1
8040d124:	01022021 	addu	a0,t0,v0
8040d128:	34450001 	ori	a1,v0,0x1
8040d12c:	ad230038 	sw	v1,56(t1)
8040d130:	acc7000c 	sw	a3,12(a2)
8040d134:	ac820000 	sw	v0,0(a0)
8040d138:	ad050004 	sw	a1,4(t0)
8040d13c:	ace60008 	sw	a2,8(a3)
8040d140:	8d220040 	lw	v0,64(t1)
8040d144:	8d240030 	lw	a0,48(t1)
8040d148:	8d230050 	lw	v1,80(t1)
8040d14c:	2442ffff 	addiu	v0,v0,-1
8040d150:	008b2021 	addu	a0,a0,t3
8040d154:	24630001 	addiu	v1,v1,1
8040d158:	ad220040 	sw	v0,64(t1)
8040d15c:	ad230050 	sw	v1,80(t1)
8040d160:	ad240030 	sw	a0,48(t1)
8040d164:	03e00008 	jr	ra
8040d168:	24020001 	li	v0,1
8040d16c:	08103432 	j	8040d0c8 <_Heap_Free+0xa8>
8040d170:	00001821 	move	v1,zero
8040d174:	1060000d 	beqz	v1,8040d1ac <_Heap_Free+0x18c>
8040d178:	35630001 	ori	v1,t3,0x1
8040d17c:	00ab1021 	addu	v0,a1,t3
8040d180:	8d460008 	lw	a2,8(t2)
8040d184:	8d45000c 	lw	a1,12(t2)
8040d188:	01021821 	addu	v1,t0,v0
8040d18c:	34440001 	ori	a0,v0,0x1
8040d190:	ad060008 	sw	a2,8(t0)
8040d194:	ad05000c 	sw	a1,12(t0)
8040d198:	ac620000 	sw	v0,0(v1)
8040d19c:	ad040004 	sw	a0,4(t0)
8040d1a0:	aca80008 	sw	t0,8(a1)
8040d1a4:	08103450 	j	8040d140 <_Heap_Free+0x120>
8040d1a8:	acc8000c 	sw	t0,12(a2)
8040d1ac:	ad030004 	sw	v1,4(t0)
8040d1b0:	8d420004 	lw	v0,4(t2)
8040d1b4:	2403fffe 	li	v1,-2
8040d1b8:	00431024 	and	v0,v0,v1
8040d1bc:	ad420004 	sw	v0,4(t2)
8040d1c0:	ad4b0000 	sw	t3,0(t2)
8040d1c4:	8d220038 	lw	v0,56(t1)
8040d1c8:	8d23003c 	lw	v1,60(t1)
8040d1cc:	8d240008 	lw	a0,8(t1)
8040d1d0:	24420001 	addiu	v0,v0,1
8040d1d4:	0062182b 	sltu	v1,v1,v0
8040d1d8:	ad040008 	sw	a0,8(t0)
8040d1dc:	ad09000c 	sw	t1,12(t0)
8040d1e0:	ad280008 	sw	t0,8(t1)
8040d1e4:	ac88000c 	sw	t0,12(a0)
8040d1e8:	1060ffd5 	beqz	v1,8040d140 <_Heap_Free+0x120>
8040d1ec:	ad220038 	sw	v0,56(t1)
8040d1f0:	08103450 	j	8040d140 <_Heap_Free+0x120>
8040d1f4:	ad22003c 	sw	v0,60(t1)
8040d1f8:	01642021 	addu	a0,t3,a0
8040d1fc:	34820001 	ori	v0,a0,0x1
8040d200:	ad020004 	sw	v0,4(t0)
8040d204:	8d430004 	lw	v1,4(t2)
8040d208:	2402fffe 	li	v0,-2
8040d20c:	00621824 	and	v1,v1,v0
8040d210:	ad440000 	sw	a0,0(t2)
8040d214:	08103450 	j	8040d140 <_Heap_Free+0x120>
8040d218:	ad430004 	sw	v1,4(t2)
8040d21c:	00000000 	nop

8040d220 <_Objects_API_maximum_class>:
8040d220:	24020002 	li	v0,2
8040d224:	10820012 	beq	a0,v0,8040d270 <_Objects_API_maximum_class+0x50>
8040d228:	00000000 	nop
8040d22c:	2c820003 	sltiu	v0,a0,3
8040d230:	14400009 	bnez	v0,8040d258 <_Objects_API_maximum_class+0x38>
8040d234:	24020001 	li	v0,1
8040d238:	24020003 	li	v0,3
8040d23c:	1082000a 	beq	a0,v0,8040d268 <_Objects_API_maximum_class+0x48>
8040d240:	00000000 	nop
8040d244:	24020004 	li	v0,4
8040d248:	14820005 	bne	a0,v0,8040d260 <_Objects_API_maximum_class+0x40>
8040d24c:	00000000 	nop
8040d250:	03e00008 	jr	ra
8040d254:	24020008 	li	v0,8
8040d258:	10820007 	beq	a0,v0,8040d278 <_Objects_API_maximum_class+0x58>
8040d25c:	00000000 	nop
8040d260:	03e00008 	jr	ra
8040d264:	2402ffff 	li	v0,-1
8040d268:	03e00008 	jr	ra
8040d26c:	2402000c 	li	v0,12
8040d270:	03e00008 	jr	ra
8040d274:	2402000a 	li	v0,10
8040d278:	03e00008 	jr	ra
8040d27c:	24020002 	li	v0,2

8040d280 <_Protected_heap_Free>:
8040d280:	27bdffe0 	addiu	sp,sp,-32
8040d284:	afb20018 	sw	s2,24(sp)
8040d288:	3c128041 	lui	s2,0x8041
8040d28c:	afb10014 	sw	s1,20(sp)
8040d290:	00808821 	move	s1,a0
8040d294:	8e4445cc 	lw	a0,17868(s2)
8040d298:	afb00010 	sw	s0,16(sp)
8040d29c:	afbf001c 	sw	ra,28(sp)
8040d2a0:	0c10181c 	jal	80406070 <_API_Mutex_Lock>
8040d2a4:	00a08021 	move	s0,a1
8040d2a8:	02202021 	move	a0,s1
8040d2ac:	0c103408 	jal	8040d020 <_Heap_Free>
8040d2b0:	02002821 	move	a1,s0
8040d2b4:	8e4445cc 	lw	a0,17868(s2)
8040d2b8:	0c1018c8 	jal	80406320 <_API_Mutex_Unlock>
8040d2bc:	00408021 	move	s0,v0
8040d2c0:	8fbf001c 	lw	ra,28(sp)
8040d2c4:	02001021 	move	v0,s0
8040d2c8:	8fb20018 	lw	s2,24(sp)
8040d2cc:	8fb10014 	lw	s1,20(sp)
8040d2d0:	8fb00010 	lw	s0,16(sp)
8040d2d4:	03e00008 	jr	ra
8040d2d8:	27bd0020 	addiu	sp,sp,32
8040d2dc:	00000000 	nop

8040d2e0 <_Thread_Load_environment>:
8040d2e0:	8c8200c4 	lw	v0,196(a0)
8040d2e4:	8c8300c8 	lw	v1,200(a0)
8040d2e8:	27bdffe0 	addiu	sp,sp,-32
8040d2ec:	2442fff8 	addiu	v0,v0,-8
8040d2f0:	00621821 	addu	v1,v1,v0
8040d2f4:	afb20018 	sw	s2,24(sp)
8040d2f8:	2402fff8 	li	v0,-8
8040d2fc:	8c9200b8 	lw	s2,184(a0)
8040d300:	afb00010 	sw	s0,16(sp)
8040d304:	00808021 	move	s0,a0
8040d308:	00621824 	and	v1,v1,v0
8040d30c:	908400ac 	lbu	a0,172(a0)
8040d310:	8e0500b0 	lw	a1,176(s0)
8040d314:	8e0600b4 	lw	a2,180(s0)
8040d318:	3c028041 	lui	v0,0x8041
8040d31c:	afb10014 	sw	s1,20(sp)
8040d320:	2442e9a0 	addiu	v0,v0,-5728
8040d324:	325100ff 	andi	s1,s2,0xff
8040d328:	afbf001c 	sw	ra,28(sp)
8040d32c:	a2040076 	sb	a0,118(s0)
8040d330:	ae05007c 	sw	a1,124(s0)
8040d334:	ae060080 	sw	a2,128(s0)
8040d338:	ae0300f4 	sw	v1,244(s0)
8040d33c:	ae0200f8 	sw	v0,248(s0)
8040d340:	a2000075 	sb	zero,117(s0)
8040d344:	12200011 	beqz	s1,8040d38c <_Thread_Load_environment+0xac>
8040d348:	ae0300f0 	sw	v1,240(s0)
8040d34c:	0c100270 	jal	804009c0 <mips_interrupt_mask>
8040d350:	00000000 	nop
8040d354:	3c031000 	lui	v1,0x1000
8040d358:	32440001 	andi	a0,s2,0x1
8040d35c:	00112a40 	sll	a1,s1,0x9
8040d360:	34630300 	ori	v1,v1,0x300
8040d364:	00832025 	or	a0,a0,v1
8040d368:	00451024 	and	v0,v0,a1
8040d36c:	8fbf001c 	lw	ra,28(sp)
8040d370:	00821025 	or	v0,a0,v0
8040d374:	ae0200fc 	sw	v0,252(s0)
8040d378:	8fb20018 	lw	s2,24(sp)
8040d37c:	8fb10014 	lw	s1,20(sp)
8040d380:	8fb00010 	lw	s0,16(sp)
8040d384:	03e00008 	jr	ra
8040d388:	27bd0020 	addiu	sp,sp,32
8040d38c:	0c100270 	jal	804009c0 <mips_interrupt_mask>
8040d390:	00000000 	nop
8040d394:	3c031000 	lui	v1,0x1000
8040d398:	34630301 	ori	v1,v1,0x301
8040d39c:	8fbf001c 	lw	ra,28(sp)
8040d3a0:	00431025 	or	v0,v0,v1
8040d3a4:	ae0200fc 	sw	v0,252(s0)
8040d3a8:	8fb20018 	lw	s2,24(sp)
8040d3ac:	8fb10014 	lw	s1,20(sp)
8040d3b0:	8fb00010 	lw	s0,16(sp)
8040d3b4:	03e00008 	jr	ra
8040d3b8:	27bd0020 	addiu	sp,sp,32
8040d3bc:	00000000 	nop

8040d3c0 <_Thread_queue_Dequeue_fifo>:
8040d3c0:	27bdffe0 	addiu	sp,sp,-32
8040d3c4:	afbf001c 	sw	ra,28(sp)
8040d3c8:	afb10018 	sw	s1,24(sp)
8040d3cc:	afb00014 	sw	s0,20(sp)
8040d3d0:	40026000 	mfc0	v0,c0_status
8040d3d4:	00000000 	nop
8040d3d8:	2403fffe 	li	v1,-2
8040d3dc:	00431824 	and	v1,v0,v1
8040d3e0:	40836000 	mtc0	v1,c0_status
8040d3e4:	00000000 	nop
8040d3e8:	30450001 	andi	a1,v0,0x1
8040d3ec:	8c900000 	lw	s0,0(a0)
8040d3f0:	24820004 	addiu	v0,a0,4
8040d3f4:	1202002f 	beq	s0,v0,8040d4b4 <_Thread_queue_Dequeue_fifo+0xf4>
8040d3f8:	00000000 	nop
8040d3fc:	8e020000 	lw	v0,0(s0)
8040d400:	02008821 	move	s1,s0
8040d404:	ac820000 	sw	v0,0(a0)
8040d408:	8e030050 	lw	v1,80(s0)
8040d40c:	ac440004 	sw	a0,4(v0)
8040d410:	24020002 	li	v0,2
8040d414:	10620012 	beq	v1,v0,8040d460 <_Thread_queue_Dequeue_fifo+0xa0>
8040d418:	ae000044 	sw	zero,68(s0)
8040d41c:	40026000 	mfc0	v0,c0_status
8040d420:	00000000 	nop
8040d424:	2403fffe 	li	v1,-2
8040d428:	00431024 	and	v0,v0,v1
8040d42c:	00451025 	or	v0,v0,a1
8040d430:	40826000 	mtc0	v0,c0_status
8040d434:	00000000 	nop
8040d438:	3c051003 	lui	a1,0x1003
8040d43c:	02002021 	move	a0,s0
8040d440:	0c101e3c 	jal	804078f0 <_Thread_Clear_state>
8040d444:	34a5fff8 	ori	a1,a1,0xfff8
8040d448:	8fbf001c 	lw	ra,28(sp)
8040d44c:	02201021 	move	v0,s1
8040d450:	8fb10018 	lw	s1,24(sp)
8040d454:	8fb00014 	lw	s0,20(sp)
8040d458:	03e00008 	jr	ra
8040d45c:	27bd0020 	addiu	sp,sp,32
8040d460:	24020003 	li	v0,3
8040d464:	ae020050 	sw	v0,80(s0)
8040d468:	40026000 	mfc0	v0,c0_status
8040d46c:	00000000 	nop
8040d470:	2403fffe 	li	v1,-2
8040d474:	00431024 	and	v0,v0,v1
8040d478:	00451025 	or	v0,v0,a1
8040d47c:	40826000 	mtc0	v0,c0_status
8040d480:	00000000 	nop
8040d484:	0c102600 	jal	80409800 <_Watchdog_Remove>
8040d488:	26040048 	addiu	a0,s0,72
8040d48c:	3c051003 	lui	a1,0x1003
8040d490:	02002021 	move	a0,s0
8040d494:	0c101e3c 	jal	804078f0 <_Thread_Clear_state>
8040d498:	34a5fff8 	ori	a1,a1,0xfff8
8040d49c:	8fbf001c 	lw	ra,28(sp)
8040d4a0:	02201021 	move	v0,s1
8040d4a4:	8fb10018 	lw	s1,24(sp)
8040d4a8:	8fb00014 	lw	s0,20(sp)
8040d4ac:	03e00008 	jr	ra
8040d4b0:	27bd0020 	addiu	sp,sp,32
8040d4b4:	40026000 	mfc0	v0,c0_status
8040d4b8:	00000000 	nop
8040d4bc:	2403fffe 	li	v1,-2
8040d4c0:	00431024 	and	v0,v0,v1
8040d4c4:	00451025 	or	v0,v0,a1
8040d4c8:	40826000 	mtc0	v0,c0_status
8040d4cc:	00000000 	nop
8040d4d0:	08103512 	j	8040d448 <_Thread_queue_Dequeue_fifo+0x88>
8040d4d4:	00008821 	move	s1,zero
	...

8040d4e0 <_Thread_queue_Enqueue_fifo>:
8040d4e0:	40026000 	mfc0	v0,c0_status
8040d4e4:	00000000 	nop
8040d4e8:	2403fffe 	li	v1,-2
8040d4ec:	00431824 	and	v1,v0,v1
8040d4f0:	40836000 	mtc0	v1,c0_status
8040d4f4:	00000000 	nop
8040d4f8:	30480001 	andi	t0,v0,0x1
8040d4fc:	8c870030 	lw	a3,48(a0)
8040d500:	24020001 	li	v0,1
8040d504:	10e20004 	beq	a3,v0,8040d518 <_Thread_queue_Enqueue_fifo+0x38>
8040d508:	ac800030 	sw	zero,48(a0)
8040d50c:	acc80000 	sw	t0,0(a2)
8040d510:	03e00008 	jr	ra
8040d514:	00e01021 	move	v0,a3
8040d518:	24820004 	addiu	v0,a0,4
8040d51c:	aca20000 	sw	v0,0(a1)
8040d520:	8c830008 	lw	v1,8(a0)
8040d524:	ac850008 	sw	a1,8(a0)
8040d528:	aca30004 	sw	v1,4(a1)
8040d52c:	aca40044 	sw	a0,68(a1)
8040d530:	ac650000 	sw	a1,0(v1)
8040d534:	40026000 	mfc0	v0,c0_status
8040d538:	00000000 	nop
8040d53c:	2403fffe 	li	v1,-2
8040d540:	00431024 	and	v0,v0,v1
8040d544:	00481025 	or	v0,v0,t0
8040d548:	40826000 	mtc0	v0,c0_status
8040d54c:	00000000 	nop
8040d550:	03e00008 	jr	ra
8040d554:	00e01021 	move	v0,a3
	...

8040d560 <_Thread_queue_Extract>:
8040d560:	8c830034 	lw	v1,52(a0)
8040d564:	24020001 	li	v0,1
8040d568:	10620003 	beq	v1,v0,8040d578 <_Thread_queue_Extract+0x18>
8040d56c:	00000000 	nop
8040d570:	08103aa8 	j	8040eaa0 <_Thread_queue_Extract_fifo>
8040d574:	00000000 	nop
8040d578:	08103560 	j	8040d580 <_Thread_queue_Extract_priority_helper>
8040d57c:	00003021 	move	a2,zero

8040d580 <_Thread_queue_Extract_priority_helper>:
8040d580:	27bdffe8 	addiu	sp,sp,-24
8040d584:	afb00010 	sw	s0,16(sp)
8040d588:	afbf0014 	sw	ra,20(sp)
8040d58c:	00a08021 	move	s0,a1
8040d590:	30c600ff 	andi	a2,a2,0xff
8040d594:	40036000 	mfc0	v1,c0_status
8040d598:	00000000 	nop
8040d59c:	2402fffe 	li	v0,-2
8040d5a0:	00621024 	and	v0,v1,v0
8040d5a4:	40826000 	mtc0	v0,c0_status
8040d5a8:	00000000 	nop
8040d5ac:	30690001 	andi	t1,v1,0x1
8040d5b0:	3c020003 	lui	v0,0x3
8040d5b4:	8ca30010 	lw	v1,16(a1)
8040d5b8:	3442bee0 	ori	v0,v0,0xbee0
8040d5bc:	00621824 	and	v1,v1,v0
8040d5c0:	10600027 	beqz	v1,8040d660 <_Thread_queue_Extract_priority_helper+0xe0>
8040d5c4:	24a2003c 	addiu	v0,a1,60
8040d5c8:	8ca40038 	lw	a0,56(a1)
8040d5cc:	8e030004 	lw	v1,4(s0)
8040d5d0:	10820039 	beq	a0,v0,8040d6b8 <_Thread_queue_Extract_priority_helper+0x138>
8040d5d4:	8ca50000 	lw	a1,0(a1)
8040d5d8:	8e080040 	lw	t0,64(s0)
8040d5dc:	8c870000 	lw	a3,0(a0)
8040d5e0:	aca40004 	sw	a0,4(a1)
8040d5e4:	ac640000 	sw	a0,0(v1)
8040d5e8:	ac830004 	sw	v1,4(a0)
8040d5ec:	ac850000 	sw	a1,0(a0)
8040d5f0:	8e030038 	lw	v1,56(s0)
8040d5f4:	8e020040 	lw	v0,64(s0)
8040d5f8:	10620006 	beq	v1,v0,8040d614 <_Thread_queue_Extract_priority_helper+0x94>
8040d5fc:	2483003c 	addiu	v1,a0,60
8040d600:	24820038 	addiu	v0,a0,56
8040d604:	ace20004 	sw	v0,4(a3)
8040d608:	ac870038 	sw	a3,56(a0)
8040d60c:	ac880040 	sw	t0,64(a0)
8040d610:	ad030000 	sw	v1,0(t0)
8040d614:	14c0001d 	bnez	a2,8040d68c <_Thread_queue_Extract_priority_helper+0x10c>
8040d618:	24020002 	li	v0,2
8040d61c:	8e030050 	lw	v1,80(s0)
8040d620:	10620028 	beq	v1,v0,8040d6c4 <_Thread_queue_Extract_priority_helper+0x144>
8040d624:	24020003 	li	v0,3
8040d628:	40026000 	mfc0	v0,c0_status
8040d62c:	00000000 	nop
8040d630:	2403fffe 	li	v1,-2
8040d634:	00431024 	and	v0,v0,v1
8040d638:	00491025 	or	v0,v0,t1
8040d63c:	40826000 	mtc0	v0,c0_status
8040d640:	00000000 	nop
8040d644:	3c051003 	lui	a1,0x1003
8040d648:	02002021 	move	a0,s0
8040d64c:	8fbf0014 	lw	ra,20(sp)
8040d650:	8fb00010 	lw	s0,16(sp)
8040d654:	34a5fff8 	ori	a1,a1,0xfff8
8040d658:	08101e3c 	j	804078f0 <_Thread_Clear_state>
8040d65c:	27bd0018 	addiu	sp,sp,24
8040d660:	40026000 	mfc0	v0,c0_status
8040d664:	00000000 	nop
8040d668:	2403fffe 	li	v1,-2
8040d66c:	00431024 	and	v0,v0,v1
8040d670:	00491025 	or	v0,v0,t1
8040d674:	40826000 	mtc0	v0,c0_status
8040d678:	00000000 	nop
8040d67c:	8fbf0014 	lw	ra,20(sp)
8040d680:	8fb00010 	lw	s0,16(sp)
8040d684:	03e00008 	jr	ra
8040d688:	27bd0018 	addiu	sp,sp,24
8040d68c:	40026000 	mfc0	v0,c0_status
8040d690:	00000000 	nop
8040d694:	2403fffe 	li	v1,-2
8040d698:	00431024 	and	v0,v0,v1
8040d69c:	00491025 	or	v0,v0,t1
8040d6a0:	40826000 	mtc0	v0,c0_status
8040d6a4:	00000000 	nop
8040d6a8:	8fbf0014 	lw	ra,20(sp)
8040d6ac:	8fb00010 	lw	s0,16(sp)
8040d6b0:	03e00008 	jr	ra
8040d6b4:	27bd0018 	addiu	sp,sp,24
8040d6b8:	aca30004 	sw	v1,4(a1)
8040d6bc:	08103585 	j	8040d614 <_Thread_queue_Extract_priority_helper+0x94>
8040d6c0:	ac650000 	sw	a1,0(v1)
8040d6c4:	ae020050 	sw	v0,80(s0)
8040d6c8:	40026000 	mfc0	v0,c0_status
8040d6cc:	00000000 	nop
8040d6d0:	2403fffe 	li	v1,-2
8040d6d4:	00431024 	and	v0,v0,v1
8040d6d8:	00491025 	or	v0,v0,t1
8040d6dc:	40826000 	mtc0	v0,c0_status
8040d6e0:	00000000 	nop
8040d6e4:	0c102600 	jal	80409800 <_Watchdog_Remove>
8040d6e8:	26040048 	addiu	a0,s0,72
8040d6ec:	08103592 	j	8040d648 <_Thread_queue_Extract_priority_helper+0xc8>
8040d6f0:	3c051003 	lui	a1,0x1003
	...

8040d700 <_Thread_queue_Process_timeout>:
8040d700:	00802821 	move	a1,a0
8040d704:	8c840044 	lw	a0,68(a0)
8040d708:	8c860030 	lw	a2,48(a0)
8040d70c:	10c00004 	beqz	a2,8040d720 <_Thread_queue_Process_timeout+0x20>
8040d710:	3c028041 	lui	v0,0x8041
8040d714:	8c4345d4 	lw	v1,17876(v0)
8040d718:	10a30004 	beq	a1,v1,8040d72c <_Thread_queue_Process_timeout+0x2c>
8040d71c:	24020003 	li	v0,3
8040d720:	8c82003c 	lw	v0,60(a0)
8040d724:	08103558 	j	8040d560 <_Thread_queue_Extract>
8040d728:	aca20034 	sw	v0,52(a1)
8040d72c:	10c20005 	beq	a2,v0,8040d744 <_Thread_queue_Process_timeout+0x44>
8040d730:	24030002 	li	v1,2
8040d734:	8c82003c 	lw	v0,60(a0)
8040d738:	aca20034 	sw	v0,52(a1)
8040d73c:	03e00008 	jr	ra
8040d740:	ac830030 	sw	v1,48(a0)
8040d744:	03e00008 	jr	ra
8040d748:	00000000 	nop
8040d74c:	00000000 	nop

8040d750 <_Thread_Ready>:
8040d750:	40076000 	mfc0	a3,c0_status
8040d754:	00000000 	nop
8040d758:	2402fffe 	li	v0,-2
8040d75c:	00e21024 	and	v0,a3,v0
8040d760:	40826000 	mtc0	v0,c0_status
8040d764:	00000000 	nop
8040d768:	8c860090 	lw	a2,144(a0)
8040d76c:	94830096 	lhu	v1,150(a0)
8040d770:	94c20000 	lhu	v0,0(a2)
8040d774:	8c85008c 	lw	a1,140(a0)
8040d778:	00431025 	or	v0,v0,v1
8040d77c:	a4c20000 	sh	v0,0(a2)
8040d780:	3c088041 	lui	t0,0x8041
8040d784:	950645c8 	lhu	a2,17864(t0)
8040d788:	94820094 	lhu	v0,148(a0)
8040d78c:	24a30004 	addiu	v1,a1,4
8040d790:	ac830000 	sw	v1,0(a0)
8040d794:	8ca30008 	lw	v1,8(a1)
8040d798:	00461025 	or	v0,v0,a2
8040d79c:	3042ffff 	andi	v0,v0,0xffff
8040d7a0:	aca40008 	sw	a0,8(a1)
8040d7a4:	a50245c8 	sh	v0,17864(t0)
8040d7a8:	ac830004 	sw	v1,4(a0)
8040d7ac:	ac800010 	sw	zero,16(a0)
8040d7b0:	ac640000 	sw	a0,0(v1)
8040d7b4:	40026000 	mfc0	v0,c0_status
8040d7b8:	00000000 	nop
8040d7bc:	2403fffe 	li	v1,-2
8040d7c0:	00431024 	and	v0,v0,v1
8040d7c4:	30e70001 	andi	a3,a3,0x1
8040d7c8:	00e23825 	or	a3,a3,v0
8040d7cc:	40876000 	mtc0	a3,c0_status
8040d7d0:	00000000 	nop
8040d7d4:	40076000 	mfc0	a3,c0_status
8040d7d8:	00000000 	nop
8040d7dc:	2402fffe 	li	v0,-2
8040d7e0:	00e21024 	and	v0,a3,v0
8040d7e4:	40826000 	mtc0	v0,c0_status
8040d7e8:	00000000 	nop
8040d7ec:	3c028041 	lui	v0,0x8041
8040d7f0:	944345c8 	lhu	v1,17864(v0)
8040d7f4:	3c028041 	lui	v0,0x8041
8040d7f8:	3063ffff 	andi	v1,v1,0xffff
8040d7fc:	2c640100 	sltiu	a0,v1,256
8040d800:	10800030 	beqz	a0,8040d8c4 <_Thread_Ready+0x174>
8040d804:	8c4644c0 	lw	a2,17600(v0)
8040d808:	3c058041 	lui	a1,0x8041
8040d80c:	24a52760 	addiu	a1,a1,10080
8040d810:	00a31021 	addu	v0,a1,v1
8040d814:	90430000 	lbu	v1,0(v0)
8040d818:	24640008 	addiu	a0,v1,8
8040d81c:	3c038041 	lui	v1,0x8041
8040d820:	24634640 	addiu	v1,v1,17984
8040d824:	00041040 	sll	v0,a0,0x1
8040d828:	00431021 	addu	v0,v0,v1
8040d82c:	94420000 	lhu	v0,0(v0)
8040d830:	2c430100 	sltiu	v1,v0,256
8040d834:	1060001f 	beqz	v1,8040d8b4 <_Thread_Ready+0x164>
8040d838:	00000000 	nop
8040d83c:	00a21021 	addu	v0,a1,v0
8040d840:	90430000 	lbu	v1,0(v0)
8040d844:	24630008 	addiu	v1,v1,8
8040d848:	00041100 	sll	v0,a0,0x4
8040d84c:	00621021 	addu	v0,v1,v0
8040d850:	00021900 	sll	v1,v0,0x4
8040d854:	00021080 	sll	v0,v0,0x2
8040d858:	00621823 	subu	v1,v1,v0
8040d85c:	00c31821 	addu	v1,a2,v1
8040d860:	3c028041 	lui	v0,0x8041
8040d864:	8c640000 	lw	a0,0(v1)
8040d868:	8c4245d4 	lw	v0,17876(v0)
8040d86c:	3c038041 	lui	v1,0x8041
8040d870:	10820006 	beq	a0,v0,8040d88c <_Thread_Ready+0x13c>
8040d874:	ac6445a0 	sw	a0,17824(v1)
8040d878:	90420076 	lbu	v0,118(v0)
8040d87c:	10400003 	beqz	v0,8040d88c <_Thread_Ready+0x13c>
8040d880:	24030001 	li	v1,1
8040d884:	3c028041 	lui	v0,0x8041
8040d888:	a04345e4 	sb	v1,17892(v0)
8040d88c:	40026000 	mfc0	v0,c0_status
8040d890:	00000000 	nop
8040d894:	2403fffe 	li	v1,-2
8040d898:	00431024 	and	v0,v0,v1
8040d89c:	30e40001 	andi	a0,a3,0x1
8040d8a0:	00441025 	or	v0,v0,a0
8040d8a4:	40826000 	mtc0	v0,c0_status
8040d8a8:	00000000 	nop
8040d8ac:	03e00008 	jr	ra
8040d8b0:	00000000 	nop
8040d8b4:	00021202 	srl	v0,v0,0x8
8040d8b8:	00a21021 	addu	v0,a1,v0
8040d8bc:	08103612 	j	8040d848 <_Thread_Ready+0xf8>
8040d8c0:	90430000 	lbu	v1,0(v0)
8040d8c4:	3c058041 	lui	a1,0x8041
8040d8c8:	00031202 	srl	v0,v1,0x8
8040d8cc:	24a52760 	addiu	a1,a1,10080
8040d8d0:	00a21021 	addu	v0,a1,v0
8040d8d4:	08103607 	j	8040d81c <_Thread_Ready+0xcc>
8040d8d8:	90440000 	lbu	a0,0(v0)
8040d8dc:	00000000 	nop

8040d8e0 <_Timespec_To_ticks>:
8040d8e0:	8c860000 	lw	a2,0(a0)
8040d8e4:	10c00017 	beqz	a2,8040d944 <_Timespec_To_ticks+0x64>
8040d8e8:	00000000 	nop
8040d8ec:	8c840004 	lw	a0,4(a0)
8040d8f0:	3c021062 	lui	v0,0x1062
8040d8f4:	34424dd3 	ori	v0,v0,0x4dd3
8040d8f8:	00820019 	multu	a0,v0
8040d8fc:	3c048041 	lui	a0,0x8041
8040d900:	00001010 	mfhi	v0
8040d904:	8c8546b0 	lw	a1,18096(a0)
8040d908:	00021182 	srl	v0,v0,0x6
8040d90c:	0045001b 	divu	zero,v0,a1
8040d910:	00a001f4 	teq	a1,zero,0x7
8040d914:	3c03000f 	lui	v1,0xf
8040d918:	34634240 	ori	v1,v1,0x4240
8040d91c:	00002012 	mflo	a0
8040d920:	0065001b 	divu	zero,v1,a1
8040d924:	00a001f4 	teq	a1,zero,0x7
8040d928:	00001812 	mflo	v1
8040d92c:	70661002 	mul	v0,v1,a2
8040d930:	00442021 	addu	a0,v0,a0
8040d934:	24020001 	li	v0,1
8040d938:	0044200a 	movz	a0,v0,a0
8040d93c:	03e00008 	jr	ra
8040d940:	00801021 	move	v0,a0
8040d944:	8c840004 	lw	a0,4(a0)
8040d948:	1480ffe9 	bnez	a0,8040d8f0 <_Timespec_To_ticks+0x10>
8040d94c:	00000000 	nop
8040d950:	03e00008 	jr	ra
8040d954:	00801021 	move	v0,a0
	...

8040d960 <_User_extensions_Add_API_set>:
8040d960:	27bdffe8 	addiu	sp,sp,-24
8040d964:	afb00010 	sw	s0,16(sp)
8040d968:	00808021 	move	s0,a0
8040d96c:	3c048041 	lui	a0,0x8041
8040d970:	248446c0 	addiu	a0,a0,18112
8040d974:	afbf0014 	sw	ra,20(sp)
8040d978:	0c1018d8 	jal	80406360 <_Chain_Append>
8040d97c:	02002821 	move	a1,s0
8040d980:	8e020024 	lw	v0,36(s0)
8040d984:	10400008 	beqz	v0,8040d9a8 <_User_extensions_Add_API_set+0x48>
8040d988:	3c048041 	lui	a0,0x8041
8040d98c:	ae020010 	sw	v0,16(s0)
8040d990:	26050008 	addiu	a1,s0,8
8040d994:	8fbf0014 	lw	ra,20(sp)
8040d998:	8fb00010 	lw	s0,16(sp)
8040d99c:	24844518 	addiu	a0,a0,17688
8040d9a0:	081018d8 	j	80406360 <_Chain_Append>
8040d9a4:	27bd0018 	addiu	sp,sp,24
8040d9a8:	8fbf0014 	lw	ra,20(sp)
8040d9ac:	8fb00010 	lw	s0,16(sp)
8040d9b0:	03e00008 	jr	ra
8040d9b4:	27bd0018 	addiu	sp,sp,24
	...

8040d9c0 <_User_extensions_Add_set>:
8040d9c0:	27bdffe0 	addiu	sp,sp,-32
8040d9c4:	afb00014 	sw	s0,20(sp)
8040d9c8:	00a08021 	move	s0,a1
8040d9cc:	8ca20000 	lw	v0,0(a1)
8040d9d0:	8ca30004 	lw	v1,4(a1)
8040d9d4:	8e06000c 	lw	a2,12(s0)
8040d9d8:	8ca50008 	lw	a1,8(a1)
8040d9dc:	8e070010 	lw	a3,16(s0)
8040d9e0:	8e080014 	lw	t0,20(s0)
8040d9e4:	8e090018 	lw	t1,24(s0)
8040d9e8:	8e0a001c 	lw	t2,28(s0)
8040d9ec:	afb10018 	sw	s1,24(sp)
8040d9f0:	ac820014 	sw	v0,20(a0)
8040d9f4:	ac85001c 	sw	a1,28(a0)
8040d9f8:	00808821 	move	s1,a0
8040d9fc:	ac830018 	sw	v1,24(a0)
8040da00:	ac860020 	sw	a2,32(a0)
8040da04:	ac870024 	sw	a3,36(a0)
8040da08:	ac880028 	sw	t0,40(a0)
8040da0c:	ac89002c 	sw	t1,44(a0)
8040da10:	ac8a0030 	sw	t2,48(a0)
8040da14:	3c048041 	lui	a0,0x8041
8040da18:	248446c0 	addiu	a0,a0,18112
8040da1c:	afbf001c 	sw	ra,28(sp)
8040da20:	0c1018d8 	jal	80406360 <_Chain_Append>
8040da24:	02202821 	move	a1,s1
8040da28:	8e020010 	lw	v0,16(s0)
8040da2c:	10400009 	beqz	v0,8040da54 <_User_extensions_Add_set+0x94>
8040da30:	3c048041 	lui	a0,0x8041
8040da34:	ae220010 	sw	v0,16(s1)
8040da38:	26250008 	addiu	a1,s1,8
8040da3c:	8fbf001c 	lw	ra,28(sp)
8040da40:	8fb10018 	lw	s1,24(sp)
8040da44:	8fb00014 	lw	s0,20(sp)
8040da48:	24844518 	addiu	a0,a0,17688
8040da4c:	081018d8 	j	80406360 <_Chain_Append>
8040da50:	27bd0020 	addiu	sp,sp,32
8040da54:	8fbf001c 	lw	ra,28(sp)
8040da58:	8fb10018 	lw	s1,24(sp)
8040da5c:	8fb00014 	lw	s0,20(sp)
8040da60:	03e00008 	jr	ra
8040da64:	27bd0020 	addiu	sp,sp,32
	...

8040da70 <device_lseek>:
8040da70:	03e00008 	jr	ra
8040da74:	00001021 	move	v0,zero

8040da78 <device_ftruncate>:
8040da78:	03e00008 	jr	ra
8040da7c:	00001021 	move	v0,zero

8040da80 <rtems_deviceio_errno>:
8040da80:	00802821 	move	a1,a0
8040da84:	3c048041 	lui	a0,0x8041
8040da88:	27bdffe8 	addiu	sp,sp,-24
8040da8c:	afb00010 	sw	s0,16(sp)
8040da90:	afbf0014 	sw	ra,20(sp)
8040da94:	0c103814 	jal	8040e050 <rtems_assoc_remote_by_local>
8040da98:	24842c60 	addiu	a0,a0,11360
8040da9c:	10400004 	beqz	v0,8040dab0 <rtems_deviceio_errno+0x30>
8040daa0:	00408021 	move	s0,v0
8040daa4:	0c103b34 	jal	8040ecd0 <__errno>
8040daa8:	00000000 	nop
8040daac:	ac500000 	sw	s0,0(v0)
8040dab0:	8fbf0014 	lw	ra,20(sp)
8040dab4:	2402ffff 	li	v0,-1
8040dab8:	8fb00010 	lw	s0,16(sp)
8040dabc:	03e00008 	jr	ra
8040dac0:	27bd0018 	addiu	sp,sp,24

8040dac4 <device_ioctl>:
8040dac4:	27bdffd8 	addiu	sp,sp,-40
8040dac8:	8c82002c 	lw	v0,44(a0)
8040dacc:	afbf0024 	sw	ra,36(sp)
8040dad0:	afa60018 	sw	a2,24(sp)
8040dad4:	afa50014 	sw	a1,20(sp)
8040dad8:	afa40010 	sw	a0,16(sp)
8040dadc:	8c450054 	lw	a1,84(v0)
8040dae0:	8c440050 	lw	a0,80(v0)
8040dae4:	0c103a04 	jal	8040e810 <rtems_io_control>
8040dae8:	27a60010 	addiu	a2,sp,16
8040daec:	14400004 	bnez	v0,8040db00 <device_ioctl+0x3c>
8040daf0:	8fbf0024 	lw	ra,36(sp)
8040daf4:	8fa2001c 	lw	v0,28(sp)
8040daf8:	03e00008 	jr	ra
8040dafc:	27bd0028 	addiu	sp,sp,40
8040db00:	0c1036a0 	jal	8040da80 <rtems_deviceio_errno>
8040db04:	00402021 	move	a0,v0
8040db08:	8fbf0024 	lw	ra,36(sp)
8040db0c:	03e00008 	jr	ra
8040db10:	27bd0028 	addiu	sp,sp,40

8040db14 <device_write>:
8040db14:	8c87000c 	lw	a3,12(a0)
8040db18:	8c820008 	lw	v0,8(a0)
8040db1c:	27bdffd0 	addiu	sp,sp,-48
8040db20:	8c83002c 	lw	v1,44(a0)
8040db24:	afa6001c 	sw	a2,28(sp)
8040db28:	afbf002c 	sw	ra,44(sp)
8040db2c:	afa20014 	sw	v0,20(sp)
8040db30:	afa50018 	sw	a1,24(sp)
8040db34:	afa70020 	sw	a3,32(sp)
8040db38:	afa40010 	sw	a0,16(sp)
8040db3c:	afa00024 	sw	zero,36(sp)
8040db40:	8c650054 	lw	a1,84(v1)
8040db44:	8c640050 	lw	a0,80(v1)
8040db48:	0c103a40 	jal	8040e900 <rtems_io_write>
8040db4c:	27a60010 	addiu	a2,sp,16
8040db50:	14400004 	bnez	v0,8040db64 <device_write+0x50>
8040db54:	8fbf002c 	lw	ra,44(sp)
8040db58:	8fa20024 	lw	v0,36(sp)
8040db5c:	03e00008 	jr	ra
8040db60:	27bd0030 	addiu	sp,sp,48
8040db64:	0c1036a0 	jal	8040da80 <rtems_deviceio_errno>
8040db68:	00402021 	move	a0,v0
8040db6c:	8fbf002c 	lw	ra,44(sp)
8040db70:	03e00008 	jr	ra
8040db74:	27bd0030 	addiu	sp,sp,48

8040db78 <device_read>:
8040db78:	8c87000c 	lw	a3,12(a0)
8040db7c:	8c820008 	lw	v0,8(a0)
8040db80:	27bdffd0 	addiu	sp,sp,-48
8040db84:	8c83002c 	lw	v1,44(a0)
8040db88:	afa6001c 	sw	a2,28(sp)
8040db8c:	afbf002c 	sw	ra,44(sp)
8040db90:	afa20014 	sw	v0,20(sp)
8040db94:	afa50018 	sw	a1,24(sp)
8040db98:	afa70020 	sw	a3,32(sp)
8040db9c:	afa40010 	sw	a0,16(sp)
8040dba0:	afa00024 	sw	zero,36(sp)
8040dba4:	8c650054 	lw	a1,84(v1)
8040dba8:	8c640050 	lw	a0,80(v1)
8040dbac:	0c103a2c 	jal	8040e8b0 <rtems_io_read>
8040dbb0:	27a60010 	addiu	a2,sp,16
8040dbb4:	14400004 	bnez	v0,8040dbc8 <device_read+0x50>
8040dbb8:	8fbf002c 	lw	ra,44(sp)
8040dbbc:	8fa20024 	lw	v0,36(sp)
8040dbc0:	03e00008 	jr	ra
8040dbc4:	27bd0030 	addiu	sp,sp,48
8040dbc8:	0c1036a0 	jal	8040da80 <rtems_deviceio_errno>
8040dbcc:	00402021 	move	a0,v0
8040dbd0:	8fbf002c 	lw	ra,44(sp)
8040dbd4:	03e00008 	jr	ra
8040dbd8:	27bd0030 	addiu	sp,sp,48

8040dbdc <device_close>:
8040dbdc:	27bdffd8 	addiu	sp,sp,-40
8040dbe0:	8c82002c 	lw	v0,44(a0)
8040dbe4:	afbf0024 	sw	ra,36(sp)
8040dbe8:	afa40010 	sw	a0,16(sp)
8040dbec:	afa00014 	sw	zero,20(sp)
8040dbf0:	afa00018 	sw	zero,24(sp)
8040dbf4:	8c450054 	lw	a1,84(v0)
8040dbf8:	8c440050 	lw	a0,80(v0)
8040dbfc:	0c1039f0 	jal	8040e7c0 <rtems_io_close>
8040dc00:	27a60010 	addiu	a2,sp,16
8040dc04:	10400004 	beqz	v0,8040dc18 <device_close+0x3c>
8040dc08:	8fbf0024 	lw	ra,36(sp)
8040dc0c:	0c1036a0 	jal	8040da80 <rtems_deviceio_errno>
8040dc10:	00402021 	move	a0,v0
8040dc14:	8fbf0024 	lw	ra,36(sp)
8040dc18:	03e00008 	jr	ra
8040dc1c:	27bd0028 	addiu	sp,sp,40

8040dc20 <device_open>:
8040dc20:	8c82000c 	lw	v0,12(a0)
8040dc24:	27bdffd8 	addiu	sp,sp,-40
8040dc28:	8c83002c 	lw	v1,44(a0)
8040dc2c:	afbf0024 	sw	ra,36(sp)
8040dc30:	afa20014 	sw	v0,20(sp)
8040dc34:	afa70018 	sw	a3,24(sp)
8040dc38:	afa40010 	sw	a0,16(sp)
8040dc3c:	8c650054 	lw	a1,84(v1)
8040dc40:	8c640050 	lw	a0,80(v1)
8040dc44:	0c103a18 	jal	8040e860 <rtems_io_open>
8040dc48:	27a60010 	addiu	a2,sp,16
8040dc4c:	10400004 	beqz	v0,8040dc60 <device_open+0x40>
8040dc50:	8fbf0024 	lw	ra,36(sp)
8040dc54:	0c1036a0 	jal	8040da80 <rtems_deviceio_errno>
8040dc58:	00402021 	move	a0,v0
8040dc5c:	8fbf0024 	lw	ra,36(sp)
8040dc60:	03e00008 	jr	ra
8040dc64:	27bd0028 	addiu	sp,sp,40
	...

8040dc70 <IMFS_create_node>:
8040dc70:	27bdffc8 	addiu	sp,sp,-56
8040dc74:	afb50030 	sw	s5,48(sp)
8040dc78:	afb4002c 	sw	s4,44(sp)
8040dc7c:	afb30028 	sw	s3,40(sp)
8040dc80:	afb20024 	sw	s2,36(sp)
8040dc84:	afbf0034 	sw	ra,52(sp)
8040dc88:	afb10020 	sw	s1,32(sp)
8040dc8c:	afb0001c 	sw	s0,28(sp)
8040dc90:	0080a021 	move	s4,a0
8040dc94:	00a09021 	move	s2,a1
8040dc98:	00c09821 	move	s3,a2
8040dc9c:	1080005f 	beqz	a0,8040de1c <IMFS_create_node+0x1ac>
8040dca0:	00e0a821 	move	s5,a3
8040dca4:	8c910000 	lw	s1,0(a0)
8040dca8:	24040001 	li	a0,1
8040dcac:	0c102c48 	jal	8040b120 <calloc>
8040dcb0:	24050060 	li	a1,96
8040dcb4:	10400033 	beqz	v0,8040dd84 <IMFS_create_node+0x114>
8040dcb8:	00408021 	move	s0,v0
8040dcbc:	02602821 	move	a1,s3
8040dcc0:	24060020 	li	a2,32
8040dcc4:	2444000c 	addiu	a0,v0,12
8040dcc8:	24020001 	li	v0,1
8040dccc:	a6020034 	sh	v0,52(s0)
8040dcd0:	0c10416c 	jal	804105b0 <strncpy>
8040dcd4:	ae12004c 	sw	s2,76(s0)
8040dcd8:	3c038041 	lui	v1,0x8041
8040dcdc:	8c6437c0 	lw	a0,14272(v1)
8040dce0:	8c820024 	lw	v0,36(a0)
8040dce4:	00021027 	nor	v0,zero,v0
8040dce8:	02a21024 	and	v0,s5,v0
8040dcec:	0c102d24 	jal	8040b490 <geteuid>
8040dcf0:	ae020030 	sw	v0,48(s0)
8040dcf4:	0c102d20 	jal	8040b480 <getegid>
8040dcf8:	a602003c 	sh	v0,60(s0)
8040dcfc:	27a40010 	addiu	a0,sp,16
8040dd00:	00002821 	move	a1,zero
8040dd04:	0c102d28 	jal	8040b4a0 <gettimeofday>
8040dd08:	a602003e 	sh	v0,62(s0)
8040dd0c:	8fa30010 	lw	v1,16(sp)
8040dd10:	2e420007 	sltiu	v0,s2,7
8040dd14:	ae030048 	sw	v1,72(s0)
8040dd18:	ae030040 	sw	v1,64(s0)
8040dd1c:	14400023 	bnez	v0,8040ddac <IMFS_create_node+0x13c>
8040dd20:	ae030044 	sw	v1,68(s0)
8040dd24:	3c048041 	lui	a0,0x8041
8040dd28:	3c068041 	lui	a2,0x8041
8040dd2c:	3c078041 	lui	a3,0x8041
8040dd30:	248435e0 	addiu	a0,a0,13792
8040dd34:	24c62d3c 	addiu	a2,a2,11580
8040dd38:	24e73630 	addiu	a3,a3,13872
8040dd3c:	0c10031c 	jal	80400c70 <__assert_func>
8040dd40:	24050074 	li	a1,116
8040dd44:	8fa30048 	lw	v1,72(sp)
8040dd48:	8c620004 	lw	v0,4(v1)
8040dd4c:	8c630000 	lw	v1,0(v1)
8040dd50:	ae020054 	sw	v0,84(s0)
8040dd54:	ae030050 	sw	v1,80(s0)
8040dd58:	1220000a 	beqz	s1,8040dd84 <IMFS_create_node+0x114>
8040dd5c:	26240050 	addiu	a0,s1,80
8040dd60:	0c1018d8 	jal	80406360 <_Chain_Append>
8040dd64:	02002821 	move	a1,s0
8040dd68:	8e82000c 	lw	v0,12(s4)
8040dd6c:	ae110008 	sw	s1,8(s0)
8040dd70:	8c44002c 	lw	a0,44(v0)
8040dd74:	8c830000 	lw	v1,0(a0)
8040dd78:	24630001 	addiu	v1,v1,1
8040dd7c:	ac830000 	sw	v1,0(a0)
8040dd80:	ae030038 	sw	v1,56(s0)
8040dd84:	8fbf0034 	lw	ra,52(sp)
8040dd88:	02001021 	move	v0,s0
8040dd8c:	8fb50030 	lw	s5,48(sp)
8040dd90:	8fb4002c 	lw	s4,44(sp)
8040dd94:	8fb30028 	lw	s3,40(sp)
8040dd98:	8fb20024 	lw	s2,36(sp)
8040dd9c:	8fb10020 	lw	s1,32(sp)
8040dda0:	8fb0001c 	lw	s0,28(sp)
8040dda4:	03e00008 	jr	ra
8040dda8:	27bd0038 	addiu	sp,sp,56
8040ddac:	3c038041 	lui	v1,0x8041
8040ddb0:	00121080 	sll	v0,s2,0x2
8040ddb4:	24632d20 	addiu	v1,v1,11552
8040ddb8:	00621821 	addu	v1,v1,v0
8040ddbc:	8c640000 	lw	a0,0(v1)
8040ddc0:	00800008 	jr	a0
8040ddc4:	00000000 	nop
8040ddc8:	ae000050 	sw	zero,80(s0)
8040ddcc:	ae000054 	sw	zero,84(s0)
8040ddd0:	ae000050 	sw	zero,80(s0)
8040ddd4:	ae000054 	sw	zero,84(s0)
8040ddd8:	ae000058 	sw	zero,88(s0)
8040dddc:	08103756 	j	8040dd58 <IMFS_create_node+0xe8>
8040dde0:	ae00005c 	sw	zero,92(s0)
8040dde4:	8fa40048 	lw	a0,72(sp)
8040dde8:	8c820000 	lw	v0,0(a0)
8040ddec:	08103756 	j	8040dd58 <IMFS_create_node+0xe8>
8040ddf0:	ae020050 	sw	v0,80(s0)
8040ddf4:	8fa30048 	lw	v1,72(sp)
8040ddf8:	8c620000 	lw	v0,0(v1)
8040ddfc:	08103756 	j	8040dd58 <IMFS_create_node+0xe8>
8040de00:	ae020050 	sw	v0,80(s0)
8040de04:	26020054 	addiu	v0,s0,84
8040de08:	26030050 	addiu	v1,s0,80
8040de0c:	ae020050 	sw	v0,80(s0)
8040de10:	ae030058 	sw	v1,88(s0)
8040de14:	08103756 	j	8040dd58 <IMFS_create_node+0xe8>
8040de18:	ae000054 	sw	zero,84(s0)
8040de1c:	0810372a 	j	8040dca8 <IMFS_create_node+0x38>
8040de20:	00008821 	move	s1,zero
	...

8040de30 <IMFS_fchmod>:
8040de30:	27bdffd8 	addiu	sp,sp,-40
8040de34:	afb0001c 	sw	s0,28(sp)
8040de38:	8c900000 	lw	s0,0(a0)
8040de3c:	afb10020 	sw	s1,32(sp)
8040de40:	afbf0024 	sw	ra,36(sp)
8040de44:	0c102d24 	jal	8040b490 <geteuid>
8040de48:	00a08821 	move	s1,a1
8040de4c:	00401821 	move	v1,v0
8040de50:	9602003c 	lhu	v0,60(s0)
8040de54:	10430003 	beq	v0,v1,8040de64 <IMFS_fchmod+0x34>
8040de58:	00000000 	nop
8040de5c:	14600014 	bnez	v1,8040deb0 <IMFS_fchmod+0x80>
8040de60:	00000000 	nop
8040de64:	2403fe00 	li	v1,-512
8040de68:	02231024 	and	v0,s1,v1
8040de6c:	14400010 	bnez	v0,8040deb0 <IMFS_fchmod+0x80>
8040de70:	27a40010 	addiu	a0,sp,16
8040de74:	8e020030 	lw	v0,48(s0)
8040de78:	00431024 	and	v0,v0,v1
8040de7c:	02221025 	or	v0,s1,v0
8040de80:	ae020030 	sw	v0,48(s0)
8040de84:	0c102d28 	jal	8040b4a0 <gettimeofday>
8040de88:	00002821 	move	a1,zero
8040de8c:	8fa20010 	lw	v0,16(sp)
8040de90:	00001821 	move	v1,zero
8040de94:	ae020048 	sw	v0,72(s0)
8040de98:	8fbf0024 	lw	ra,36(sp)
8040de9c:	00601021 	move	v0,v1
8040dea0:	8fb10020 	lw	s1,32(sp)
8040dea4:	8fb0001c 	lw	s0,28(sp)
8040dea8:	03e00008 	jr	ra
8040deac:	27bd0028 	addiu	sp,sp,40
8040deb0:	0c103b34 	jal	8040ecd0 <__errno>
8040deb4:	00000000 	nop
8040deb8:	24030001 	li	v1,1
8040debc:	ac430000 	sw	v1,0(v0)
8040dec0:	081037a6 	j	8040de98 <IMFS_fchmod+0x68>
8040dec4:	2403ffff 	li	v1,-1
	...

8040ded0 <rtems_assoc_local_by_remote_bitfield>:
8040ded0:	27bdffd0 	addiu	sp,sp,-48
8040ded4:	afb50028 	sw	s5,40(sp)
8040ded8:	afb40024 	sw	s4,36(sp)
8040dedc:	afb30020 	sw	s3,32(sp)
8040dee0:	afb2001c 	sw	s2,28(sp)
8040dee4:	afb10018 	sw	s1,24(sp)
8040dee8:	afb00014 	sw	s0,20(sp)
8040deec:	afbf002c 	sw	ra,44(sp)
8040def0:	0080a821 	move	s5,a0
8040def4:	00a0a021 	move	s4,a1
8040def8:	24110001 	li	s1,1
8040defc:	00009021 	move	s2,zero
8040df00:	00008021 	move	s0,zero
8040df04:	081037c5 	j	8040df14 <rtems_assoc_local_by_remote_bitfield+0x44>
8040df08:	24130020 	li	s3,32
8040df0c:	1213000a 	beq	s0,s3,8040df38 <rtems_assoc_local_by_remote_bitfield+0x68>
8040df10:	00118840 	sll	s1,s1,0x1
8040df14:	02341024 	and	v0,s1,s4
8040df18:	1040fffc 	beqz	v0,8040df0c <rtems_assoc_local_by_remote_bitfield+0x3c>
8040df1c:	26100001 	addiu	s0,s0,1
8040df20:	02202821 	move	a1,s1
8040df24:	0c1037d8 	jal	8040df60 <rtems_assoc_local_by_remote>
8040df28:	02a02021 	move	a0,s5
8040df2c:	02429025 	or	s2,s2,v0
8040df30:	1613fff8 	bne	s0,s3,8040df14 <rtems_assoc_local_by_remote_bitfield+0x44>
8040df34:	00118840 	sll	s1,s1,0x1
8040df38:	8fbf002c 	lw	ra,44(sp)
8040df3c:	02401021 	move	v0,s2
8040df40:	8fb50028 	lw	s5,40(sp)
8040df44:	8fb40024 	lw	s4,36(sp)
8040df48:	8fb30020 	lw	s3,32(sp)
8040df4c:	8fb2001c 	lw	s2,28(sp)
8040df50:	8fb10018 	lw	s1,24(sp)
8040df54:	8fb00014 	lw	s0,20(sp)
8040df58:	03e00008 	jr	ra
8040df5c:	27bd0030 	addiu	sp,sp,48

8040df60 <rtems_assoc_local_by_remote>:
8040df60:	27bdffe8 	addiu	sp,sp,-24
8040df64:	afbf0014 	sw	ra,20(sp)
8040df68:	0c1037e4 	jal	8040df90 <rtems_assoc_ptr_by_remote>
8040df6c:	00000000 	nop
8040df70:	10400002 	beqz	v0,8040df7c <rtems_assoc_local_by_remote+0x1c>
8040df74:	8fbf0014 	lw	ra,20(sp)
8040df78:	8c420004 	lw	v0,4(v0)
8040df7c:	03e00008 	jr	ra
8040df80:	27bd0018 	addiu	sp,sp,24
	...

8040df90 <rtems_assoc_ptr_by_remote>:
8040df90:	27bdffe0 	addiu	sp,sp,-32
8040df94:	afb00014 	sw	s0,20(sp)
8040df98:	00808021 	move	s0,a0
8040df9c:	8c840000 	lw	a0,0(a0)
8040dfa0:	afb10018 	sw	s1,24(sp)
8040dfa4:	afbf001c 	sw	ra,28(sp)
8040dfa8:	10800021 	beqz	a0,8040e030 <rtems_assoc_ptr_by_remote+0xa0>
8040dfac:	00a08821 	move	s1,a1
8040dfb0:	3c058041 	lui	a1,0x8041
8040dfb4:	0c104120 	jal	80410480 <strcmp>
8040dfb8:	24a53634 	addiu	a1,a1,13876
8040dfbc:	10400010 	beqz	v0,8040e000 <rtems_assoc_ptr_by_remote+0x70>
8040dfc0:	00002021 	move	a0,zero
8040dfc4:	081037f7 	j	8040dfdc <rtems_assoc_ptr_by_remote+0x4c>
8040dfc8:	8e020008 	lw	v0,8(s0)
8040dfcc:	8e020000 	lw	v0,0(s0)
8040dfd0:	10400011 	beqz	v0,8040e018 <rtems_assoc_ptr_by_remote+0x88>
8040dfd4:	8fbf001c 	lw	ra,28(sp)
8040dfd8:	8e020008 	lw	v0,8(s0)
8040dfdc:	1451fffb 	bne	v0,s1,8040dfcc <rtems_assoc_ptr_by_remote+0x3c>
8040dfe0:	2610000c 	addiu	s0,s0,12
8040dfe4:	2610fff4 	addiu	s0,s0,-12
8040dfe8:	8fbf001c 	lw	ra,28(sp)
8040dfec:	02001021 	move	v0,s0
8040dff0:	8fb10018 	lw	s1,24(sp)
8040dff4:	8fb00014 	lw	s0,20(sp)
8040dff8:	03e00008 	jr	ra
8040dffc:	27bd0020 	addiu	sp,sp,32
8040e000:	8e02000c 	lw	v0,12(s0)
8040e004:	1040fff8 	beqz	v0,8040dfe8 <rtems_assoc_ptr_by_remote+0x58>
8040e008:	2603000c 	addiu	v1,s0,12
8040e00c:	02002021 	move	a0,s0
8040e010:	081037f6 	j	8040dfd8 <rtems_assoc_ptr_by_remote+0x48>
8040e014:	00608021 	move	s0,v1
8040e018:	00808021 	move	s0,a0
8040e01c:	02001021 	move	v0,s0
8040e020:	8fb10018 	lw	s1,24(sp)
8040e024:	8fb00014 	lw	s0,20(sp)
8040e028:	03e00008 	jr	ra
8040e02c:	27bd0020 	addiu	sp,sp,32
8040e030:	8fbf001c 	lw	ra,28(sp)
8040e034:	00008021 	move	s0,zero
8040e038:	02001021 	move	v0,s0
8040e03c:	8fb10018 	lw	s1,24(sp)
8040e040:	8fb00014 	lw	s0,20(sp)
8040e044:	03e00008 	jr	ra
8040e048:	27bd0020 	addiu	sp,sp,32
8040e04c:	00000000 	nop

8040e050 <rtems_assoc_remote_by_local>:
8040e050:	27bdffe8 	addiu	sp,sp,-24
8040e054:	afbf0014 	sw	ra,20(sp)
8040e058:	0c103ae8 	jal	8040eba0 <rtems_assoc_ptr_by_local>
8040e05c:	00000000 	nop
8040e060:	10400002 	beqz	v0,8040e06c <rtems_assoc_remote_by_local+0x1c>
8040e064:	8fbf0014 	lw	ra,20(sp)
8040e068:	8c420008 	lw	v0,8(v0)
8040e06c:	03e00008 	jr	ra
8040e070:	27bd0018 	addiu	sp,sp,24
	...

8040e080 <_POSIX_Threads_cancel_run>:
8040e080:	27bdffd8 	addiu	sp,sp,-40
8040e084:	afb2001c 	sw	s2,28(sp)
8040e088:	8c92010c 	lw	s2,268(a0)
8040e08c:	afb10018 	sw	s1,24(sp)
8040e090:	8e4300d8 	lw	v1,216(s2)
8040e094:	24020001 	li	v0,1
8040e098:	265100dc 	addiu	s1,s2,220
8040e09c:	afbf0024 	sw	ra,36(sp)
8040e0a0:	afb30020 	sw	s3,32(sp)
8040e0a4:	afb00014 	sw	s0,20(sp)
8040e0a8:	1071001b 	beq	v1,s1,8040e118 <_POSIX_Threads_cancel_run+0x98>
8040e0ac:	ae4200cc 	sw	v0,204(s2)
8040e0b0:	2413fffe 	li	s3,-2
8040e0b4:	40036000 	mfc0	v1,c0_status
8040e0b8:	00000000 	nop
8040e0bc:	00731024 	and	v0,v1,s3
8040e0c0:	40826000 	mtc0	v0,c0_status
8040e0c4:	00000000 	nop
8040e0c8:	8e300004 	lw	s0,4(s1)
8040e0cc:	8e040000 	lw	a0,0(s0)
8040e0d0:	8e020004 	lw	v0,4(s0)
8040e0d4:	ac440000 	sw	a0,0(v0)
8040e0d8:	ac820004 	sw	v0,4(a0)
8040e0dc:	40026000 	mfc0	v0,c0_status
8040e0e0:	00000000 	nop
8040e0e4:	00531024 	and	v0,v0,s3
8040e0e8:	30630001 	andi	v1,v1,0x1
8040e0ec:	00621825 	or	v1,v1,v0
8040e0f0:	40836000 	mtc0	v1,c0_status
8040e0f4:	00000000 	nop
8040e0f8:	8e020008 	lw	v0,8(s0)
8040e0fc:	0040f809 	jalr	v0
8040e100:	8e04000c 	lw	a0,12(s0)
8040e104:	0c10264c 	jal	80409930 <_Workspace_Free>
8040e108:	02002021 	move	a0,s0
8040e10c:	8e4300d8 	lw	v1,216(s2)
8040e110:	1471ffe8 	bne	v1,s1,8040e0b4 <_POSIX_Threads_cancel_run+0x34>
8040e114:	00000000 	nop
8040e118:	8fbf0024 	lw	ra,36(sp)
8040e11c:	8fb30020 	lw	s3,32(sp)
8040e120:	8fb2001c 	lw	s2,28(sp)
8040e124:	8fb10018 	lw	s1,24(sp)
8040e128:	8fb00014 	lw	s0,20(sp)
8040e12c:	03e00008 	jr	ra
8040e130:	27bd0028 	addiu	sp,sp,40
	...

8040e140 <_POSIX_Keys_Run_destructors>:
8040e140:	8c850008 	lw	a1,8(a0)
8040e144:	27bdffc8 	addiu	sp,sp,-56
8040e148:	00051e02 	srl	v1,a1,0x18
8040e14c:	3c028041 	lui	v0,0x8041
8040e150:	afb2001c 	sw	s2,28(sp)
8040e154:	30630007 	andi	v1,v1,0x7
8040e158:	24524b08 	addiu	s2,v0,19208
8040e15c:	30a5ffff 	andi	a1,a1,0xffff
8040e160:	24630006 	addiu	v1,v1,6
8040e164:	96440010 	lhu	a0,16(s2)
8040e168:	afb70030 	sw	s7,48(sp)
8040e16c:	afb6002c 	sw	s6,44(sp)
8040e170:	afb50028 	sw	s5,40(sp)
8040e174:	afb40024 	sw	s4,36(sp)
8040e178:	afbf0034 	sw	ra,52(sp)
8040e17c:	afb30020 	sw	s3,32(sp)
8040e180:	afb10018 	sw	s1,24(sp)
8040e184:	afb00014 	sw	s0,20(sp)
8040e188:	0005a880 	sll	s5,a1,0x2
8040e18c:	0003a080 	sll	s4,v1,0x2
8040e190:	0000b021 	move	s6,zero
8040e194:	24170004 	li	s7,4
8040e198:	10800021 	beqz	a0,8040e220 <_POSIX_Keys_Run_destructors+0xe0>
8040e19c:	24100001 	li	s0,1
8040e1a0:	24130001 	li	s3,1
8040e1a4:	8e42001c 	lw	v0,28(s2)
8040e1a8:	00101880 	sll	v1,s0,0x2
8040e1ac:	00431021 	addu	v0,v0,v1
8040e1b0:	8c430000 	lw	v1,0(v0)
8040e1b4:	10600012 	beqz	v1,8040e200 <_POSIX_Keys_Run_destructors+0xc0>
8040e1b8:	26100001 	addiu	s0,s0,1
8040e1bc:	90620010 	lbu	v0,16(v1)
8040e1c0:	1040000f 	beqz	v0,8040e200 <_POSIX_Keys_Run_destructors+0xc0>
8040e1c4:	00748821 	addu	s1,v1,s4
8040e1c8:	8c650014 	lw	a1,20(v1)
8040e1cc:	10a0000c 	beqz	a1,8040e200 <_POSIX_Keys_Run_destructors+0xc0>
8040e1d0:	00000000 	nop
8040e1d4:	8e220000 	lw	v0,0(s1)
8040e1d8:	00551021 	addu	v0,v0,s5
8040e1dc:	8c430000 	lw	v1,0(v0)
8040e1e0:	10600007 	beqz	v1,8040e200 <_POSIX_Keys_Run_destructors+0xc0>
8040e1e4:	00602021 	move	a0,v1
8040e1e8:	00a0f809 	jalr	a1
8040e1ec:	00000000 	nop
8040e1f0:	8e220000 	lw	v0,0(s1)
8040e1f4:	00551021 	addu	v0,v0,s5
8040e1f8:	8c430000 	lw	v1,0(v0)
8040e1fc:	0003980b 	movn	s3,zero,v1
8040e200:	96440010 	lhu	a0,16(s2)
8040e204:	0090102b 	sltu	v0,a0,s0
8040e208:	1040ffe6 	beqz	v0,8040e1a4 <_POSIX_Keys_Run_destructors+0x64>
8040e20c:	00000000 	nop
8040e210:	16600003 	bnez	s3,8040e220 <_POSIX_Keys_Run_destructors+0xe0>
8040e214:	26d60001 	addiu	s6,s6,1
8040e218:	16d7ffdf 	bne	s6,s7,8040e198 <_POSIX_Keys_Run_destructors+0x58>
8040e21c:	00000000 	nop
8040e220:	8fbf0034 	lw	ra,52(sp)
8040e224:	8fb70030 	lw	s7,48(sp)
8040e228:	8fb6002c 	lw	s6,44(sp)
8040e22c:	8fb50028 	lw	s5,40(sp)
8040e230:	8fb40024 	lw	s4,36(sp)
8040e234:	8fb30020 	lw	s3,32(sp)
8040e238:	8fb2001c 	lw	s2,28(sp)
8040e23c:	8fb10018 	lw	s1,24(sp)
8040e240:	8fb00014 	lw	s0,20(sp)
8040e244:	03e00008 	jr	ra
8040e248:	27bd0038 	addiu	sp,sp,56
8040e24c:	00000000 	nop

8040e250 <_POSIX_signals_Check_signal>:
8040e250:	27bdffc0 	addiu	sp,sp,-64
8040e254:	30c600ff 	andi	a2,a2,0xff
8040e258:	afb30038 	sw	s3,56(sp)
8040e25c:	27b30018 	addiu	s3,sp,24
8040e260:	afb10030 	sw	s1,48(sp)
8040e264:	00c03821 	move	a3,a2
8040e268:	24110001 	li	s1,1
8040e26c:	02603021 	move	a2,s3
8040e270:	afb20034 	sw	s2,52(sp)
8040e274:	afb0002c 	sw	s0,44(sp)
8040e278:	afbf003c 	sw	ra,60(sp)
8040e27c:	afb10010 	sw	s1,16(sp)
8040e280:	00809021 	move	s2,a0
8040e284:	0c1038d0 	jal	8040e340 <_POSIX_signals_Clear_signals>
8040e288:	00a08021 	move	s0,a1
8040e28c:	1040001a 	beqz	v0,8040e2f8 <_POSIX_signals_Check_signal+0xa8>
8040e290:	00102080 	sll	a0,s0,0x2
8040e294:	00101900 	sll	v1,s0,0x4
8040e298:	3c028041 	lui	v0,0x8041
8040e29c:	00641823 	subu	v1,v1,a0
8040e2a0:	24424c84 	addiu	v0,v0,19588
8040e2a4:	00622821 	addu	a1,v1,v0
8040e2a8:	8ca60008 	lw	a2,8(a1)
8040e2ac:	10d10012 	beq	a2,s1,8040e2f8 <_POSIX_signals_Check_signal+0xa8>
8040e2b0:	24030002 	li	v1,2
8040e2b4:	8e5100c4 	lw	s1,196(s2)
8040e2b8:	8ca20004 	lw	v0,4(a1)
8040e2bc:	8ca40000 	lw	a0,0(a1)
8040e2c0:	00511025 	or	v0,v0,s1
8040e2c4:	10830014 	beq	a0,v1,8040e318 <_POSIX_signals_Check_signal+0xc8>
8040e2c8:	ae4200c4 	sw	v0,196(s2)
8040e2cc:	00c0f809 	jalr	a2
8040e2d0:	02002021 	move	a0,s0
8040e2d4:	ae5100c4 	sw	s1,196(s2)
8040e2d8:	24020001 	li	v0,1
8040e2dc:	8fbf003c 	lw	ra,60(sp)
8040e2e0:	8fb30038 	lw	s3,56(sp)
8040e2e4:	8fb20034 	lw	s2,52(sp)
8040e2e8:	8fb10030 	lw	s1,48(sp)
8040e2ec:	8fb0002c 	lw	s0,44(sp)
8040e2f0:	03e00008 	jr	ra
8040e2f4:	27bd0040 	addiu	sp,sp,64
8040e2f8:	8fbf003c 	lw	ra,60(sp)
8040e2fc:	00001021 	move	v0,zero
8040e300:	8fb30038 	lw	s3,56(sp)
8040e304:	8fb20034 	lw	s2,52(sp)
8040e308:	8fb10030 	lw	s1,48(sp)
8040e30c:	8fb0002c 	lw	s0,44(sp)
8040e310:	03e00008 	jr	ra
8040e314:	27bd0040 	addiu	sp,sp,64
8040e318:	8ca20008 	lw	v0,8(a1)
8040e31c:	02002021 	move	a0,s0
8040e320:	02602821 	move	a1,s3
8040e324:	0040f809 	jalr	v0
8040e328:	00003021 	move	a2,zero
8040e32c:	ae5100c4 	sw	s1,196(s2)
8040e330:	081038b7 	j	8040e2dc <_POSIX_signals_Check_signal+0x8c>
8040e334:	24020001 	li	v0,1
	...

8040e340 <_POSIX_signals_Clear_signals>:
8040e340:	27bdffe0 	addiu	sp,sp,-32
8040e344:	00a04821 	move	t1,a1
8040e348:	93a50033 	lbu	a1,51(sp)
8040e34c:	2523ffff 	addiu	v1,t1,-1
8040e350:	24020001 	li	v0,1
8040e354:	afb20018 	sw	s2,24(sp)
8040e358:	00624004 	sllv	t0,v0,v1
8040e35c:	afbf001c 	sw	ra,28(sp)
8040e360:	afb10014 	sw	s1,20(sp)
8040e364:	afb00010 	sw	s0,16(sp)
8040e368:	00801821 	move	v1,a0
8040e36c:	00c09021 	move	s2,a2
8040e370:	14a00036 	bnez	a1,8040e44c <_POSIX_signals_Clear_signals+0x10c>
8040e374:	30e700ff 	andi	a3,a3,0xff
8040e378:	2405ffff 	li	a1,-1
8040e37c:	40116000 	mfc0	s1,c0_status
8040e380:	00000000 	nop
8040e384:	2402fffe 	li	v0,-2
8040e388:	02221024 	and	v0,s1,v0
8040e38c:	40826000 	mtc0	v0,c0_status
8040e390:	00000000 	nop
8040e394:	10e00037 	beqz	a3,8040e474 <_POSIX_signals_Clear_signals+0x134>
8040e398:	00000000 	nop
8040e39c:	3c038041 	lui	v1,0x8041
8040e3a0:	8c624e50 	lw	v0,20048(v1)
8040e3a4:	01021024 	and	v0,t0,v0
8040e3a8:	00451024 	and	v0,v0,a1
8040e3ac:	10400048 	beqz	v0,8040e4d0 <_POSIX_signals_Clear_signals+0x190>
8040e3b0:	00092100 	sll	a0,t1,0x4
8040e3b4:	00091880 	sll	v1,t1,0x2
8040e3b8:	3c028041 	lui	v0,0x8041
8040e3bc:	00832823 	subu	a1,a0,v1
8040e3c0:	24424c84 	addiu	v0,v0,19588
8040e3c4:	00a21021 	addu	v0,a1,v0
8040e3c8:	8c440000 	lw	a0,0(v0)
8040e3cc:	24030002 	li	v1,2
8040e3d0:	14830041 	bne	a0,v1,8040e4d8 <_POSIX_signals_Clear_signals+0x198>
8040e3d4:	3c028041 	lui	v0,0x8041
8040e3d8:	24424e54 	addiu	v0,v0,20052
8040e3dc:	00451821 	addu	v1,v0,a1
8040e3e0:	8c660000 	lw	a2,0(v1)
8040e3e4:	24640004 	addiu	a0,v1,4
8040e3e8:	10c4003f 	beq	a2,a0,8040e4e8 <_POSIX_signals_Clear_signals+0x1a8>
8040e3ec:	00008021 	move	s0,zero
8040e3f0:	8cc20000 	lw	v0,0(a2)
8040e3f4:	00c08021 	move	s0,a2
8040e3f8:	ac620000 	sw	v0,0(v1)
8040e3fc:	1082003a 	beq	a0,v0,8040e4e8 <_POSIX_signals_Clear_signals+0x1a8>
8040e400:	ac430004 	sw	v1,4(v0)
8040e404:	1200000f 	beqz	s0,8040e444 <_POSIX_signals_Clear_signals+0x104>
8040e408:	3c028041 	lui	v0,0x8041
8040e40c:	24424e08 	addiu	v0,v0,19976
8040e410:	3c038041 	lui	v1,0x8041
8040e414:	ae020000 	sw	v0,0(s0)
8040e418:	24634e04 	addiu	v1,v1,19972
8040e41c:	8e050008 	lw	a1,8(s0)
8040e420:	8e06000c 	lw	a2,12(s0)
8040e424:	8e020010 	lw	v0,16(s0)
8040e428:	8c640008 	lw	a0,8(v1)
8040e42c:	ae420008 	sw	v0,8(s2)
8040e430:	ac700008 	sw	s0,8(v1)
8040e434:	ae450000 	sw	a1,0(s2)
8040e438:	ae040004 	sw	a0,4(s0)
8040e43c:	ae460004 	sw	a2,4(s2)
8040e440:	ac900000 	sw	s0,0(a0)
8040e444:	08103925 	j	8040e494 <_POSIX_signals_Clear_signals+0x154>
8040e448:	24050001 	li	a1,1
8040e44c:	8c8200c4 	lw	v0,196(a0)
8040e450:	00022827 	nor	a1,zero,v0
8040e454:	40116000 	mfc0	s1,c0_status
8040e458:	00000000 	nop
8040e45c:	2402fffe 	li	v0,-2
8040e460:	02221024 	and	v0,s1,v0
8040e464:	40826000 	mtc0	v0,c0_status
8040e468:	00000000 	nop
8040e46c:	14e0ffcb 	bnez	a3,8040e39c <_POSIX_signals_Clear_signals+0x5c>
8040e470:	00000000 	nop
8040e474:	8c6400c8 	lw	a0,200(v1)
8040e478:	01041024 	and	v0,t0,a0
8040e47c:	00451024 	and	v0,v0,a1
8040e480:	10400013 	beqz	v0,8040e4d0 <_POSIX_signals_Clear_signals+0x190>
8040e484:	00081027 	nor	v0,zero,t0
8040e488:	00441024 	and	v0,v0,a0
8040e48c:	ac6200c8 	sw	v0,200(v1)
8040e490:	24050001 	li	a1,1
8040e494:	40026000 	mfc0	v0,c0_status
8040e498:	00000000 	nop
8040e49c:	2403fffe 	li	v1,-2
8040e4a0:	00431024 	and	v0,v0,v1
8040e4a4:	32240001 	andi	a0,s1,0x1
8040e4a8:	00441025 	or	v0,v0,a0
8040e4ac:	40826000 	mtc0	v0,c0_status
8040e4b0:	00000000 	nop
8040e4b4:	8fbf001c 	lw	ra,28(sp)
8040e4b8:	00a01021 	move	v0,a1
8040e4bc:	8fb20018 	lw	s2,24(sp)
8040e4c0:	8fb10014 	lw	s1,20(sp)
8040e4c4:	8fb00010 	lw	s0,16(sp)
8040e4c8:	03e00008 	jr	ra
8040e4cc:	27bd0020 	addiu	sp,sp,32
8040e4d0:	08103925 	j	8040e494 <_POSIX_signals_Clear_signals+0x154>
8040e4d4:	00002821 	move	a1,zero
8040e4d8:	0c103b18 	jal	8040ec60 <_POSIX_signals_Clear_process_signals>
8040e4dc:	01002021 	move	a0,t0
8040e4e0:	08103925 	j	8040e494 <_POSIX_signals_Clear_signals+0x154>
8040e4e4:	24050001 	li	a1,1
8040e4e8:	0c103b18 	jal	8040ec60 <_POSIX_signals_Clear_process_signals>
8040e4ec:	01002021 	move	a0,t0
8040e4f0:	08103901 	j	8040e404 <_POSIX_signals_Clear_signals+0xc4>
8040e4f4:	00000000 	nop
	...

8040e500 <_POSIX_Thread_Exit>:
8040e500:	27bdffd8 	addiu	sp,sp,-40
8040e504:	afb00014 	sw	s0,20(sp)
8040e508:	00808021 	move	s0,a0
8040e50c:	8c840008 	lw	a0,8(a0)
8040e510:	afb30020 	sw	s3,32(sp)
8040e514:	3c138041 	lui	s3,0x8041
8040e518:	afbf0024 	sw	ra,36(sp)
8040e51c:	afb2001c 	sw	s2,28(sp)
8040e520:	afb10018 	sw	s1,24(sp)
8040e524:	0c101c2c 	jal	804070b0 <_Objects_Get_information_id>
8040e528:	00a09021 	move	s2,a1
8040e52c:	8e6445cc 	lw	a0,17868(s3)
8040e530:	0c10181c 	jal	80406070 <_API_Mutex_Lock>
8040e534:	00408821 	move	s1,v0
8040e538:	3c038041 	lui	v1,0x8041
8040e53c:	8c624514 	lw	v0,17684(v1)
8040e540:	24420001 	addiu	v0,v0,1
8040e544:	ac624514 	sw	v0,17684(v1)
8040e548:	ae120028 	sw	s2,40(s0)
8040e54c:	02202021 	move	a0,s1
8040e550:	0c101e90 	jal	80407a40 <_Thread_Close>
8040e554:	02002821 	move	a1,s0
8040e558:	3c048041 	lui	a0,0x8041
8040e55c:	02002821 	move	a1,s0
8040e560:	0c101bfc 	jal	80406ff0 <_Objects_Free>
8040e564:	24844944 	addiu	a0,a0,18756
8040e568:	0c1018c8 	jal	80406320 <_API_Mutex_Unlock>
8040e56c:	8e6445cc 	lw	a0,17868(s3)
8040e570:	8fbf0024 	lw	ra,36(sp)
8040e574:	8fb30020 	lw	s3,32(sp)
8040e578:	8fb2001c 	lw	s2,28(sp)
8040e57c:	8fb10018 	lw	s1,24(sp)
8040e580:	8fb00014 	lw	s0,20(sp)
8040e584:	08101f8c 	j	80407e30 <_Thread_Enable_dispatch>
8040e588:	27bd0028 	addiu	sp,sp,40

8040e58c <pthread_exit>:
8040e58c:	3c028041 	lui	v0,0x8041
8040e590:	00802821 	move	a1,a0
8040e594:	08103940 	j	8040e500 <_POSIX_Thread_Exit>
8040e598:	8c4445d4 	lw	a0,17876(v0)
8040e59c:	00000000 	nop

8040e5a0 <rtems_task_mode>:
8040e5a0:	27bdffd0 	addiu	sp,sp,-48
8040e5a4:	afb60028 	sw	s6,40(sp)
8040e5a8:	afb50024 	sw	s5,36(sp)
8040e5ac:	afb40020 	sw	s4,32(sp)
8040e5b0:	afbf002c 	sw	ra,44(sp)
8040e5b4:	afb3001c 	sw	s3,28(sp)
8040e5b8:	afb20018 	sw	s2,24(sp)
8040e5bc:	afb10014 	sw	s1,20(sp)
8040e5c0:	afb00010 	sw	s0,16(sp)
8040e5c4:	00c0a821 	move	s5,a2
8040e5c8:	0080b021 	move	s6,a0
8040e5cc:	10c0006e 	beqz	a2,8040e788 <rtems_task_mode+0x1e8>
8040e5d0:	00a0a021 	move	s4,a1
8040e5d4:	3c028041 	lui	v0,0x8041
8040e5d8:	8c5245d4 	lw	s2,17876(v0)
8040e5dc:	24110100 	li	s1,256
8040e5e0:	92420076 	lbu	v0,118(s2)
8040e5e4:	8e530108 	lw	s3,264(s2)
8040e5e8:	8e44007c 	lw	a0,124(s2)
8040e5ec:	0002880b 	movn	s1,zero,v0
8040e5f0:	92630008 	lbu	v1,8(s3)
8040e5f4:	36220200 	ori	v0,s1,0x200
8040e5f8:	24100400 	li	s0,1024
8040e5fc:	0044880b 	movn	s1,v0,a0
8040e600:	0c1027ad 	jal	80409eb4 <_CPU_ISR_Get_level>
8040e604:	0003800b 	movn	s0,zero,v1
8040e608:	02028025 	or	s0,s0,v0
8040e60c:	02118025 	or	s0,s0,s1
8040e610:	32820100 	andi	v0,s4,0x100
8040e614:	10400005 	beqz	v0,8040e62c <rtems_task_mode+0x8c>
8040e618:	aeb00000 	sw	s0,0(s5)
8040e61c:	00161202 	srl	v0,s6,0x8
8040e620:	38420001 	xori	v0,v0,0x1
8040e624:	30420001 	andi	v0,v0,0x1
8040e628:	a2420076 	sb	v0,118(s2)
8040e62c:	32820200 	andi	v0,s4,0x200
8040e630:	10400009 	beqz	v0,8040e658 <rtems_task_mode+0xb8>
8040e634:	328200ff 	andi	v0,s4,0xff
8040e638:	32c20200 	andi	v0,s6,0x200
8040e63c:	1040003a 	beqz	v0,8040e728 <rtems_task_mode+0x188>
8040e640:	3c028041 	lui	v0,0x8041
8040e644:	8c4444c4 	lw	a0,17604(v0)
8040e648:	24030001 	li	v1,1
8040e64c:	ae43007c 	sw	v1,124(s2)
8040e650:	ae440078 	sw	a0,120(s2)
8040e654:	328200ff 	andi	v0,s4,0xff
8040e658:	1440002f 	bnez	v0,8040e718 <rtems_task_mode+0x178>
8040e65c:	00000000 	nop
8040e660:	32820400 	andi	v0,s4,0x400
8040e664:	1040001c 	beqz	v0,8040e6d8 <rtems_task_mode+0x138>
8040e668:	00161282 	srl	v0,s6,0xa
8040e66c:	38420001 	xori	v0,v0,0x1
8040e670:	92630008 	lbu	v1,8(s3)
8040e674:	30420001 	andi	v0,v0,0x1
8040e678:	10620018 	beq	v1,v0,8040e6dc <rtems_task_mode+0x13c>
8040e67c:	00008021 	move	s0,zero
8040e680:	a2620008 	sb	v0,8(s3)
8040e684:	40046000 	mfc0	a0,c0_status
8040e688:	00000000 	nop
8040e68c:	2402fffe 	li	v0,-2
8040e690:	00821024 	and	v0,a0,v0
8040e694:	40826000 	mtc0	v0,c0_status
8040e698:	00000000 	nop
8040e69c:	8e620018 	lw	v0,24(s3)
8040e6a0:	8e630014 	lw	v1,20(s3)
8040e6a4:	ae620014 	sw	v0,20(s3)
8040e6a8:	ae630018 	sw	v1,24(s3)
8040e6ac:	40026000 	mfc0	v0,c0_status
8040e6b0:	00000000 	nop
8040e6b4:	2403fffe 	li	v1,-2
8040e6b8:	00431024 	and	v0,v0,v1
8040e6bc:	30840001 	andi	a0,a0,0x1
8040e6c0:	00822025 	or	a0,a0,v0
8040e6c4:	40846000 	mtc0	a0,c0_status
8040e6c8:	00000000 	nop
8040e6cc:	8e620014 	lw	v0,20(s3)
8040e6d0:	1440002a 	bnez	v0,8040e77c <rtems_task_mode+0x1dc>
8040e6d4:	24020001 	li	v0,1
8040e6d8:	00008021 	move	s0,zero
8040e6dc:	3c028041 	lui	v0,0x8041
8040e6e0:	8c4446b4 	lw	a0,18100(v0)
8040e6e4:	24030003 	li	v1,3
8040e6e8:	10830011 	beq	a0,v1,8040e730 <rtems_task_mode+0x190>
8040e6ec:	8fbf002c 	lw	ra,44(sp)
8040e6f0:	00001021 	move	v0,zero
8040e6f4:	8fb60028 	lw	s6,40(sp)
8040e6f8:	8fb50024 	lw	s5,36(sp)
8040e6fc:	8fb40020 	lw	s4,32(sp)
8040e700:	8fb3001c 	lw	s3,28(sp)
8040e704:	8fb20018 	lw	s2,24(sp)
8040e708:	8fb10014 	lw	s1,20(sp)
8040e70c:	8fb00010 	lw	s0,16(sp)
8040e710:	03e00008 	jr	ra
8040e714:	27bd0030 	addiu	sp,sp,48
8040e718:	0c102781 	jal	80409e04 <_CPU_ISR_Set_level>
8040e71c:	32c400ff 	andi	a0,s6,0xff
8040e720:	08103999 	j	8040e664 <rtems_task_mode+0xc4>
8040e724:	32820400 	andi	v0,s4,0x400
8040e728:	08103995 	j	8040e654 <rtems_task_mode+0xb4>
8040e72c:	ae40007c 	sw	zero,124(s2)
8040e730:	0c103a54 	jal	8040e950 <_Thread_Evaluate_mode>
8040e734:	00000000 	nop
8040e738:	14400003 	bnez	v0,8040e748 <rtems_task_mode+0x1a8>
8040e73c:	00000000 	nop
8040e740:	1200ffeb 	beqz	s0,8040e6f0 <rtems_task_mode+0x150>
8040e744:	8fbf002c 	lw	ra,44(sp)
8040e748:	0c101f18 	jal	80407c60 <_Thread_Dispatch>
8040e74c:	00000000 	nop
8040e750:	8fbf002c 	lw	ra,44(sp)
8040e754:	00001021 	move	v0,zero
8040e758:	8fb60028 	lw	s6,40(sp)
8040e75c:	8fb50024 	lw	s5,36(sp)
8040e760:	8fb40020 	lw	s4,32(sp)
8040e764:	8fb3001c 	lw	s3,28(sp)
8040e768:	8fb20018 	lw	s2,24(sp)
8040e76c:	8fb10014 	lw	s1,20(sp)
8040e770:	8fb00010 	lw	s0,16(sp)
8040e774:	03e00008 	jr	ra
8040e778:	27bd0030 	addiu	sp,sp,48
8040e77c:	a2420075 	sb	v0,117(s2)
8040e780:	081039b7 	j	8040e6dc <rtems_task_mode+0x13c>
8040e784:	24100001 	li	s0,1
8040e788:	8fbf002c 	lw	ra,44(sp)
8040e78c:	24020009 	li	v0,9
8040e790:	8fb60028 	lw	s6,40(sp)
8040e794:	8fb50024 	lw	s5,36(sp)
8040e798:	8fb40020 	lw	s4,32(sp)
8040e79c:	8fb3001c 	lw	s3,28(sp)
8040e7a0:	8fb20018 	lw	s2,24(sp)
8040e7a4:	8fb10014 	lw	s1,20(sp)
8040e7a8:	8fb00010 	lw	s0,16(sp)
8040e7ac:	03e00008 	jr	ra
8040e7b0:	27bd0030 	addiu	sp,sp,48
	...

8040e7c0 <rtems_io_close>:
8040e7c0:	3c038041 	lui	v1,0x8041
8040e7c4:	8c624fd8 	lw	v0,20440(v1)
8040e7c8:	0082102b 	sltu	v0,a0,v0
8040e7cc:	1040000b 	beqz	v0,8040e7fc <rtems_io_close+0x3c>
8040e7d0:	3c038041 	lui	v1,0x8041
8040e7d4:	8c674fdc 	lw	a3,20444(v1)
8040e7d8:	00041140 	sll	v0,a0,0x5
8040e7dc:	000418c0 	sll	v1,a0,0x3
8040e7e0:	00431023 	subu	v0,v0,v1
8040e7e4:	00e23821 	addu	a3,a3,v0
8040e7e8:	8cf90008 	lw	t9,8(a3)
8040e7ec:	13200005 	beqz	t9,8040e804 <rtems_io_close+0x44>
8040e7f0:	00000000 	nop
8040e7f4:	03200008 	jr	t9
8040e7f8:	00000000 	nop
8040e7fc:	03e00008 	jr	ra
8040e800:	2402000a 	li	v0,10
8040e804:	03e00008 	jr	ra
8040e808:	00001021 	move	v0,zero
8040e80c:	00000000 	nop

8040e810 <rtems_io_control>:
8040e810:	3c038041 	lui	v1,0x8041
8040e814:	8c624fd8 	lw	v0,20440(v1)
8040e818:	0082102b 	sltu	v0,a0,v0
8040e81c:	1040000b 	beqz	v0,8040e84c <rtems_io_control+0x3c>
8040e820:	3c038041 	lui	v1,0x8041
8040e824:	8c674fdc 	lw	a3,20444(v1)
8040e828:	00041140 	sll	v0,a0,0x5
8040e82c:	000418c0 	sll	v1,a0,0x3
8040e830:	00431023 	subu	v0,v0,v1
8040e834:	00e23821 	addu	a3,a3,v0
8040e838:	8cf90014 	lw	t9,20(a3)
8040e83c:	13200005 	beqz	t9,8040e854 <rtems_io_control+0x44>
8040e840:	00000000 	nop
8040e844:	03200008 	jr	t9
8040e848:	00000000 	nop
8040e84c:	03e00008 	jr	ra
8040e850:	2402000a 	li	v0,10
8040e854:	03e00008 	jr	ra
8040e858:	00001021 	move	v0,zero
8040e85c:	00000000 	nop

8040e860 <rtems_io_open>:
8040e860:	3c038041 	lui	v1,0x8041
8040e864:	8c624fd8 	lw	v0,20440(v1)
8040e868:	0082102b 	sltu	v0,a0,v0
8040e86c:	1040000b 	beqz	v0,8040e89c <rtems_io_open+0x3c>
8040e870:	3c038041 	lui	v1,0x8041
8040e874:	8c674fdc 	lw	a3,20444(v1)
8040e878:	00041140 	sll	v0,a0,0x5
8040e87c:	000418c0 	sll	v1,a0,0x3
8040e880:	00431023 	subu	v0,v0,v1
8040e884:	00e23821 	addu	a3,a3,v0
8040e888:	8cf90004 	lw	t9,4(a3)
8040e88c:	13200005 	beqz	t9,8040e8a4 <rtems_io_open+0x44>
8040e890:	00000000 	nop
8040e894:	03200008 	jr	t9
8040e898:	00000000 	nop
8040e89c:	03e00008 	jr	ra
8040e8a0:	2402000a 	li	v0,10
8040e8a4:	03e00008 	jr	ra
8040e8a8:	00001021 	move	v0,zero
8040e8ac:	00000000 	nop

8040e8b0 <rtems_io_read>:
8040e8b0:	3c038041 	lui	v1,0x8041
8040e8b4:	8c624fd8 	lw	v0,20440(v1)
8040e8b8:	0082102b 	sltu	v0,a0,v0
8040e8bc:	1040000b 	beqz	v0,8040e8ec <rtems_io_read+0x3c>
8040e8c0:	3c038041 	lui	v1,0x8041
8040e8c4:	8c674fdc 	lw	a3,20444(v1)
8040e8c8:	00041140 	sll	v0,a0,0x5
8040e8cc:	000418c0 	sll	v1,a0,0x3
8040e8d0:	00431023 	subu	v0,v0,v1
8040e8d4:	00e23821 	addu	a3,a3,v0
8040e8d8:	8cf9000c 	lw	t9,12(a3)
8040e8dc:	13200005 	beqz	t9,8040e8f4 <rtems_io_read+0x44>
8040e8e0:	00000000 	nop
8040e8e4:	03200008 	jr	t9
8040e8e8:	00000000 	nop
8040e8ec:	03e00008 	jr	ra
8040e8f0:	2402000a 	li	v0,10
8040e8f4:	03e00008 	jr	ra
8040e8f8:	00001021 	move	v0,zero
8040e8fc:	00000000 	nop

8040e900 <rtems_io_write>:
8040e900:	3c038041 	lui	v1,0x8041
8040e904:	8c624fd8 	lw	v0,20440(v1)
8040e908:	0082102b 	sltu	v0,a0,v0
8040e90c:	1040000b 	beqz	v0,8040e93c <rtems_io_write+0x3c>
8040e910:	3c038041 	lui	v1,0x8041
8040e914:	8c674fdc 	lw	a3,20444(v1)
8040e918:	00041140 	sll	v0,a0,0x5
8040e91c:	000418c0 	sll	v1,a0,0x3
8040e920:	00431023 	subu	v0,v0,v1
8040e924:	00e23821 	addu	a3,a3,v0
8040e928:	8cf90010 	lw	t9,16(a3)
8040e92c:	13200005 	beqz	t9,8040e944 <rtems_io_write+0x44>
8040e930:	00000000 	nop
8040e934:	03200008 	jr	t9
8040e938:	00000000 	nop
8040e93c:	03e00008 	jr	ra
8040e940:	2402000a 	li	v0,10
8040e944:	03e00008 	jr	ra
8040e948:	00001021 	move	v0,zero
8040e94c:	00000000 	nop

8040e950 <_Thread_Evaluate_mode>:
8040e950:	3c028041 	lui	v0,0x8041
8040e954:	8c4445d4 	lw	a0,17876(v0)
8040e958:	8c830010 	lw	v1,16(a0)
8040e95c:	14600009 	bnez	v1,8040e984 <_Thread_Evaluate_mode+0x34>
8040e960:	3c028041 	lui	v0,0x8041
8040e964:	3c028041 	lui	v0,0x8041
8040e968:	8c4345a0 	lw	v1,17824(v0)
8040e96c:	10830009 	beq	a0,v1,8040e994 <_Thread_Evaluate_mode+0x44>
8040e970:	00000000 	nop
8040e974:	90820076 	lbu	v0,118(a0)
8040e978:	10400006 	beqz	v0,8040e994 <_Thread_Evaluate_mode+0x44>
8040e97c:	00000000 	nop
8040e980:	3c028041 	lui	v0,0x8041
8040e984:	24030001 	li	v1,1
8040e988:	a04345e4 	sb	v1,17892(v0)
8040e98c:	03e00008 	jr	ra
8040e990:	24020001 	li	v0,1
8040e994:	03e00008 	jr	ra
8040e998:	00001021 	move	v0,zero
8040e99c:	00000000 	nop

8040e9a0 <_Thread_Handler>:
8040e9a0:	27bdffe0 	addiu	sp,sp,-32
8040e9a4:	3c028041 	lui	v0,0x8041
8040e9a8:	afb10018 	sw	s1,24(sp)
8040e9ac:	8c5145d4 	lw	s1,17876(v0)
8040e9b0:	afbf001c 	sw	ra,28(sp)
8040e9b4:	afb00014 	sw	s0,20(sp)
8040e9b8:	8e2400b8 	lw	a0,184(s1)
8040e9bc:	0c102781 	jal	80409e04 <_CPU_ISR_Set_level>
8040e9c0:	00000000 	nop
8040e9c4:	3c038041 	lui	v1,0x8041
8040e9c8:	80704350 	lb	s0,17232(v1)
8040e9cc:	24020001 	li	v0,1
8040e9d0:	02202021 	move	a0,s1
8040e9d4:	0c10249c 	jal	80409270 <_User_extensions_Thread_begin>
8040e9d8:	a0624350 	sb	v0,17232(v1)
8040e9dc:	0c101f8c 	jal	80407e30 <_Thread_Enable_dispatch>
8040e9e0:	00000000 	nop
8040e9e4:	1200001b 	beqz	s0,8040ea54 <_Thread_Handler+0xb4>
8040e9e8:	24020001 	li	v0,1
8040e9ec:	8e2300a0 	lw	v1,160(s1)
8040e9f0:	1062001e 	beq	v1,v0,8040ea6c <_Thread_Handler+0xcc>
8040e9f4:	00000000 	nop
8040e9f8:	1460000b 	bnez	v1,8040ea28 <_Thread_Handler+0x88>
8040e9fc:	24020002 	li	v0,2
8040ea00:	8e23009c 	lw	v1,156(s1)
8040ea04:	0060f809 	jalr	v1
8040ea08:	8e2400a8 	lw	a0,168(s1)
8040ea0c:	ae220028 	sw	v0,40(s1)
8040ea10:	0c1024b5 	jal	804092d4 <_User_extensions_Thread_exitted>
8040ea14:	02202021 	move	a0,s1
8040ea18:	00002021 	move	a0,zero
8040ea1c:	24050001 	li	a1,1
8040ea20:	0c101ab0 	jal	80406ac0 <_Internal_error_Occurred>
8040ea24:	24060006 	li	a2,6
8040ea28:	10620015 	beq	v1,v0,8040ea80 <_Thread_Handler+0xe0>
8040ea2c:	00000000 	nop
8040ea30:	24020003 	li	v0,3
8040ea34:	1462fff6 	bne	v1,v0,8040ea10 <_Thread_Handler+0x70>
8040ea38:	00000000 	nop
8040ea3c:	8e23009c 	lw	v1,156(s1)
8040ea40:	8e2400a8 	lw	a0,168(s1)
8040ea44:	0060f809 	jalr	v1
8040ea48:	8e2500a4 	lw	a1,164(s1)
8040ea4c:	08103a84 	j	8040ea10 <_Thread_Handler+0x70>
8040ea50:	ae220028 	sw	v0,40(s1)
8040ea54:	0c1000ec 	jal	804003b0 <_init>
8040ea58:	00000000 	nop
8040ea5c:	8e2300a0 	lw	v1,160(s1)
8040ea60:	24020001 	li	v0,1
8040ea64:	1462ffe4 	bne	v1,v0,8040e9f8 <_Thread_Handler+0x58>
8040ea68:	00000000 	nop
8040ea6c:	8e23009c 	lw	v1,156(s1)
8040ea70:	0060f809 	jalr	v1
8040ea74:	8e2400a4 	lw	a0,164(s1)
8040ea78:	08103a84 	j	8040ea10 <_Thread_Handler+0x70>
8040ea7c:	ae220028 	sw	v0,40(s1)
8040ea80:	8e23009c 	lw	v1,156(s1)
8040ea84:	8e2400a4 	lw	a0,164(s1)
8040ea88:	0060f809 	jalr	v1
8040ea8c:	8e2500a8 	lw	a1,168(s1)
8040ea90:	08103a84 	j	8040ea10 <_Thread_Handler+0x70>
8040ea94:	ae220028 	sw	v0,40(s1)
	...

8040eaa0 <_Thread_queue_Extract_fifo>:
8040eaa0:	27bdffe8 	addiu	sp,sp,-24
8040eaa4:	afb00010 	sw	s0,16(sp)
8040eaa8:	afbf0014 	sw	ra,20(sp)
8040eaac:	00a08021 	move	s0,a1
8040eab0:	40036000 	mfc0	v1,c0_status
8040eab4:	00000000 	nop
8040eab8:	2402fffe 	li	v0,-2
8040eabc:	00621024 	and	v0,v1,v0
8040eac0:	40826000 	mtc0	v0,c0_status
8040eac4:	00000000 	nop
8040eac8:	30650001 	andi	a1,v1,0x1
8040eacc:	3c020003 	lui	v0,0x3
8040ead0:	8e030010 	lw	v1,16(s0)
8040ead4:	3442bee0 	ori	v0,v0,0xbee0
8040ead8:	00621824 	and	v1,v1,v0
8040eadc:	10600017 	beqz	v1,8040eb3c <_Thread_queue_Extract_fifo+0x9c>
8040eae0:	00000000 	nop
8040eae4:	8e020004 	lw	v0,4(s0)
8040eae8:	8e030000 	lw	v1,0(s0)
8040eaec:	8e040050 	lw	a0,80(s0)
8040eaf0:	ac430000 	sw	v1,0(v0)
8040eaf4:	ac620004 	sw	v0,4(v1)
8040eaf8:	24020002 	li	v0,2
8040eafc:	1082001a 	beq	a0,v0,8040eb68 <_Thread_queue_Extract_fifo+0xc8>
8040eb00:	ae000044 	sw	zero,68(s0)
8040eb04:	40026000 	mfc0	v0,c0_status
8040eb08:	00000000 	nop
8040eb0c:	2403fffe 	li	v1,-2
8040eb10:	00431024 	and	v0,v0,v1
8040eb14:	00451025 	or	v0,v0,a1
8040eb18:	40826000 	mtc0	v0,c0_status
8040eb1c:	00000000 	nop
8040eb20:	3c051003 	lui	a1,0x1003
8040eb24:	02002021 	move	a0,s0
8040eb28:	8fbf0014 	lw	ra,20(sp)
8040eb2c:	8fb00010 	lw	s0,16(sp)
8040eb30:	34a5fff8 	ori	a1,a1,0xfff8
8040eb34:	08101e3c 	j	804078f0 <_Thread_Clear_state>
8040eb38:	27bd0018 	addiu	sp,sp,24
8040eb3c:	40026000 	mfc0	v0,c0_status
8040eb40:	00000000 	nop
8040eb44:	2403fffe 	li	v1,-2
8040eb48:	00431024 	and	v0,v0,v1
8040eb4c:	00451025 	or	v0,v0,a1
8040eb50:	40826000 	mtc0	v0,c0_status
8040eb54:	00000000 	nop
8040eb58:	8fbf0014 	lw	ra,20(sp)
8040eb5c:	8fb00010 	lw	s0,16(sp)
8040eb60:	03e00008 	jr	ra
8040eb64:	27bd0018 	addiu	sp,sp,24
8040eb68:	24020003 	li	v0,3
8040eb6c:	ae020050 	sw	v0,80(s0)
8040eb70:	40026000 	mfc0	v0,c0_status
8040eb74:	00000000 	nop
8040eb78:	2403fffe 	li	v1,-2
8040eb7c:	00431024 	and	v0,v0,v1
8040eb80:	00451025 	or	v0,v0,a1
8040eb84:	40826000 	mtc0	v0,c0_status
8040eb88:	00000000 	nop
8040eb8c:	0c102600 	jal	80409800 <_Watchdog_Remove>
8040eb90:	26040048 	addiu	a0,s0,72
8040eb94:	08103ac9 	j	8040eb24 <_Thread_queue_Extract_fifo+0x84>
8040eb98:	3c051003 	lui	a1,0x1003
8040eb9c:	00000000 	nop

8040eba0 <rtems_assoc_ptr_by_local>:
8040eba0:	27bdffe0 	addiu	sp,sp,-32
8040eba4:	afb00014 	sw	s0,20(sp)
8040eba8:	00808021 	move	s0,a0
8040ebac:	8c840000 	lw	a0,0(a0)
8040ebb0:	afb10018 	sw	s1,24(sp)
8040ebb4:	afbf001c 	sw	ra,28(sp)
8040ebb8:	10800021 	beqz	a0,8040ec40 <rtems_assoc_ptr_by_local+0xa0>
8040ebbc:	00a08821 	move	s1,a1
8040ebc0:	3c058041 	lui	a1,0x8041
8040ebc4:	0c104120 	jal	80410480 <strcmp>
8040ebc8:	24a53634 	addiu	a1,a1,13876
8040ebcc:	10400010 	beqz	v0,8040ec10 <rtems_assoc_ptr_by_local+0x70>
8040ebd0:	00002021 	move	a0,zero
8040ebd4:	08103afb 	j	8040ebec <rtems_assoc_ptr_by_local+0x4c>
8040ebd8:	8e020004 	lw	v0,4(s0)
8040ebdc:	8e020000 	lw	v0,0(s0)
8040ebe0:	10400011 	beqz	v0,8040ec28 <rtems_assoc_ptr_by_local+0x88>
8040ebe4:	8fbf001c 	lw	ra,28(sp)
8040ebe8:	8e020004 	lw	v0,4(s0)
8040ebec:	1451fffb 	bne	v0,s1,8040ebdc <rtems_assoc_ptr_by_local+0x3c>
8040ebf0:	2610000c 	addiu	s0,s0,12
8040ebf4:	2610fff4 	addiu	s0,s0,-12
8040ebf8:	8fbf001c 	lw	ra,28(sp)
8040ebfc:	02001021 	move	v0,s0
8040ec00:	8fb10018 	lw	s1,24(sp)
8040ec04:	8fb00014 	lw	s0,20(sp)
8040ec08:	03e00008 	jr	ra
8040ec0c:	27bd0020 	addiu	sp,sp,32
8040ec10:	8e02000c 	lw	v0,12(s0)
8040ec14:	1040fff8 	beqz	v0,8040ebf8 <rtems_assoc_ptr_by_local+0x58>
8040ec18:	2603000c 	addiu	v1,s0,12
8040ec1c:	02002021 	move	a0,s0
8040ec20:	08103afa 	j	8040ebe8 <rtems_assoc_ptr_by_local+0x48>
8040ec24:	00608021 	move	s0,v1
8040ec28:	00808021 	move	s0,a0
8040ec2c:	02001021 	move	v0,s0
8040ec30:	8fb10018 	lw	s1,24(sp)
8040ec34:	8fb00014 	lw	s0,20(sp)
8040ec38:	03e00008 	jr	ra
8040ec3c:	27bd0020 	addiu	sp,sp,32
8040ec40:	8fbf001c 	lw	ra,28(sp)
8040ec44:	00008021 	move	s0,zero
8040ec48:	02001021 	move	v0,s0
8040ec4c:	8fb10018 	lw	s1,24(sp)
8040ec50:	8fb00014 	lw	s0,20(sp)
8040ec54:	03e00008 	jr	ra
8040ec58:	27bd0020 	addiu	sp,sp,32
8040ec5c:	00000000 	nop

8040ec60 <_POSIX_signals_Clear_process_signals>:
8040ec60:	40056000 	mfc0	a1,c0_status
8040ec64:	00000000 	nop
8040ec68:	2402fffe 	li	v0,-2
8040ec6c:	00a21024 	and	v0,a1,v0
8040ec70:	40826000 	mtc0	v0,c0_status
8040ec74:	00000000 	nop
8040ec78:	3c038041 	lui	v1,0x8041
8040ec7c:	8c624e50 	lw	v0,20048(v1)
8040ec80:	00042027 	nor	a0,zero,a0
8040ec84:	00822024 	and	a0,a0,v0
8040ec88:	14800005 	bnez	a0,8040eca0 <_POSIX_signals_Clear_process_signals+0x40>
8040ec8c:	ac644e50 	sw	a0,20048(v1)
8040ec90:	3c038041 	lui	v1,0x8041
8040ec94:	8c6245b8 	lw	v0,17848(v1)
8040ec98:	2442ffff 	addiu	v0,v0,-1
8040ec9c:	ac6245b8 	sw	v0,17848(v1)
8040eca0:	40026000 	mfc0	v0,c0_status
8040eca4:	00000000 	nop
8040eca8:	2403fffe 	li	v1,-2
8040ecac:	00431024 	and	v0,v0,v1
8040ecb0:	30a40001 	andi	a0,a1,0x1
8040ecb4:	00441025 	or	v0,v0,a0
8040ecb8:	40826000 	mtc0	v0,c0_status
8040ecbc:	00000000 	nop
8040ecc0:	03e00008 	jr	ra
8040ecc4:	00000000 	nop
	...

8040ecd0 <__errno>:
8040ecd0:	03e00008 	jr	ra
8040ecd4:	8f828fc0 	lw	v0,-28736(gp)
	...

8040ece0 <exit>:
8040ece0:	27bdffe8 	addiu	sp,sp,-24
8040ece4:	00002821 	move	a1,zero
8040ece8:	afb00010 	sw	s0,16(sp)
8040ecec:	afbf0014 	sw	ra,20(sp)
8040ecf0:	0c1041d8 	jal	80410760 <__call_exitprocs>
8040ecf4:	00808021 	move	s0,a0
8040ecf8:	8f848fc4 	lw	a0,-28732(gp)
8040ecfc:	8c82003c 	lw	v0,60(a0)
8040ed00:	10400003 	beqz	v0,8040ed10 <exit+0x30>
8040ed04:	00000000 	nop
8040ed08:	0040f809 	jalr	v0
8040ed0c:	00000000 	nop
8040ed10:	0c10466a 	jal	804119a8 <_exit>
8040ed14:	02002021 	move	a0,s0
	...

8040ed20 <_fclose_r>:
8040ed20:	27bdffe0 	addiu	sp,sp,-32
8040ed24:	afb10014 	sw	s1,20(sp)
8040ed28:	afb00010 	sw	s0,16(sp)
8040ed2c:	afbf001c 	sw	ra,28(sp)
8040ed30:	afb20018 	sw	s2,24(sp)
8040ed34:	00a08021 	move	s0,a1
8040ed38:	10a00034 	beqz	a1,8040ee0c <_fclose_r+0xec>
8040ed3c:	00808821 	move	s1,a0
8040ed40:	0c103c7d 	jal	8040f1f4 <__sfp_lock_acquire>
8040ed44:	00000000 	nop
8040ed48:	12200004 	beqz	s1,8040ed5c <_fclose_r+0x3c>
8040ed4c:	00000000 	nop
8040ed50:	8e220038 	lw	v0,56(s1)
8040ed54:	10400035 	beqz	v0,8040ee2c <_fclose_r+0x10c>
8040ed58:	00000000 	nop
8040ed5c:	8602000c 	lh	v0,12(s0)
8040ed60:	10400028 	beqz	v0,8040ee04 <_fclose_r+0xe4>
8040ed64:	02202021 	move	a0,s1
8040ed68:	0c103b9c 	jal	8040ee70 <_fflush_r>
8040ed6c:	02002821 	move	a1,s0
8040ed70:	00409021 	move	s2,v0
8040ed74:	8e02002c 	lw	v0,44(s0)
8040ed78:	10400007 	beqz	v0,8040ed98 <_fclose_r+0x78>
8040ed7c:	00000000 	nop
8040ed80:	8e05001c 	lw	a1,28(s0)
8040ed84:	0040f809 	jalr	v0
8040ed88:	02202021 	move	a0,s1
8040ed8c:	28420000 	slti	v0,v0,0
8040ed90:	2403ffff 	li	v1,-1
8040ed94:	0062900b 	movn	s2,v1,v0
8040ed98:	9602000c 	lhu	v0,12(s0)
8040ed9c:	30420080 	andi	v0,v0,0x80
8040eda0:	14400029 	bnez	v0,8040ee48 <_fclose_r+0x128>
8040eda4:	00000000 	nop
8040eda8:	8e050030 	lw	a1,48(s0)
8040edac:	10a00006 	beqz	a1,8040edc8 <_fclose_r+0xa8>
8040edb0:	26020040 	addiu	v0,s0,64
8040edb4:	10a20003 	beq	a1,v0,8040edc4 <_fclose_r+0xa4>
8040edb8:	00000000 	nop
8040edbc:	0c1045a4 	jal	80411690 <_free_r>
8040edc0:	02202021 	move	a0,s1
8040edc4:	ae000030 	sw	zero,48(s0)
8040edc8:	8e050044 	lw	a1,68(s0)
8040edcc:	10a00004 	beqz	a1,8040ede0 <_fclose_r+0xc0>
8040edd0:	00000000 	nop
8040edd4:	0c1045a4 	jal	80411690 <_free_r>
8040edd8:	02202021 	move	a0,s1
8040eddc:	ae000044 	sw	zero,68(s0)
8040ede0:	0c103c7f 	jal	8040f1fc <__sfp_lock_release>
8040ede4:	a600000c 	sh	zero,12(s0)
8040ede8:	8fbf001c 	lw	ra,28(sp)
8040edec:	02401021 	move	v0,s2
8040edf0:	8fb20018 	lw	s2,24(sp)
8040edf4:	8fb10014 	lw	s1,20(sp)
8040edf8:	8fb00010 	lw	s0,16(sp)
8040edfc:	03e00008 	jr	ra
8040ee00:	27bd0020 	addiu	sp,sp,32
8040ee04:	0c103c7f 	jal	8040f1fc <__sfp_lock_release>
8040ee08:	00000000 	nop
8040ee0c:	8fbf001c 	lw	ra,28(sp)
8040ee10:	00009021 	move	s2,zero
8040ee14:	02401021 	move	v0,s2
8040ee18:	8fb20018 	lw	s2,24(sp)
8040ee1c:	8fb10014 	lw	s1,20(sp)
8040ee20:	8fb00010 	lw	s0,16(sp)
8040ee24:	03e00008 	jr	ra
8040ee28:	27bd0020 	addiu	sp,sp,32
8040ee2c:	0c103c38 	jal	8040f0e0 <__sinit>
8040ee30:	02202021 	move	a0,s1
8040ee34:	8602000c 	lh	v0,12(s0)
8040ee38:	1440ffcb 	bnez	v0,8040ed68 <_fclose_r+0x48>
8040ee3c:	02202021 	move	a0,s1
8040ee40:	08103b81 	j	8040ee04 <_fclose_r+0xe4>
8040ee44:	00000000 	nop
8040ee48:	8e050010 	lw	a1,16(s0)
8040ee4c:	0c1045a4 	jal	80411690 <_free_r>
8040ee50:	02202021 	move	a0,s1
8040ee54:	08103b6b 	j	8040edac <_fclose_r+0x8c>
8040ee58:	8e050030 	lw	a1,48(s0)

8040ee5c <fclose>:
8040ee5c:	00802821 	move	a1,a0
8040ee60:	08103b48 	j	8040ed20 <_fclose_r>
8040ee64:	8f848fc0 	lw	a0,-28736(gp)
	...

8040ee70 <_fflush_r>:
8040ee70:	27bdffd8 	addiu	sp,sp,-40
8040ee74:	afb30020 	sw	s3,32(sp)
8040ee78:	afb2001c 	sw	s2,28(sp)
8040ee7c:	afbf0024 	sw	ra,36(sp)
8040ee80:	afb10018 	sw	s1,24(sp)
8040ee84:	afb00014 	sw	s0,20(sp)
8040ee88:	00809821 	move	s3,a0
8040ee8c:	10800004 	beqz	a0,8040eea0 <_fflush_r+0x30>
8040ee90:	00a09021 	move	s2,a1
8040ee94:	8c820038 	lw	v0,56(a0)
8040ee98:	10400051 	beqz	v0,8040efe0 <_fflush_r+0x170>
8040ee9c:	00000000 	nop
8040eea0:	8643000c 	lh	v1,12(s2)
8040eea4:	30620008 	andi	v0,v1,0x8
8040eea8:	1440002e 	bnez	v0,8040ef64 <_fflush_r+0xf4>
8040eeac:	00000000 	nop
8040eeb0:	8e420004 	lw	v0,4(s2)
8040eeb4:	34630800 	ori	v1,v1,0x800
8040eeb8:	1840005a 	blez	v0,8040f024 <_fflush_r+0x1b4>
8040eebc:	a643000c 	sh	v1,12(s2)
8040eec0:	8e480028 	lw	t0,40(s2)
8040eec4:	1100001e 	beqz	t0,8040ef40 <_fflush_r+0xd0>
8040eec8:	30621000 	andi	v0,v1,0x1000
8040eecc:	1040005a 	beqz	v0,8040f038 <_fflush_r+0x1c8>
8040eed0:	00003021 	move	a2,zero
8040eed4:	8e500050 	lw	s0,80(s2)
8040eed8:	9642000c 	lhu	v0,12(s2)
8040eedc:	30420004 	andi	v0,v0,0x4
8040eee0:	10400007 	beqz	v0,8040ef00 <_fflush_r+0x90>
8040eee4:	00000000 	nop
8040eee8:	8e420004 	lw	v0,4(s2)
8040eeec:	8e430030 	lw	v1,48(s2)
8040eef0:	10600003 	beqz	v1,8040ef00 <_fflush_r+0x90>
8040eef4:	02028023 	subu	s0,s0,v0
8040eef8:	8e42003c 	lw	v0,60(s2)
8040eefc:	02028023 	subu	s0,s0,v0
8040ef00:	8e45001c 	lw	a1,28(s2)
8040ef04:	02602021 	move	a0,s3
8040ef08:	02003021 	move	a2,s0
8040ef0c:	0100f809 	jalr	t0
8040ef10:	00003821 	move	a3,zero
8040ef14:	14500026 	bne	v0,s0,8040efb0 <_fflush_r+0x140>
8040ef18:	00000000 	nop
8040ef1c:	9642000c 	lhu	v0,12(s2)
8040ef20:	8e440010 	lw	a0,16(s2)
8040ef24:	3042f7ff 	andi	v0,v0,0xf7ff
8040ef28:	3043ffff 	andi	v1,v0,0xffff
8040ef2c:	30631000 	andi	v1,v1,0x1000
8040ef30:	a642000c 	sh	v0,12(s2)
8040ef34:	ae440000 	sw	a0,0(s2)
8040ef38:	14600030 	bnez	v1,8040effc <_fflush_r+0x18c>
8040ef3c:	ae400004 	sw	zero,4(s2)
8040ef40:	8fbf0024 	lw	ra,36(sp)
8040ef44:	00001821 	move	v1,zero
8040ef48:	00601021 	move	v0,v1
8040ef4c:	8fb30020 	lw	s3,32(sp)
8040ef50:	8fb2001c 	lw	s2,28(sp)
8040ef54:	8fb10018 	lw	s1,24(sp)
8040ef58:	8fb00014 	lw	s0,20(sp)
8040ef5c:	03e00008 	jr	ra
8040ef60:	27bd0028 	addiu	sp,sp,40
8040ef64:	8e510010 	lw	s1,16(s2)
8040ef68:	1220fff5 	beqz	s1,8040ef40 <_fflush_r+0xd0>
8040ef6c:	30630003 	andi	v1,v1,0x3
8040ef70:	8e420000 	lw	v0,0(s2)
8040ef74:	00518023 	subu	s0,v0,s1
8040ef78:	1060001d 	beqz	v1,8040eff0 <_fflush_r+0x180>
8040ef7c:	ae510000 	sw	s1,0(s2)
8040ef80:	00001021 	move	v0,zero
8040ef84:	ae420008 	sw	v0,8(s2)
8040ef88:	1a00ffed 	blez	s0,8040ef40 <_fflush_r+0xd0>
8040ef8c:	02203021 	move	a2,s1
8040ef90:	8e430024 	lw	v1,36(s2)
8040ef94:	8e45001c 	lw	a1,28(s2)
8040ef98:	02003821 	move	a3,s0
8040ef9c:	0060f809 	jalr	v1
8040efa0:	02602021 	move	a0,s3
8040efa4:	02228821 	addu	s1,s1,v0
8040efa8:	1c40fff7 	bgtz	v0,8040ef88 <_fflush_r+0x118>
8040efac:	02028023 	subu	s0,s0,v0
8040efb0:	9642000c 	lhu	v0,12(s2)
8040efb4:	8fbf0024 	lw	ra,36(sp)
8040efb8:	34420040 	ori	v0,v0,0x40
8040efbc:	2403ffff 	li	v1,-1
8040efc0:	a642000c 	sh	v0,12(s2)
8040efc4:	8fb30020 	lw	s3,32(sp)
8040efc8:	00601021 	move	v0,v1
8040efcc:	8fb2001c 	lw	s2,28(sp)
8040efd0:	8fb10018 	lw	s1,24(sp)
8040efd4:	8fb00014 	lw	s0,20(sp)
8040efd8:	03e00008 	jr	ra
8040efdc:	27bd0028 	addiu	sp,sp,40
8040efe0:	0c103c38 	jal	8040f0e0 <__sinit>
8040efe4:	00000000 	nop
8040efe8:	08103ba9 	j	8040eea4 <_fflush_r+0x34>
8040efec:	8643000c 	lh	v1,12(s2)
8040eff0:	8e420014 	lw	v0,20(s2)
8040eff4:	08103be2 	j	8040ef88 <_fflush_r+0x118>
8040eff8:	ae420008 	sw	v0,8(s2)
8040effc:	8fbf0024 	lw	ra,36(sp)
8040f000:	00001821 	move	v1,zero
8040f004:	ae500050 	sw	s0,80(s2)
8040f008:	00601021 	move	v0,v1
8040f00c:	8fb30020 	lw	s3,32(sp)
8040f010:	8fb2001c 	lw	s2,28(sp)
8040f014:	8fb10018 	lw	s1,24(sp)
8040f018:	8fb00014 	lw	s0,20(sp)
8040f01c:	03e00008 	jr	ra
8040f020:	27bd0028 	addiu	sp,sp,40
8040f024:	8e42003c 	lw	v0,60(s2)
8040f028:	1c40ffa5 	bgtz	v0,8040eec0 <_fflush_r+0x50>
8040f02c:	8fbf0024 	lw	ra,36(sp)
8040f030:	08103bd2 	j	8040ef48 <_fflush_r+0xd8>
8040f034:	00001821 	move	v1,zero
8040f038:	8e45001c 	lw	a1,28(s2)
8040f03c:	02602021 	move	a0,s3
8040f040:	0100f809 	jalr	t0
8040f044:	24070001 	li	a3,1
8040f048:	00408021 	move	s0,v0
8040f04c:	2402ffff 	li	v0,-1
8040f050:	12020003 	beq	s0,v0,8040f060 <_fflush_r+0x1f0>
8040f054:	2402001d 	li	v0,29
8040f058:	08103bb6 	j	8040eed8 <_fflush_r+0x68>
8040f05c:	8e480028 	lw	t0,40(s2)
8040f060:	8e630000 	lw	v1,0(s3)
8040f064:	1462ffd2 	bne	v1,v0,8040efb0 <_fflush_r+0x140>
8040f068:	8fbf0024 	lw	ra,36(sp)
8040f06c:	08103bd2 	j	8040ef48 <_fflush_r+0xd8>
8040f070:	00001821 	move	v1,zero

8040f074 <fflush>:
8040f074:	10800003 	beqz	a0,8040f084 <fflush+0x10>
8040f078:	00802821 	move	a1,a0
8040f07c:	08103b9c 	j	8040ee70 <_fflush_r>
8040f080:	8f848fc0 	lw	a0,-28736(gp)
8040f084:	3c058041 	lui	a1,0x8041
8040f088:	8f848fc4 	lw	a0,-28732(gp)
8040f08c:	08103cf0 	j	8040f3c0 <_fwalk_reent>
8040f090:	24a5ee70 	addiu	a1,a1,-4496
	...

8040f0a0 <fileno>:
8040f0a0:	8f838fc0 	lw	v1,-28736(gp)
8040f0a4:	27bdffe8 	addiu	sp,sp,-24
8040f0a8:	afb00010 	sw	s0,16(sp)
8040f0ac:	afbf0014 	sw	ra,20(sp)
8040f0b0:	10600006 	beqz	v1,8040f0cc <fileno+0x2c>
8040f0b4:	00808021 	move	s0,a0
8040f0b8:	8c620038 	lw	v0,56(v1)
8040f0bc:	14400004 	bnez	v0,8040f0d0 <fileno+0x30>
8040f0c0:	8fbf0014 	lw	ra,20(sp)
8040f0c4:	0c103c38 	jal	8040f0e0 <__sinit>
8040f0c8:	00602021 	move	a0,v1
8040f0cc:	8fbf0014 	lw	ra,20(sp)
8040f0d0:	8602000e 	lh	v0,14(s0)
8040f0d4:	8fb00010 	lw	s0,16(sp)
8040f0d8:	03e00008 	jr	ra
8040f0dc:	27bd0018 	addiu	sp,sp,24

8040f0e0 <__sinit>:
8040f0e0:	8c820038 	lw	v0,56(a0)
8040f0e4:	14400041 	bnez	v0,8040f1ec <__sinit+0x10c>
8040f0e8:	00806821 	move	t5,a0
8040f0ec:	24020003 	li	v0,3
8040f0f0:	ada202e4 	sw	v0,740(t5)
8040f0f4:	3c028041 	lui	v0,0x8041
8040f0f8:	8c86000c 	lw	a2,12(a0)
8040f0fc:	8da50008 	lw	a1,8(t5)
8040f100:	8c840004 	lw	a0,4(a0)
8040f104:	2442f244 	addiu	v0,v0,-3516
8040f108:	24030004 	li	v1,4
8040f10c:	ada2003c 	sw	v0,60(t5)
8040f110:	3c0a8041 	lui	t2,0x8041
8040f114:	24020008 	li	v0,8
8040f118:	3c098041 	lui	t1,0x8041
8040f11c:	3c088041 	lui	t0,0x8041
8040f120:	3c078041 	lui	a3,0x8041
8040f124:	254a0410 	addiu	t2,t2,1040
8040f128:	25290390 	addiu	t1,t1,912
8040f12c:	25080328 	addiu	t0,t0,808
8040f130:	24e70320 	addiu	a3,a3,800
8040f134:	a483000c 	sh	v1,12(a0)
8040f138:	240c0001 	li	t4,1
8040f13c:	a4a2000c 	sh	v0,12(a1)
8040f140:	25ab02ec 	addiu	t3,t5,748
8040f144:	24020012 	li	v0,18
8040f148:	24030002 	li	v1,2
8040f14c:	adac0038 	sw	t4,56(t5)
8040f150:	ac87002c 	sw	a3,44(a0)
8040f154:	ac800000 	sw	zero,0(a0)
8040f158:	ac800004 	sw	zero,4(a0)
8040f15c:	ac800008 	sw	zero,8(a0)
8040f160:	a480000e 	sh	zero,14(a0)
8040f164:	ac800010 	sw	zero,16(a0)
8040f168:	ac800014 	sw	zero,20(a0)
8040f16c:	ac800018 	sw	zero,24(a0)
8040f170:	ac84001c 	sw	a0,28(a0)
8040f174:	ac8a0020 	sw	t2,32(a0)
8040f178:	ac890024 	sw	t1,36(a0)
8040f17c:	adab02e8 	sw	t3,744(t5)
8040f180:	aca7002c 	sw	a3,44(a1)
8040f184:	a4ac000e 	sh	t4,14(a1)
8040f188:	ac880028 	sw	t0,40(a0)
8040f18c:	ada002e0 	sw	zero,736(t5)
8040f190:	aca00000 	sw	zero,0(a1)
8040f194:	aca00004 	sw	zero,4(a1)
8040f198:	aca00008 	sw	zero,8(a1)
8040f19c:	aca00010 	sw	zero,16(a1)
8040f1a0:	aca00014 	sw	zero,20(a1)
8040f1a4:	aca00018 	sw	zero,24(a1)
8040f1a8:	aca5001c 	sw	a1,28(a1)
8040f1ac:	acaa0020 	sw	t2,32(a1)
8040f1b0:	aca90024 	sw	t1,36(a1)
8040f1b4:	aca80028 	sw	t0,40(a1)
8040f1b8:	acc00000 	sw	zero,0(a2)
8040f1bc:	acc7002c 	sw	a3,44(a2)
8040f1c0:	a4c2000c 	sh	v0,12(a2)
8040f1c4:	a4c3000e 	sh	v1,14(a2)
8040f1c8:	acca0020 	sw	t2,32(a2)
8040f1cc:	acc90024 	sw	t1,36(a2)
8040f1d0:	acc80028 	sw	t0,40(a2)
8040f1d4:	acc00004 	sw	zero,4(a2)
8040f1d8:	acc00008 	sw	zero,8(a2)
8040f1dc:	acc00010 	sw	zero,16(a2)
8040f1e0:	acc00014 	sw	zero,20(a2)
8040f1e4:	acc00018 	sw	zero,24(a2)
8040f1e8:	acc6001c 	sw	a2,28(a2)
8040f1ec:	03e00008 	jr	ra
8040f1f0:	00000000 	nop

8040f1f4 <__sfp_lock_acquire>:
8040f1f4:	03e00008 	jr	ra
8040f1f8:	00000000 	nop

8040f1fc <__sfp_lock_release>:
8040f1fc:	03e00008 	jr	ra
8040f200:	00000000 	nop

8040f204 <__sinit_lock_acquire>:
8040f204:	03e00008 	jr	ra
8040f208:	00000000 	nop

8040f20c <__sinit_lock_release>:
8040f20c:	03e00008 	jr	ra
8040f210:	00000000 	nop

8040f214 <__fp_lock>:
8040f214:	03e00008 	jr	ra
8040f218:	00001021 	move	v0,zero

8040f21c <__fp_unlock>:
8040f21c:	03e00008 	jr	ra
8040f220:	00001021 	move	v0,zero

8040f224 <__fp_unlock_all>:
8040f224:	3c058041 	lui	a1,0x8041
8040f228:	8f848fc0 	lw	a0,-28736(gp)
8040f22c:	08103d30 	j	8040f4c0 <_fwalk>
8040f230:	24a5f21c 	addiu	a1,a1,-3556

8040f234 <__fp_lock_all>:
8040f234:	3c058041 	lui	a1,0x8041
8040f238:	8f848fc0 	lw	a0,-28736(gp)
8040f23c:	08103d30 	j	8040f4c0 <_fwalk>
8040f240:	24a5f214 	addiu	a1,a1,-3564

8040f244 <_cleanup_r>:
8040f244:	3c058041 	lui	a1,0x8041
8040f248:	08103d30 	j	8040f4c0 <_fwalk>
8040f24c:	24a5ee5c 	addiu	a1,a1,-4516

8040f250 <_cleanup>:
8040f250:	3c058041 	lui	a1,0x8041
8040f254:	8f848fc4 	lw	a0,-28732(gp)
8040f258:	08103d30 	j	8040f4c0 <_fwalk>
8040f25c:	24a5ee5c 	addiu	a1,a1,-4516

8040f260 <__sfmoreglue>:
8040f260:	000518c0 	sll	v1,a1,0x3
8040f264:	00051140 	sll	v0,a1,0x5
8040f268:	00431023 	subu	v0,v0,v1
8040f26c:	27bdffe0 	addiu	sp,sp,-32
8040f270:	00451023 	subu	v0,v0,a1
8040f274:	afb20018 	sw	s2,24(sp)
8040f278:	00029080 	sll	s2,v0,0x2
8040f27c:	afb10014 	sw	s1,20(sp)
8040f280:	00a08821 	move	s1,a1
8040f284:	afb00010 	sw	s0,16(sp)
8040f288:	afbf001c 	sw	ra,28(sp)
8040f28c:	0c104648 	jal	80411920 <_malloc_r>
8040f290:	2645000c 	addiu	a1,s2,12
8040f294:	10400008 	beqz	v0,8040f2b8 <__sfmoreglue+0x58>
8040f298:	00408021 	move	s0,v0
8040f29c:	2444000c 	addiu	a0,v0,12
8040f2a0:	ac510004 	sw	s1,4(v0)
8040f2a4:	ac400000 	sw	zero,0(v0)
8040f2a8:	ac440008 	sw	a0,8(v0)
8040f2ac:	02403021 	move	a2,s2
8040f2b0:	0c103dd8 	jal	8040f760 <memset>
8040f2b4:	00002821 	move	a1,zero
8040f2b8:	8fbf001c 	lw	ra,28(sp)
8040f2bc:	02001021 	move	v0,s0
8040f2c0:	8fb20018 	lw	s2,24(sp)
8040f2c4:	8fb10014 	lw	s1,20(sp)
8040f2c8:	8fb00010 	lw	s0,16(sp)
8040f2cc:	03e00008 	jr	ra
8040f2d0:	27bd0020 	addiu	sp,sp,32

8040f2d4 <__sfp>:
8040f2d4:	27bdffe0 	addiu	sp,sp,-32
8040f2d8:	afb00014 	sw	s0,20(sp)
8040f2dc:	8f908fc4 	lw	s0,-28732(gp)
8040f2e0:	afb10018 	sw	s1,24(sp)
8040f2e4:	8e020038 	lw	v0,56(s0)
8040f2e8:	afbf001c 	sw	ra,28(sp)
8040f2ec:	10400026 	beqz	v0,8040f388 <__sfp+0xb4>
8040f2f0:	00808821 	move	s1,a0
8040f2f4:	261002e0 	addiu	s0,s0,736
8040f2f8:	8e020004 	lw	v0,4(s0)
8040f2fc:	2443ffff 	addiu	v1,v0,-1
8040f300:	04610005 	bgez	v1,8040f318 <__sfp+0x44>
8040f304:	8e040008 	lw	a0,8(s0)
8040f308:	08103cde 	j	8040f378 <__sfp+0xa4>
8040f30c:	8e020000 	lw	v0,0(s0)
8040f310:	04600018 	bltz	v1,8040f374 <__sfp+0xa0>
8040f314:	2484005c 	addiu	a0,a0,92
8040f318:	8482000c 	lh	v0,12(a0)
8040f31c:	1440fffc 	bnez	v0,8040f310 <__sfp+0x3c>
8040f320:	2463ffff 	addiu	v1,v1,-1
8040f324:	2402ffff 	li	v0,-1
8040f328:	24030001 	li	v1,1
8040f32c:	a482000e 	sh	v0,14(a0)
8040f330:	a483000c 	sh	v1,12(a0)
8040f334:	ac800000 	sw	zero,0(a0)
8040f338:	ac800008 	sw	zero,8(a0)
8040f33c:	ac800004 	sw	zero,4(a0)
8040f340:	ac800010 	sw	zero,16(a0)
8040f344:	ac800014 	sw	zero,20(a0)
8040f348:	ac800018 	sw	zero,24(a0)
8040f34c:	ac800030 	sw	zero,48(a0)
8040f350:	ac800034 	sw	zero,52(a0)
8040f354:	ac800044 	sw	zero,68(a0)
8040f358:	ac800048 	sw	zero,72(a0)
8040f35c:	8fbf001c 	lw	ra,28(sp)
8040f360:	00801021 	move	v0,a0
8040f364:	8fb10018 	lw	s1,24(sp)
8040f368:	8fb00014 	lw	s0,20(sp)
8040f36c:	03e00008 	jr	ra
8040f370:	27bd0020 	addiu	sp,sp,32
8040f374:	8e020000 	lw	v0,0(s0)
8040f378:	10400007 	beqz	v0,8040f398 <__sfp+0xc4>
8040f37c:	02202021 	move	a0,s1
8040f380:	08103cbe 	j	8040f2f8 <__sfp+0x24>
8040f384:	00408021 	move	s0,v0
8040f388:	0c103c38 	jal	8040f0e0 <__sinit>
8040f38c:	02002021 	move	a0,s0
8040f390:	08103cbe 	j	8040f2f8 <__sfp+0x24>
8040f394:	261002e0 	addiu	s0,s0,736
8040f398:	0c103c98 	jal	8040f260 <__sfmoreglue>
8040f39c:	24050004 	li	a1,4
8040f3a0:	1440fff7 	bnez	v0,8040f380 <__sfp+0xac>
8040f3a4:	ae020000 	sw	v0,0(s0)
8040f3a8:	2402000c 	li	v0,12
8040f3ac:	ae220000 	sw	v0,0(s1)
8040f3b0:	08103cd7 	j	8040f35c <__sfp+0x88>
8040f3b4:	00002021 	move	a0,zero
	...

8040f3c0 <_fwalk_reent>:
8040f3c0:	27bdffc8 	addiu	sp,sp,-56
8040f3c4:	afb30020 	sw	s3,32(sp)
8040f3c8:	249302e0 	addiu	s3,a0,736
8040f3cc:	afb70030 	sw	s7,48(sp)
8040f3d0:	afb6002c 	sw	s6,44(sp)
8040f3d4:	afbf0034 	sw	ra,52(sp)
8040f3d8:	afb50028 	sw	s5,40(sp)
8040f3dc:	afb40024 	sw	s4,36(sp)
8040f3e0:	afb2001c 	sw	s2,28(sp)
8040f3e4:	afb10018 	sw	s1,24(sp)
8040f3e8:	afb00014 	sw	s0,20(sp)
8040f3ec:	0080b021 	move	s6,a0
8040f3f0:	0c103c7d 	jal	8040f1f4 <__sfp_lock_acquire>
8040f3f4:	00a0b821 	move	s7,a1
8040f3f8:	12600023 	beqz	s3,8040f488 <_fwalk_reent+0xc8>
8040f3fc:	0000a021 	move	s4,zero
8040f400:	2415ffff 	li	s5,-1
8040f404:	8e720004 	lw	s2,4(s3)
8040f408:	1a40000e 	blez	s2,8040f444 <_fwalk_reent+0x84>
8040f40c:	8e700008 	lw	s0,8(s3)
8040f410:	00008821 	move	s1,zero
8040f414:	8602000c 	lh	v0,12(s0)
8040f418:	10400008 	beqz	v0,8040f43c <_fwalk_reent+0x7c>
8040f41c:	26310001 	addiu	s1,s1,1
8040f420:	8602000e 	lh	v0,14(s0)
8040f424:	02002821 	move	a1,s0
8040f428:	10550004 	beq	v0,s5,8040f43c <_fwalk_reent+0x7c>
8040f42c:	02c02021 	move	a0,s6
8040f430:	02e0f809 	jalr	s7
8040f434:	00000000 	nop
8040f438:	0282a025 	or	s4,s4,v0
8040f43c:	1632fff5 	bne	s1,s2,8040f414 <_fwalk_reent+0x54>
8040f440:	2610005c 	addiu	s0,s0,92
8040f444:	8e730000 	lw	s3,0(s3)
8040f448:	1660ffee 	bnez	s3,8040f404 <_fwalk_reent+0x44>
8040f44c:	00000000 	nop
8040f450:	0c103c7f 	jal	8040f1fc <__sfp_lock_release>
8040f454:	00000000 	nop
8040f458:	8fbf0034 	lw	ra,52(sp)
8040f45c:	02801021 	move	v0,s4
8040f460:	8fb70030 	lw	s7,48(sp)
8040f464:	8fb6002c 	lw	s6,44(sp)
8040f468:	8fb50028 	lw	s5,40(sp)
8040f46c:	8fb40024 	lw	s4,36(sp)
8040f470:	8fb30020 	lw	s3,32(sp)
8040f474:	8fb2001c 	lw	s2,28(sp)
8040f478:	8fb10018 	lw	s1,24(sp)
8040f47c:	8fb00014 	lw	s0,20(sp)
8040f480:	03e00008 	jr	ra
8040f484:	27bd0038 	addiu	sp,sp,56
8040f488:	0c103c7f 	jal	8040f1fc <__sfp_lock_release>
8040f48c:	00000000 	nop
8040f490:	8fbf0034 	lw	ra,52(sp)
8040f494:	02801021 	move	v0,s4
8040f498:	8fb70030 	lw	s7,48(sp)
8040f49c:	8fb6002c 	lw	s6,44(sp)
8040f4a0:	8fb50028 	lw	s5,40(sp)
8040f4a4:	8fb40024 	lw	s4,36(sp)
8040f4a8:	8fb30020 	lw	s3,32(sp)
8040f4ac:	8fb2001c 	lw	s2,28(sp)
8040f4b0:	8fb10018 	lw	s1,24(sp)
8040f4b4:	8fb00014 	lw	s0,20(sp)
8040f4b8:	03e00008 	jr	ra
8040f4bc:	27bd0038 	addiu	sp,sp,56

8040f4c0 <_fwalk>:
8040f4c0:	27bdffd0 	addiu	sp,sp,-48
8040f4c4:	afb3001c 	sw	s3,28(sp)
8040f4c8:	249302e0 	addiu	s3,a0,736
8040f4cc:	afb60028 	sw	s6,40(sp)
8040f4d0:	afbf002c 	sw	ra,44(sp)
8040f4d4:	afb50024 	sw	s5,36(sp)
8040f4d8:	afb40020 	sw	s4,32(sp)
8040f4dc:	afb20018 	sw	s2,24(sp)
8040f4e0:	afb10014 	sw	s1,20(sp)
8040f4e4:	afb00010 	sw	s0,16(sp)
8040f4e8:	0c103c7d 	jal	8040f1f4 <__sfp_lock_acquire>
8040f4ec:	00a0b021 	move	s6,a1
8040f4f0:	12600021 	beqz	s3,8040f578 <_fwalk+0xb8>
8040f4f4:	0000a021 	move	s4,zero
8040f4f8:	2415ffff 	li	s5,-1
8040f4fc:	8e720004 	lw	s2,4(s3)
8040f500:	1a40000d 	blez	s2,8040f538 <_fwalk+0x78>
8040f504:	8e700008 	lw	s0,8(s3)
8040f508:	00008821 	move	s1,zero
8040f50c:	8602000c 	lh	v0,12(s0)
8040f510:	10400007 	beqz	v0,8040f530 <_fwalk+0x70>
8040f514:	26310001 	addiu	s1,s1,1
8040f518:	8602000e 	lh	v0,14(s0)
8040f51c:	10550004 	beq	v0,s5,8040f530 <_fwalk+0x70>
8040f520:	02002021 	move	a0,s0
8040f524:	02c0f809 	jalr	s6
8040f528:	00000000 	nop
8040f52c:	0282a025 	or	s4,s4,v0
8040f530:	1632fff6 	bne	s1,s2,8040f50c <_fwalk+0x4c>
8040f534:	2610005c 	addiu	s0,s0,92
8040f538:	8e730000 	lw	s3,0(s3)
8040f53c:	1660ffef 	bnez	s3,8040f4fc <_fwalk+0x3c>
8040f540:	00000000 	nop
8040f544:	0c103c7f 	jal	8040f1fc <__sfp_lock_release>
8040f548:	00000000 	nop
8040f54c:	8fbf002c 	lw	ra,44(sp)
8040f550:	02801021 	move	v0,s4
8040f554:	8fb60028 	lw	s6,40(sp)
8040f558:	8fb50024 	lw	s5,36(sp)
8040f55c:	8fb40020 	lw	s4,32(sp)
8040f560:	8fb3001c 	lw	s3,28(sp)
8040f564:	8fb20018 	lw	s2,24(sp)
8040f568:	8fb10014 	lw	s1,20(sp)
8040f56c:	8fb00010 	lw	s0,16(sp)
8040f570:	03e00008 	jr	ra
8040f574:	27bd0030 	addiu	sp,sp,48
8040f578:	0c103c7f 	jal	8040f1fc <__sfp_lock_release>
8040f57c:	00000000 	nop
8040f580:	8fbf002c 	lw	ra,44(sp)
8040f584:	02801021 	move	v0,s4
8040f588:	8fb60028 	lw	s6,40(sp)
8040f58c:	8fb50024 	lw	s5,36(sp)
8040f590:	8fb40020 	lw	s4,32(sp)
8040f594:	8fb3001c 	lw	s3,28(sp)
8040f598:	8fb20018 	lw	s2,24(sp)
8040f59c:	8fb10014 	lw	s1,20(sp)
8040f5a0:	8fb00010 	lw	s0,16(sp)
8040f5a4:	03e00008 	jr	ra
8040f5a8:	27bd0030 	addiu	sp,sp,48
8040f5ac:	00000000 	nop

8040f5b0 <gmtime_r>:
8040f5b0:	08103edd 	j	8040fb74 <_mktm_r>
8040f5b4:	24060001 	li	a2,1
	...

8040f5c0 <memcpy>:
8040f5c0:	00a41025 	or	v0,a1,a0
8040f5c4:	30420003 	andi	v0,v0,0x3
8040f5c8:	00806021 	move	t4,a0
8040f5cc:	1440002f 	bnez	v0,8040f68c <memcpy+0xcc>
8040f5d0:	00a05821 	move	t3,a1
8040f5d4:	00065102 	srl	t2,a2,0x4
8040f5d8:	00804021 	move	t0,a0
8040f5dc:	30c6000f 	andi	a2,a2,0xf
8040f5e0:	11400011 	beqz	t2,8040f628 <memcpy+0x68>
8040f5e4:	00a03821 	move	a3,a1
8040f5e8:	01404821 	move	t1,t2
8040f5ec:	8ce30004 	lw	v1,4(a3)
8040f5f0:	8ce40008 	lw	a0,8(a3)
8040f5f4:	8ce5000c 	lw	a1,12(a3)
8040f5f8:	8ce20000 	lw	v0,0(a3)
8040f5fc:	2529ffff 	addiu	t1,t1,-1
8040f600:	ad020000 	sw	v0,0(t0)
8040f604:	ad030004 	sw	v1,4(t0)
8040f608:	ad040008 	sw	a0,8(t0)
8040f60c:	ad05000c 	sw	a1,12(t0)
8040f610:	24e70010 	addiu	a3,a3,16
8040f614:	1520fff5 	bnez	t1,8040f5ec <memcpy+0x2c>
8040f618:	25080010 	addiu	t0,t0,16
8040f61c:	000a1100 	sll	v0,t2,0x4
8040f620:	01623821 	addu	a3,t3,v0
8040f624:	01824021 	addu	t0,t4,v0
8040f628:	00064882 	srl	t1,a2,0x2
8040f62c:	1120000d 	beqz	t1,8040f664 <memcpy+0xa4>
8040f630:	30c60003 	andi	a2,a2,0x3
8040f634:	01002821 	move	a1,t0
8040f638:	00e02021 	move	a0,a3
8040f63c:	01201821 	move	v1,t1
8040f640:	8c820000 	lw	v0,0(a0)
8040f644:	2463ffff 	addiu	v1,v1,-1
8040f648:	aca20000 	sw	v0,0(a1)
8040f64c:	24840004 	addiu	a0,a0,4
8040f650:	1460fffb 	bnez	v1,8040f640 <memcpy+0x80>
8040f654:	24a50004 	addiu	a1,a1,4
8040f658:	00091080 	sll	v0,t1,0x2
8040f65c:	01024021 	addu	t0,t0,v0
8040f660:	00e23821 	addu	a3,a3,v0
8040f664:	10c00007 	beqz	a2,8040f684 <memcpy+0xc4>
8040f668:	00002821 	move	a1,zero
8040f66c:	00e51021 	addu	v0,a3,a1
8040f670:	90440000 	lbu	a0,0(v0)
8040f674:	01051821 	addu	v1,t0,a1
8040f678:	24a50001 	addiu	a1,a1,1
8040f67c:	14a6fffb 	bne	a1,a2,8040f66c <memcpy+0xac>
8040f680:	a0640000 	sb	a0,0(v1)
8040f684:	03e00008 	jr	ra
8040f688:	01801021 	move	v0,t4
8040f68c:	00a04021 	move	t0,a1
8040f690:	00803821 	move	a3,a0
8040f694:	04c00027 	bltz	a2,8040f734 <memcpy+0x174>
8040f698:	00c01821 	move	v1,a2
8040f69c:	3c028000 	lui	v0,0x8000
8040f6a0:	34420003 	ori	v0,v0,0x3
8040f6a4:	00c23024 	and	a2,a2,v0
8040f6a8:	04c0001b 	bltz	a2,8040f718 <memcpy+0x158>
8040f6ac:	00034883 	sra	t1,v1,0x2
8040f6b0:	1120000f 	beqz	t1,8040f6f0 <memcpy+0x130>
8040f6b4:	00000000 	nop
8040f6b8:	01602821 	move	a1,t3
8040f6bc:	01802021 	move	a0,t4
8040f6c0:	01201821 	move	v1,t1
8040f6c4:	2463ffff 	addiu	v1,v1,-1
8040f6c8:	88a20000 	lwl	v0,0(a1)
8040f6cc:	98a20003 	lwr	v0,3(a1)
8040f6d0:	24a50004 	addiu	a1,a1,4
8040f6d4:	a8820000 	swl	v0,0(a0)
8040f6d8:	b8820003 	swr	v0,3(a0)
8040f6dc:	1460fff9 	bnez	v1,8040f6c4 <memcpy+0x104>
8040f6e0:	24840004 	addiu	a0,a0,4
8040f6e4:	00091080 	sll	v0,t1,0x2
8040f6e8:	01624021 	addu	t0,t3,v0
8040f6ec:	01823821 	addu	a3,t4,v0
8040f6f0:	18c0ffe4 	blez	a2,8040f684 <memcpy+0xc4>
8040f6f4:	00002821 	move	a1,zero
8040f6f8:	01051021 	addu	v0,t0,a1
8040f6fc:	90440000 	lbu	a0,0(v0)
8040f700:	00e51821 	addu	v1,a3,a1
8040f704:	24a50001 	addiu	a1,a1,1
8040f708:	14a6fffb 	bne	a1,a2,8040f6f8 <memcpy+0x138>
8040f70c:	a0640000 	sb	a0,0(v1)
8040f710:	03e00008 	jr	ra
8040f714:	01801021 	move	v0,t4
8040f718:	24c6ffff 	addiu	a2,a2,-1
8040f71c:	2402fffc 	li	v0,-4
8040f720:	00c23025 	or	a2,a2,v0
8040f724:	1520ffe4 	bnez	t1,8040f6b8 <memcpy+0xf8>
8040f728:	24c60001 	addiu	a2,a2,1
8040f72c:	08103dbc 	j	8040f6f0 <memcpy+0x130>
8040f730:	00000000 	nop
8040f734:	3c028000 	lui	v0,0x8000
8040f738:	34420003 	ori	v0,v0,0x3
8040f73c:	24c30003 	addiu	v1,a2,3
8040f740:	00c23024 	and	a2,a2,v0
8040f744:	04c1ffda 	bgez	a2,8040f6b0 <memcpy+0xf0>
8040f748:	00034883 	sra	t1,v1,0x2
8040f74c:	08103dc7 	j	8040f71c <memcpy+0x15c>
8040f750:	24c6ffff 	addiu	a2,a2,-1
	...

8040f760 <memset>:
8040f760:	2cc20010 	sltiu	v0,a2,16
8040f764:	00804821 	move	t1,a0
8040f768:	1440002d 	bnez	v0,8040f820 <memset+0xc0>
8040f76c:	00804021 	move	t0,a0
8040f770:	30870003 	andi	a3,a0,0x3
8040f774:	10e0000e 	beqz	a3,8040f7b0 <memset+0x50>
8040f778:	24820004 	addiu	v0,a0,4
8040f77c:	00052600 	sll	a0,a1,0x18
8040f780:	00471023 	subu	v0,v0,a3
8040f784:	00042603 	sra	a0,a0,0x18
8040f788:	01201821 	move	v1,t1
8040f78c:	a0640000 	sb	a0,0(v1)
8040f790:	24630001 	addiu	v1,v1,1
8040f794:	1462fffd 	bne	v1,v0,8040f78c <memset+0x2c>
8040f798:	00000000 	nop
8040f79c:	00071027 	nor	v0,zero,a3
8040f7a0:	24c3fffb 	addiu	v1,a2,-5
8040f7a4:	24440005 	addiu	a0,v0,5
8040f7a8:	00623023 	subu	a2,v1,v0
8040f7ac:	01244021 	addu	t0,t1,a0
8040f7b0:	30a500ff 	andi	a1,a1,0xff
8040f7b4:	01003821 	move	a3,t0
8040f7b8:	10a00005 	beqz	a1,8040f7d0 <memset+0x70>
8040f7bc:	00a01821 	move	v1,a1
8040f7c0:	00051200 	sll	v0,a1,0x8
8040f7c4:	00451025 	or	v0,v0,a1
8040f7c8:	00021c00 	sll	v1,v0,0x10
8040f7cc:	00621825 	or	v1,v1,v0
8040f7d0:	000610c2 	srl	v0,a2,0x3
8040f7d4:	1040001c 	beqz	v0,8040f848 <memset+0xe8>
8040f7d8:	30c60007 	andi	a2,a2,0x7
8040f7dc:	01002021 	move	a0,t0
8040f7e0:	00403821 	move	a3,v0
8040f7e4:	24e7ffff 	addiu	a3,a3,-1
8040f7e8:	ac830000 	sw	v1,0(a0)
8040f7ec:	ac830004 	sw	v1,4(a0)
8040f7f0:	14e0fffc 	bnez	a3,8040f7e4 <memset+0x84>
8040f7f4:	24840008 	addiu	a0,a0,8
8040f7f8:	000210c0 	sll	v0,v0,0x3
8040f7fc:	01023821 	addu	a3,t0,v0
8040f800:	00e02021 	move	a0,a3
8040f804:	2cc20004 	sltiu	v0,a2,4
8040f808:	14400005 	bnez	v0,8040f820 <memset+0xc0>
8040f80c:	00804021 	move	t0,a0
8040f810:	ace30000 	sw	v1,0(a3)
8040f814:	24e40004 	addiu	a0,a3,4
8040f818:	24c6fffc 	addiu	a2,a2,-4
8040f81c:	00804021 	move	t0,a0
8040f820:	10c00007 	beqz	a2,8040f840 <memset+0xe0>
8040f824:	00000000 	nop
8040f828:	00051600 	sll	v0,a1,0x18
8040f82c:	00021603 	sra	v0,v0,0x18
8040f830:	24c6ffff 	addiu	a2,a2,-1
8040f834:	a1020000 	sb	v0,0(t0)
8040f838:	14c0fffd 	bnez	a2,8040f830 <memset+0xd0>
8040f83c:	25080001 	addiu	t0,t0,1
8040f840:	03e00008 	jr	ra
8040f844:	01201021 	move	v0,t1
8040f848:	08103e01 	j	8040f804 <memset+0xa4>
8040f84c:	01002021 	move	a0,t0

8040f850 <__tzcalc_limits>:
8040f850:	27bdffd0 	addiu	sp,sp,-48
8040f854:	afb00010 	sw	s0,16(sp)
8040f858:	afbf002c 	sw	ra,44(sp)
8040f85c:	00808021 	move	s0,a0
8040f860:	afb60028 	sw	s6,40(sp)
8040f864:	afb50024 	sw	s5,36(sp)
8040f868:	afb40020 	sw	s4,32(sp)
8040f86c:	afb3001c 	sw	s3,28(sp)
8040f870:	afb20018 	sw	s2,24(sp)
8040f874:	0c104374 	jal	80410dd0 <__gettzinfo>
8040f878:	afb10014 	sw	s1,20(sp)
8040f87c:	00407821 	move	t7,v0
8040f880:	2a0207b2 	slti	v0,s0,1970
8040f884:	14400099 	bnez	v0,8040faec <__tzcalc_limits+0x29c>
8040f888:	3c0751eb 	lui	a3,0x51eb
8040f88c:	34e7851f 	ori	a3,a3,0x851f
8040f890:	02070018 	mult	s0,a3
8040f894:	00104fc3 	sra	t1,s0,0x1f
8040f898:	00002010 	mfhi	a0
8040f89c:	260af893 	addiu	t2,s0,-1901
8040f8a0:	000411c3 	sra	v0,a0,0x7
8040f8a4:	00494023 	subu	t0,v0,t1
8040f8a8:	01470018 	mult	t2,a3
8040f8ac:	2603f84e 	addiu	v1,s0,-1970
8040f8b0:	00083180 	sll	a2,t0,0x6
8040f8b4:	260cf9bf 	addiu	t4,s0,-1601
8040f8b8:	00084100 	sll	t0,t0,0x4
8040f8bc:	01064021 	addu	t0,t0,a2
8040f8c0:	00031180 	sll	v0,v1,0x6
8040f8c4:	00005810 	mfhi	t3
8040f8c8:	000330c0 	sll	a2,v1,0x3
8040f8cc:	00042143 	sra	a0,a0,0x5
8040f8d0:	01870018 	mult	t4,a3
8040f8d4:	00894823 	subu	t1,a0,t1
8040f8d8:	00c23021 	addu	a2,a2,v0
8040f8dc:	00081080 	sll	v0,t0,0x2
8040f8e0:	00c33021 	addu	a2,a2,v1
8040f8e4:	01024021 	addu	t0,t0,v0
8040f8e8:	00091900 	sll	v1,t1,0x4
8040f8ec:	000b5943 	sra	t3,t3,0x5
8040f8f0:	000a57c3 	sra	t2,t2,0x1f
8040f8f4:	00094880 	sll	t1,t1,0x2
8040f8f8:	2602f84f 	addiu	v0,s0,-1969
8040f8fc:	00003810 	mfhi	a3
8040f900:	01234821 	addu	t1,t1,v1
8040f904:	014b5023 	subu	t2,t2,t3
8040f908:	00061880 	sll	v1,a2,0x2
8040f90c:	00021083 	sra	v0,v0,0x2
8040f910:	02084023 	subu	t0,s0,t0
8040f914:	004a1021 	addu	v0,v0,t2
8040f918:	00c33021 	addu	a2,a2,v1
8040f91c:	000c67c3 	sra	t4,t4,0x1f
8040f920:	2d030001 	sltiu	v1,t0,1
8040f924:	000739c3 	sra	a3,a3,0x7
8040f928:	00461021 	addu	v0,v0,a2
8040f92c:	00ec3823 	subu	a3,a3,t4
8040f930:	00032980 	sll	a1,v1,0x6
8040f934:	00031900 	sll	v1,v1,0x4
8040f938:	00092080 	sll	a0,t1,0x2
8040f93c:	0047c021 	addu	t8,v0,a3
8040f940:	00a3c823 	subu	t9,a1,v1
8040f944:	3c028041 	lui	v0,0x8041
8040f948:	3c039249 	lui	v1,0x9249
8040f94c:	01244821 	addu	t1,t1,a0
8040f950:	24532fe0 	addiu	s3,v0,12256
8040f954:	34742493 	ori	s4,v1,0x2493
8040f958:	3c022492 	lui	v0,0x2492
8040f95c:	3c030001 	lui	v1,0x1
8040f960:	adf00004 	sw	s0,4(t7)
8040f964:	02094823 	subu	t1,s0,t1
8040f968:	320a0003 	andi	t2,s0,0x3
8040f96c:	34564925 	ori	s6,v0,0x4925
8040f970:	34715180 	ori	s1,v1,0x5180
8040f974:	01e06821 	move	t5,t7
8040f978:	00007021 	move	t6,zero
8040f97c:	241f004a 	li	ra,74
8040f980:	24120044 	li	s2,68
8040f984:	24150001 	li	s5,1
8040f988:	240c0002 	li	t4,2
8040f98c:	81a20008 	lb	v0,8(t5)
8040f990:	105f0062 	beq	v0,ra,8040fb1c <__tzcalc_limits+0x2cc>
8040f994:	00000000 	nop
8040f998:	10520069 	beq	v0,s2,8040fb40 <__tzcalc_limits+0x2f0>
8040f99c:	00000000 	nop
8040f9a0:	1140004e 	beqz	t2,8040fadc <__tzcalc_limits+0x28c>
8040f9a4:	00000000 	nop
8040f9a8:	03203821 	move	a3,t9
8040f9ac:	8da6000c 	lw	a2,12(t5)
8040f9b0:	28c20002 	slti	v0,a2,2
8040f9b4:	1440006c 	bnez	v0,8040fb68 <__tzcalc_limits+0x318>
8040f9b8:	02678021 	addu	s0,s3,a3
8040f9bc:	02002821 	move	a1,s0
8040f9c0:	03005821 	move	t3,t8
8040f9c4:	24040001 	li	a0,1
8040f9c8:	8ca20000 	lw	v0,0(a1)
8040f9cc:	24840001 	addiu	a0,a0,1
8040f9d0:	0086182a 	slt	v1,a0,a2
8040f9d4:	01625821 	addu	t3,t3,v0
8040f9d8:	1460fffb 	bnez	v1,8040f9c8 <__tzcalc_limits+0x178>
8040f9dc:	24a50004 	addiu	a1,a1,4
8040f9e0:	00d51023 	subu	v0,a2,s5
8040f9e4:	00023880 	sll	a3,v0,0x2
8040f9e8:	25650004 	addiu	a1,t3,4
8040f9ec:	00b40018 	mult	a1,s4
8040f9f0:	000537c3 	sra	a2,a1,0x1f
8040f9f4:	00001010 	mfhi	v0
8040f9f8:	02073821 	addu	a3,s0,a3
8040f9fc:	00a21021 	addu	v0,a1,v0
8040fa00:	00021083 	sra	v0,v0,0x2
8040fa04:	00461023 	subu	v0,v0,a2
8040fa08:	000220c0 	sll	a0,v0,0x3
8040fa0c:	00822023 	subu	a0,a0,v0
8040fa10:	8da60010 	lw	a2,16(t5)
8040fa14:	8da20014 	lw	v0,20(t5)
8040fa18:	00a42823 	subu	a1,a1,a0
8040fa1c:	00451023 	subu	v0,v0,a1
8040fa20:	000620c0 	sll	a0,a2,0x3
8040fa24:	28430000 	slti	v1,v0,0
8040fa28:	00862023 	subu	a0,a0,a2
8040fa2c:	24450007 	addiu	a1,v0,7
8040fa30:	00a3100b 	movn	v0,a1,v1
8040fa34:	2484fff9 	addiu	a0,a0,-7
8040fa38:	8ce70000 	lw	a3,0(a3)
8040fa3c:	00822021 	addu	a0,a0,v0
8040fa40:	0087182a 	slt	v1,a0,a3
8040fa44:	1460000b 	bnez	v1,8040fa74 <__tzcalc_limits+0x224>
8040fa48:	00871823 	subu	v1,a0,a3
8040fa4c:	00760019 	multu	v1,s6
8040fa50:	2484fff9 	addiu	a0,a0,-7
8040fa54:	00001010 	mfhi	v0
8040fa58:	00621823 	subu	v1,v1,v0
8040fa5c:	00031842 	srl	v1,v1,0x1
8040fa60:	00431021 	addu	v0,v0,v1
8040fa64:	00021082 	srl	v0,v0,0x2
8040fa68:	000218c0 	sll	v1,v0,0x3
8040fa6c:	00431023 	subu	v0,v0,v1
8040fa70:	00442021 	addu	a0,v0,a0
8040fa74:	008b2021 	addu	a0,a0,t3
8040fa78:	8da30018 	lw	v1,24(t5)
8040fa7c:	8da20020 	lw	v0,32(t5)
8040fa80:	25ce0001 	addiu	t6,t6,1
8040fa84:	00431021 	addu	v0,v0,v1
8040fa88:	70911802 	mul	v1,a0,s1
8040fa8c:	00621021 	addu	v0,v1,v0
8040fa90:	ada2001c 	sw	v0,28(t5)
8040fa94:	15ccffbd 	bne	t6,t4,8040f98c <__tzcalc_limits+0x13c>
8040fa98:	25ad001c 	addiu	t5,t5,28
8040fa9c:	8de2001c 	lw	v0,28(t7)
8040faa0:	8de30038 	lw	v1,56(t7)
8040faa4:	8fbf002c 	lw	ra,44(sp)
8040faa8:	0043102a 	slt	v0,v0,v1
8040faac:	24040001 	li	a0,1
8040fab0:	ade20000 	sw	v0,0(t7)
8040fab4:	8fb60028 	lw	s6,40(sp)
8040fab8:	00801021 	move	v0,a0
8040fabc:	8fb50024 	lw	s5,36(sp)
8040fac0:	8fb40020 	lw	s4,32(sp)
8040fac4:	8fb3001c 	lw	s3,28(sp)
8040fac8:	8fb20018 	lw	s2,24(sp)
8040facc:	8fb10014 	lw	s1,20(sp)
8040fad0:	8fb00010 	lw	s0,16(sp)
8040fad4:	03e00008 	jr	ra
8040fad8:	27bd0030 	addiu	sp,sp,48
8040fadc:	1120ffb2 	beqz	t1,8040f9a8 <__tzcalc_limits+0x158>
8040fae0:	24070030 	li	a3,48
8040fae4:	08103e6c 	j	8040f9b0 <__tzcalc_limits+0x160>
8040fae8:	8da6000c 	lw	a2,12(t5)
8040faec:	8fbf002c 	lw	ra,44(sp)
8040faf0:	00002021 	move	a0,zero
8040faf4:	00801021 	move	v0,a0
8040faf8:	8fb60028 	lw	s6,40(sp)
8040fafc:	8fb50024 	lw	s5,36(sp)
8040fb00:	8fb40020 	lw	s4,32(sp)
8040fb04:	8fb3001c 	lw	s3,28(sp)
8040fb08:	8fb20018 	lw	s2,24(sp)
8040fb0c:	8fb10014 	lw	s1,20(sp)
8040fb10:	8fb00010 	lw	s0,16(sp)
8040fb14:	03e00008 	jr	ra
8040fb18:	27bd0030 	addiu	sp,sp,48
8040fb1c:	1140000b 	beqz	t2,8040fb4c <__tzcalc_limits+0x2fc>
8040fb20:	8da40014 	lw	a0,20(t5)
8040fb24:	1500000d 	bnez	t0,8040fb5c <__tzcalc_limits+0x30c>
8040fb28:	00001821 	move	v1,zero
8040fb2c:	2882003c 	slti	v0,a0,60
8040fb30:	38430001 	xori	v1,v0,0x1
8040fb34:	03041021 	addu	v0,t8,a0
8040fb38:	08103e9e 	j	8040fa78 <__tzcalc_limits+0x228>
8040fb3c:	00432021 	addu	a0,v0,v1
8040fb40:	8da20014 	lw	v0,20(t5)
8040fb44:	08103e9e 	j	8040fa78 <__tzcalc_limits+0x228>
8040fb48:	03022021 	addu	a0,t8,v0
8040fb4c:	1120fff5 	beqz	t1,8040fb24 <__tzcalc_limits+0x2d4>
8040fb50:	2882003c 	slti	v0,a0,60
8040fb54:	08103ecd 	j	8040fb34 <__tzcalc_limits+0x2e4>
8040fb58:	38430001 	xori	v1,v0,0x1
8040fb5c:	03041021 	addu	v0,t8,a0
8040fb60:	08103e9e 	j	8040fa78 <__tzcalc_limits+0x228>
8040fb64:	00432021 	addu	a0,v0,v1
8040fb68:	03005821 	move	t3,t8
8040fb6c:	08103e7a 	j	8040f9e8 <__tzcalc_limits+0x198>
8040fb70:	00003821 	move	a3,zero

8040fb74 <_mktm_r>:
8040fb74:	27bdffd0 	addiu	sp,sp,-48
8040fb78:	afb40024 	sw	s4,36(sp)
8040fb7c:	0080a021 	move	s4,a0
8040fb80:	afb50028 	sw	s5,40(sp)
8040fb84:	afb30020 	sw	s3,32(sp)
8040fb88:	afb10018 	sw	s1,24(sp)
8040fb8c:	00c0a821 	move	s5,a2
8040fb90:	00a08821 	move	s1,a1
8040fb94:	afbf002c 	sw	ra,44(sp)
8040fb98:	afb2001c 	sw	s2,28(sp)
8040fb9c:	0c104374 	jal	80410dd0 <__gettzinfo>
8040fba0:	afb00014 	sw	s0,20(sp)
8040fba4:	8e840000 	lw	a0,0(s4)
8040fba8:	3c03c22e 	lui	v1,0xc22e
8040fbac:	34664507 	ori	a2,v1,0x4507
8040fbb0:	00860018 	mult	a0,a2
8040fbb4:	00409821 	move	s3,v0
8040fbb8:	00001010 	mfhi	v0
8040fbbc:	00042fc3 	sra	a1,a0,0x1f
8040fbc0:	00441021 	addu	v0,v0,a0
8040fbc4:	00021403 	sra	v0,v0,0x10
8040fbc8:	3c030001 	lui	v1,0x1
8040fbcc:	00455823 	subu	t3,v0,a1
8040fbd0:	34635180 	ori	v1,v1,0x5180
8040fbd4:	71631002 	mul	v0,t3,v1
8040fbd8:	00822823 	subu	a1,a0,v0
8040fbdc:	04a10009 	bgez	a1,8040fc04 <_mktm_r+0x90>
8040fbe0:	00051027 	nor	v0,zero,a1
8040fbe4:	00460019 	multu	v0,a2
8040fbe8:	00a32021 	addu	a0,a1,v1
8040fbec:	00001010 	mfhi	v0
8040fbf0:	00021402 	srl	v0,v0,0x10
8040fbf4:	70433002 	mul	a2,v0,v1
8040fbf8:	2563ffff 	addiu	v1,t3,-1
8040fbfc:	00c42821 	addu	a1,a2,a0
8040fc00:	00625823 	subu	t3,v1,v0
8040fc04:	3c020001 	lui	v0,0x1
8040fc08:	34425180 	ori	v0,v0,0x5180
8040fc0c:	00a2182a 	slt	v1,a1,v0
8040fc10:	1460000c 	bnez	v1,8040fc44 <_mktm_r+0xd0>
8040fc14:	3c03c22e 	lui	v1,0xc22e
8040fc18:	00a22823 	subu	a1,a1,v0
8040fc1c:	34634507 	ori	v1,v1,0x4507
8040fc20:	00a30019 	multu	a1,v1
8040fc24:	3c02fffe 	lui	v0,0xfffe
8040fc28:	00001810 	mfhi	v1
8040fc2c:	3442ae80 	ori	v0,v0,0xae80
8040fc30:	00031c02 	srl	v1,v1,0x10
8040fc34:	70623002 	mul	a2,v1,v0
8040fc38:	25640001 	addiu	a0,t3,1
8040fc3c:	00c52821 	addu	a1,a2,a1
8040fc40:	00835821 	addu	t3,a0,v1
8040fc44:	3c0791a2 	lui	a3,0x91a2
8040fc48:	34e7b3c5 	ori	a3,a3,0xb3c5
8040fc4c:	00a70018 	mult	a1,a3
8040fc50:	00051fc3 	sra	v1,a1,0x1f
8040fc54:	00003810 	mfhi	a3
8040fc58:	3c048888 	lui	a0,0x8888
8040fc5c:	00e53821 	addu	a3,a3,a1
8040fc60:	00073ac3 	sra	a3,a3,0xb
8040fc64:	00e33823 	subu	a3,a3,v1
8040fc68:	00071900 	sll	v1,a3,0x4
8040fc6c:	00071200 	sll	v0,a3,0x8
8040fc70:	00431023 	subu	v0,v0,v1
8040fc74:	00023100 	sll	a2,v0,0x4
8040fc78:	00c23023 	subu	a2,a2,v0
8040fc7c:	00a63023 	subu	a2,a1,a2
8040fc80:	34848889 	ori	a0,a0,0x8889
8040fc84:	00c40018 	mult	a2,a0
8040fc88:	3c029249 	lui	v0,0x9249
8040fc8c:	25690004 	addiu	t1,t3,4
8040fc90:	34422493 	ori	v0,v0,0x2493
8040fc94:	00002010 	mfhi	a0
8040fc98:	01220018 	mult	t1,v0
8040fc9c:	00862021 	addu	a0,a0,a2
8040fca0:	00001010 	mfhi	v0
8040fca4:	00062fc3 	sra	a1,a2,0x1f
8040fca8:	01221021 	addu	v0,t1,v0
8040fcac:	00021083 	sra	v0,v0,0x2
8040fcb0:	00042143 	sra	a0,a0,0x5
8040fcb4:	000947c3 	sra	t0,t1,0x1f
8040fcb8:	00484023 	subu	t0,v0,t0
8040fcbc:	00852023 	subu	a0,a0,a1
8040fcc0:	000818c0 	sll	v1,t0,0x3
8040fcc4:	00042980 	sll	a1,a0,0x6
8040fcc8:	00041080 	sll	v0,a0,0x2
8040fccc:	00a22823 	subu	a1,a1,v0
8040fcd0:	00681823 	subu	v1,v1,t0
8040fcd4:	00c53023 	subu	a2,a2,a1
8040fcd8:	01234023 	subu	t0,t1,v1
8040fcdc:	01605021 	move	t2,t3
8040fce0:	ae260000 	sw	a2,0(s1)
8040fce4:	ae270008 	sw	a3,8(s1)
8040fce8:	ae240004 	sw	a0,4(s1)
8040fcec:	05000055 	bltz	t0,8040fe44 <_mktm_r+0x2d0>
8040fcf0:	ae280018 	sw	t0,24(s1)
8040fcf4:	05600056 	bltz	t3,8040fe50 <_mktm_r+0x2dc>
8040fcf8:	00000000 	nop
8040fcfc:	3c028041 	lui	v0,0x8041
8040fd00:	24473040 	addiu	a3,v0,12352
8040fd04:	3c0251eb 	lui	v0,0x51eb
8040fd08:	3448851f 	ori	t0,v0,0x851f
8040fd0c:	08103f57 	j	8040fd5c <_mktm_r+0x1e8>
8040fd10:	241007b2 	li	s0,1970
8040fd14:	00001010 	mfhi	v0
8040fd18:	000211c3 	sra	v0,v0,0x7
8040fd1c:	00461023 	subu	v0,v0,a2
8040fd20:	00022980 	sll	a1,v0,0x6
8040fd24:	00021100 	sll	v0,v0,0x4
8040fd28:	00451021 	addu	v0,v0,a1
8040fd2c:	00022080 	sll	a0,v0,0x2
8040fd30:	00441021 	addu	v0,v0,a0
8040fd34:	02021023 	subu	v0,s0,v0
8040fd38:	2c450001 	sltiu	a1,v0,1
8040fd3c:	00051080 	sll	v0,a1,0x2
8040fd40:	00e21021 	addu	v0,a3,v0
8040fd44:	8c420000 	lw	v0,0(v0)
8040fd48:	0142182a 	slt	v1,t2,v0
8040fd4c:	14600019 	bnez	v1,8040fdb4 <_mktm_r+0x240>
8040fd50:	00000000 	nop
8040fd54:	01425023 	subu	t2,t2,v0
8040fd58:	26100001 	addiu	s0,s0,1
8040fd5c:	02080018 	mult	s0,t0
8040fd60:	001037c3 	sra	a2,s0,0x1f
8040fd64:	00001010 	mfhi	v0
8040fd68:	00021143 	sra	v0,v0,0x5
8040fd6c:	00461023 	subu	v0,v0,a2
8040fd70:	00022900 	sll	a1,v0,0x4
8040fd74:	00021080 	sll	v0,v0,0x2
8040fd78:	00451021 	addu	v0,v0,a1
8040fd7c:	00022080 	sll	a0,v0,0x2
8040fd80:	32050003 	andi	a1,s0,0x3
8040fd84:	14a0ffe3 	bnez	a1,8040fd14 <_mktm_r+0x1a0>
8040fd88:	00441021 	addu	v0,v0,a0
8040fd8c:	1202ffe2 	beq	s0,v0,8040fd18 <_mktm_r+0x1a4>
8040fd90:	00001010 	mfhi	v0
8040fd94:	24050001 	li	a1,1
8040fd98:	00051080 	sll	v0,a1,0x2
8040fd9c:	00e21021 	addu	v0,a3,v0
8040fda0:	8c420000 	lw	v0,0(v0)
8040fda4:	0142182a 	slt	v1,t2,v0
8040fda8:	1060ffeb 	beqz	v1,8040fd58 <_mktm_r+0x1e4>
8040fdac:	01425023 	subu	t2,t2,v0
8040fdb0:	01425021 	addu	t2,t2,v0
8040fdb4:	00051100 	sll	v0,a1,0x4
8040fdb8:	00052180 	sll	a0,a1,0x6
8040fdbc:	00822023 	subu	a0,a0,v0
8040fdc0:	3c028041 	lui	v0,0x8041
8040fdc4:	24422fe0 	addiu	v0,v0,12256
8040fdc8:	2603f894 	addiu	v1,s0,-1900
8040fdcc:	00449021 	addu	s2,v0,a0
8040fdd0:	ae230014 	sw	v1,20(s1)
8040fdd4:	ae2a001c 	sw	t2,28(s1)
8040fdd8:	ae200010 	sw	zero,16(s1)
8040fddc:	8e440000 	lw	a0,0(s2)
8040fde0:	0144102a 	slt	v0,t2,a0
8040fde4:	14400009 	bnez	v0,8040fe0c <_mktm_r+0x298>
8040fde8:	00002821 	move	a1,zero
8040fdec:	02401821 	move	v1,s2
8040fdf0:	01445023 	subu	t2,t2,a0
8040fdf4:	8c640004 	lw	a0,4(v1)
8040fdf8:	24a50001 	addiu	a1,a1,1
8040fdfc:	0144102a 	slt	v0,t2,a0
8040fe00:	1040fffb 	beqz	v0,8040fdf0 <_mktm_r+0x27c>
8040fe04:	24630004 	addiu	v1,v1,4
8040fe08:	ae250010 	sw	a1,16(s1)
8040fe0c:	25420001 	addiu	v0,t2,1
8040fe10:	12a00036 	beqz	s5,8040feec <_mktm_r+0x378>
8040fe14:	ae22000c 	sw	v0,12(s1)
8040fe18:	8fbf002c 	lw	ra,44(sp)
8040fe1c:	02201021 	move	v0,s1
8040fe20:	ae200020 	sw	zero,32(s1)
8040fe24:	8fb50028 	lw	s5,40(sp)
8040fe28:	8fb40024 	lw	s4,36(sp)
8040fe2c:	8fb30020 	lw	s3,32(sp)
8040fe30:	8fb2001c 	lw	s2,28(sp)
8040fe34:	8fb10018 	lw	s1,24(sp)
8040fe38:	8fb00014 	lw	s0,20(sp)
8040fe3c:	03e00008 	jr	ra
8040fe40:	27bd0030 	addiu	sp,sp,48
8040fe44:	25020007 	addiu	v0,t0,7
8040fe48:	0561ffac 	bgez	t3,8040fcfc <_mktm_r+0x188>
8040fe4c:	ae220018 	sw	v0,24(s1)
8040fe50:	3c028041 	lui	v0,0x8041
8040fe54:	24473040 	addiu	a3,v0,12352
8040fe58:	3c0251eb 	lui	v0,0x51eb
8040fe5c:	3448851f 	ori	t0,v0,0x851f
8040fe60:	08103faa 	j	8040fea8 <_mktm_r+0x334>
8040fe64:	241007b2 	li	s0,1970
8040fe68:	00001010 	mfhi	v0
8040fe6c:	000211c3 	sra	v0,v0,0x7
8040fe70:	00461023 	subu	v0,v0,a2
8040fe74:	00022980 	sll	a1,v0,0x6
8040fe78:	00021100 	sll	v0,v0,0x4
8040fe7c:	00451021 	addu	v0,v0,a1
8040fe80:	00022080 	sll	a0,v0,0x2
8040fe84:	00441021 	addu	v0,v0,a0
8040fe88:	02021023 	subu	v0,s0,v0
8040fe8c:	2c450001 	sltiu	a1,v0,1
8040fe90:	00051080 	sll	v0,a1,0x2
8040fe94:	00e21021 	addu	v0,a3,v0
8040fe98:	8c430000 	lw	v1,0(v0)
8040fe9c:	01435021 	addu	t2,t2,v1
8040fea0:	0541ffc4 	bgez	t2,8040fdb4 <_mktm_r+0x240>
8040fea4:	00000000 	nop
8040fea8:	2610ffff 	addiu	s0,s0,-1
8040feac:	02080018 	mult	s0,t0
8040feb0:	001037c3 	sra	a2,s0,0x1f
8040feb4:	00001010 	mfhi	v0
8040feb8:	00021143 	sra	v0,v0,0x5
8040febc:	00461023 	subu	v0,v0,a2
8040fec0:	00022900 	sll	a1,v0,0x4
8040fec4:	00021080 	sll	v0,v0,0x2
8040fec8:	00451021 	addu	v0,v0,a1
8040fecc:	00022080 	sll	a0,v0,0x2
8040fed0:	32050003 	andi	a1,s0,0x3
8040fed4:	14a0ffe4 	bnez	a1,8040fe68 <_mktm_r+0x2f4>
8040fed8:	00441021 	addu	v0,v0,a0
8040fedc:	1202ffe3 	beq	s0,v0,8040fe6c <_mktm_r+0x2f8>
8040fee0:	00001010 	mfhi	v0
8040fee4:	08103fa4 	j	8040fe90 <_mktm_r+0x31c>
8040fee8:	24050001 	li	a1,1
8040feec:	0c1041d4 	jal	80410750 <__tz_lock>
8040fef0:	00000000 	nop
8040fef4:	3c028041 	lui	v0,0x8041
8040fef8:	8c434360 	lw	v1,17248(v0)
8040fefc:	10600010 	beqz	v1,8040ff40 <_mktm_r+0x3cc>
8040ff00:	00000000 	nop
8040ff04:	8e620004 	lw	v0,4(s3)
8040ff08:	10500005 	beq	v0,s0,8040ff20 <_mktm_r+0x3ac>
8040ff0c:	00000000 	nop
8040ff10:	0c103e14 	jal	8040f850 <__tzcalc_limits>
8040ff14:	02002021 	move	a0,s0
8040ff18:	10400095 	beqz	v0,80410170 <_mktm_r+0x5fc>
8040ff1c:	2402ffff 	li	v0,-1
8040ff20:	8e620000 	lw	v0,0(s3)
8040ff24:	1040008a 	beqz	v0,80410150 <_mktm_r+0x5dc>
8040ff28:	00000000 	nop
8040ff2c:	8e840000 	lw	a0,0(s4)
8040ff30:	8e62001c 	lw	v0,28(s3)
8040ff34:	0082102a 	slt	v0,a0,v0
8040ff38:	10400095 	beqz	v0,80410190 <_mktm_r+0x61c>
8040ff3c:	00000000 	nop
8040ff40:	ae200020 	sw	zero,32(s1)
8040ff44:	8e650020 	lw	a1,32(s3)
8040ff48:	3c0291a2 	lui	v0,0x91a2
8040ff4c:	3442b3c5 	ori	v0,v0,0xb3c5
8040ff50:	00a20018 	mult	a1,v0
8040ff54:	000527c3 	sra	a0,a1,0x1f
8040ff58:	00001010 	mfhi	v0
8040ff5c:	8e260000 	lw	a2,0(s1)
8040ff60:	00a21021 	addu	v0,a1,v0
8040ff64:	000212c3 	sra	v0,v0,0xb
8040ff68:	00444023 	subu	t0,v0,a0
8040ff6c:	00081900 	sll	v1,t0,0x4
8040ff70:	00081200 	sll	v0,t0,0x8
8040ff74:	00431023 	subu	v0,v0,v1
8040ff78:	00022100 	sll	a0,v0,0x4
8040ff7c:	00822023 	subu	a0,a0,v0
8040ff80:	3c028888 	lui	v0,0x8888
8040ff84:	01003821 	move	a3,t0
8040ff88:	34428889 	ori	v0,v0,0x8889
8040ff8c:	00a44023 	subu	t0,a1,a0
8040ff90:	01020018 	mult	t0,v0
8040ff94:	000827c3 	sra	a0,t0,0x1f
8040ff98:	00001010 	mfhi	v0
8040ff9c:	8e230004 	lw	v1,4(s1)
8040ffa0:	01021021 	addu	v0,t0,v0
8040ffa4:	00021143 	sra	v0,v0,0x5
8040ffa8:	00441023 	subu	v0,v0,a0
8040ffac:	00022880 	sll	a1,v0,0x2
8040ffb0:	00022180 	sll	a0,v0,0x6
8040ffb4:	00852023 	subu	a0,a0,a1
8040ffb8:	01042023 	subu	a0,t0,a0
8040ffbc:	8e280008 	lw	t0,8(s1)
8040ffc0:	00c43023 	subu	a2,a2,a0
8040ffc4:	01072823 	subu	a1,t0,a3
8040ffc8:	00621823 	subu	v1,v1,v0
8040ffcc:	28c4003c 	slti	a0,a2,60
8040ffd0:	ae260000 	sw	a2,0(s1)
8040ffd4:	ae230004 	sw	v1,4(s1)
8040ffd8:	ae250008 	sw	a1,8(s1)
8040ffdc:	14800034 	bnez	a0,804100b0 <_mktm_r+0x53c>
8040ffe0:	00a04021 	move	t0,a1
8040ffe4:	24630001 	addiu	v1,v1,1
8040ffe8:	24c2ffc4 	addiu	v0,a2,-60
8040ffec:	ae220000 	sw	v0,0(s1)
8040fff0:	ae230004 	sw	v1,4(s1)
8040fff4:	2862003c 	slti	v0,v1,60
8040fff8:	1440004e 	bnez	v0,80410134 <_mktm_r+0x5c0>
8040fffc:	2462ffc4 	addiu	v0,v1,-60
80410000:	24a80001 	addiu	t0,a1,1
80410004:	ae220004 	sw	v0,4(s1)
80410008:	ae280008 	sw	t0,8(s1)
8041000c:	29020018 	slti	v0,t0,24
80410010:	1440002e 	bnez	v0,804100cc <_mktm_r+0x558>
80410014:	00000000 	nop
80410018:	8e220018 	lw	v0,24(s1)
8041001c:	8e23001c 	lw	v1,28(s1)
80410020:	24420001 	addiu	v0,v0,1
80410024:	24630001 	addiu	v1,v1,1
80410028:	28440007 	slti	a0,v0,7
8041002c:	ae23001c 	sw	v1,28(s1)
80410030:	14800002 	bnez	a0,8041003c <_mktm_r+0x4c8>
80410034:	ae220018 	sw	v0,24(s1)
80410038:	ae200018 	sw	zero,24(s1)
8041003c:	8e22000c 	lw	v0,12(s1)
80410040:	8e240010 	lw	a0,16(s1)
80410044:	24450001 	addiu	a1,v0,1
80410048:	2503ffe8 	addiu	v1,t0,-24
8041004c:	00041080 	sll	v0,a0,0x2
80410050:	ae230008 	sw	v1,8(s1)
80410054:	02421021 	addu	v0,s2,v0
80410058:	ae25000c 	sw	a1,12(s1)
8041005c:	8c420000 	lw	v0,0(v0)
80410060:	0045182a 	slt	v1,v0,a1
80410064:	10600006 	beqz	v1,80410080 <_mktm_r+0x50c>
80410068:	00a21023 	subu	v0,a1,v0
8041006c:	24830001 	addiu	v1,a0,1
80410070:	ae22000c 	sw	v0,12(s1)
80410074:	2402000c 	li	v0,12
80410078:	1062004b 	beq	v1,v0,804101a8 <_mktm_r+0x634>
8041007c:	ae230010 	sw	v1,16(s1)
80410080:	0c1041d6 	jal	80410758 <__tz_unlock>
80410084:	00000000 	nop
80410088:	8fbf002c 	lw	ra,44(sp)
8041008c:	02201021 	move	v0,s1
80410090:	8fb50028 	lw	s5,40(sp)
80410094:	8fb40024 	lw	s4,36(sp)
80410098:	8fb30020 	lw	s3,32(sp)
8041009c:	8fb2001c 	lw	s2,28(sp)
804100a0:	8fb10018 	lw	s1,24(sp)
804100a4:	8fb00014 	lw	s0,20(sp)
804100a8:	03e00008 	jr	ra
804100ac:	27bd0030 	addiu	sp,sp,48
804100b0:	04c1ffd1 	bgez	a2,8040fff8 <_mktm_r+0x484>
804100b4:	2862003c 	slti	v0,v1,60
804100b8:	2463ffff 	addiu	v1,v1,-1
804100bc:	24c2003c 	addiu	v0,a2,60
804100c0:	ae220000 	sw	v0,0(s1)
804100c4:	08103ffd 	j	8040fff4 <_mktm_r+0x480>
804100c8:	ae230004 	sw	v1,4(s1)
804100cc:	0501ffec 	bgez	t0,80410080 <_mktm_r+0x50c>
804100d0:	00000000 	nop
804100d4:	8e22001c 	lw	v0,28(s1)
804100d8:	8e230018 	lw	v1,24(s1)
804100dc:	2442ffff 	addiu	v0,v0,-1
804100e0:	2463ffff 	addiu	v1,v1,-1
804100e4:	ae22001c 	sw	v0,28(s1)
804100e8:	04600037 	bltz	v1,804101c8 <_mktm_r+0x654>
804100ec:	ae230018 	sw	v1,24(s1)
804100f0:	8e22000c 	lw	v0,12(s1)
804100f4:	25030018 	addiu	v1,t0,24
804100f8:	2442ffff 	addiu	v0,v0,-1
804100fc:	ae230008 	sw	v1,8(s1)
80410100:	1440ffdf 	bnez	v0,80410080 <_mktm_r+0x50c>
80410104:	ae22000c 	sw	v0,12(s1)
80410108:	8e220010 	lw	v0,16(s1)
8041010c:	2442ffff 	addiu	v0,v0,-1
80410110:	04400030 	bltz	v0,804101d4 <_mktm_r+0x660>
80410114:	ae220010 	sw	v0,16(s1)
80410118:	00021080 	sll	v0,v0,0x2
8041011c:	02421021 	addu	v0,s2,v0
80410120:	8c430000 	lw	v1,0(v0)
80410124:	0c1041d6 	jal	80410758 <__tz_unlock>
80410128:	ae23000c 	sw	v1,12(s1)
8041012c:	08104023 	j	8041008c <_mktm_r+0x518>
80410130:	8fbf002c 	lw	ra,44(sp)
80410134:	0461ffb6 	bgez	v1,80410010 <_mktm_r+0x49c>
80410138:	29020018 	slti	v0,t0,24
8041013c:	24a8ffff 	addiu	t0,a1,-1
80410140:	2462003c 	addiu	v0,v1,60
80410144:	ae220004 	sw	v0,4(s1)
80410148:	08104003 	j	8041000c <_mktm_r+0x498>
8041014c:	ae280008 	sw	t0,8(s1)
80410150:	8e840000 	lw	a0,0(s4)
80410154:	8e62001c 	lw	v0,28(s3)
80410158:	0082102a 	slt	v0,a0,v0
8041015c:	14400006 	bnez	v0,80410178 <_mktm_r+0x604>
80410160:	24020001 	li	v0,1
80410164:	ae220020 	sw	v0,32(s1)
80410168:	08103fd2 	j	8040ff48 <_mktm_r+0x3d4>
8041016c:	8e65003c 	lw	a1,60(s3)
80410170:	08103fd1 	j	8040ff44 <_mktm_r+0x3d0>
80410174:	ae220020 	sw	v0,32(s1)
80410178:	8e620038 	lw	v0,56(s3)
8041017c:	0082102a 	slt	v0,a0,v0
80410180:	1040ff70 	beqz	v0,8040ff44 <_mktm_r+0x3d0>
80410184:	ae220020 	sw	v0,32(s1)
80410188:	08103fd2 	j	8040ff48 <_mktm_r+0x3d4>
8041018c:	8e65003c 	lw	a1,60(s3)
80410190:	8e620038 	lw	v0,56(s3)
80410194:	0082102a 	slt	v0,a0,v0
80410198:	1440fff2 	bnez	v0,80410164 <_mktm_r+0x5f0>
8041019c:	24020001 	li	v0,1
804101a0:	08103fd1 	j	8040ff44 <_mktm_r+0x3d0>
804101a4:	ae200020 	sw	zero,32(s1)
804101a8:	8e220014 	lw	v0,20(s1)
804101ac:	ae200010 	sw	zero,16(s1)
804101b0:	24420001 	addiu	v0,v0,1
804101b4:	ae220014 	sw	v0,20(s1)
804101b8:	0c1041d6 	jal	80410758 <__tz_unlock>
804101bc:	ae20001c 	sw	zero,28(s1)
804101c0:	08104023 	j	8041008c <_mktm_r+0x518>
804101c4:	8fbf002c 	lw	ra,44(sp)
804101c8:	24020006 	li	v0,6
804101cc:	0810403c 	j	804100f0 <_mktm_r+0x57c>
804101d0:	ae220018 	sw	v0,24(s1)
804101d4:	8e220014 	lw	v0,20(s1)
804101d8:	2446ffff 	addiu	a2,v0,-1
804101dc:	30c30003 	andi	v1,a2,0x3
804101e0:	2402000b 	li	v0,11
804101e4:	ae220010 	sw	v0,16(s1)
804101e8:	10600013 	beqz	v1,80410238 <_mktm_r+0x6c4>
804101ec:	ae260014 	sw	a2,20(s1)
804101f0:	00063fc3 	sra	a3,a2,0x1f
804101f4:	3c0251eb 	lui	v0,0x51eb
804101f8:	3442851f 	ori	v0,v0,0x851f
804101fc:	00c20018 	mult	a2,v0
80410200:	00001010 	mfhi	v0
80410204:	000211c3 	sra	v0,v0,0x7
80410208:	00471023 	subu	v0,v0,a3
8041020c:	00022980 	sll	a1,v0,0x6
80410210:	00021100 	sll	v0,v0,0x4
80410214:	00451021 	addu	v0,v0,a1
80410218:	00022080 	sll	a0,v0,0x2
8041021c:	00441021 	addu	v0,v0,a0
80410220:	00c21023 	subu	v0,a2,v0
80410224:	2c420001 	sltiu	v0,v0,1
80410228:	2443016d 	addiu	v1,v0,365
8041022c:	ae23001c 	sw	v1,28(s1)
80410230:	08104046 	j	80410118 <_mktm_r+0x5a4>
80410234:	8e220010 	lw	v0,16(s1)
80410238:	3c0251eb 	lui	v0,0x51eb
8041023c:	3442851f 	ori	v0,v0,0x851f
80410240:	00c20018 	mult	a2,v0
80410244:	00063fc3 	sra	a3,a2,0x1f
80410248:	00001010 	mfhi	v0
8041024c:	00021143 	sra	v0,v0,0x5
80410250:	00471023 	subu	v0,v0,a3
80410254:	00022900 	sll	a1,v0,0x4
80410258:	00021080 	sll	v0,v0,0x2
8041025c:	00451021 	addu	v0,v0,a1
80410260:	00022080 	sll	a0,v0,0x2
80410264:	00441021 	addu	v0,v0,a0
80410268:	10c2ffe2 	beq	a2,v0,804101f4 <_mktm_r+0x680>
8041026c:	2403016e 	li	v1,366
80410270:	8e220010 	lw	v0,16(s1)
80410274:	08104046 	j	80410118 <_mktm_r+0x5a4>
80410278:	ae23001c 	sw	v1,28(s1)
8041027c:	00000000 	nop

80410280 <_puts_r>:
80410280:	27bdffc0 	addiu	sp,sp,-64
80410284:	afb00034 	sw	s0,52(sp)
80410288:	00808021 	move	s0,a0
8041028c:	00a02021 	move	a0,a1
80410290:	afbf003c 	sw	ra,60(sp)
80410294:	afb10038 	sw	s1,56(sp)
80410298:	0c104164 	jal	80410590 <strlen>
8041029c:	00a08821 	move	s1,a1
804102a0:	3c038041 	lui	v1,0x8041
804102a4:	8e050008 	lw	a1,8(s0)
804102a8:	24633194 	addiu	v1,v1,12692
804102ac:	24070001 	li	a3,1
804102b0:	02002021 	move	a0,s0
804102b4:	afa30024 	sw	v1,36(sp)
804102b8:	afa70028 	sw	a3,40(sp)
804102bc:	27a3001c 	addiu	v1,sp,28
804102c0:	24480001 	addiu	t0,v0,1
804102c4:	27a60010 	addiu	a2,sp,16
804102c8:	24070002 	li	a3,2
804102cc:	afb1001c 	sw	s1,28(sp)
804102d0:	afa30010 	sw	v1,16(sp)
804102d4:	afa80018 	sw	t0,24(sp)
804102d8:	afa70014 	sw	a3,20(sp)
804102dc:	0c10423c 	jal	804108f0 <__sfvwrite_r>
804102e0:	afa20020 	sw	v0,32(sp)
804102e4:	2404000a 	li	a0,10
804102e8:	2403ffff 	li	v1,-1
804102ec:	8fbf003c 	lw	ra,60(sp)
804102f0:	0062200b 	movn	a0,v1,v0
804102f4:	00801021 	move	v0,a0
804102f8:	8fb10038 	lw	s1,56(sp)
804102fc:	8fb00034 	lw	s0,52(sp)
80410300:	03e00008 	jr	ra
80410304:	27bd0040 	addiu	sp,sp,64

80410308 <puts>:
80410308:	00802821 	move	a1,a0
8041030c:	081040a0 	j	80410280 <_puts_r>
80410310:	8f848fc0 	lw	a0,-28736(gp)
	...

80410320 <__sclose>:
80410320:	08102c98 	j	8040b260 <_close_r>
80410324:	84a5000e 	lh	a1,14(a1)

80410328 <__sseek>:
80410328:	27bdffe8 	addiu	sp,sp,-24
8041032c:	afb00010 	sw	s0,16(sp)
80410330:	00a08021 	move	s0,a1
80410334:	84a5000e 	lh	a1,14(a1)
80410338:	afbf0014 	sw	ra,20(sp)
8041033c:	0c104644 	jal	80411910 <_lseek_r>
80410340:	00000000 	nop
80410344:	00401821 	move	v1,v0
80410348:	2402ffff 	li	v0,-1
8041034c:	10620009 	beq	v1,v0,80410374 <__sseek+0x4c>
80410350:	8fbf0014 	lw	ra,20(sp)
80410354:	9602000c 	lhu	v0,12(s0)
80410358:	34421000 	ori	v0,v0,0x1000
8041035c:	a602000c 	sh	v0,12(s0)
80410360:	ae030050 	sw	v1,80(s0)
80410364:	00601021 	move	v0,v1
80410368:	8fb00010 	lw	s0,16(sp)
8041036c:	03e00008 	jr	ra
80410370:	27bd0018 	addiu	sp,sp,24
80410374:	9602000c 	lhu	v0,12(s0)
80410378:	3042efff 	andi	v0,v0,0xefff
8041037c:	a602000c 	sh	v0,12(s0)
80410380:	00601021 	move	v0,v1
80410384:	8fb00010 	lw	s0,16(sp)
80410388:	03e00008 	jr	ra
8041038c:	27bd0018 	addiu	sp,sp,24

80410390 <__swrite>:
80410390:	84a3000c 	lh	v1,12(a1)
80410394:	27bdffd8 	addiu	sp,sp,-40
80410398:	30620100 	andi	v0,v1,0x100
8041039c:	afb30020 	sw	s3,32(sp)
804103a0:	afb2001c 	sw	s2,28(sp)
804103a4:	afb10018 	sw	s1,24(sp)
804103a8:	afb00014 	sw	s0,20(sp)
804103ac:	afbf0024 	sw	ra,36(sp)
804103b0:	00a08021 	move	s0,a1
804103b4:	00c09821 	move	s3,a2
804103b8:	00e09021 	move	s2,a3
804103bc:	10400006 	beqz	v0,804103d8 <__swrite+0x48>
804103c0:	00808821 	move	s1,a0
804103c4:	84a5000e 	lh	a1,14(a1)
804103c8:	00003021 	move	a2,zero
804103cc:	0c104644 	jal	80411910 <_lseek_r>
804103d0:	24070002 	li	a3,2
804103d4:	8603000c 	lh	v1,12(s0)
804103d8:	2402efff 	li	v0,-4097
804103dc:	00621024 	and	v0,v1,v0
804103e0:	8605000e 	lh	a1,14(s0)
804103e4:	a602000c 	sh	v0,12(s0)
804103e8:	02202021 	move	a0,s1
804103ec:	02603021 	move	a2,s3
804103f0:	02403821 	move	a3,s2
804103f4:	8fbf0024 	lw	ra,36(sp)
804103f8:	8fb30020 	lw	s3,32(sp)
804103fc:	8fb2001c 	lw	s2,28(sp)
80410400:	8fb10018 	lw	s1,24(sp)
80410404:	8fb00014 	lw	s0,20(sp)
80410408:	081046c4 	j	80411b10 <_write_r>
8041040c:	27bd0028 	addiu	sp,sp,40

80410410 <__sread>:
80410410:	27bdffe8 	addiu	sp,sp,-24
80410414:	afb00010 	sw	s0,16(sp)
80410418:	00a08021 	move	s0,a1
8041041c:	84a5000e 	lh	a1,14(a1)
80410420:	afbf0014 	sw	ra,20(sp)
80410424:	0c1046b9 	jal	80411ae4 <_read_r>
80410428:	00000000 	nop
8041042c:	04400009 	bltz	v0,80410454 <__sread+0x44>
80410430:	00401821 	move	v1,v0
80410434:	8e020050 	lw	v0,80(s0)
80410438:	8fbf0014 	lw	ra,20(sp)
8041043c:	00431021 	addu	v0,v0,v1
80410440:	ae020050 	sw	v0,80(s0)
80410444:	00601021 	move	v0,v1
80410448:	8fb00010 	lw	s0,16(sp)
8041044c:	03e00008 	jr	ra
80410450:	27bd0018 	addiu	sp,sp,24
80410454:	9602000c 	lhu	v0,12(s0)
80410458:	8fbf0014 	lw	ra,20(sp)
8041045c:	3042efff 	andi	v0,v0,0xefff
80410460:	a602000c 	sh	v0,12(s0)
80410464:	00601021 	move	v0,v1
80410468:	8fb00010 	lw	s0,16(sp)
8041046c:	03e00008 	jr	ra
80410470:	27bd0018 	addiu	sp,sp,24
	...

80410480 <strcmp>:
80410480:	00a41025 	or	v0,a1,a0
80410484:	30420001 	andi	v0,v0,0x1
80410488:	00803821 	move	a3,a0
8041048c:	14400010 	bnez	v0,804104d0 <strcmp+0x50>
80410490:	00a03021 	move	a2,a1
80410494:	08104128 	j	804104a0 <strcmp+0x20>
80410498:	90820000 	lbu	v0,0(a0)
8041049c:	00601021 	move	v0,v1
804104a0:	24e70002 	addiu	a3,a3,2
804104a4:	10400013 	beqz	v0,804104f4 <strcmp+0x74>
804104a8:	90c30000 	lbu	v1,0(a2)
804104ac:	14430011 	bne	v0,v1,804104f4 <strcmp+0x74>
804104b0:	90e4ffff 	lbu	a0,-1(a3)
804104b4:	90c20001 	lbu	v0,1(a2)
804104b8:	10800003 	beqz	a0,804104c8 <strcmp+0x48>
804104bc:	24c60002 	addiu	a2,a2,2
804104c0:	1082fff6 	beq	a0,v0,8041049c <strcmp+0x1c>
804104c4:	90e30000 	lbu	v1,0(a3)
804104c8:	03e00008 	jr	ra
804104cc:	00821023 	subu	v0,a0,v0
804104d0:	00003021 	move	a2,zero
804104d4:	00861021 	addu	v0,a0,a2
804104d8:	90420000 	lbu	v0,0(v0)
804104dc:	00a61821 	addu	v1,a1,a2
804104e0:	90630000 	lbu	v1,0(v1)
804104e4:	10400003 	beqz	v0,804104f4 <strcmp+0x74>
804104e8:	24c60001 	addiu	a2,a2,1
804104ec:	1043fff9 	beq	v0,v1,804104d4 <strcmp+0x54>
804104f0:	00000000 	nop
804104f4:	03e00008 	jr	ra
804104f8:	00431023 	subu	v0,v0,v1
804104fc:	00000000 	nop

80410500 <strcpy>:
80410500:	00a41025 	or	v0,a1,a0
80410504:	30420003 	andi	v0,v0,0x3
80410508:	10400009 	beqz	v0,80410530 <strcpy+0x30>
8041050c:	00804821 	move	t1,a0
80410510:	00801821 	move	v1,a0
80410514:	80a20000 	lb	v0,0(a1)
80410518:	24a50001 	addiu	a1,a1,1
8041051c:	a0620000 	sb	v0,0(v1)
80410520:	1440fffc 	bnez	v0,80410514 <strcpy+0x14>
80410524:	24630001 	addiu	v1,v1,1
80410528:	03e00008 	jr	ra
8041052c:	01201021 	move	v0,t1
80410530:	8ca70000 	lw	a3,0(a1)
80410534:	3c02fefe 	lui	v0,0xfefe
80410538:	3448feff 	ori	t0,v0,0xfeff
8041053c:	00072027 	nor	a0,zero,a3
80410540:	00e81021 	addu	v0,a3,t0
80410544:	3c038080 	lui	v1,0x8080
80410548:	00822024 	and	a0,a0,v0
8041054c:	34638080 	ori	v1,v1,0x8080
80410550:	00832024 	and	a0,a0,v1
80410554:	1480000b 	bnez	a0,80410584 <strcpy+0x84>
80410558:	01203021 	move	a2,t1
8041055c:	00602021 	move	a0,v1
80410560:	acc70000 	sw	a3,0(a2)
80410564:	24a50004 	addiu	a1,a1,4
80410568:	8ca70000 	lw	a3,0(a1)
8041056c:	00071027 	nor	v0,zero,a3
80410570:	00e81821 	addu	v1,a3,t0
80410574:	00431024 	and	v0,v0,v1
80410578:	00441024 	and	v0,v0,a0
8041057c:	1040fff8 	beqz	v0,80410560 <strcpy+0x60>
80410580:	24c60004 	addiu	a2,a2,4
80410584:	08104145 	j	80410514 <strcpy+0x14>
80410588:	00c01821 	move	v1,a2
8041058c:	00000000 	nop

80410590 <strlen>:
80410590:	24820001 	addiu	v0,a0,1
80410594:	90830000 	lbu	v1,0(a0)
80410598:	1460fffe 	bnez	v1,80410594 <strlen+0x4>
8041059c:	24840001 	addiu	a0,a0,1
804105a0:	03e00008 	jr	ra
804105a4:	00821023 	subu	v0,a0,v0
	...

804105b0 <strncpy>:
804105b0:	2cc20004 	sltiu	v0,a2,4
804105b4:	14400014 	bnez	v0,80410608 <strncpy+0x58>
804105b8:	00803821 	move	a3,a0
804105bc:	30ca0003 	andi	t2,a2,0x3
804105c0:	00ca1823 	subu	v1,a2,t2
804105c4:	90a20000 	lbu	v0,0(a1)
804105c8:	90a80001 	lbu	t0,1(a1)
804105cc:	90a60002 	lbu	a2,2(a1)
804105d0:	90a90003 	lbu	t1,3(a1)
804105d4:	2463fffc 	addiu	v1,v1,-4
804105d8:	24a50004 	addiu	a1,a1,4
804105dc:	10400020 	beqz	v0,80410660 <strncpy+0xb0>
804105e0:	a0e20000 	sb	v0,0(a3)
804105e4:	11000020 	beqz	t0,80410668 <strncpy+0xb8>
804105e8:	a0e80001 	sb	t0,1(a3)
804105ec:	10c00020 	beqz	a2,80410670 <strncpy+0xc0>
804105f0:	a0e60002 	sb	a2,2(a3)
804105f4:	11200020 	beqz	t1,80410678 <strncpy+0xc8>
804105f8:	a0e90003 	sb	t1,3(a3)
804105fc:	1460fff1 	bnez	v1,804105c4 <strncpy+0x14>
80410600:	24e70004 	addiu	a3,a3,4
80410604:	01403021 	move	a2,t2
80410608:	00e63021 	addu	a2,a3,a2
8041060c:	10e60012 	beq	a3,a2,80410658 <strncpy+0xa8>
80410610:	24e30001 	addiu	v1,a3,1
80410614:	90a20000 	lbu	v0,0(a1)
80410618:	10400009 	beqz	v0,80410640 <strncpy+0x90>
8041061c:	a0e20000 	sb	v0,0(a3)
80410620:	24a50001 	addiu	a1,a1,1
80410624:	10c3000c 	beq	a2,v1,80410658 <strncpy+0xa8>
80410628:	00000000 	nop
8041062c:	90a20000 	lbu	v0,0(a1)
80410630:	24a50001 	addiu	a1,a1,1
80410634:	a0620000 	sb	v0,0(v1)
80410638:	1440fffa 	bnez	v0,80410624 <strncpy+0x74>
8041063c:	24630001 	addiu	v1,v1,1
80410640:	10c30005 	beq	a2,v1,80410658 <strncpy+0xa8>
80410644:	00000000 	nop
80410648:	a0600000 	sb	zero,0(v1)
8041064c:	24630001 	addiu	v1,v1,1
80410650:	14c3fffd 	bne	a2,v1,80410648 <strncpy+0x98>
80410654:	00000000 	nop
80410658:	03e00008 	jr	ra
8041065c:	00801021 	move	v0,a0
80410660:	24630001 	addiu	v1,v1,1
80410664:	24e7ffff 	addiu	a3,a3,-1
80410668:	24630001 	addiu	v1,v1,1
8041066c:	24e7ffff 	addiu	a3,a3,-1
80410670:	24630001 	addiu	v1,v1,1
80410674:	24e7ffff 	addiu	a3,a3,-1
80410678:	006a1821 	addu	v1,v1,t2
8041067c:	1060fff6 	beqz	v1,80410658 <strncpy+0xa8>
80410680:	24e80004 	addiu	t0,a3,4
80410684:	31020003 	andi	v0,t0,0x3
80410688:	10400008 	beqz	v0,804106ac <strncpy+0xfc>
8041068c:	2c620010 	sltiu	v0,v1,16
80410690:	a1000000 	sb	zero,0(t0)
80410694:	2463ffff 	addiu	v1,v1,-1
80410698:	25080001 	addiu	t0,t0,1
8041069c:	1060ffee 	beqz	v1,80410658 <strncpy+0xa8>
804106a0:	31020003 	andi	v0,t0,0x3
804106a4:	1440fffa 	bnez	v0,80410690 <strncpy+0xe0>
804106a8:	2c620010 	sltiu	v0,v1,16
804106ac:	14400010 	bnez	v0,804106f0 <strncpy+0x140>
804106b0:	01002821 	move	a1,t0
804106b4:	00603821 	move	a3,v1
804106b8:	24e7fff0 	addiu	a3,a3,-16
804106bc:	24a50010 	addiu	a1,a1,16
804106c0:	2ce20010 	sltiu	v0,a3,16
804106c4:	aca0fff0 	sw	zero,-16(a1)
804106c8:	aca0fff4 	sw	zero,-12(a1)
804106cc:	aca0fff8 	sw	zero,-8(a1)
804106d0:	1040fff9 	beqz	v0,804106b8 <strncpy+0x108>
804106d4:	aca0fffc 	sw	zero,-4(a1)
804106d8:	2463fff0 	addiu	v1,v1,-16
804106dc:	00031102 	srl	v0,v1,0x4
804106e0:	24420001 	addiu	v0,v0,1
804106e4:	00021100 	sll	v0,v0,0x4
804106e8:	3063000f 	andi	v1,v1,0xf
804106ec:	01024021 	addu	t0,t0,v0
804106f0:	2c620008 	sltiu	v0,v1,8
804106f4:	14400005 	bnez	v0,8041070c <strncpy+0x15c>
804106f8:	00602821 	move	a1,v1
804106fc:	ad000000 	sw	zero,0(t0)
80410700:	ad000004 	sw	zero,4(t0)
80410704:	2465fff8 	addiu	a1,v1,-8
80410708:	25080008 	addiu	t0,t0,8
8041070c:	2ca20004 	sltiu	v0,a1,4
80410710:	14400005 	bnez	v0,80410728 <strncpy+0x178>
80410714:	2ca20002 	sltiu	v0,a1,2
80410718:	ad000000 	sw	zero,0(t0)
8041071c:	24a5fffc 	addiu	a1,a1,-4
80410720:	25080004 	addiu	t0,t0,4
80410724:	2ca20002 	sltiu	v0,a1,2
80410728:	14400004 	bnez	v0,8041073c <strncpy+0x18c>
8041072c:	00000000 	nop
80410730:	a5000000 	sh	zero,0(t0)
80410734:	24a5fffe 	addiu	a1,a1,-2
80410738:	25080002 	addiu	t0,t0,2
8041073c:	10a0ffc6 	beqz	a1,80410658 <strncpy+0xa8>
80410740:	00000000 	nop
80410744:	a1000000 	sb	zero,0(t0)
80410748:	03e00008 	jr	ra
8041074c:	00801021 	move	v0,a0

80410750 <__tz_lock>:
80410750:	03e00008 	jr	ra
80410754:	00000000 	nop

80410758 <__tz_unlock>:
80410758:	03e00008 	jr	ra
8041075c:	00000000 	nop

80410760 <__call_exitprocs>:
80410760:	27bdffc8 	addiu	sp,sp,-56
80410764:	afb7002c 	sw	s7,44(sp)
80410768:	8f978fc4 	lw	s7,-28732(gp)
8041076c:	afbe0030 	sw	s8,48(sp)
80410770:	afb60028 	sw	s6,40(sp)
80410774:	afb40020 	sw	s4,32(sp)
80410778:	afbf0034 	sw	ra,52(sp)
8041077c:	afb50024 	sw	s5,36(sp)
80410780:	afb3001c 	sw	s3,28(sp)
80410784:	afb20018 	sw	s2,24(sp)
80410788:	afb10014 	sw	s1,20(sp)
8041078c:	afb00010 	sw	s0,16(sp)
80410790:	afa40038 	sw	a0,56(sp)
80410794:	00a0a021 	move	s4,a1
80410798:	26f60148 	addiu	s6,s7,328
8041079c:	241e0001 	li	s8,1
804107a0:	8ef20148 	lw	s2,328(s7)
804107a4:	12400037 	beqz	s2,80410884 <__call_exitprocs+0x124>
804107a8:	8fbf0034 	lw	ra,52(sp)
804107ac:	02c0a821 	move	s5,s6
804107b0:	8e430004 	lw	v1,4(s2)
804107b4:	2470ffff 	addiu	s0,v1,-1
804107b8:	0600000b 	bltz	s0,804107e8 <__call_exitprocs+0x88>
804107bc:	24620001 	addiu	v0,v1,1
804107c0:	00021080 	sll	v0,v0,0x2
804107c4:	02428821 	addu	s1,s2,v0
804107c8:	12800014 	beqz	s4,8041081c <__call_exitprocs+0xbc>
804107cc:	2462ffff 	addiu	v0,v1,-1
804107d0:	8e220100 	lw	v0,256(s1)
804107d4:	10540011 	beq	v0,s4,8041081c <__call_exitprocs+0xbc>
804107d8:	2462ffff 	addiu	v0,v1,-1
804107dc:	2610ffff 	addiu	s0,s0,-1
804107e0:	0601fff9 	bgez	s0,804107c8 <__call_exitprocs+0x68>
804107e4:	2631fffc 	addiu	s1,s1,-4
804107e8:	1460003c 	bnez	v1,804108dc <__call_exitprocs+0x17c>
804107ec:	00000000 	nop
804107f0:	8e420000 	lw	v0,0(s2)
804107f4:	1040003a 	beqz	v0,804108e0 <__call_exitprocs+0x180>
804107f8:	00000000 	nop
804107fc:	aea20000 	sw	v0,0(s5)
80410800:	0c102c9c 	jal	8040b270 <free>
80410804:	02402021 	move	a0,s2
80410808:	8ea20000 	lw	v0,0(s5)
8041080c:	1040001c 	beqz	v0,80410880 <__call_exitprocs+0x120>
80410810:	00409021 	move	s2,v0
80410814:	081041ed 	j	804107b4 <__call_exitprocs+0x54>
80410818:	8e430004 	lw	v1,4(s2)
8041081c:	10500028 	beq	v0,s0,804108c0 <__call_exitprocs+0x160>
80410820:	8e260000 	lw	a2,0(s1)
80410824:	ae200000 	sw	zero,0(s1)
80410828:	10c0ffec 	beqz	a2,804107dc <__call_exitprocs+0x7c>
8041082c:	021e2004 	sllv	a0,s8,s0
80410830:	8e420188 	lw	v0,392(s2)
80410834:	00821024 	and	v0,a0,v0
80410838:	1040001d 	beqz	v0,804108b0 <__call_exitprocs+0x150>
8041083c:	00609821 	move	s3,v1
80410840:	8e42018c 	lw	v0,396(s2)
80410844:	00821024 	and	v0,a0,v0
80410848:	14400020 	bnez	v0,804108cc <__call_exitprocs+0x16c>
8041084c:	00000000 	nop
80410850:	8e250080 	lw	a1,128(s1)
80410854:	00c0f809 	jalr	a2
80410858:	8fa40038 	lw	a0,56(sp)
8041085c:	8e430004 	lw	v1,4(s2)
80410860:	1473ffcf 	bne	v1,s3,804107a0 <__call_exitprocs+0x40>
80410864:	00000000 	nop
80410868:	8ea20000 	lw	v0,0(s5)
8041086c:	1052ffdc 	beq	v0,s2,804107e0 <__call_exitprocs+0x80>
80410870:	2610ffff 	addiu	s0,s0,-1
80410874:	8ef20148 	lw	s2,328(s7)
80410878:	1640ffcd 	bnez	s2,804107b0 <__call_exitprocs+0x50>
8041087c:	02c0a821 	move	s5,s6
80410880:	8fbf0034 	lw	ra,52(sp)
80410884:	8fbe0030 	lw	s8,48(sp)
80410888:	8fb7002c 	lw	s7,44(sp)
8041088c:	8fb60028 	lw	s6,40(sp)
80410890:	8fb50024 	lw	s5,36(sp)
80410894:	8fb40020 	lw	s4,32(sp)
80410898:	8fb3001c 	lw	s3,28(sp)
8041089c:	8fb20018 	lw	s2,24(sp)
804108a0:	8fb10014 	lw	s1,20(sp)
804108a4:	8fb00010 	lw	s0,16(sp)
804108a8:	03e00008 	jr	ra
804108ac:	27bd0038 	addiu	sp,sp,56
804108b0:	00c0f809 	jalr	a2
804108b4:	00000000 	nop
804108b8:	08104218 	j	80410860 <__call_exitprocs+0x100>
804108bc:	8e430004 	lw	v1,4(s2)
804108c0:	ae500004 	sw	s0,4(s2)
804108c4:	0810420a 	j	80410828 <__call_exitprocs+0xc8>
804108c8:	02001821 	move	v1,s0
804108cc:	00c0f809 	jalr	a2
804108d0:	8e240080 	lw	a0,128(s1)
804108d4:	08104218 	j	80410860 <__call_exitprocs+0x100>
804108d8:	8e430004 	lw	v1,4(s2)
804108dc:	8e420000 	lw	v0,0(s2)
804108e0:	08104203 	j	8041080c <__call_exitprocs+0xac>
804108e4:	0240a821 	move	s5,s2
	...

804108f0 <__sfvwrite_r>:
804108f0:	8cc20008 	lw	v0,8(a2)
804108f4:	27bdffc8 	addiu	sp,sp,-56
804108f8:	afbe0030 	sw	s8,48(sp)
804108fc:	afb40020 	sw	s4,32(sp)
80410900:	afbf0034 	sw	ra,52(sp)
80410904:	afb7002c 	sw	s7,44(sp)
80410908:	afb60028 	sw	s6,40(sp)
8041090c:	afb50024 	sw	s5,36(sp)
80410910:	afb3001c 	sw	s3,28(sp)
80410914:	afb20018 	sw	s2,24(sp)
80410918:	afb10014 	sw	s1,20(sp)
8041091c:	afb00010 	sw	s0,16(sp)
80410920:	00c0f021 	move	s8,a2
80410924:	afa40038 	sw	a0,56(sp)
80410928:	1040001e 	beqz	v0,804109a4 <__sfvwrite_r+0xb4>
8041092c:	00a0a021 	move	s4,a1
80410930:	94a7000c 	lhu	a3,12(a1)
80410934:	30e20008 	andi	v0,a3,0x8
80410938:	10400028 	beqz	v0,804109dc <__sfvwrite_r+0xec>
8041093c:	00000000 	nop
80410940:	8ca20010 	lw	v0,16(a1)
80410944:	10400025 	beqz	v0,804109dc <__sfvwrite_r+0xec>
80410948:	30e20002 	andi	v0,a3,0x2
8041094c:	1040002c 	beqz	v0,80410a00 <__sfvwrite_r+0x110>
80410950:	8fd50000 	lw	s5,0(s8)
80410954:	00008021 	move	s0,zero
80410958:	00008821 	move	s1,zero
8041095c:	24120400 	li	s2,1024
80410960:	2e020401 	sltiu	v0,s0,1025
80410964:	02403821 	move	a3,s2
80410968:	0202380b 	movn	a3,s0,v0
8041096c:	02203021 	move	a2,s1
80410970:	1200006f 	beqz	s0,80410b30 <__sfvwrite_r+0x240>
80410974:	8fa40038 	lw	a0,56(sp)
80410978:	8e830024 	lw	v1,36(s4)
8041097c:	0060f809 	jalr	v1
80410980:	8e85001c 	lw	a1,28(s4)
80410984:	00401821 	move	v1,v0
80410988:	02028023 	subu	s0,s0,v0
8041098c:	18400076 	blez	v0,80410b68 <__sfvwrite_r+0x278>
80410990:	02228821 	addu	s1,s1,v0
80410994:	8fc20008 	lw	v0,8(s8)
80410998:	00431023 	subu	v0,v0,v1
8041099c:	1440fff0 	bnez	v0,80410960 <__sfvwrite_r+0x70>
804109a0:	afc20008 	sw	v0,8(s8)
804109a4:	00001821 	move	v1,zero
804109a8:	8fbf0034 	lw	ra,52(sp)
804109ac:	00601021 	move	v0,v1
804109b0:	8fbe0030 	lw	s8,48(sp)
804109b4:	8fb7002c 	lw	s7,44(sp)
804109b8:	8fb60028 	lw	s6,40(sp)
804109bc:	8fb50024 	lw	s5,36(sp)
804109c0:	8fb40020 	lw	s4,32(sp)
804109c4:	8fb3001c 	lw	s3,28(sp)
804109c8:	8fb20018 	lw	s2,24(sp)
804109cc:	8fb10014 	lw	s1,20(sp)
804109d0:	8fb00010 	lw	s0,16(sp)
804109d4:	03e00008 	jr	ra
804109d8:	27bd0038 	addiu	sp,sp,56
804109dc:	8fa40038 	lw	a0,56(sp)
804109e0:	0c104408 	jal	80411020 <__swsetup_r>
804109e4:	02802821 	move	a1,s4
804109e8:	144000f0 	bnez	v0,80410dac <__sfvwrite_r+0x4bc>
804109ec:	24030009 	li	v1,9
804109f0:	9687000c 	lhu	a3,12(s4)
804109f4:	30e20002 	andi	v0,a3,0x2
804109f8:	1440ffd6 	bnez	v0,80410954 <__sfvwrite_r+0x64>
804109fc:	8fd50000 	lw	s5,0(s8)
80410a00:	30e20001 	andi	v0,a3,0x1
80410a04:	14400069 	bnez	v0,80410bac <__sfvwrite_r+0x2bc>
80410a08:	00009021 	move	s2,zero
80410a0c:	00008821 	move	s1,zero
80410a10:	2417fb7f 	li	s7,-1153
80410a14:	12200042 	beqz	s1,80410b20 <__sfvwrite_r+0x230>
80410a18:	00000000 	nop
80410a1c:	30e20200 	andi	v0,a3,0x200
80410a20:	1040008f 	beqz	v0,80410c60 <__sfvwrite_r+0x370>
80410a24:	8e900008 	lw	s0,8(s4)
80410a28:	0230102b 	sltu	v0,s1,s0
80410a2c:	14400028 	bnez	v0,80410ad0 <__sfvwrite_r+0x1e0>
80410a30:	30e20480 	andi	v0,a3,0x480
80410a34:	10400027 	beqz	v0,80410ad4 <__sfvwrite_r+0x1e4>
80410a38:	00000000 	nop
80410a3c:	8e820014 	lw	v0,20(s4)
80410a40:	8e840000 	lw	a0,0(s4)
80410a44:	00021840 	sll	v1,v0,0x1
80410a48:	8e850010 	lw	a1,16(s4)
80410a4c:	00621821 	addu	v1,v1,v0
80410a50:	0085b023 	subu	s6,a0,a1
80410a54:	000317c2 	srl	v0,v1,0x1f
80410a58:	00431021 	addu	v0,v0,v1
80410a5c:	26c40001 	addiu	a0,s6,1
80410a60:	00029843 	sra	s3,v0,0x1
80410a64:	00912021 	addu	a0,a0,s1
80410a68:	0264102b 	sltu	v0,s3,a0
80410a6c:	10400003 	beqz	v0,80410a7c <__sfvwrite_r+0x18c>
80410a70:	02603021 	move	a2,s3
80410a74:	00809821 	move	s3,a0
80410a78:	00803021 	move	a2,a0
80410a7c:	30e20400 	andi	v0,a3,0x400
80410a80:	1040002f 	beqz	v0,80410b40 <__sfvwrite_r+0x250>
80410a84:	8fa40038 	lw	a0,56(sp)
80410a88:	0c104648 	jal	80411920 <_malloc_r>
80410a8c:	00c02821 	move	a1,a2
80410a90:	10400032 	beqz	v0,80410b5c <__sfvwrite_r+0x26c>
80410a94:	00408021 	move	s0,v0
80410a98:	8e850010 	lw	a1,16(s4)
80410a9c:	00402021 	move	a0,v0
80410aa0:	0c103d70 	jal	8040f5c0 <memcpy>
80410aa4:	02c03021 	move	a2,s6
80410aa8:	9683000c 	lhu	v1,12(s4)
80410aac:	00771824 	and	v1,v1,s7
80410ab0:	34630080 	ori	v1,v1,0x80
80410ab4:	a683000c 	sh	v1,12(s4)
80410ab8:	02761823 	subu	v1,s3,s6
80410abc:	02161021 	addu	v0,s0,s6
80410ac0:	ae820000 	sw	v0,0(s4)
80410ac4:	ae830008 	sw	v1,8(s4)
80410ac8:	ae900010 	sw	s0,16(s4)
80410acc:	ae930014 	sw	s3,20(s4)
80410ad0:	02208021 	move	s0,s1
80410ad4:	8e840000 	lw	a0,0(s4)
80410ad8:	02003021 	move	a2,s0
80410adc:	0c1043b8 	jal	80410ee0 <memmove>
80410ae0:	02402821 	move	a1,s2
80410ae4:	8e830008 	lw	v1,8(s4)
80410ae8:	8e820000 	lw	v0,0(s4)
80410aec:	00701823 	subu	v1,v1,s0
80410af0:	00501021 	addu	v0,v0,s0
80410af4:	ae830008 	sw	v1,8(s4)
80410af8:	ae820000 	sw	v0,0(s4)
80410afc:	02208021 	move	s0,s1
80410b00:	8fc20008 	lw	v0,8(s8)
80410b04:	00501023 	subu	v0,v0,s0
80410b08:	1040ffa6 	beqz	v0,804109a4 <__sfvwrite_r+0xb4>
80410b0c:	afc20008 	sw	v0,8(s8)
80410b10:	02308823 	subu	s1,s1,s0
80410b14:	02509021 	addu	s2,s2,s0
80410b18:	1620ffc0 	bnez	s1,80410a1c <__sfvwrite_r+0x12c>
80410b1c:	9687000c 	lhu	a3,12(s4)
80410b20:	8eb20000 	lw	s2,0(s5)
80410b24:	8eb10004 	lw	s1,4(s5)
80410b28:	08104285 	j	80410a14 <__sfvwrite_r+0x124>
80410b2c:	26b50008 	addiu	s5,s5,8
80410b30:	8eb10000 	lw	s1,0(s5)
80410b34:	8eb00004 	lw	s0,4(s5)
80410b38:	08104258 	j	80410960 <__sfvwrite_r+0x70>
80410b3c:	26b50008 	addiu	s5,s5,8
80410b40:	0c1046c0 	jal	80411b00 <_realloc_r>
80410b44:	8fa40038 	lw	a0,56(sp)
80410b48:	1440ffdb 	bnez	v0,80410ab8 <__sfvwrite_r+0x1c8>
80410b4c:	00408021 	move	s0,v0
80410b50:	8e850010 	lw	a1,16(s4)
80410b54:	0c1045a4 	jal	80411690 <_free_r>
80410b58:	8fa40038 	lw	a0,56(sp)
80410b5c:	8fa30038 	lw	v1,56(sp)
80410b60:	2402000c 	li	v0,12
80410b64:	ac620000 	sw	v0,0(v1)
80410b68:	9682000c 	lhu	v0,12(s4)
80410b6c:	8fbf0034 	lw	ra,52(sp)
80410b70:	34420040 	ori	v0,v0,0x40
80410b74:	2403ffff 	li	v1,-1
80410b78:	a682000c 	sh	v0,12(s4)
80410b7c:	8fbe0030 	lw	s8,48(sp)
80410b80:	00601021 	move	v0,v1
80410b84:	8fb7002c 	lw	s7,44(sp)
80410b88:	8fb60028 	lw	s6,40(sp)
80410b8c:	8fb50024 	lw	s5,36(sp)
80410b90:	8fb40020 	lw	s4,32(sp)
80410b94:	8fb3001c 	lw	s3,28(sp)
80410b98:	8fb20018 	lw	s2,24(sp)
80410b9c:	8fb10014 	lw	s1,20(sp)
80410ba0:	8fb00010 	lw	s0,16(sp)
80410ba4:	03e00008 	jr	ra
80410ba8:	27bd0038 	addiu	sp,sp,56
80410bac:	0000b021 	move	s6,zero
80410bb0:	0000b821 	move	s7,zero
80410bb4:	00009821 	move	s3,zero
80410bb8:	12400024 	beqz	s2,80410c4c <__sfvwrite_r+0x35c>
80410bbc:	00000000 	nop
80410bc0:	12e00057 	beqz	s7,80410d20 <__sfvwrite_r+0x430>
80410bc4:	02c02021 	move	a0,s6
80410bc8:	8e840000 	lw	a0,0(s4)
80410bcc:	8e820010 	lw	v0,16(s4)
80410bd0:	0253182b 	sltu	v1,s2,s3
80410bd4:	02408821 	move	s1,s2
80410bd8:	0044102b 	sltu	v0,v0,a0
80410bdc:	0263880a 	movz	s1,s3,v1
80410be0:	8e860008 	lw	a2,8(s4)
80410be4:	10400005 	beqz	v0,80410bfc <__sfvwrite_r+0x30c>
80410be8:	8e870014 	lw	a3,20(s4)
80410bec:	00e68021 	addu	s0,a3,a2
80410bf0:	0211102a 	slt	v0,s0,s1
80410bf4:	14400052 	bnez	v0,80410d40 <__sfvwrite_r+0x450>
80410bf8:	02c02821 	move	a1,s6
80410bfc:	0227102a 	slt	v0,s1,a3
80410c00:	1440002b 	bnez	v0,80410cb0 <__sfvwrite_r+0x3c0>
80410c04:	02c02821 	move	a1,s6
80410c08:	8e830024 	lw	v1,36(s4)
80410c0c:	8e85001c 	lw	a1,28(s4)
80410c10:	8fa40038 	lw	a0,56(sp)
80410c14:	0060f809 	jalr	v1
80410c18:	02c03021 	move	a2,s6
80410c1c:	1840ffd2 	blez	v0,80410b68 <__sfvwrite_r+0x278>
80410c20:	00408021 	move	s0,v0
80410c24:	02709823 	subu	s3,s3,s0
80410c28:	1260002d 	beqz	s3,80410ce0 <__sfvwrite_r+0x3f0>
80410c2c:	8fa40038 	lw	a0,56(sp)
80410c30:	8fc20008 	lw	v0,8(s8)
80410c34:	00501023 	subu	v0,v0,s0
80410c38:	1040ff5a 	beqz	v0,804109a4 <__sfvwrite_r+0xb4>
80410c3c:	afc20008 	sw	v0,8(s8)
80410c40:	02509023 	subu	s2,s2,s0
80410c44:	1640ffde 	bnez	s2,80410bc0 <__sfvwrite_r+0x2d0>
80410c48:	02d0b021 	addu	s6,s6,s0
80410c4c:	8eb60000 	lw	s6,0(s5)
80410c50:	8eb20004 	lw	s2,4(s5)
80410c54:	0000b821 	move	s7,zero
80410c58:	081042ee 	j	80410bb8 <__sfvwrite_r+0x2c8>
80410c5c:	26b50008 	addiu	s5,s5,8
80410c60:	8e840000 	lw	a0,0(s4)
80410c64:	8e820010 	lw	v0,16(s4)
80410c68:	0044102b 	sltu	v0,v0,a0
80410c6c:	10400003 	beqz	v0,80410c7c <__sfvwrite_r+0x38c>
80410c70:	0211102b 	sltu	v0,s0,s1
80410c74:	1440003e 	bnez	v0,80410d70 <__sfvwrite_r+0x480>
80410c78:	02402821 	move	a1,s2
80410c7c:	8e870014 	lw	a3,20(s4)
80410c80:	0227102b 	sltu	v0,s1,a3
80410c84:	1440001c 	bnez	v0,80410cf8 <__sfvwrite_r+0x408>
80410c88:	02402821 	move	a1,s2
80410c8c:	8e830024 	lw	v1,36(s4)
80410c90:	8e85001c 	lw	a1,28(s4)
80410c94:	8fa40038 	lw	a0,56(sp)
80410c98:	0060f809 	jalr	v1
80410c9c:	02403021 	move	a2,s2
80410ca0:	1c40ff97 	bgtz	v0,80410b00 <__sfvwrite_r+0x210>
80410ca4:	00408021 	move	s0,v0
80410ca8:	081042db 	j	80410b6c <__sfvwrite_r+0x27c>
80410cac:	9682000c 	lhu	v0,12(s4)
80410cb0:	0c1043b8 	jal	80410ee0 <memmove>
80410cb4:	02203021 	move	a2,s1
80410cb8:	8e830008 	lw	v1,8(s4)
80410cbc:	8e820000 	lw	v0,0(s4)
80410cc0:	02208021 	move	s0,s1
80410cc4:	00711823 	subu	v1,v1,s1
80410cc8:	00511021 	addu	v0,v0,s1
80410ccc:	02709823 	subu	s3,s3,s0
80410cd0:	ae830008 	sw	v1,8(s4)
80410cd4:	1660ffd6 	bnez	s3,80410c30 <__sfvwrite_r+0x340>
80410cd8:	ae820000 	sw	v0,0(s4)
80410cdc:	8fa40038 	lw	a0,56(sp)
80410ce0:	0c103b9c 	jal	8040ee70 <_fflush_r>
80410ce4:	02802821 	move	a1,s4
80410ce8:	1440ff9f 	bnez	v0,80410b68 <__sfvwrite_r+0x278>
80410cec:	0000b821 	move	s7,zero
80410cf0:	0810430d 	j	80410c34 <__sfvwrite_r+0x344>
80410cf4:	8fc20008 	lw	v0,8(s8)
80410cf8:	0c1043b8 	jal	80410ee0 <memmove>
80410cfc:	02203021 	move	a2,s1
80410d00:	8e830008 	lw	v1,8(s4)
80410d04:	8e820000 	lw	v0,0(s4)
80410d08:	00711823 	subu	v1,v1,s1
80410d0c:	00511021 	addu	v0,v0,s1
80410d10:	ae830008 	sw	v1,8(s4)
80410d14:	ae820000 	sw	v0,0(s4)
80410d18:	081042c0 	j	80410b00 <__sfvwrite_r+0x210>
80410d1c:	02208021 	move	s0,s1
80410d20:	2405000a 	li	a1,10
80410d24:	0c104378 	jal	80410de0 <memchr>
80410d28:	02403021 	move	a2,s2
80410d2c:	1040001c 	beqz	v0,80410da0 <__sfvwrite_r+0x4b0>
80410d30:	24420001 	addiu	v0,v0,1
80410d34:	00569823 	subu	s3,v0,s6
80410d38:	081042f2 	j	80410bc8 <__sfvwrite_r+0x2d8>
80410d3c:	24170001 	li	s7,1
80410d40:	0c1043b8 	jal	80410ee0 <memmove>
80410d44:	02003021 	move	a2,s0
80410d48:	8e830000 	lw	v1,0(s4)
80410d4c:	8fa40038 	lw	a0,56(sp)
80410d50:	00701821 	addu	v1,v1,s0
80410d54:	ae830000 	sw	v1,0(s4)
80410d58:	0c103b9c 	jal	8040ee70 <_fflush_r>
80410d5c:	02802821 	move	a1,s4
80410d60:	1040ffb1 	beqz	v0,80410c28 <__sfvwrite_r+0x338>
80410d64:	02709823 	subu	s3,s3,s0
80410d68:	081042db 	j	80410b6c <__sfvwrite_r+0x27c>
80410d6c:	9682000c 	lhu	v0,12(s4)
80410d70:	0c1043b8 	jal	80410ee0 <memmove>
80410d74:	02003021 	move	a2,s0
80410d78:	8e830000 	lw	v1,0(s4)
80410d7c:	8fa40038 	lw	a0,56(sp)
80410d80:	00701821 	addu	v1,v1,s0
80410d84:	ae830000 	sw	v1,0(s4)
80410d88:	0c103b9c 	jal	8040ee70 <_fflush_r>
80410d8c:	02802821 	move	a1,s4
80410d90:	1040ff5b 	beqz	v0,80410b00 <__sfvwrite_r+0x210>
80410d94:	00000000 	nop
80410d98:	081042db 	j	80410b6c <__sfvwrite_r+0x27c>
80410d9c:	9682000c 	lhu	v0,12(s4)
80410da0:	26530001 	addiu	s3,s2,1
80410da4:	081042f2 	j	80410bc8 <__sfvwrite_r+0x2d8>
80410da8:	24170001 	li	s7,1
80410dac:	9682000c 	lhu	v0,12(s4)
80410db0:	34420040 	ori	v0,v0,0x40
80410db4:	a682000c 	sh	v0,12(s4)
80410db8:	8fa20038 	lw	v0,56(sp)
80410dbc:	ac430000 	sw	v1,0(v0)
80410dc0:	0810426a 	j	804109a8 <__sfvwrite_r+0xb8>
80410dc4:	2403ffff 	li	v1,-1
	...

80410dd0 <__gettzinfo>:
80410dd0:	3c028041 	lui	v0,0x8041
80410dd4:	03e00008 	jr	ra
80410dd8:	24423cb0 	addiu	v0,v0,15536
80410ddc:	00000000 	nop

80410de0 <memchr>:
80410de0:	2cc20004 	sltiu	v0,a2,4
80410de4:	00804821 	move	t1,a0
80410de8:	14400032 	bnez	v0,80410eb4 <memchr+0xd4>
80410dec:	30a500ff 	andi	a1,a1,0xff
80410df0:	31220003 	andi	v0,t1,0x3
80410df4:	1040000d 	beqz	v0,80410e2c <memchr+0x4c>
80410df8:	00003821 	move	a3,zero
80410dfc:	90820000 	lbu	v0,0(a0)
80410e00:	10450030 	beq	v0,a1,80410ec4 <memchr+0xe4>
80410e04:	24c6ffff 	addiu	a2,a2,-1
80410e08:	08104387 	j	80410e1c <memchr+0x3c>
80410e0c:	00000000 	nop
80410e10:	90820000 	lbu	v0,0(a0)
80410e14:	1045002b 	beq	v0,a1,80410ec4 <memchr+0xe4>
80410e18:	24c6ffff 	addiu	a2,a2,-1
80410e1c:	14c0fffc 	bnez	a2,80410e10 <memchr+0x30>
80410e20:	24840001 	addiu	a0,a0,1
80410e24:	03e00008 	jr	ra
80410e28:	00001021 	move	v0,zero
80410e2c:	00001821 	move	v1,zero
80410e30:	24080004 	li	t0,4
80410e34:	00071200 	sll	v0,a3,0x8
80410e38:	24630001 	addiu	v1,v1,1
80410e3c:	1468fffd 	bne	v1,t0,80410e34 <memchr+0x54>
80410e40:	00453821 	addu	a3,v0,a1
80410e44:	3c02fefe 	lui	v0,0xfefe
80410e48:	3c038080 	lui	v1,0x8080
80410e4c:	01202021 	move	a0,t1
80410e50:	344afeff 	ori	t2,v0,0xfeff
80410e54:	34698080 	ori	t1,v1,0x8080
80410e58:	8c820000 	lw	v0,0(a0)
80410e5c:	24c6fffc 	addiu	a2,a2,-4
80410e60:	00e21026 	xor	v0,a3,v0
80410e64:	00021827 	nor	v1,zero,v0
80410e68:	004a1021 	addu	v0,v0,t2
80410e6c:	00431024 	and	v0,v0,v1
80410e70:	00491024 	and	v0,v0,t1
80410e74:	1040000d 	beqz	v0,80410eac <memchr+0xcc>
80410e78:	2cc80004 	sltiu	t0,a2,4
80410e7c:	90820000 	lbu	v0,0(a0)
80410e80:	10450012 	beq	v0,a1,80410ecc <memchr+0xec>
80410e84:	24830001 	addiu	v1,a0,1
80410e88:	90820001 	lbu	v0,1(a0)
80410e8c:	10450010 	beq	v0,a1,80410ed0 <memchr+0xf0>
80410e90:	00000000 	nop
80410e94:	90820002 	lbu	v0,2(a0)
80410e98:	1045000d 	beq	v0,a1,80410ed0 <memchr+0xf0>
80410e9c:	24830002 	addiu	v1,a0,2
80410ea0:	90820003 	lbu	v0,3(a0)
80410ea4:	1045000a 	beq	v0,a1,80410ed0 <memchr+0xf0>
80410ea8:	24830003 	addiu	v1,a0,3
80410eac:	1100ffea 	beqz	t0,80410e58 <memchr+0x78>
80410eb0:	24840004 	addiu	a0,a0,4
80410eb4:	14c0ffd1 	bnez	a2,80410dfc <memchr+0x1c>
80410eb8:	00000000 	nop
80410ebc:	08104389 	j	80410e24 <memchr+0x44>
80410ec0:	00000000 	nop
80410ec4:	03e00008 	jr	ra
80410ec8:	00801021 	move	v0,a0
80410ecc:	00801821 	move	v1,a0
80410ed0:	03e00008 	jr	ra
80410ed4:	00601021 	move	v0,v1
	...

80410ee0 <memmove>:
80410ee0:	00a4102b 	sltu	v0,a1,a0
80410ee4:	00806021 	move	t4,a0
80410ee8:	00a05821 	move	t3,a1
80410eec:	1040000f 	beqz	v0,80410f2c <memmove+0x4c>
80410ef0:	00c05021 	move	t2,a2
80410ef4:	016a3821 	addu	a3,t3,t2
80410ef8:	0187102b 	sltu	v0,t4,a3
80410efc:	1040000c 	beqz	v0,80410f30 <memmove+0x50>
80410f00:	2d420010 	sltiu	v0,t2,16
80410f04:	11400007 	beqz	t2,80410f24 <memmove+0x44>
80410f08:	018a1821 	addu	v1,t4,t2
80410f0c:	006a3023 	subu	a2,v1,t2
80410f10:	24e7ffff 	addiu	a3,a3,-1
80410f14:	90e20000 	lbu	v0,0(a3)
80410f18:	2463ffff 	addiu	v1,v1,-1
80410f1c:	1466fffc 	bne	v1,a2,80410f10 <memmove+0x30>
80410f20:	a0620000 	sb	v0,0(v1)
80410f24:	03e00008 	jr	ra
80410f28:	01801021 	move	v0,t4
80410f2c:	2d420010 	sltiu	v0,t2,16
80410f30:	1040000b 	beqz	v0,80410f60 <memmove+0x80>
80410f34:	016c1025 	or	v0,t3,t4
80410f38:	10c0fffa 	beqz	a2,80410f24 <memmove+0x44>
80410f3c:	00001821 	move	v1,zero
80410f40:	90a20000 	lbu	v0,0(a1)
80410f44:	24630001 	addiu	v1,v1,1
80410f48:	a0820000 	sb	v0,0(a0)
80410f4c:	24a50001 	addiu	a1,a1,1
80410f50:	1466fffb 	bne	v1,a2,80410f40 <memmove+0x60>
80410f54:	24840001 	addiu	a0,a0,1
80410f58:	03e00008 	jr	ra
80410f5c:	01801021 	move	v0,t4
80410f60:	30420003 	andi	v0,v0,0x3
80410f64:	1440fff4 	bnez	v0,80410f38 <memmove+0x58>
80410f68:	01804021 	move	t0,t4
80410f6c:	01603821 	move	a3,t3
80410f70:	01404821 	move	t1,t2
80410f74:	8ce20000 	lw	v0,0(a3)
80410f78:	2529fff0 	addiu	t1,t1,-16
80410f7c:	ad020000 	sw	v0,0(t0)
80410f80:	8ce30004 	lw	v1,4(a3)
80410f84:	2d240010 	sltiu	a0,t1,16
80410f88:	ad030004 	sw	v1,4(t0)
80410f8c:	8ce20008 	lw	v0,8(a3)
80410f90:	ad020008 	sw	v0,8(t0)
80410f94:	8ce3000c 	lw	v1,12(a3)
80410f98:	24e70010 	addiu	a3,a3,16
80410f9c:	ad03000c 	sw	v1,12(t0)
80410fa0:	1080fff4 	beqz	a0,80410f74 <memmove+0x94>
80410fa4:	25080010 	addiu	t0,t0,16
80410fa8:	2542fff0 	addiu	v0,t2,-16
80410fac:	00021902 	srl	v1,v0,0x4
80410fb0:	3046000f 	andi	a2,v0,0xf
80410fb4:	24630001 	addiu	v1,v1,1
80410fb8:	00031900 	sll	v1,v1,0x4
80410fbc:	2cc20004 	sltiu	v0,a2,4
80410fc0:	01632821 	addu	a1,t3,v1
80410fc4:	14400012 	bnez	v0,80411010 <memmove+0x130>
80410fc8:	01834821 	addu	t1,t4,v1
80410fcc:	01204021 	move	t0,t1
80410fd0:	00a03821 	move	a3,a1
80410fd4:	00c02021 	move	a0,a2
80410fd8:	8ce20000 	lw	v0,0(a3)
80410fdc:	2484fffc 	addiu	a0,a0,-4
80410fe0:	2c830004 	sltiu	v1,a0,4
80410fe4:	ad020000 	sw	v0,0(t0)
80410fe8:	24e70004 	addiu	a3,a3,4
80410fec:	1060fffa 	beqz	v1,80410fd8 <memmove+0xf8>
80410ff0:	25080004 	addiu	t0,t0,4
80410ff4:	24c3fffc 	addiu	v1,a2,-4
80410ff8:	00031082 	srl	v0,v1,0x2
80410ffc:	24420001 	addiu	v0,v0,1
80411000:	00021080 	sll	v0,v0,0x2
80411004:	01224821 	addu	t1,t1,v0
80411008:	30660003 	andi	a2,v1,0x3
8041100c:	00a22821 	addu	a1,a1,v0
80411010:	081043ce 	j	80410f38 <memmove+0x58>
80411014:	01202021 	move	a0,t1
	...

80411020 <__swsetup_r>:
80411020:	8f838fc0 	lw	v1,-28736(gp)
80411024:	27bdffe0 	addiu	sp,sp,-32
80411028:	afb10018 	sw	s1,24(sp)
8041102c:	afb00014 	sw	s0,20(sp)
80411030:	afbf001c 	sw	ra,28(sp)
80411034:	00808821 	move	s1,a0
80411038:	10600004 	beqz	v1,8041104c <__swsetup_r+0x2c>
8041103c:	00a08021 	move	s0,a1
80411040:	8c620038 	lw	v0,56(v1)
80411044:	1040001e 	beqz	v0,804110c0 <__swsetup_r+0xa0>
80411048:	00000000 	nop
8041104c:	8604000c 	lh	a0,12(s0)
80411050:	3083ffff 	andi	v1,a0,0xffff
80411054:	30620008 	andi	v0,v1,0x8
80411058:	10400030 	beqz	v0,8041111c <__swsetup_r+0xfc>
8041105c:	00802821 	move	a1,a0
80411060:	8e040010 	lw	a0,16(s0)
80411064:	10800023 	beqz	a0,804110f4 <__swsetup_r+0xd4>
80411068:	30620200 	andi	v0,v1,0x200
8041106c:	30620001 	andi	v0,v1,0x1
80411070:	1440000c 	bnez	v0,804110a4 <__swsetup_r+0x84>
80411074:	30620002 	andi	v0,v1,0x2
80411078:	10400015 	beqz	v0,804110d0 <__swsetup_r+0xb0>
8041107c:	00001021 	move	v0,zero
80411080:	ae020008 	sw	v0,8(s0)
80411084:	10800015 	beqz	a0,804110dc <__swsetup_r+0xbc>
80411088:	00000000 	nop
8041108c:	00001021 	move	v0,zero
80411090:	8fbf001c 	lw	ra,28(sp)
80411094:	8fb10018 	lw	s1,24(sp)
80411098:	8fb00014 	lw	s0,20(sp)
8041109c:	03e00008 	jr	ra
804110a0:	27bd0020 	addiu	sp,sp,32
804110a4:	8e020014 	lw	v0,20(s0)
804110a8:	ae000008 	sw	zero,8(s0)
804110ac:	00021023 	negu	v0,v0
804110b0:	1480fff6 	bnez	a0,8041108c <__swsetup_r+0x6c>
804110b4:	ae020018 	sw	v0,24(s0)
804110b8:	08104438 	j	804110e0 <__swsetup_r+0xc0>
804110bc:	9602000c 	lhu	v0,12(s0)
804110c0:	0c103c38 	jal	8040f0e0 <__sinit>
804110c4:	00602021 	move	a0,v1
804110c8:	08104414 	j	80411050 <__swsetup_r+0x30>
804110cc:	8604000c 	lh	a0,12(s0)
804110d0:	8e020014 	lw	v0,20(s0)
804110d4:	08104421 	j	80411084 <__swsetup_r+0x64>
804110d8:	ae020008 	sw	v0,8(s0)
804110dc:	9602000c 	lhu	v0,12(s0)
804110e0:	30420080 	andi	v0,v0,0x80
804110e4:	1040ffe9 	beqz	v0,8041108c <__swsetup_r+0x6c>
804110e8:	2402ffff 	li	v0,-1
804110ec:	08104424 	j	80411090 <__swsetup_r+0x70>
804110f0:	00000000 	nop
804110f4:	10400003 	beqz	v0,80411104 <__swsetup_r+0xe4>
804110f8:	30620080 	andi	v0,v1,0x80
804110fc:	1040ffdc 	beqz	v0,80411070 <__swsetup_r+0x50>
80411100:	30620001 	andi	v0,v1,0x1
80411104:	02202021 	move	a0,s1
80411108:	0c104464 	jal	80411190 <__smakebuf_r>
8041110c:	02002821 	move	a1,s0
80411110:	9603000c 	lhu	v1,12(s0)
80411114:	0810441b 	j	8041106c <__swsetup_r+0x4c>
80411118:	8e040010 	lw	a0,16(s0)
8041111c:	30620010 	andi	v0,v1,0x10
80411120:	1040ffdb 	beqz	v0,80411090 <__swsetup_r+0x70>
80411124:	2402ffff 	li	v0,-1
80411128:	30620004 	andi	v0,v1,0x4
8041112c:	14400006 	bnez	v0,80411148 <__swsetup_r+0x128>
80411130:	00000000 	nop
80411134:	8e040010 	lw	a0,16(s0)
80411138:	34a20008 	ori	v0,a1,0x8
8041113c:	a602000c 	sh	v0,12(s0)
80411140:	08104419 	j	80411064 <__swsetup_r+0x44>
80411144:	3043ffff 	andi	v1,v0,0xffff
80411148:	8e050030 	lw	a1,48(s0)
8041114c:	10a00007 	beqz	a1,8041116c <__swsetup_r+0x14c>
80411150:	26020040 	addiu	v0,s0,64
80411154:	10a20004 	beq	a1,v0,80411168 <__swsetup_r+0x148>
80411158:	00000000 	nop
8041115c:	0c1045a4 	jal	80411690 <_free_r>
80411160:	02202021 	move	a0,s1
80411164:	8604000c 	lh	a0,12(s0)
80411168:	ae000030 	sw	zero,48(s0)
8041116c:	2402ffdb 	li	v0,-37
80411170:	00821024 	and	v0,a0,v0
80411174:	8e040010 	lw	a0,16(s0)
80411178:	00022c00 	sll	a1,v0,0x10
8041117c:	a602000c 	sh	v0,12(s0)
80411180:	00052c03 	sra	a1,a1,0x10
80411184:	ae000004 	sw	zero,4(s0)
80411188:	0810444e 	j	80411138 <__swsetup_r+0x118>
8041118c:	ae040000 	sw	a0,0(s0)

80411190 <__smakebuf_r>:
80411190:	84a6000c 	lh	a2,12(a1)
80411194:	27bdff88 	addiu	sp,sp,-120
80411198:	30c3ffff 	andi	v1,a2,0xffff
8041119c:	30620002 	andi	v0,v1,0x2
804111a0:	afb30070 	sw	s3,112(sp)
804111a4:	afb00064 	sw	s0,100(sp)
804111a8:	afbf0074 	sw	ra,116(sp)
804111ac:	afb2006c 	sw	s2,108(sp)
804111b0:	afb10068 	sw	s1,104(sp)
804111b4:	00a08021 	move	s0,a1
804111b8:	14400031 	bnez	v0,80411280 <__smakebuf_r+0xf0>
804111bc:	00809821 	move	s3,a0
804111c0:	84a5000e 	lh	a1,14(a1)
804111c4:	04a00012 	bltz	a1,80411210 <__smakebuf_r+0x80>
804111c8:	30620080 	andi	v0,v1,0x80
804111cc:	0c1045e4 	jal	80411790 <_fstat_r>
804111d0:	27a60010 	addiu	a2,sp,16
804111d4:	0440000b 	bltz	v0,80411204 <__smakebuf_r+0x74>
804111d8:	8fa2001c 	lw	v0,28(sp)
804111dc:	34048000 	li	a0,0x8000
804111e0:	3042f000 	andi	v0,v0,0xf000
804111e4:	38432000 	xori	v1,v0,0x2000
804111e8:	10440045 	beq	v0,a0,80411300 <__smakebuf_r+0x170>
804111ec:	2c720001 	sltiu	s2,v1,1
804111f0:	9602000c 	lhu	v0,12(s0)
804111f4:	24110400 	li	s1,1024
804111f8:	34420800 	ori	v0,v0,0x800
804111fc:	0810448a 	j	80411228 <__smakebuf_r+0x98>
80411200:	a602000c 	sh	v0,12(s0)
80411204:	8606000c 	lh	a2,12(s0)
80411208:	30c3ffff 	andi	v1,a2,0xffff
8041120c:	30620080 	andi	v0,v1,0x80
80411210:	34c40800 	ori	a0,a2,0x800
80411214:	24110040 	li	s1,64
80411218:	24030400 	li	v1,1024
8041121c:	0062880a 	movz	s1,v1,v0
80411220:	a604000c 	sh	a0,12(s0)
80411224:	00009021 	move	s2,zero
80411228:	02602021 	move	a0,s3
8041122c:	0c104648 	jal	80411920 <_malloc_r>
80411230:	02202821 	move	a1,s1
80411234:	10400026 	beqz	v0,804112d0 <__smakebuf_r+0x140>
80411238:	00402021 	move	a0,v0
8041123c:	9603000c 	lhu	v1,12(s0)
80411240:	3c028041 	lui	v0,0x8041
80411244:	34630080 	ori	v1,v1,0x80
80411248:	2442f244 	addiu	v0,v0,-3516
8041124c:	ae62003c 	sw	v0,60(s3)
80411250:	a603000c 	sh	v1,12(s0)
80411254:	ae040010 	sw	a0,16(s0)
80411258:	ae110014 	sw	s1,20(s0)
8041125c:	16400014 	bnez	s2,804112b0 <__smakebuf_r+0x120>
80411260:	ae040000 	sw	a0,0(s0)
80411264:	8fbf0074 	lw	ra,116(sp)
80411268:	8fb30070 	lw	s3,112(sp)
8041126c:	8fb2006c 	lw	s2,108(sp)
80411270:	8fb10068 	lw	s1,104(sp)
80411274:	8fb00064 	lw	s0,100(sp)
80411278:	03e00008 	jr	ra
8041127c:	27bd0078 	addiu	sp,sp,120
80411280:	8fbf0074 	lw	ra,116(sp)
80411284:	24a30043 	addiu	v1,a1,67
80411288:	24020001 	li	v0,1
8041128c:	8fb30070 	lw	s3,112(sp)
80411290:	8fb2006c 	lw	s2,108(sp)
80411294:	8fb10068 	lw	s1,104(sp)
80411298:	8fb00064 	lw	s0,100(sp)
8041129c:	aca20014 	sw	v0,20(a1)
804112a0:	aca30010 	sw	v1,16(a1)
804112a4:	aca30000 	sw	v1,0(a1)
804112a8:	03e00008 	jr	ra
804112ac:	27bd0078 	addiu	sp,sp,120
804112b0:	0c1045e8 	jal	804117a0 <isatty>
804112b4:	8604000e 	lh	a0,14(s0)
804112b8:	1040ffeb 	beqz	v0,80411268 <__smakebuf_r+0xd8>
804112bc:	8fbf0074 	lw	ra,116(sp)
804112c0:	9602000c 	lhu	v0,12(s0)
804112c4:	34420001 	ori	v0,v0,0x1
804112c8:	08104499 	j	80411264 <__smakebuf_r+0xd4>
804112cc:	a602000c 	sh	v0,12(s0)
804112d0:	8604000c 	lh	a0,12(s0)
804112d4:	30820200 	andi	v0,a0,0x200
804112d8:	1440ffe3 	bnez	v0,80411268 <__smakebuf_r+0xd8>
804112dc:	8fbf0074 	lw	ra,116(sp)
804112e0:	26030043 	addiu	v1,s0,67
804112e4:	34840002 	ori	a0,a0,0x2
804112e8:	24020001 	li	v0,1
804112ec:	ae020014 	sw	v0,20(s0)
804112f0:	a604000c 	sh	a0,12(s0)
804112f4:	ae030010 	sw	v1,16(s0)
804112f8:	08104499 	j	80411264 <__smakebuf_r+0xd4>
804112fc:	ae030000 	sw	v1,0(s0)
80411300:	3c028041 	lui	v0,0x8041
80411304:	8e030028 	lw	v1,40(s0)
80411308:	24420328 	addiu	v0,v0,808
8041130c:	1462ffb8 	bne	v1,v0,804111f0 <__smakebuf_r+0x60>
80411310:	24030400 	li	v1,1024
80411314:	9602000c 	lhu	v0,12(s0)
80411318:	34420400 	ori	v0,v0,0x400
8041131c:	a602000c 	sh	v0,12(s0)
80411320:	ae03004c 	sw	v1,76(s0)
80411324:	0810448a 	j	80411228 <__smakebuf_r+0x98>
80411328:	24110400 	li	s1,1024
8041132c:	00000000 	nop

80411330 <assert_sw_irq>:
80411330:	2c820002 	sltiu	v0,a0,2
80411334:	14400003 	bnez	v0,80411344 <assert_sw_irq+0x14>
80411338:	00000000 	nop
8041133c:	03e00008 	jr	ra
80411340:	2402ffff 	li	v0,-1
80411344:	40036800 	mfc0	v1,c0_cause
80411348:	00000000 	nop
8041134c:	24820001 	addiu	v0,a0,1
80411350:	00021200 	sll	v0,v0,0x8
80411354:	00621825 	or	v1,v1,v0
80411358:	40836800 	mtc0	v1,c0_cause
8041135c:	00000000 	nop
80411360:	03e00008 	jr	ra
80411364:	00801021 	move	v0,a0

80411368 <negate_sw_irq>:
80411368:	2c820002 	sltiu	v0,a0,2
8041136c:	14400003 	bnez	v0,8041137c <negate_sw_irq+0x14>
80411370:	00000000 	nop
80411374:	03e00008 	jr	ra
80411378:	2402ffff 	li	v0,-1
8041137c:	40036800 	mfc0	v1,c0_cause
80411380:	00000000 	nop
80411384:	24820001 	addiu	v0,a0,1
80411388:	00021200 	sll	v0,v0,0x8
8041138c:	00021027 	nor	v0,zero,v0
80411390:	00621824 	and	v1,v1,v0
80411394:	40836800 	mtc0	v1,c0_cause
80411398:	00000000 	nop
8041139c:	03e00008 	jr	ra
804113a0:	00801021 	move	v0,a0

804113a4 <mips_default_isr>:
804113a4:	27bdffe8 	addiu	sp,sp,-24
804113a8:	afbf0014 	sw	ra,20(sp)
804113ac:	00802821 	move	a1,a0
804113b0:	40076000 	mfc0	a3,c0_status
804113b4:	00000000 	nop
804113b8:	40066800 	mfc0	a2,c0_cause
804113bc:	00000000 	nop
804113c0:	3c048041 	lui	a0,0x8041
804113c4:	0c100789 	jal	80401e24 <printk>
804113c8:	24843644 	addiu	a0,a0,13892
804113cc:	0c1016d4 	jal	80405b50 <rtems_fatal_error_occurred>
804113d0:	24040001 	li	a0,1

804113d4 <call_vectored_isr>:
804113d4:	27bdffc8 	addiu	sp,sp,-56
804113d8:	afbe0030 	sw	s8,48(sp)
804113dc:	8cde0070 	lw	s8,112(a2)
804113e0:	8cc20054 	lw	v0,84(a2)
804113e4:	afb10014 	sw	s1,20(sp)
804113e8:	005e8824 	and	s1,v0,s8
804113ec:	afb7002c 	sw	s7,44(sp)
804113f0:	afb20018 	sw	s2,24(sp)
804113f4:	afbf0034 	sw	ra,52(sp)
804113f8:	afb60028 	sw	s6,40(sp)
804113fc:	afb50024 	sw	s5,36(sp)
80411400:	afb40020 	sw	s4,32(sp)
80411404:	afb3001c 	sw	s3,28(sp)
80411408:	afb00010 	sw	s0,16(sp)
8041140c:	00c09021 	move	s2,a2
80411410:	12200019 	beqz	s1,80411478 <call_vectored_isr+0xa4>
80411414:	0080b821 	move	s7,a0
80411418:	24100028 	li	s0,40
8041141c:	24d40078 	addiu	s4,a2,120
80411420:	24150001 	li	s5,1
80411424:	24d3007c 	addiu	s3,a2,124
80411428:	3c168041 	lui	s6,0x8041
8041142c:	2602ffd8 	addiu	v0,s0,-40
80411430:	32230001 	andi	v1,s1,0x1
80411434:	1060000d 	beqz	v1,8041146c <call_vectored_isr+0x98>
80411438:	00551004 	sllv	v0,s5,v0
8041143c:	ae820000 	sw	v0,0(s4)
80411440:	ae620000 	sw	v0,0(s3)
80411444:	0000000f 	sync
80411448:	8ec24590 	lw	v0,17808(s6)
8041144c:	00101880 	sll	v1,s0,0x2
80411450:	00431021 	addu	v0,v0,v1
80411454:	8c420000 	lw	v0,0(v0)
80411458:	02002021 	move	a0,s0
8041145c:	1040002d 	beqz	v0,80411514 <call_vectored_isr+0x140>
80411460:	02e02821 	move	a1,s7
80411464:	0040f809 	jalr	v0
80411468:	00000000 	nop
8041146c:	00118842 	srl	s1,s1,0x1
80411470:	1620ffee 	bnez	s1,8041142c <call_vectored_isr+0x58>
80411474:	26100001 	addiu	s0,s0,1
80411478:	8e42005c 	lw	v0,92(s2)
8041147c:	005e8824 	and	s1,v0,s8
80411480:	12200018 	beqz	s1,804114e4 <call_vectored_isr+0x110>
80411484:	2654007c 	addiu	s4,s2,124
80411488:	24100028 	li	s0,40
8041148c:	26520078 	addiu	s2,s2,120
80411490:	24130001 	li	s3,1
80411494:	3c158041 	lui	s5,0x8041
80411498:	2602ffd8 	addiu	v0,s0,-40
8041149c:	32230001 	andi	v1,s1,0x1
804114a0:	1060000d 	beqz	v1,804114d8 <call_vectored_isr+0x104>
804114a4:	00531004 	sllv	v0,s3,v0
804114a8:	ae420000 	sw	v0,0(s2)
804114ac:	ae820000 	sw	v0,0(s4)
804114b0:	0000000f 	sync
804114b4:	8ea24590 	lw	v0,17808(s5)
804114b8:	00101880 	sll	v1,s0,0x2
804114bc:	00431021 	addu	v0,v0,v1
804114c0:	8c420000 	lw	v0,0(v0)
804114c4:	02002021 	move	a0,s0
804114c8:	10400016 	beqz	v0,80411524 <call_vectored_isr+0x150>
804114cc:	02e02821 	move	a1,s7
804114d0:	0040f809 	jalr	v0
804114d4:	00000000 	nop
804114d8:	00118842 	srl	s1,s1,0x1
804114dc:	1620ffee 	bnez	s1,80411498 <call_vectored_isr+0xc4>
804114e0:	26100001 	addiu	s0,s0,1
804114e4:	8fbf0034 	lw	ra,52(sp)
804114e8:	8fbe0030 	lw	s8,48(sp)
804114ec:	8fb7002c 	lw	s7,44(sp)
804114f0:	8fb60028 	lw	s6,40(sp)
804114f4:	8fb50024 	lw	s5,36(sp)
804114f8:	8fb40020 	lw	s4,32(sp)
804114fc:	8fb3001c 	lw	s3,28(sp)
80411500:	8fb20018 	lw	s2,24(sp)
80411504:	8fb10014 	lw	s1,20(sp)
80411508:	8fb00010 	lw	s0,16(sp)
8041150c:	03e00008 	jr	ra
80411510:	27bd0038 	addiu	sp,sp,56
80411514:	0c1044e9 	jal	804113a4 <mips_default_isr>
80411518:	02002021 	move	a0,s0
8041151c:	0810451c 	j	80411470 <call_vectored_isr+0x9c>
80411520:	00118842 	srl	s1,s1,0x1
80411524:	0c1044e9 	jal	804113a4 <mips_default_isr>
80411528:	02002021 	move	a0,s0
8041152c:	08104537 	j	804114dc <call_vectored_isr+0x108>
80411530:	00118842 	srl	s1,s1,0x1

80411534 <mips_vector_isr_handlers>:
80411534:	27bdffe0 	addiu	sp,sp,-32
80411538:	afb10018 	sw	s1,24(sp)
8041153c:	afbf001c 	sw	ra,28(sp)
80411540:	afb00014 	sw	s0,20(sp)
80411544:	00808821 	move	s1,a0
80411548:	40026000 	mfc0	v0,c0_status
8041154c:	00000000 	nop
80411550:	40036800 	mfc0	v1,c0_cause
80411554:	00000000 	nop
80411558:	00431024 	and	v0,v0,v1
8041155c:	3042ff00 	andi	v0,v0,0xff00
80411560:	00028202 	srl	s0,v0,0x8
80411564:	32030080 	andi	v1,s0,0x80
80411568:	10600004 	beqz	v1,8041157c <mips_vector_isr_handlers+0x48>
8041156c:	32020040 	andi	v0,s0,0x40
80411570:	00001021 	move	v0,zero
80411574:	40825800 	mtc0	v0,c0_compare
80411578:	32020040 	andi	v0,s0,0x40
8041157c:	10400009 	beqz	v0,804115a4 <mips_vector_isr_handlers+0x70>
80411580:	3202000c 	andi	v0,s0,0xc
80411584:	3c028041 	lui	v0,0x8041
80411588:	8c434590 	lw	v1,17808(v0)
8041158c:	8c620098 	lw	v0,152(v1)
80411590:	10400035 	beqz	v0,80411668 <mips_vector_isr_handlers+0x134>
80411594:	24040026 	li	a0,38
80411598:	0040f809 	jalr	v0
8041159c:	02202821 	move	a1,s1
804115a0:	3202000c 	andi	v0,s0,0xc
804115a4:	1440001f 	bnez	v0,80411624 <mips_vector_isr_handlers+0xf0>
804115a8:	32020030 	andi	v0,s0,0x30
804115ac:	14400024 	bnez	v0,80411640 <mips_vector_isr_handlers+0x10c>
804115b0:	02202021 	move	a0,s1
804115b4:	32020001 	andi	v0,s0,0x1
804115b8:	10400009 	beqz	v0,804115e0 <mips_vector_isr_handlers+0xac>
804115bc:	32020002 	andi	v0,s0,0x2
804115c0:	3c028041 	lui	v0,0x8041
804115c4:	8c434590 	lw	v1,17808(v0)
804115c8:	8c620080 	lw	v0,128(v1)
804115cc:	1040002a 	beqz	v0,80411678 <mips_vector_isr_handlers+0x144>
804115d0:	24040020 	li	a0,32
804115d4:	0040f809 	jalr	v0
804115d8:	02202821 	move	a1,s1
804115dc:	32020002 	andi	v0,s0,0x2
804115e0:	1040000b 	beqz	v0,80411610 <mips_vector_isr_handlers+0xdc>
804115e4:	3c028041 	lui	v0,0x8041
804115e8:	8c434590 	lw	v1,17808(v0)
804115ec:	8c790084 	lw	t9,132(v1)
804115f0:	13200018 	beqz	t9,80411654 <mips_vector_isr_handlers+0x120>
804115f4:	8fbf001c 	lw	ra,28(sp)
804115f8:	02202821 	move	a1,s1
804115fc:	8fb10018 	lw	s1,24(sp)
80411600:	8fb00014 	lw	s0,20(sp)
80411604:	24040021 	li	a0,33
80411608:	03200008 	jr	t9
8041160c:	27bd0020 	addiu	sp,sp,32
80411610:	8fbf001c 	lw	ra,28(sp)
80411614:	8fb10018 	lw	s1,24(sp)
80411618:	8fb00014 	lw	s0,20(sp)
8041161c:	03e00008 	jr	ra
80411620:	27bd0020 	addiu	sp,sp,32
80411624:	02202021 	move	a0,s1
80411628:	02002821 	move	a1,s0
8041162c:	0c1044f5 	jal	804113d4 <call_vectored_isr>
80411630:	3c06b040 	lui	a2,0xb040
80411634:	32020030 	andi	v0,s0,0x30
80411638:	1040ffde 	beqz	v0,804115b4 <mips_vector_isr_handlers+0x80>
8041163c:	02202021 	move	a0,s1
80411640:	02002821 	move	a1,s0
80411644:	0c1044f5 	jal	804113d4 <call_vectored_isr>
80411648:	3c06b180 	lui	a2,0xb180
8041164c:	0810456e 	j	804115b8 <mips_vector_isr_handlers+0x84>
80411650:	32020001 	andi	v0,s0,0x1
80411654:	8fb10018 	lw	s1,24(sp)
80411658:	8fb00014 	lw	s0,20(sp)
8041165c:	24040021 	li	a0,33
80411660:	081044e9 	j	804113a4 <mips_default_isr>
80411664:	27bd0020 	addiu	sp,sp,32
80411668:	0c1044e9 	jal	804113a4 <mips_default_isr>
8041166c:	24040026 	li	a0,38
80411670:	08104569 	j	804115a4 <mips_vector_isr_handlers+0x70>
80411674:	3202000c 	andi	v0,s0,0xc
80411678:	0c1044e9 	jal	804113a4 <mips_default_isr>
8041167c:	24040020 	li	a0,32
80411680:	08104578 	j	804115e0 <mips_vector_isr_handlers+0xac>
80411684:	32020002 	andi	v0,s0,0x2
	...

80411690 <_free_r>:
80411690:	08102c9c 	j	8040b270 <free>
80411694:	00a02021 	move	a0,a1
	...

804116a0 <fstat>:
804116a0:	27bdffe0 	addiu	sp,sp,-32
804116a4:	afb10018 	sw	s1,24(sp)
804116a8:	afbf001c 	sw	ra,28(sp)
804116ac:	afb00014 	sw	s0,20(sp)
804116b0:	10a00032 	beqz	a1,8041177c <fstat+0xdc>
804116b4:	00a08821 	move	s1,a1
804116b8:	3c038041 	lui	v1,0x8041
804116bc:	8c623690 	lw	v0,13968(v1)
804116c0:	0082102b 	sltu	v0,a0,v0
804116c4:	1040001e 	beqz	v0,80411740 <fstat+0xa0>
804116c8:	00041880 	sll	v1,a0,0x2
804116cc:	00041100 	sll	v0,a0,0x4
804116d0:	00431023 	subu	v0,v0,v1
804116d4:	3c038041 	lui	v1,0x8041
804116d8:	00441021 	addu	v0,v0,a0
804116dc:	8c644394 	lw	a0,17300(v1)
804116e0:	00021080 	sll	v0,v0,0x2
804116e4:	00828021 	addu	s0,a0,v0
804116e8:	8e03000c 	lw	v1,12(s0)
804116ec:	30630100 	andi	v1,v1,0x100
804116f0:	10600013 	beqz	v1,80411740 <fstat+0xa0>
804116f4:	00000000 	nop
804116f8:	8e020030 	lw	v0,48(s0)
804116fc:	10400010 	beqz	v0,80411740 <fstat+0xa0>
80411700:	00000000 	nop
80411704:	8c420018 	lw	v0,24(v0)
80411708:	10400017 	beqz	v0,80411768 <fstat+0xc8>
8041170c:	00a02021 	move	a0,a1
80411710:	24060050 	li	a2,80
80411714:	0c103dd8 	jal	8040f760 <memset>
80411718:	00002821 	move	a1,zero
8041171c:	8e030030 	lw	v1,48(s0)
80411720:	26040010 	addiu	a0,s0,16
80411724:	8c790018 	lw	t9,24(v1)
80411728:	02202821 	move	a1,s1
8041172c:	8fbf001c 	lw	ra,28(sp)
80411730:	8fb10018 	lw	s1,24(sp)
80411734:	8fb00014 	lw	s0,20(sp)
80411738:	03200008 	jr	t9
8041173c:	27bd0020 	addiu	sp,sp,32
80411740:	0c103b34 	jal	8040ecd0 <__errno>
80411744:	00000000 	nop
80411748:	24030009 	li	v1,9
8041174c:	ac430000 	sw	v1,0(v0)
80411750:	8fbf001c 	lw	ra,28(sp)
80411754:	2402ffff 	li	v0,-1
80411758:	8fb10018 	lw	s1,24(sp)
8041175c:	8fb00014 	lw	s0,20(sp)
80411760:	03e00008 	jr	ra
80411764:	27bd0020 	addiu	sp,sp,32
80411768:	0c103b34 	jal	8040ecd0 <__errno>
8041176c:	00000000 	nop
80411770:	24030086 	li	v1,134
80411774:	081045d4 	j	80411750 <fstat+0xb0>
80411778:	ac430000 	sw	v1,0(v0)
8041177c:	0c103b34 	jal	8040ecd0 <__errno>
80411780:	00000000 	nop
80411784:	2403000e 	li	v1,14
80411788:	081045d4 	j	80411750 <fstat+0xb0>
8041178c:	ac430000 	sw	v1,0(v0)

80411790 <_fstat_r>:
80411790:	00a02021 	move	a0,a1
80411794:	081045a8 	j	804116a0 <fstat>
80411798:	00c02821 	move	a1,a2
8041179c:	00000000 	nop

804117a0 <isatty>:
804117a0:	27bdff98 	addiu	sp,sp,-104
804117a4:	afbf0064 	sw	ra,100(sp)
804117a8:	0c1045a8 	jal	804116a0 <fstat>
804117ac:	27a50010 	addiu	a1,sp,16
804117b0:	04400007 	bltz	v0,804117d0 <isatty+0x30>
804117b4:	8fa2001c 	lw	v0,28(sp)
804117b8:	8fbf0064 	lw	ra,100(sp)
804117bc:	3042f000 	andi	v0,v0,0xf000
804117c0:	38422000 	xori	v0,v0,0x2000
804117c4:	2c420001 	sltiu	v0,v0,1
804117c8:	03e00008 	jr	ra
804117cc:	27bd0068 	addiu	sp,sp,104
804117d0:	8fbf0064 	lw	ra,100(sp)
804117d4:	00001021 	move	v0,zero
804117d8:	03e00008 	jr	ra
804117dc:	27bd0068 	addiu	sp,sp,104

804117e0 <lseek>:
804117e0:	3c028041 	lui	v0,0x8041
804117e4:	8c433690 	lw	v1,13968(v0)
804117e8:	27bdffe0 	addiu	sp,sp,-32
804117ec:	0083182b 	sltu	v1,a0,v1
804117f0:	afbf001c 	sw	ra,28(sp)
804117f4:	afb10018 	sw	s1,24(sp)
804117f8:	10600039 	beqz	v1,804118e0 <lseek+0x100>
804117fc:	afb00014 	sw	s0,20(sp)
80411800:	00041880 	sll	v1,a0,0x2
80411804:	00041100 	sll	v0,a0,0x4
80411808:	00431023 	subu	v0,v0,v1
8041180c:	3c038041 	lui	v1,0x8041
80411810:	00441021 	addu	v0,v0,a0
80411814:	8c644394 	lw	a0,17300(v1)
80411818:	00021080 	sll	v0,v0,0x2
8041181c:	00828021 	addu	s0,a0,v0
80411820:	8e03000c 	lw	v1,12(s0)
80411824:	30630100 	andi	v1,v1,0x100
80411828:	1060002d 	beqz	v1,804118e0 <lseek+0x100>
8041182c:	00000000 	nop
80411830:	8e030030 	lw	v1,48(s0)
80411834:	8c620014 	lw	v0,20(v1)
80411838:	1040002f 	beqz	v0,804118f8 <lseek+0x118>
8041183c:	24020001 	li	v0,1
80411840:	10c20024 	beq	a2,v0,804118d4 <lseek+0xf4>
80411844:	8e110008 	lw	s1,8(s0)
80411848:	24020002 	li	v0,2
8041184c:	10c20012 	beq	a2,v0,80411898 <lseek+0xb8>
80411850:	00000000 	nop
80411854:	14c00014 	bnez	a2,804118a8 <lseek+0xc8>
80411858:	00000000 	nop
8041185c:	ae050008 	sw	a1,8(s0)
80411860:	8c630014 	lw	v1,20(v1)
80411864:	0060f809 	jalr	v1
80411868:	02002021 	move	a0,s0
8041186c:	00401821 	move	v1,v0
80411870:	2402ffff 	li	v0,-1
80411874:	14620003 	bne	v1,v0,80411884 <lseek+0xa4>
80411878:	8fbf001c 	lw	ra,28(sp)
8041187c:	ae110008 	sw	s1,8(s0)
80411880:	8fbf001c 	lw	ra,28(sp)
80411884:	00601021 	move	v0,v1
80411888:	8fb10018 	lw	s1,24(sp)
8041188c:	8fb00014 	lw	s0,20(sp)
80411890:	03e00008 	jr	ra
80411894:	27bd0020 	addiu	sp,sp,32
80411898:	8e020004 	lw	v0,4(s0)
8041189c:	00a21021 	addu	v0,a1,v0
804118a0:	08104618 	j	80411860 <lseek+0x80>
804118a4:	ae020008 	sw	v0,8(s0)
804118a8:	0c103b34 	jal	8040ecd0 <__errno>
804118ac:	00000000 	nop
804118b0:	24030016 	li	v1,22
804118b4:	8fbf001c 	lw	ra,28(sp)
804118b8:	ac430000 	sw	v1,0(v0)
804118bc:	2403ffff 	li	v1,-1
804118c0:	00601021 	move	v0,v1
804118c4:	8fb10018 	lw	s1,24(sp)
804118c8:	8fb00014 	lw	s0,20(sp)
804118cc:	03e00008 	jr	ra
804118d0:	27bd0020 	addiu	sp,sp,32
804118d4:	00b11021 	addu	v0,a1,s1
804118d8:	08104618 	j	80411860 <lseek+0x80>
804118dc:	ae020008 	sw	v0,8(s0)
804118e0:	0c103b34 	jal	8040ecd0 <__errno>
804118e4:	00000000 	nop
804118e8:	24030009 	li	v1,9
804118ec:	ac430000 	sw	v1,0(v0)
804118f0:	08104620 	j	80411880 <lseek+0xa0>
804118f4:	2403ffff 	li	v1,-1
804118f8:	0c103b34 	jal	8040ecd0 <__errno>
804118fc:	00000000 	nop
80411900:	24030086 	li	v1,134
80411904:	ac430000 	sw	v1,0(v0)
80411908:	08104620 	j	80411880 <lseek+0xa0>
8041190c:	2403ffff 	li	v1,-1

80411910 <_lseek_r>:
80411910:	00a02021 	move	a0,a1
80411914:	00c02821 	move	a1,a2
80411918:	081045f8 	j	804117e0 <lseek>
8041191c:	00e03021 	move	a2,a3

80411920 <_malloc_r>:
80411920:	0810044c 	j	80401130 <malloc>
80411924:	00a02021 	move	a0,a1
	...

80411930 <libc_wrapup>:
80411930:	3c028041 	lui	v0,0x8041
80411934:	8c4446b4 	lw	a0,18100(v0)
80411938:	27bdffe8 	addiu	sp,sp,-24
8041193c:	24030003 	li	v1,3
80411940:	afbf0014 	sw	ra,20(sp)
80411944:	10830005 	beq	a0,v1,8041195c <libc_wrapup+0x2c>
80411948:	afb00010 	sw	s0,16(sp)
8041194c:	8fbf0014 	lw	ra,20(sp)
80411950:	8fb00010 	lw	s0,16(sp)
80411954:	03e00008 	jr	ra
80411958:	27bd0018 	addiu	sp,sp,24
8041195c:	8f828fc0 	lw	v0,-28736(gp)
80411960:	27908bc0 	addiu	s0,gp,-29760
80411964:	10500005 	beq	v0,s0,8041197c <libc_wrapup+0x4c>
80411968:	00000000 	nop
8041196c:	0c104874 	jal	804121d0 <_wrapup_reent>
80411970:	02002021 	move	a0,s0
80411974:	af908fc0 	sw	s0,-28736(gp)
80411978:	02001021 	move	v0,s0
8041197c:	0c103b97 	jal	8040ee5c <fclose>
80411980:	8c440004 	lw	a0,4(v0)
80411984:	8f838fc0 	lw	v1,-28736(gp)
80411988:	0c103b97 	jal	8040ee5c <fclose>
8041198c:	8c640008 	lw	a0,8(v1)
80411990:	8f838fc0 	lw	v1,-28736(gp)
80411994:	8fbf0014 	lw	ra,20(sp)
80411998:	8c64000c 	lw	a0,12(v1)
8041199c:	8fb00010 	lw	s0,16(sp)
804119a0:	08103b97 	j	8040ee5c <fclose>
804119a4:	27bd0018 	addiu	sp,sp,24

804119a8 <_exit>:
804119a8:	27bdffe8 	addiu	sp,sp,-24
804119ac:	afb00010 	sw	s0,16(sp)
804119b0:	afbf0014 	sw	ra,20(sp)
804119b4:	0c1000ee 	jal	804003b8 <_fini>
804119b8:	00808021 	move	s0,a0
804119bc:	0c10464c 	jal	80411930 <libc_wrapup>
804119c0:	00000000 	nop
804119c4:	0c1046c8 	jal	80411b20 <rtems_shutdown_executive>
804119c8:	02002021 	move	a0,s0
804119cc:	08104673 	j	804119cc <_exit+0x24>
804119d0:	00000000 	nop
	...

804119e0 <read>:
804119e0:	3c028041 	lui	v0,0x8041
804119e4:	8c433690 	lw	v1,13968(v0)
804119e8:	27bdffe8 	addiu	sp,sp,-24
804119ec:	0083182b 	sltu	v1,a0,v1
804119f0:	afbf0014 	sw	ra,20(sp)
804119f4:	10600029 	beqz	v1,80411a9c <read+0xbc>
804119f8:	afb00010 	sw	s0,16(sp)
804119fc:	00041880 	sll	v1,a0,0x2
80411a00:	00041100 	sll	v0,a0,0x4
80411a04:	00431023 	subu	v0,v0,v1
80411a08:	3c038041 	lui	v1,0x8041
80411a0c:	00441021 	addu	v0,v0,a0
80411a10:	8c644394 	lw	a0,17300(v1)
80411a14:	00021080 	sll	v0,v0,0x2
80411a18:	00828021 	addu	s0,a0,v0
80411a1c:	8e03000c 	lw	v1,12(s0)
80411a20:	30620100 	andi	v0,v1,0x100
80411a24:	1040001d 	beqz	v0,80411a9c <read+0xbc>
80411a28:	00000000 	nop
80411a2c:	10a00021 	beqz	a1,80411ab4 <read+0xd4>
80411a30:	00000000 	nop
80411a34:	10c00013 	beqz	a2,80411a84 <read+0xa4>
80411a38:	30620002 	andi	v0,v1,0x2
80411a3c:	1040001d 	beqz	v0,80411ab4 <read+0xd4>
80411a40:	00000000 	nop
80411a44:	8e020030 	lw	v0,48(s0)
80411a48:	8c420008 	lw	v0,8(v0)
80411a4c:	1040001f 	beqz	v0,80411acc <read+0xec>
80411a50:	00000000 	nop
80411a54:	0040f809 	jalr	v0
80411a58:	02002021 	move	a0,s0
80411a5c:	18400004 	blez	v0,80411a70 <read+0x90>
80411a60:	00401821 	move	v1,v0
80411a64:	8e020008 	lw	v0,8(s0)
80411a68:	00431021 	addu	v0,v0,v1
80411a6c:	ae020008 	sw	v0,8(s0)
80411a70:	8fbf0014 	lw	ra,20(sp)
80411a74:	00601021 	move	v0,v1
80411a78:	8fb00010 	lw	s0,16(sp)
80411a7c:	03e00008 	jr	ra
80411a80:	27bd0018 	addiu	sp,sp,24
80411a84:	8fbf0014 	lw	ra,20(sp)
80411a88:	00001821 	move	v1,zero
80411a8c:	00601021 	move	v0,v1
80411a90:	8fb00010 	lw	s0,16(sp)
80411a94:	03e00008 	jr	ra
80411a98:	27bd0018 	addiu	sp,sp,24
80411a9c:	0c103b34 	jal	8040ecd0 <__errno>
80411aa0:	00000000 	nop
80411aa4:	24030009 	li	v1,9
80411aa8:	ac430000 	sw	v1,0(v0)
80411aac:	0810469c 	j	80411a70 <read+0x90>
80411ab0:	2403ffff 	li	v1,-1
80411ab4:	0c103b34 	jal	8040ecd0 <__errno>
80411ab8:	00000000 	nop
80411abc:	24030016 	li	v1,22
80411ac0:	ac430000 	sw	v1,0(v0)
80411ac4:	0810469c 	j	80411a70 <read+0x90>
80411ac8:	2403ffff 	li	v1,-1
80411acc:	0c103b34 	jal	8040ecd0 <__errno>
80411ad0:	00000000 	nop
80411ad4:	24030086 	li	v1,134
80411ad8:	ac430000 	sw	v1,0(v0)
80411adc:	0810469c 	j	80411a70 <read+0x90>
80411ae0:	2403ffff 	li	v1,-1

80411ae4 <_read_r>:
80411ae4:	00a02021 	move	a0,a1
80411ae8:	00c02821 	move	a1,a2
80411aec:	08104678 	j	804119e0 <read>
80411af0:	00e03021 	move	a2,a3
	...

80411b00 <_realloc_r>:
80411b00:	00a02021 	move	a0,a1
80411b04:	081046d8 	j	80411b60 <realloc>
80411b08:	00c02821 	move	a1,a2
80411b0c:	00000000 	nop

80411b10 <_write_r>:
80411b10:	00a02021 	move	a0,a1
80411b14:	00c02821 	move	a1,a2
80411b18:	0810472c 	j	80411cb0 <write>
80411b1c:	00e03021 	move	a2,a3

80411b20 <rtems_shutdown_executive>:
80411b20:	3c068041 	lui	a2,0x8041
80411b24:	8cc246b4 	lw	v0,18100(a2)
80411b28:	27bdffb0 	addiu	sp,sp,-80
80411b2c:	24030004 	li	v1,4
80411b30:	10430006 	beq	v0,v1,80411b4c <rtems_shutdown_executive+0x2c>
80411b34:	afbf004c 	sw	ra,76(sp)
80411b38:	3c058041 	lui	a1,0x8041
80411b3c:	24a544e0 	addiu	a1,a1,17632
80411b40:	27a40010 	addiu	a0,sp,16
80411b44:	0c102688 	jal	80409a20 <_CPU_Context_switch>
80411b48:	acc346b4 	sw	v1,18100(a2)
80411b4c:	8fbf004c 	lw	ra,76(sp)
80411b50:	03e00008 	jr	ra
80411b54:	27bd0050 	addiu	sp,sp,80
	...

80411b60 <realloc>:
80411b60:	27bdffd0 	addiu	sp,sp,-48
80411b64:	3c028041 	lui	v0,0x8041
80411b68:	afb30028 	sw	s3,40(sp)
80411b6c:	245343f8 	addiu	s3,v0,17400
80411b70:	8e630010 	lw	v1,16(s3)
80411b74:	3c028041 	lui	v0,0x8041
80411b78:	8c4646b4 	lw	a2,18100(v0)
80411b7c:	24630001 	addiu	v1,v1,1
80411b80:	24020003 	li	v0,3
80411b84:	afb20024 	sw	s2,36(sp)
80411b88:	afb0001c 	sw	s0,28(sp)
80411b8c:	afbf002c 	sw	ra,44(sp)
80411b90:	afb10020 	sw	s1,32(sp)
80411b94:	ae630010 	sw	v1,16(s3)
80411b98:	00808021 	move	s0,a0
80411b9c:	10c2001c 	beq	a2,v0,80411c10 <realloc+0xb0>
80411ba0:	00a09021 	move	s2,a1
80411ba4:	12000016 	beqz	s0,80411c00 <realloc+0xa0>
80411ba8:	00000000 	nop
80411bac:	12400023 	beqz	s2,80411c3c <realloc+0xdc>
80411bb0:	3c118041 	lui	s1,0x8041
80411bb4:	262443a0 	addiu	a0,s1,17312
80411bb8:	02002821 	move	a1,s0
80411bbc:	0c104770 	jal	80411dc0 <_Protected_heap_Get_block_size>
80411bc0:	27a60010 	addiu	a2,sp,16
80411bc4:	10400021 	beqz	v0,80411c4c <realloc+0xec>
80411bc8:	262443a0 	addiu	a0,s1,17312
80411bcc:	02002821 	move	a1,s0
80411bd0:	0c10478c 	jal	80411e30 <_Protected_heap_Resize_block>
80411bd4:	02403021 	move	a2,s2
80411bd8:	10400021 	beqz	v0,80411c60 <realloc+0x100>
80411bdc:	00000000 	nop
80411be0:	8fbf002c 	lw	ra,44(sp)
80411be4:	02001021 	move	v0,s0
80411be8:	8fb30028 	lw	s3,40(sp)
80411bec:	8fb20024 	lw	s2,36(sp)
80411bf0:	8fb10020 	lw	s1,32(sp)
80411bf4:	8fb0001c 	lw	s0,28(sp)
80411bf8:	03e00008 	jr	ra
80411bfc:	27bd0030 	addiu	sp,sp,48
80411c00:	0c10044c 	jal	80401130 <malloc>
80411c04:	02402021 	move	a0,s2
80411c08:	081046f8 	j	80411be0 <realloc+0x80>
80411c0c:	00408021 	move	s0,v0
80411c10:	3c028041 	lui	v0,0x8041
80411c14:	8c434514 	lw	v1,17684(v0)
80411c18:	10600003 	beqz	v1,80411c28 <realloc+0xc8>
80411c1c:	3c028041 	lui	v0,0x8041
80411c20:	081046f8 	j	80411be0 <realloc+0x80>
80411c24:	00008021 	move	s0,zero
80411c28:	8c4345b0 	lw	v1,17840(v0)
80411c2c:	1060ffdd 	beqz	v1,80411ba4 <realloc+0x44>
80411c30:	00000000 	nop
80411c34:	081046f8 	j	80411be0 <realloc+0x80>
80411c38:	00008021 	move	s0,zero
80411c3c:	0c102c9c 	jal	8040b270 <free>
80411c40:	02002021 	move	a0,s0
80411c44:	081046f8 	j	80411be0 <realloc+0x80>
80411c48:	00008021 	move	s0,zero
80411c4c:	0c103b34 	jal	8040ecd0 <__errno>
80411c50:	00008021 	move	s0,zero
80411c54:	24030016 	li	v1,22
80411c58:	081046f8 	j	80411be0 <realloc+0x80>
80411c5c:	ac430000 	sw	v1,0(v0)
80411c60:	0c10044c 	jal	80401130 <malloc>
80411c64:	02402021 	move	a0,s2
80411c68:	00408821 	move	s1,v0
80411c6c:	8e620004 	lw	v0,4(s3)
80411c70:	2442ffff 	addiu	v0,v0,-1
80411c74:	1220ffea 	beqz	s1,80411c20 <realloc+0xc0>
80411c78:	ae620004 	sw	v0,4(s3)
80411c7c:	8fa60010 	lw	a2,16(sp)
80411c80:	02002821 	move	a1,s0
80411c84:	00d2102b 	sltu	v0,a2,s2
80411c88:	0242300a 	movz	a2,s2,v0
80411c8c:	0c103d70 	jal	8040f5c0 <memcpy>
80411c90:	02202021 	move	a0,s1
80411c94:	0c102c9c 	jal	8040b270 <free>
80411c98:	02002021 	move	a0,s0
80411c9c:	081046f8 	j	80411be0 <realloc+0x80>
80411ca0:	02208021 	move	s0,s1
	...

80411cb0 <write>:
80411cb0:	3c028041 	lui	v0,0x8041
80411cb4:	8c433690 	lw	v1,13968(v0)
80411cb8:	27bdffe8 	addiu	sp,sp,-24
80411cbc:	0083182b 	sltu	v1,a0,v1
80411cc0:	afbf0014 	sw	ra,20(sp)
80411cc4:	10600029 	beqz	v1,80411d6c <write+0xbc>
80411cc8:	afb00010 	sw	s0,16(sp)
80411ccc:	00041880 	sll	v1,a0,0x2
80411cd0:	00041100 	sll	v0,a0,0x4
80411cd4:	00431023 	subu	v0,v0,v1
80411cd8:	3c038041 	lui	v1,0x8041
80411cdc:	00441021 	addu	v0,v0,a0
80411ce0:	8c644394 	lw	a0,17300(v1)
80411ce4:	00021080 	sll	v0,v0,0x2
80411ce8:	00828021 	addu	s0,a0,v0
80411cec:	8e03000c 	lw	v1,12(s0)
80411cf0:	30620100 	andi	v0,v1,0x100
80411cf4:	1040001d 	beqz	v0,80411d6c <write+0xbc>
80411cf8:	00000000 	nop
80411cfc:	10a00021 	beqz	a1,80411d84 <write+0xd4>
80411d00:	00000000 	nop
80411d04:	10c00013 	beqz	a2,80411d54 <write+0xa4>
80411d08:	30620004 	andi	v0,v1,0x4
80411d0c:	1040001d 	beqz	v0,80411d84 <write+0xd4>
80411d10:	00000000 	nop
80411d14:	8e020030 	lw	v0,48(s0)
80411d18:	8c42000c 	lw	v0,12(v0)
80411d1c:	1040001f 	beqz	v0,80411d9c <write+0xec>
80411d20:	00000000 	nop
80411d24:	0040f809 	jalr	v0
80411d28:	02002021 	move	a0,s0
80411d2c:	18400004 	blez	v0,80411d40 <write+0x90>
80411d30:	00401821 	move	v1,v0
80411d34:	8e020008 	lw	v0,8(s0)
80411d38:	00431021 	addu	v0,v0,v1
80411d3c:	ae020008 	sw	v0,8(s0)
80411d40:	8fbf0014 	lw	ra,20(sp)
80411d44:	00601021 	move	v0,v1
80411d48:	8fb00010 	lw	s0,16(sp)
80411d4c:	03e00008 	jr	ra
80411d50:	27bd0018 	addiu	sp,sp,24
80411d54:	8fbf0014 	lw	ra,20(sp)
80411d58:	00001821 	move	v1,zero
80411d5c:	00601021 	move	v0,v1
80411d60:	8fb00010 	lw	s0,16(sp)
80411d64:	03e00008 	jr	ra
80411d68:	27bd0018 	addiu	sp,sp,24
80411d6c:	0c103b34 	jal	8040ecd0 <__errno>
80411d70:	00000000 	nop
80411d74:	24030009 	li	v1,9
80411d78:	ac430000 	sw	v1,0(v0)
80411d7c:	08104750 	j	80411d40 <write+0x90>
80411d80:	2403ffff 	li	v1,-1
80411d84:	0c103b34 	jal	8040ecd0 <__errno>
80411d88:	00000000 	nop
80411d8c:	24030016 	li	v1,22
80411d90:	ac430000 	sw	v1,0(v0)
80411d94:	08104750 	j	80411d40 <write+0x90>
80411d98:	2403ffff 	li	v1,-1
80411d9c:	0c103b34 	jal	8040ecd0 <__errno>
80411da0:	00000000 	nop
80411da4:	24030086 	li	v1,134
80411da8:	ac430000 	sw	v1,0(v0)
80411dac:	08104750 	j	80411d40 <write+0x90>
80411db0:	2403ffff 	li	v1,-1
	...

80411dc0 <_Protected_heap_Get_block_size>:
80411dc0:	27bdffd8 	addiu	sp,sp,-40
80411dc4:	afb30020 	sw	s3,32(sp)
80411dc8:	3c138041 	lui	s3,0x8041
80411dcc:	afb2001c 	sw	s2,28(sp)
80411dd0:	00809021 	move	s2,a0
80411dd4:	8e6445cc 	lw	a0,17868(s3)
80411dd8:	afb10018 	sw	s1,24(sp)
80411ddc:	afb00014 	sw	s0,20(sp)
80411de0:	00c08821 	move	s1,a2
80411de4:	afbf0024 	sw	ra,36(sp)
80411de8:	0c10181c 	jal	80406070 <_API_Mutex_Lock>
80411dec:	00a08021 	move	s0,a1
80411df0:	02402021 	move	a0,s2
80411df4:	02002821 	move	a1,s0
80411df8:	0c10484c 	jal	80412130 <_Heap_Size_of_user_area>
80411dfc:	02203021 	move	a2,s1
80411e00:	8e6445cc 	lw	a0,17868(s3)
80411e04:	0c1018c8 	jal	80406320 <_API_Mutex_Unlock>
80411e08:	00408021 	move	s0,v0
80411e0c:	8fbf0024 	lw	ra,36(sp)
80411e10:	02001021 	move	v0,s0
80411e14:	8fb30020 	lw	s3,32(sp)
80411e18:	8fb2001c 	lw	s2,28(sp)
80411e1c:	8fb10018 	lw	s1,24(sp)
80411e20:	8fb00014 	lw	s0,20(sp)
80411e24:	03e00008 	jr	ra
80411e28:	27bd0028 	addiu	sp,sp,40
80411e2c:	00000000 	nop

80411e30 <_Protected_heap_Resize_block>:
80411e30:	27bdffc8 	addiu	sp,sp,-56
80411e34:	afb30030 	sw	s3,48(sp)
80411e38:	3c138041 	lui	s3,0x8041
80411e3c:	afb2002c 	sw	s2,44(sp)
80411e40:	00809021 	move	s2,a0
80411e44:	8e6445cc 	lw	a0,17868(s3)
80411e48:	afb10028 	sw	s1,40(sp)
80411e4c:	afb00024 	sw	s0,36(sp)
80411e50:	00c08821 	move	s1,a2
80411e54:	afbf0034 	sw	ra,52(sp)
80411e58:	0c10181c 	jal	80406070 <_API_Mutex_Lock>
80411e5c:	00a08021 	move	s0,a1
80411e60:	02402021 	move	a0,s2
80411e64:	02002821 	move	a1,s0
80411e68:	02203021 	move	a2,s1
80411e6c:	27a70018 	addiu	a3,sp,24
80411e70:	27a2001c 	addiu	v0,sp,28
80411e74:	0c1047ac 	jal	80411eb0 <_Heap_Resize_block>
80411e78:	afa20010 	sw	v0,16(sp)
80411e7c:	8e6445cc 	lw	a0,17868(s3)
80411e80:	0c1018c8 	jal	80406320 <_API_Mutex_Unlock>
80411e84:	00408021 	move	s0,v0
80411e88:	8fbf0034 	lw	ra,52(sp)
80411e8c:	2e020001 	sltiu	v0,s0,1
80411e90:	8fb30030 	lw	s3,48(sp)
80411e94:	8fb2002c 	lw	s2,44(sp)
80411e98:	8fb10028 	lw	s1,40(sp)
80411e9c:	8fb00024 	lw	s0,36(sp)
80411ea0:	03e00008 	jr	ra
80411ea4:	27bd0038 	addiu	sp,sp,56
	...

80411eb0 <_Heap_Resize_block>:
80411eb0:	27bdffd0 	addiu	sp,sp,-48
80411eb4:	afb40024 	sw	s4,36(sp)
80411eb8:	8fb40040 	lw	s4,64(sp)
80411ebc:	8c8c0014 	lw	t4,20(a0)
80411ec0:	8c8b0010 	lw	t3,16(a0)
80411ec4:	ace00000 	sw	zero,0(a3)
80411ec8:	ae800000 	sw	zero,0(s4)
80411ecc:	8c820010 	lw	v0,16(a0)
80411ed0:	afb10018 	sw	s1,24(sp)
80411ed4:	00a2001b 	divu	zero,a1,v0
80411ed8:	004001f4 	teq	v0,zero,0x7
80411edc:	00808821 	move	s1,a0
80411ee0:	24a3fff8 	addiu	v1,a1,-8
80411ee4:	8e290020 	lw	t1,32(s1)
80411ee8:	afb00014 	sw	s0,20(sp)
80411eec:	afbf002c 	sw	ra,44(sp)
80411ef0:	afb50028 	sw	s5,40(sp)
80411ef4:	afb30020 	sw	s3,32(sp)
80411ef8:	afb2001c 	sw	s2,28(sp)
80411efc:	00002010 	mfhi	a0
80411f00:	00648023 	subu	s0,v1,a0
80411f04:	0209102b 	sltu	v0,s0,t1
80411f08:	14400004 	bnez	v0,80411f1c <_Heap_Resize_block+0x6c>
80411f0c:	8e280024 	lw	t0,36(s1)
80411f10:	0110102b 	sltu	v0,t0,s0
80411f14:	1040000c 	beqz	v0,80411f48 <_Heap_Resize_block+0x98>
80411f18:	2404fffe 	li	a0,-2
80411f1c:	24030002 	li	v1,2
80411f20:	8fbf002c 	lw	ra,44(sp)
80411f24:	00601021 	move	v0,v1
80411f28:	8fb50028 	lw	s5,40(sp)
80411f2c:	8fb40024 	lw	s4,36(sp)
80411f30:	8fb30020 	lw	s3,32(sp)
80411f34:	8fb2001c 	lw	s2,28(sp)
80411f38:	8fb10018 	lw	s1,24(sp)
80411f3c:	8fb00014 	lw	s0,20(sp)
80411f40:	03e00008 	jr	ra
80411f44:	27bd0030 	addiu	sp,sp,48
80411f48:	8e0d0004 	lw	t5,4(s0)
80411f4c:	01a49824 	and	s3,t5,a0
80411f50:	02135021 	addu	t2,s0,s3
80411f54:	0149102b 	sltu	v0,t2,t1
80411f58:	1440fff1 	bnez	v0,80411f20 <_Heap_Resize_block+0x70>
80411f5c:	24030002 	li	v1,2
80411f60:	010a102b 	sltu	v0,t0,t2
80411f64:	1440ffef 	bnez	v0,80411f24 <_Heap_Resize_block+0x74>
80411f68:	8fbf002c 	lw	ra,44(sp)
80411f6c:	8d430004 	lw	v1,4(t2)
80411f70:	30620001 	andi	v0,v1,0x1
80411f74:	1040ffe9 	beqz	v0,80411f1c <_Heap_Resize_block+0x6c>
80411f78:	00000000 	nop
80411f7c:	00644824 	and	t1,v1,a0
80411f80:	110a0054 	beq	t0,t2,804120d4 <_Heap_Resize_block+0x224>
80411f84:	01497021 	addu	t6,t2,t1
80411f88:	8dc20004 	lw	v0,4(t6)
80411f8c:	30480001 	andi	t0,v0,0x1
80411f90:	01451023 	subu	v0,t2,a1
80411f94:	24420004 	addiu	v0,v0,4
80411f98:	0046182b 	sltu	v1,v0,a2
80411f9c:	ace20000 	sw	v0,0(a3)
80411fa0:	10600013 	beqz	v1,80411ff0 <_Heap_Resize_block+0x140>
80411fa4:	31b50001 	andi	s5,t5,0x1
80411fa8:	1500ffdd 	bnez	t0,80411f20 <_Heap_Resize_block+0x70>
80411fac:	24030001 	li	v1,1
80411fb0:	00c21823 	subu	v1,a2,v0
80411fb4:	006b001b 	divu	zero,v1,t3
80411fb8:	016001f4 	teq	t3,zero,0x7
80411fbc:	00003810 	mfhi	a3
80411fc0:	10e00004 	beqz	a3,80411fd4 <_Heap_Resize_block+0x124>
80411fc4:	006c102b 	sltu	v0,v1,t4
80411fc8:	006b1021 	addu	v0,v1,t3
80411fcc:	00471823 	subu	v1,v0,a3
80411fd0:	006c102b 	sltu	v0,v1,t4
80411fd4:	01803021 	move	a2,t4
80411fd8:	0062300a 	movz	a2,v1,v0
80411fdc:	0126182b 	sltu	v1,t1,a2
80411fe0:	10600032 	beqz	v1,804120ac <_Heap_Resize_block+0x1fc>
80411fe4:	24030001 	li	v1,1
80411fe8:	081047c9 	j	80411f24 <_Heap_Resize_block+0x74>
80411fec:	8fbf002c 	lw	ra,44(sp)
80411ff0:	00461023 	subu	v0,v0,a2
80411ff4:	004b001b 	divu	zero,v0,t3
80411ff8:	016001f4 	teq	t3,zero,0x7
80411ffc:	00001810 	mfhi	v1
80412000:	00439023 	subu	s2,v0,v1
80412004:	1240001b 	beqz	s2,80412074 <_Heap_Resize_block+0x1c4>
80412008:	02722023 	subu	a0,s3,s2
8041200c:	008c102b 	sltu	v0,a0,t4
80412010:	10400004 	beqz	v0,80412024 <_Heap_Resize_block+0x174>
80412014:	01841023 	subu	v0,t4,a0
80412018:	02429023 	subu	s2,s2,v0
8041201c:	12400015 	beqz	s2,80412074 <_Heap_Resize_block+0x1c4>
80412020:	00822021 	addu	a0,a0,v0
80412024:	1500002d 	bnez	t0,804120dc <_Heap_Resize_block+0x22c>
80412028:	024c102b 	sltu	v0,s2,t4
8041202c:	02491821 	addu	v1,s2,t1
80412030:	00951025 	or	v0,a0,s5
80412034:	34650001 	ori	a1,v1,0x1
80412038:	02042021 	addu	a0,s0,a0
8041203c:	ae020004 	sw	v0,4(s0)
80412040:	adc30000 	sw	v1,0(t6)
80412044:	ac850004 	sw	a1,4(a0)
80412048:	8e220030 	lw	v0,48(s1)
8041204c:	8d45000c 	lw	a1,12(t2)
80412050:	8d460008 	lw	a2,8(t2)
80412054:	00521021 	addu	v0,v0,s2
80412058:	2463fffc 	addiu	v1,v1,-4
8041205c:	ae220030 	sw	v0,48(s1)
80412060:	ac860008 	sw	a2,8(a0)
80412064:	ac85000c 	sw	a1,12(a0)
80412068:	ae830000 	sw	v1,0(s4)
8041206c:	aca40008 	sw	a0,8(a1)
80412070:	acc4000c 	sw	a0,12(a2)
80412074:	8e220054 	lw	v0,84(s1)
80412078:	8fbf002c 	lw	ra,44(sp)
8041207c:	24420001 	addiu	v0,v0,1
80412080:	00001821 	move	v1,zero
80412084:	ae220054 	sw	v0,84(s1)
80412088:	8fb50028 	lw	s5,40(sp)
8041208c:	00601021 	move	v0,v1
80412090:	8fb40024 	lw	s4,36(sp)
80412094:	8fb30020 	lw	s3,32(sp)
80412098:	8fb2001c 	lw	s2,28(sp)
8041209c:	8fb10018 	lw	s1,24(sp)
804120a0:	8fb00014 	lw	s0,20(sp)
804120a4:	03e00008 	jr	ra
804120a8:	27bd0030 	addiu	sp,sp,48
804120ac:	01402821 	move	a1,t2
804120b0:	0c101a7f 	jal	804069fc <_Heap_Block_allocate>
804120b4:	02202021 	move	a0,s1
804120b8:	00531021 	addu	v0,v0,s3
804120bc:	00551025 	or	v0,v0,s5
804120c0:	ae020004 	sw	v0,4(s0)
804120c4:	8e220040 	lw	v0,64(s1)
804120c8:	2442ffff 	addiu	v0,v0,-1
804120cc:	0810481d 	j	80412074 <_Heap_Resize_block+0x1c4>
804120d0:	ae220040 	sw	v0,64(s1)
804120d4:	081047e4 	j	80411f90 <_Heap_Resize_block+0xe0>
804120d8:	24080001 	li	t0,1
804120dc:	1440ffe5 	bnez	v0,80412074 <_Heap_Resize_block+0x1c4>
804120e0:	02042821 	addu	a1,s0,a0
804120e4:	00951025 	or	v0,a0,s5
804120e8:	36430001 	ori	v1,s2,0x1
804120ec:	ae020004 	sw	v0,4(s0)
804120f0:	aca30004 	sw	v1,4(a1)
804120f4:	8e220040 	lw	v0,64(s1)
804120f8:	8e230050 	lw	v1,80(s1)
804120fc:	24420001 	addiu	v0,v0,1
80412100:	2463ffff 	addiu	v1,v1,-1
80412104:	ae230050 	sw	v1,80(s1)
80412108:	ae220040 	sw	v0,64(s1)
8041210c:	24a50008 	addiu	a1,a1,8
80412110:	0c103408 	jal	8040d020 <_Heap_Free>
80412114:	02202021 	move	a0,s1
80412118:	2643fffc 	addiu	v1,s2,-4
8041211c:	0810481d 	j	80412074 <_Heap_Resize_block+0x1c4>
80412120:	ae830000 	sw	v1,0(s4)
	...

80412130 <_Heap_Size_of_user_area>:
80412130:	8c870020 	lw	a3,32(a0)
80412134:	00a7102b 	sltu	v0,a1,a3
80412138:	14400004 	bnez	v0,8041214c <_Heap_Size_of_user_area+0x1c>
8041213c:	8c880024 	lw	t0,36(a0)
80412140:	0105102b 	sltu	v0,t0,a1
80412144:	10400003 	beqz	v0,80412154 <_Heap_Size_of_user_area+0x24>
80412148:	00000000 	nop
8041214c:	03e00008 	jr	ra
80412150:	00001021 	move	v0,zero
80412154:	8c830010 	lw	v1,16(a0)
80412158:	24a4fff8 	addiu	a0,a1,-8
8041215c:	00a3001b 	divu	zero,a1,v1
80412160:	006001f4 	teq	v1,zero,0x7
80412164:	00001010 	mfhi	v0
80412168:	00822023 	subu	a0,a0,v0
8041216c:	0087182b 	sltu	v1,a0,a3
80412170:	1460fff6 	bnez	v1,8041214c <_Heap_Size_of_user_area+0x1c>
80412174:	00000000 	nop
80412178:	0104102b 	sltu	v0,t0,a0
8041217c:	1440fff3 	bnez	v0,8041214c <_Heap_Size_of_user_area+0x1c>
80412180:	2403fffe 	li	v1,-2
80412184:	8c820004 	lw	v0,4(a0)
80412188:	00431024 	and	v0,v0,v1
8041218c:	00822021 	addu	a0,a0,v0
80412190:	0087182b 	sltu	v1,a0,a3
80412194:	1460ffed 	bnez	v1,8041214c <_Heap_Size_of_user_area+0x1c>
80412198:	00000000 	nop
8041219c:	0104102b 	sltu	v0,t0,a0
804121a0:	1440ffea 	bnez	v0,8041214c <_Heap_Size_of_user_area+0x1c>
804121a4:	00000000 	nop
804121a8:	8c820004 	lw	v0,4(a0)
804121ac:	30420001 	andi	v0,v0,0x1
804121b0:	1040ffe6 	beqz	v0,8041214c <_Heap_Size_of_user_area+0x1c>
804121b4:	00000000 	nop
804121b8:	00851023 	subu	v0,a0,a1
804121bc:	24420004 	addiu	v0,v0,4
804121c0:	acc20000 	sw	v0,0(a2)
804121c4:	03e00008 	jr	ra
804121c8:	24020001 	li	v0,1
804121cc:	00000000 	nop

804121d0 <_wrapup_reent>:
804121d0:	27bdffd8 	addiu	sp,sp,-40
804121d4:	afb30020 	sw	s3,32(sp)
804121d8:	afbf0024 	sw	ra,36(sp)
804121dc:	afb2001c 	sw	s2,28(sp)
804121e0:	afb10018 	sw	s1,24(sp)
804121e4:	afb00014 	sw	s0,20(sp)
804121e8:	10800023 	beqz	a0,80412278 <_wrapup_reent+0xa8>
804121ec:	00809821 	move	s3,a0
804121f0:	8e720148 	lw	s2,328(s3)
804121f4:	1240000f 	beqz	s2,80412234 <_wrapup_reent+0x64>
804121f8:	00000000 	nop
804121fc:	8e420004 	lw	v0,4(s2)
80412200:	2451ffff 	addiu	s1,v0,-1
80412204:	06200008 	bltz	s1,80412228 <_wrapup_reent+0x58>
80412208:	24420001 	addiu	v0,v0,1
8041220c:	00021080 	sll	v0,v0,0x2
80412210:	02428021 	addu	s0,s2,v0
80412214:	8e020000 	lw	v0,0(s0)
80412218:	0040f809 	jalr	v0
8041221c:	2631ffff 	addiu	s1,s1,-1
80412220:	0621fffc 	bgez	s1,80412214 <_wrapup_reent+0x44>
80412224:	2610fffc 	addiu	s0,s0,-4
80412228:	8e520000 	lw	s2,0(s2)
8041222c:	1640fff3 	bnez	s2,804121fc <_wrapup_reent+0x2c>
80412230:	00000000 	nop
80412234:	8e79003c 	lw	t9,60(s3)
80412238:	13200008 	beqz	t9,8041225c <_wrapup_reent+0x8c>
8041223c:	02602021 	move	a0,s3
80412240:	8fbf0024 	lw	ra,36(sp)
80412244:	8fb30020 	lw	s3,32(sp)
80412248:	8fb2001c 	lw	s2,28(sp)
8041224c:	8fb10018 	lw	s1,24(sp)
80412250:	8fb00014 	lw	s0,20(sp)
80412254:	03200008 	jr	t9
80412258:	27bd0028 	addiu	sp,sp,40
8041225c:	8fbf0024 	lw	ra,36(sp)
80412260:	8fb30020 	lw	s3,32(sp)
80412264:	8fb2001c 	lw	s2,28(sp)
80412268:	8fb10018 	lw	s1,24(sp)
8041226c:	8fb00014 	lw	s0,20(sp)
80412270:	03e00008 	jr	ra
80412274:	27bd0028 	addiu	sp,sp,40
80412278:	0810487c 	j	804121f0 <_wrapup_reent+0x20>
8041227c:	8f938fc0 	lw	s3,-28736(gp)

80412280 <cleanup_glue>:
80412280:	27bdffe0 	addiu	sp,sp,-32
80412284:	afb10018 	sw	s1,24(sp)
80412288:	00a08821 	move	s1,a1
8041228c:	8ca50000 	lw	a1,0(a1)
80412290:	afb00014 	sw	s0,20(sp)
80412294:	afbf001c 	sw	ra,28(sp)
80412298:	10a00003 	beqz	a1,804122a8 <cleanup_glue+0x28>
8041229c:	00808021 	move	s0,a0
804122a0:	0c1048a0 	jal	80412280 <cleanup_glue>
804122a4:	00000000 	nop
804122a8:	02002021 	move	a0,s0
804122ac:	02202821 	move	a1,s1
804122b0:	8fbf001c 	lw	ra,28(sp)
804122b4:	8fb10018 	lw	s1,24(sp)
804122b8:	8fb00014 	lw	s0,20(sp)
804122bc:	081045a4 	j	80411690 <_free_r>
804122c0:	27bd0020 	addiu	sp,sp,32

804122c4 <_reclaim_reent>:
804122c4:	8f828fc0 	lw	v0,-28736(gp)
804122c8:	27bdffd8 	addiu	sp,sp,-40
804122cc:	afb10018 	sw	s1,24(sp)
804122d0:	afbf0024 	sw	ra,36(sp)
804122d4:	afb30020 	sw	s3,32(sp)
804122d8:	afb2001c 	sw	s2,28(sp)
804122dc:	afb00014 	sw	s0,20(sp)
804122e0:	1082002e 	beq	a0,v0,8041239c <_reclaim_reent+0xd8>
804122e4:	00808821 	move	s1,a0
804122e8:	8c83004c 	lw	v1,76(a0)
804122ec:	10600013 	beqz	v1,8041233c <_reclaim_reent+0x78>
804122f0:	00000000 	nop
804122f4:	00009021 	move	s2,zero
804122f8:	2413003c 	li	s3,60
804122fc:	00721021 	addu	v0,v1,s2
80412300:	8c450000 	lw	a1,0(v0)
80412304:	10a00007 	beqz	a1,80412324 <_reclaim_reent+0x60>
80412308:	00000000 	nop
8041230c:	8cb00000 	lw	s0,0(a1)
80412310:	0c1045a4 	jal	80411690 <_free_r>
80412314:	02202021 	move	a0,s1
80412318:	1600fffc 	bnez	s0,8041230c <_reclaim_reent+0x48>
8041231c:	02002821 	move	a1,s0
80412320:	8e23004c 	lw	v1,76(s1)
80412324:	26520004 	addiu	s2,s2,4
80412328:	1653fff5 	bne	s2,s3,80412300 <_reclaim_reent+0x3c>
8041232c:	00721021 	addu	v0,v1,s2
80412330:	00602821 	move	a1,v1
80412334:	0c1045a4 	jal	80411690 <_free_r>
80412338:	02202021 	move	a0,s1
8041233c:	8e250040 	lw	a1,64(s1)
80412340:	10a00003 	beqz	a1,80412350 <_reclaim_reent+0x8c>
80412344:	00000000 	nop
80412348:	0c1045a4 	jal	80411690 <_free_r>
8041234c:	02202021 	move	a0,s1
80412350:	8e250148 	lw	a1,328(s1)
80412354:	10a00009 	beqz	a1,8041237c <_reclaim_reent+0xb8>
80412358:	00000000 	nop
8041235c:	2632014c 	addiu	s2,s1,332
80412360:	10b20006 	beq	a1,s2,8041237c <_reclaim_reent+0xb8>
80412364:	00000000 	nop
80412368:	8cb00000 	lw	s0,0(a1)
8041236c:	0c1045a4 	jal	80411690 <_free_r>
80412370:	02202021 	move	a0,s1
80412374:	1650fffc 	bne	s2,s0,80412368 <_reclaim_reent+0xa4>
80412378:	02002821 	move	a1,s0
8041237c:	8e250054 	lw	a1,84(s1)
80412380:	10a00003 	beqz	a1,80412390 <_reclaim_reent+0xcc>
80412384:	00000000 	nop
80412388:	0c1045a4 	jal	80411690 <_free_r>
8041238c:	02202021 	move	a0,s1
80412390:	8e220038 	lw	v0,56(s1)
80412394:	14400008 	bnez	v0,804123b8 <_reclaim_reent+0xf4>
80412398:	00000000 	nop
8041239c:	8fbf0024 	lw	ra,36(sp)
804123a0:	8fb30020 	lw	s3,32(sp)
804123a4:	8fb2001c 	lw	s2,28(sp)
804123a8:	8fb10018 	lw	s1,24(sp)
804123ac:	8fb00014 	lw	s0,20(sp)
804123b0:	03e00008 	jr	ra
804123b4:	27bd0028 	addiu	sp,sp,40
804123b8:	8e22003c 	lw	v0,60(s1)
804123bc:	0040f809 	jalr	v0
804123c0:	02202021 	move	a0,s1
804123c4:	8e2502e0 	lw	a1,736(s1)
804123c8:	10a0fff4 	beqz	a1,8041239c <_reclaim_reent+0xd8>
804123cc:	8fbf0024 	lw	ra,36(sp)
804123d0:	02202021 	move	a0,s1
804123d4:	8fb30020 	lw	s3,32(sp)
804123d8:	8fb2001c 	lw	s2,28(sp)
804123dc:	8fb10018 	lw	s1,24(sp)
804123e0:	8fb00014 	lw	s0,20(sp)
804123e4:	081048a0 	j	80412280 <cleanup_glue>
804123e8:	27bd0028 	addiu	sp,sp,40
804123ec:	00000000 	nop

804123f0 <__do_global_ctors_aux>:
804123f0:	3c028041 	lui	v0,0x8041
804123f4:	8c44248c 	lw	a0,9356(v0)
804123f8:	27bdffe0 	addiu	sp,sp,-32
804123fc:	2403ffff 	li	v1,-1
80412400:	afbf001c 	sw	ra,28(sp)
80412404:	afb10018 	sw	s1,24(sp)
80412408:	10830008 	beq	a0,v1,8041242c <__do_global_ctors_aux+0x3c>
8041240c:	afb00014 	sw	s0,20(sp)
80412410:	2450248c 	addiu	s0,v0,9356
80412414:	2411ffff 	li	s1,-1
80412418:	0080f809 	jalr	a0
8041241c:	2610fffc 	addiu	s0,s0,-4
80412420:	8e040000 	lw	a0,0(s0)
80412424:	1491fffc 	bne	a0,s1,80412418 <__do_global_ctors_aux+0x28>
80412428:	00000000 	nop
8041242c:	8fbf001c 	lw	ra,28(sp)
80412430:	8fb10018 	lw	s1,24(sp)
80412434:	8fb00014 	lw	s0,20(sp)
80412438:	03e00008 	jr	ra
8041243c:	27bd0020 	addiu	sp,sp,32

80412440 <__start_set_sysctl_set>:
80412440:	00000000 	nop
Disassembly of section .init:

80412444 <.init>:
80412444:	04110001 	bal	8041244c <__stop_set_sysctl_set+0xc>
80412448:	00000000 	nop
8041244c:	0c100058 	jal	80400160 <frame_dummy>
80412450:	00000000 	nop
80412454:	04110001 	bal	8041245c <__stop_set_sysctl_set+0x1c>
80412458:	00000000 	nop
8041245c:	0c1048fc 	jal	804123f0 <__do_global_ctors_aux>
80412460:	00000000 	nop
80412464:	8fbf0014 	lw	ra,20(sp)
80412468:	03e00008 	jr	ra
8041246c:	27bd0020 	addiu	sp,sp,32
Disassembly of section .fini:

80412470 <.fini>:
80412470:	04110001 	bal	80412478 <__stop_set_sysctl_set+0x38>
80412474:	00000000 	nop
80412478:	0c100028 	jal	804000a0 <__do_global_dtors_aux>
8041247c:	00000000 	nop
80412480:	8fbf0014 	lw	ra,20(sp)
80412484:	03e00008 	jr	ra
80412488:	27bd0020 	addiu	sp,sp,32
