
init:     file format elf32-littlearm


Disassembly of section .text:

000080c0 <_start>:
    80c0:	e1a0000d 	mov	r0, sp
    80c4:	e3a01000 	mov	r1, #0	; 0x0
    80c8:	e28f2004 	add	r2, pc, #4	; 0x4
    80cc:	e28f3004 	add	r3, pc, #4	; 0x4
    80d0:	ea0049f8 	b	1a8b8 <sysconf+0xa8>
    80d4:	ea0049f9 	b	1a8c0 <sysconf+0xb0>
    80d8:	0001f000 	.word	0x0001f000
    80dc:	0001f008 	.word	0x0001f008
    80e0:	0001f014 	.word	0x0001f014
    80e4:	0001f01c 	.word	0x0001f01c
    80e8:	e1a00000 	.word	0xe1a00000
    80ec:	e1a00000 	.word	0xe1a00000

000080f0 <android_memset16>:
    80f0:	e3520001 	cmp	r2, #1	; 0x1
    80f4:	d12fff1e 	bxle	lr
    80f8:	e1a01801 	lsl	r1, r1, #16
    80fc:	e1811821 	orr	r1, r1, r1, lsr #16
    8100:	e3100002 	tst	r0, #2	; 0x2
    8104:	10c010b2 	strhne	r1, [r0], #2
    8108:	12422002 	subne	r2, r2, #2	; 0x2

0000810c <android_memset32>:
    810c:	e52de004 	push	{lr}		; (str lr, [sp, #-4]!)
    8110:	e1a0c001 	mov	ip, r1
    8114:	e1a0e001 	mov	lr, r1
    8118:	e2603000 	rsb	r3, r0, #0	; 0x0
    811c:	e213301c 	ands	r3, r3, #28	; 0x1c
    8120:	0a000008 	beq	8148 <android_memset32+0x3c>
    8124:	e1530002 	cmp	r3, r2
    8128:	8202301c 	andhi	r3, r2, #28	; 0x1c
    812c:	e0422003 	sub	r2, r2, r3
    8130:	e1b03e03 	lsls	r3, r3, #28
    8134:	28a04002 	stmiacs	r0!, {r1, lr}
    8138:	28a04002 	stmiacs	r0!, {r1, lr}
    813c:	48a04002 	stmiami	r0!, {r1, lr}
    8140:	e1b03103 	lsls	r3, r3, #2
    8144:	24801004 	strcs	r1, [r0], #4
    8148:	e1a03001 	mov	r3, r1
    814c:	e2522020 	subs	r2, r2, #32	; 0x20
    8150:	28a0500a 	stmiacs	r0!, {r1, r3, ip, lr}
    8154:	28a0500a 	stmiacs	r0!, {r1, r3, ip, lr}
    8158:	2afffffb 	bcs	814c <android_memset32+0x40>
    815c:	e2822020 	add	r2, r2, #32	; 0x20
    8160:	e1b02e02 	lsls	r2, r2, #28
    8164:	28a0500a 	stmiacs	r0!, {r1, r3, ip, lr}
    8168:	48a04002 	stmiami	r0!, {r1, lr}
    816c:	e1b02102 	lsls	r2, r2, #2
    8170:	24801004 	strcs	r1, [r0], #4
    8174:	40c0e0b2 	strhmi	lr, [r0], #2
    8178:	e49de004 	pop	{lr}		; (ldr lr, [sp], #4)
    817c:	e12fff1e 	bx	lr

00008180 <_exit>:
    8180:	e92d0090 	push	{r4, r7}
    8184:	e3a070f8 	mov	r7, #248	; 0xf8
    8188:	ef000000 	svc	0x00000000
    818c:	e8bd0090 	pop	{r4, r7}
    8190:	e1b00000 	movs	r0, r0
    8194:	512fff1e 	bxpl	lr
    8198:	ea0049ca 	b	1a8c8 <sysconf+0xb8>
    819c:	e1a00000 	nop			(mov r0,r0)

000081a0 <execve>:
    81a0:	e92d0090 	push	{r4, r7}
    81a4:	e3a0700b 	mov	r7, #11	; 0xb
    81a8:	ef000000 	svc	0x00000000
    81ac:	e8bd0090 	pop	{r4, r7}
    81b0:	e1b00000 	movs	r0, r0
    81b4:	512fff1e 	bxpl	lr
    81b8:	ea0049c2 	b	1a8c8 <sysconf+0xb8>
    81bc:	e1a00000 	nop			(mov r0,r0)

000081c0 <setsid>:
    81c0:	e92d0090 	push	{r4, r7}
    81c4:	e3a07042 	mov	r7, #66	; 0x42
    81c8:	ef000000 	svc	0x00000000
    81cc:	e8bd0090 	pop	{r4, r7}
    81d0:	e1b00000 	movs	r0, r0
    81d4:	512fff1e 	bxpl	lr
    81d8:	ea0049ba 	b	1a8c8 <sysconf+0xb8>
    81dc:	e1a00000 	nop			(mov r0,r0)

000081e0 <setgid>:
    81e0:	e92d0090 	push	{r4, r7}
    81e4:	e3a070d6 	mov	r7, #214	; 0xd6
    81e8:	ef000000 	svc	0x00000000
    81ec:	e8bd0090 	pop	{r4, r7}
    81f0:	e1b00000 	movs	r0, r0
    81f4:	512fff1e 	bxpl	lr
    81f8:	ea0049b2 	b	1a8c8 <sysconf+0xb8>
    81fc:	e1a00000 	nop			(mov r0,r0)

00008200 <setrlimit>:
    8200:	e92d0090 	push	{r4, r7}
    8204:	e3a0704b 	mov	r7, #75	; 0x4b
    8208:	ef000000 	svc	0x00000000
    820c:	e8bd0090 	pop	{r4, r7}
    8210:	e1b00000 	movs	r0, r0
    8214:	512fff1e 	bxpl	lr
    8218:	ea0049aa 	b	1a8c8 <sysconf+0xb8>
    821c:	e1a00000 	nop			(mov r0,r0)

00008220 <setgroups>:
    8220:	e92d0090 	push	{r4, r7}
    8224:	e3a070ce 	mov	r7, #206	; 0xce
    8228:	ef000000 	svc	0x00000000
    822c:	e8bd0090 	pop	{r4, r7}
    8230:	e1b00000 	movs	r0, r0
    8234:	512fff1e 	bxpl	lr
    8238:	ea0049a2 	b	1a8c8 <sysconf+0xb8>
    823c:	e1a00000 	nop			(mov r0,r0)

00008240 <setpgid>:
    8240:	e92d0090 	push	{r4, r7}
    8244:	e3a07039 	mov	r7, #57	; 0x39
    8248:	ef000000 	svc	0x00000000
    824c:	e8bd0090 	pop	{r4, r7}
    8250:	e1b00000 	movs	r0, r0
    8254:	512fff1e 	bxpl	lr
    8258:	ea00499a 	b	1a8c8 <sysconf+0xb8>
    825c:	e1a00000 	nop			(mov r0,r0)

00008260 <chroot>:
    8260:	e92d0090 	push	{r4, r7}
    8264:	e3a0703d 	mov	r7, #61	; 0x3d
    8268:	ef000000 	svc	0x00000000
    826c:	e8bd0090 	pop	{r4, r7}
    8270:	e1b00000 	movs	r0, r0
    8274:	512fff1e 	bxpl	lr
    8278:	ea004992 	b	1a8c8 <sysconf+0xb8>
    827c:	e1a00000 	nop			(mov r0,r0)

00008280 <read>:
    8280:	e92d0090 	push	{r4, r7}
    8284:	e3a07003 	mov	r7, #3	; 0x3
    8288:	ef000000 	svc	0x00000000
    828c:	e8bd0090 	pop	{r4, r7}
    8290:	e1b00000 	movs	r0, r0
    8294:	512fff1e 	bxpl	lr
    8298:	ea00498a 	b	1a8c8 <sysconf+0xb8>
    829c:	e1a00000 	nop			(mov r0,r0)

000082a0 <write>:
    82a0:	e92d0090 	push	{r4, r7}
    82a4:	e3a07004 	mov	r7, #4	; 0x4
    82a8:	ef000000 	svc	0x00000000
    82ac:	e8bd0090 	pop	{r4, r7}
    82b0:	e1b00000 	movs	r0, r0
    82b4:	512fff1e 	bxpl	lr
    82b8:	ea004982 	b	1a8c8 <sysconf+0xb8>
    82bc:	e1a00000 	nop			(mov r0,r0)

000082c0 <close>:
    82c0:	e92d0090 	push	{r4, r7}
    82c4:	e3a07006 	mov	r7, #6	; 0x6
    82c8:	ef000000 	svc	0x00000000
    82cc:	e8bd0090 	pop	{r4, r7}
    82d0:	e1b00000 	movs	r0, r0
    82d4:	512fff1e 	bxpl	lr
    82d8:	ea00497a 	b	1a8c8 <sysconf+0xb8>
    82dc:	e1a00000 	nop			(mov r0,r0)

000082e0 <lseek>:
    82e0:	e92d0090 	push	{r4, r7}
    82e4:	e3a07013 	mov	r7, #19	; 0x13
    82e8:	ef000000 	svc	0x00000000
    82ec:	e8bd0090 	pop	{r4, r7}
    82f0:	e1b00000 	movs	r0, r0
    82f4:	512fff1e 	bxpl	lr
    82f8:	ea004972 	b	1a8c8 <sysconf+0xb8>
    82fc:	e1a00000 	nop			(mov r0,r0)

00008300 <getpid>:
    8300:	e92d0090 	push	{r4, r7}
    8304:	e3a07014 	mov	r7, #20	; 0x14
    8308:	ef000000 	svc	0x00000000
    830c:	e8bd0090 	pop	{r4, r7}
    8310:	e1b00000 	movs	r0, r0
    8314:	512fff1e 	bxpl	lr
    8318:	ea00496a 	b	1a8c8 <sysconf+0xb8>
    831c:	e1a00000 	nop			(mov r0,r0)

00008320 <munmap>:
    8320:	e92d0090 	push	{r4, r7}
    8324:	e3a0705b 	mov	r7, #91	; 0x5b
    8328:	ef000000 	svc	0x00000000
    832c:	e8bd0090 	pop	{r4, r7}
    8330:	e1b00000 	movs	r0, r0
    8334:	512fff1e 	bxpl	lr
    8338:	ea004962 	b	1a8c8 <sysconf+0xb8>
    833c:	e1a00000 	nop			(mov r0,r0)

00008340 <dup>:
    8340:	e92d0090 	push	{r4, r7}
    8344:	e3a07029 	mov	r7, #41	; 0x29
    8348:	ef000000 	svc	0x00000000
    834c:	e8bd0090 	pop	{r4, r7}
    8350:	e1b00000 	movs	r0, r0
    8354:	512fff1e 	bxpl	lr
    8358:	ea00495a 	b	1a8c8 <sysconf+0xb8>
    835c:	e1a00000 	nop			(mov r0,r0)

00008360 <dup2>:
    8360:	e92d0090 	push	{r4, r7}
    8364:	e3a0703f 	mov	r7, #63	; 0x3f
    8368:	ef000000 	svc	0x00000000
    836c:	e8bd0090 	pop	{r4, r7}
    8370:	e1b00000 	movs	r0, r0
    8374:	512fff1e 	bxpl	lr
    8378:	ea004952 	b	1a8c8 <sysconf+0xb8>
    837c:	e1a00000 	nop			(mov r0,r0)

00008380 <ftruncate>:
    8380:	e92d0090 	push	{r4, r7}
    8384:	e3a0705d 	mov	r7, #93	; 0x5d
    8388:	ef000000 	svc	0x00000000
    838c:	e8bd0090 	pop	{r4, r7}
    8390:	e1b00000 	movs	r0, r0
    8394:	512fff1e 	bxpl	lr
    8398:	ea00494a 	b	1a8c8 <sysconf+0xb8>
    839c:	e1a00000 	nop			(mov r0,r0)

000083a0 <sync>:
    83a0:	e92d0090 	push	{r4, r7}
    83a4:	e3a07024 	mov	r7, #36	; 0x24
    83a8:	ef000000 	svc	0x00000000
    83ac:	e8bd0090 	pop	{r4, r7}
    83b0:	e1b00000 	movs	r0, r0
    83b4:	512fff1e 	bxpl	lr
    83b8:	ea004942 	b	1a8c8 <sysconf+0xb8>
    83bc:	e1a00000 	nop			(mov r0,r0)

000083c0 <unlink>:
    83c0:	e92d0090 	push	{r4, r7}
    83c4:	e3a0700a 	mov	r7, #10	; 0xa
    83c8:	ef000000 	svc	0x00000000
    83cc:	e8bd0090 	pop	{r4, r7}
    83d0:	e1b00000 	movs	r0, r0
    83d4:	512fff1e 	bxpl	lr
    83d8:	ea00493a 	b	1a8c8 <sysconf+0xb8>
    83dc:	e1a00000 	nop			(mov r0,r0)

000083e0 <chdir>:
    83e0:	e92d0090 	push	{r4, r7}
    83e4:	e3a0700c 	mov	r7, #12	; 0xc
    83e8:	ef000000 	svc	0x00000000
    83ec:	e8bd0090 	pop	{r4, r7}
    83f0:	e1b00000 	movs	r0, r0
    83f4:	512fff1e 	bxpl	lr
    83f8:	ea004932 	b	1a8c8 <sysconf+0xb8>
    83fc:	e1a00000 	nop			(mov r0,r0)

00008400 <mknod>:
    8400:	e92d0090 	push	{r4, r7}
    8404:	e3a0700e 	mov	r7, #14	; 0xe
    8408:	ef000000 	svc	0x00000000
    840c:	e8bd0090 	pop	{r4, r7}
    8410:	e1b00000 	movs	r0, r0
    8414:	512fff1e 	bxpl	lr
    8418:	ea00492a 	b	1a8c8 <sysconf+0xb8>
    841c:	e1a00000 	nop			(mov r0,r0)

00008420 <chmod>:
    8420:	e92d0090 	push	{r4, r7}
    8424:	e3a0700f 	mov	r7, #15	; 0xf
    8428:	ef000000 	svc	0x00000000
    842c:	e8bd0090 	pop	{r4, r7}
    8430:	e1b00000 	movs	r0, r0
    8434:	512fff1e 	bxpl	lr
    8438:	ea004922 	b	1a8c8 <sysconf+0xb8>
    843c:	e1a00000 	nop			(mov r0,r0)

00008440 <chown>:
    8440:	e92d0090 	push	{r4, r7}
    8444:	e3a070d4 	mov	r7, #212	; 0xd4
    8448:	ef000000 	svc	0x00000000
    844c:	e8bd0090 	pop	{r4, r7}
    8450:	e1b00000 	movs	r0, r0
    8454:	512fff1e 	bxpl	lr
    8458:	ea00491a 	b	1a8c8 <sysconf+0xb8>
    845c:	e1a00000 	nop			(mov r0,r0)

00008460 <mount>:
    8460:	e1a0c00d 	mov	ip, sp
    8464:	e92d00f0 	push	{r4, r5, r6, r7}
    8468:	e89c0070 	ldm	ip, {r4, r5, r6}
    846c:	e3a07015 	mov	r7, #21	; 0x15
    8470:	ef000000 	svc	0x00000000
    8474:	e8bd00f0 	pop	{r4, r5, r6, r7}
    8478:	e1b00000 	movs	r0, r0
    847c:	512fff1e 	bxpl	lr
    8480:	ea004910 	b	1a8c8 <sysconf+0xb8>
    8484:	e1a00000 	nop			(mov r0,r0)
    8488:	e1a00000 	nop			(mov r0,r0)
    848c:	e1a00000 	nop			(mov r0,r0)

00008490 <fstat>:
    8490:	e92d0090 	push	{r4, r7}
    8494:	e3a070c5 	mov	r7, #197	; 0xc5
    8498:	ef000000 	svc	0x00000000
    849c:	e8bd0090 	pop	{r4, r7}
    84a0:	e1b00000 	movs	r0, r0
    84a4:	512fff1e 	bxpl	lr
    84a8:	ea004906 	b	1a8c8 <sysconf+0xb8>
    84ac:	e1a00000 	nop			(mov r0,r0)

000084b0 <stat>:
    84b0:	e92d0090 	push	{r4, r7}
    84b4:	e3a070c3 	mov	r7, #195	; 0xc3
    84b8:	ef000000 	svc	0x00000000
    84bc:	e8bd0090 	pop	{r4, r7}
    84c0:	e1b00000 	movs	r0, r0
    84c4:	512fff1e 	bxpl	lr
    84c8:	ea0048fe 	b	1a8c8 <sysconf+0xb8>
    84cc:	e1a00000 	nop			(mov r0,r0)

000084d0 <mkdir>:
    84d0:	e92d0090 	push	{r4, r7}
    84d4:	e3a07027 	mov	r7, #39	; 0x27
    84d8:	ef000000 	svc	0x00000000
    84dc:	e8bd0090 	pop	{r4, r7}
    84e0:	e1b00000 	movs	r0, r0
    84e4:	512fff1e 	bxpl	lr
    84e8:	ea0048f6 	b	1a8c8 <sysconf+0xb8>
    84ec:	e1a00000 	nop			(mov r0,r0)

000084f0 <readlink>:
    84f0:	e92d0090 	push	{r4, r7}
    84f4:	e3a07055 	mov	r7, #85	; 0x55
    84f8:	ef000000 	svc	0x00000000
    84fc:	e8bd0090 	pop	{r4, r7}
    8500:	e1b00000 	movs	r0, r0
    8504:	512fff1e 	bxpl	lr
    8508:	ea0048ee 	b	1a8c8 <sysconf+0xb8>
    850c:	e1a00000 	nop			(mov r0,r0)

00008510 <rename>:
    8510:	e92d0090 	push	{r4, r7}
    8514:	e3a07026 	mov	r7, #38	; 0x26
    8518:	ef000000 	svc	0x00000000
    851c:	e8bd0090 	pop	{r4, r7}
    8520:	e1b00000 	movs	r0, r0
    8524:	512fff1e 	bxpl	lr
    8528:	ea0048e6 	b	1a8c8 <sysconf+0xb8>
    852c:	e1a00000 	nop			(mov r0,r0)

00008530 <symlink>:
    8530:	e92d0090 	push	{r4, r7}
    8534:	e3a07053 	mov	r7, #83	; 0x53
    8538:	ef000000 	svc	0x00000000
    853c:	e8bd0090 	pop	{r4, r7}
    8540:	e1b00000 	movs	r0, r0
    8544:	512fff1e 	bxpl	lr
    8548:	ea0048de 	b	1a8c8 <sysconf+0xb8>
    854c:	e1a00000 	nop			(mov r0,r0)

00008550 <settimeofday>:
    8550:	e92d0090 	push	{r4, r7}
    8554:	e3a0704f 	mov	r7, #79	; 0x4f
    8558:	ef000000 	svc	0x00000000
    855c:	e8bd0090 	pop	{r4, r7}
    8560:	e1b00000 	movs	r0, r0
    8564:	512fff1e 	bxpl	lr
    8568:	ea0048d6 	b	1a8c8 <sysconf+0xb8>
    856c:	e1a00000 	nop			(mov r0,r0)

00008570 <clock_gettime>:
    8570:	e92d0090 	push	{r4, r7}
    8574:	e59f7010 	ldr	r7, [pc, #16]	; 858c <clock_gettime+0x1c>
    8578:	ef000000 	svc	0x00000000
    857c:	e8bd0090 	pop	{r4, r7}
    8580:	e1b00000 	movs	r0, r0
    8584:	512fff1e 	bxpl	lr
    8588:	ea0048ce 	b	1a8c8 <sysconf+0xb8>
    858c:	00000107 	.word	0x00000107

00008590 <sigaction>:
    8590:	e92d0090 	push	{r4, r7}
    8594:	e3a07043 	mov	r7, #67	; 0x43
    8598:	ef000000 	svc	0x00000000
    859c:	e8bd0090 	pop	{r4, r7}
    85a0:	e1b00000 	movs	r0, r0
    85a4:	512fff1e 	bxpl	lr
    85a8:	ea0048c6 	b	1a8c8 <sysconf+0xb8>
    85ac:	e1a00000 	nop			(mov r0,r0)

000085b0 <socket>:
    85b0:	e92d0090 	push	{r4, r7}
    85b4:	e59f7010 	ldr	r7, [pc, #16]	; 85cc <socket+0x1c>
    85b8:	ef000000 	svc	0x00000000
    85bc:	e8bd0090 	pop	{r4, r7}
    85c0:	e1b00000 	movs	r0, r0
    85c4:	512fff1e 	bxpl	lr
    85c8:	ea0048be 	b	1a8c8 <sysconf+0xb8>
    85cc:	00000119 	.word	0x00000119

000085d0 <socketpair>:
    85d0:	e92d0090 	push	{r4, r7}
    85d4:	e3a07e12 	mov	r7, #288	; 0x120
    85d8:	ef000000 	svc	0x00000000
    85dc:	e8bd0090 	pop	{r4, r7}
    85e0:	e1b00000 	movs	r0, r0
    85e4:	512fff1e 	bxpl	lr
    85e8:	ea0048b6 	b	1a8c8 <sysconf+0xb8>
    85ec:	e1a00000 	nop			(mov r0,r0)

000085f0 <bind>:
    85f0:	e92d0090 	push	{r4, r7}
    85f4:	e59f7010 	ldr	r7, [pc, #16]	; 860c <bind+0x1c>
    85f8:	ef000000 	svc	0x00000000
    85fc:	e8bd0090 	pop	{r4, r7}
    8600:	e1b00000 	movs	r0, r0
    8604:	512fff1e 	bxpl	lr
    8608:	ea0048ae 	b	1a8c8 <sysconf+0xb8>
    860c:	0000011a 	.word	0x0000011a

00008610 <listen>:
    8610:	e92d0090 	push	{r4, r7}
    8614:	e3a07f47 	mov	r7, #284	; 0x11c
    8618:	ef000000 	svc	0x00000000
    861c:	e8bd0090 	pop	{r4, r7}
    8620:	e1b00000 	movs	r0, r0
    8624:	512fff1e 	bxpl	lr
    8628:	ea0048a6 	b	1a8c8 <sysconf+0xb8>
    862c:	e1a00000 	nop			(mov r0,r0)

00008630 <accept>:
    8630:	e92d0090 	push	{r4, r7}
    8634:	e59f7010 	ldr	r7, [pc, #16]	; 864c <accept+0x1c>
    8638:	ef000000 	svc	0x00000000
    863c:	e8bd0090 	pop	{r4, r7}
    8640:	e1b00000 	movs	r0, r0
    8644:	512fff1e 	bxpl	lr
    8648:	ea00489e 	b	1a8c8 <sysconf+0xb8>
    864c:	0000011d 	.word	0x0000011d

00008650 <setsockopt>:
    8650:	e1a0c00d 	mov	ip, sp
    8654:	e92d00f0 	push	{r4, r5, r6, r7}
    8658:	e89c0070 	ldm	ip, {r4, r5, r6}
    865c:	e59f7010 	ldr	r7, [pc, #16]	; 8674 <setsockopt+0x24>
    8660:	ef000000 	svc	0x00000000
    8664:	e8bd00f0 	pop	{r4, r5, r6, r7}
    8668:	e1b00000 	movs	r0, r0
    866c:	512fff1e 	bxpl	lr
    8670:	ea004894 	b	1a8c8 <sysconf+0xb8>
    8674:	00000126 	.word	0x00000126
    8678:	e1a00000 	.word	0xe1a00000
    867c:	e1a00000 	.word	0xe1a00000

00008680 <getsockopt>:
    8680:	e1a0c00d 	mov	ip, sp
    8684:	e92d00f0 	push	{r4, r5, r6, r7}
    8688:	e89c0070 	ldm	ip, {r4, r5, r6}
    868c:	e59f7010 	ldr	r7, [pc, #16]	; 86a4 <getsockopt+0x24>
    8690:	ef000000 	svc	0x00000000
    8694:	e8bd00f0 	pop	{r4, r5, r6, r7}
    8698:	e1b00000 	movs	r0, r0
    869c:	512fff1e 	bxpl	lr
    86a0:	ea004888 	b	1a8c8 <sysconf+0xb8>
    86a4:	00000127 	.word	0x00000127
    86a8:	e1a00000 	.word	0xe1a00000
    86ac:	e1a00000 	.word	0xe1a00000

000086b0 <recvmsg>:
    86b0:	e92d0090 	push	{r4, r7}
    86b4:	e59f7010 	ldr	r7, [pc, #16]	; 86cc <recvmsg+0x1c>
    86b8:	ef000000 	svc	0x00000000
    86bc:	e8bd0090 	pop	{r4, r7}
    86c0:	e1b00000 	movs	r0, r0
    86c4:	512fff1e 	bxpl	lr
    86c8:	ea00487e 	b	1a8c8 <sysconf+0xb8>
    86cc:	00000129 	.word	0x00000129

000086d0 <ioprio_set>:
    86d0:	e92d0090 	push	{r4, r7}
    86d4:	e59f7010 	ldr	r7, [pc, #16]	; 86ec <ioprio_set+0x1c>
    86d8:	ef000000 	svc	0x00000000
    86dc:	e8bd0090 	pop	{r4, r7}
    86e0:	e1b00000 	movs	r0, r0
    86e4:	512fff1e 	bxpl	lr
    86e8:	ea004876 	b	1a8c8 <sysconf+0xb8>
    86ec:	0000013a 	.word	0x0000013a

000086f0 <umask>:
    86f0:	e92d0090 	push	{r4, r7}
    86f4:	e3a0703c 	mov	r7, #60	; 0x3c
    86f8:	ef000000 	svc	0x00000000
    86fc:	e8bd0090 	pop	{r4, r7}
    8700:	e1b00000 	movs	r0, r0
    8704:	512fff1e 	bxpl	lr
    8708:	ea00486e 	b	1a8c8 <sysconf+0xb8>
    870c:	e1a00000 	nop			(mov r0,r0)

00008710 <__reboot>:
    8710:	e92d0090 	push	{r4, r7}
    8714:	e3a07058 	mov	r7, #88	; 0x58
    8718:	ef000000 	svc	0x00000000
    871c:	e8bd0090 	pop	{r4, r7}
    8720:	e1b00000 	movs	r0, r0
    8724:	512fff1e 	bxpl	lr
    8728:	ea004866 	b	1a8c8 <sysconf+0xb8>
    872c:	e1a00000 	nop			(mov r0,r0)

00008730 <init_module>:
    8730:	e92d0090 	push	{r4, r7}
    8734:	e3a07080 	mov	r7, #128	; 0x80
    8738:	ef000000 	svc	0x00000000
    873c:	e8bd0090 	pop	{r4, r7}
    8740:	e1b00000 	movs	r0, r0
    8744:	512fff1e 	bxpl	lr
    8748:	ea00485e 	b	1a8c8 <sysconf+0xb8>
    874c:	e1a00000 	nop			(mov r0,r0)

00008750 <poll>:
    8750:	e92d0090 	push	{r4, r7}
    8754:	e3a070a8 	mov	r7, #168	; 0xa8
    8758:	ef000000 	svc	0x00000000
    875c:	e8bd0090 	pop	{r4, r7}
    8760:	e1b00000 	movs	r0, r0
    8764:	512fff1e 	bxpl	lr
    8768:	ea004856 	b	1a8c8 <sysconf+0xb8>
    876c:	e1a00000 	nop			(mov r0,r0)

00008770 <__atomic_dec>:
    8770:	e92d4010 	push	{r4, lr}
    8774:	e1a02000 	mov	r2, r0
    8778:	e5920000 	ldr	r0, [r2]
    877c:	e3e03a0f 	mvn	r3, #61440	; 0xf000
    8780:	e28fe004 	add	lr, pc, #4	; 0x4
    8784:	e2401001 	sub	r1, r0, #1	; 0x1
    8788:	e243f03f 	sub	pc, r3, #63	; 0x3f
    878c:	3afffff9 	bcc	8778 <__atomic_dec+0x8>
    8790:	e2810001 	add	r0, r1, #1	; 0x1
    8794:	e8bd4010 	pop	{r4, lr}
    8798:	e12fff1e 	bx	lr

0000879c <__atomic_inc>:
    879c:	e92d4010 	push	{r4, lr}
    87a0:	e1a02000 	mov	r2, r0
    87a4:	e5920000 	ldr	r0, [r2]
    87a8:	e3e03a0f 	mvn	r3, #61440	; 0xf000
    87ac:	e28fe004 	add	lr, pc, #4	; 0x4
    87b0:	e2801001 	add	r1, r0, #1	; 0x1
    87b4:	e243f03f 	sub	pc, r3, #63	; 0x3f
    87b8:	3afffff9 	bcc	87a4 <__atomic_inc+0x8>
    87bc:	e2410001 	sub	r0, r1, #1	; 0x1
    87c0:	e8bd4010 	pop	{r4, lr}
    87c4:	e12fff1e 	bx	lr

000087c8 <__atomic_cmpxchg>:
    87c8:	e92d4010 	push	{r4, lr}
    87cc:	e1a04000 	mov	r4, r0
    87d0:	e3e03a0f 	mvn	r3, #61440	; 0xf000
    87d4:	e28fe004 	add	lr, pc, #4	; 0x4
    87d8:	e1a00004 	mov	r0, r4
    87dc:	e243f03f 	sub	pc, r3, #63	; 0x3f
    87e0:	2a000002 	bcs	87f0 <__atomic_cmpxchg+0x28>
    87e4:	e5923000 	ldr	r3, [r2]
    87e8:	e1530004 	cmp	r3, r4
    87ec:	0afffff7 	beq	87d0 <__atomic_cmpxchg+0x8>
    87f0:	e8bd4010 	pop	{r4, lr}
    87f4:	e12fff1e 	bx	lr

000087f8 <__atomic_swap>:
    87f8:	e1010090 	swp	r0, r0, [r1]
    87fc:	e12fff1e 	bx	lr

00008800 <__futex_syscall3>:
    8800:	e92d0090 	push	{r4, r7}
    8804:	e3a070f0 	mov	r7, #240	; 0xf0
    8808:	ef000000 	svc	0x00000000
    880c:	e8bd0090 	pop	{r4, r7}
    8810:	e12fff1e 	bx	lr

00008814 <__futex_wait>:
    8814:	e92d0090 	push	{r4, r7}
    8818:	e1a03002 	mov	r3, r2
    881c:	e1a02001 	mov	r2, r1
    8820:	e3a01000 	mov	r1, #0	; 0x0
    8824:	e3a070f0 	mov	r7, #240	; 0xf0
    8828:	ef000000 	svc	0x00000000
    882c:	e8bd0090 	pop	{r4, r7}
    8830:	e12fff1e 	bx	lr

00008834 <__futex_wake>:
    8834:	e92d0090 	push	{r4, r7}
    8838:	e1a02001 	mov	r2, r1
    883c:	e3a01001 	mov	r1, #1	; 0x1
    8840:	e3a070f0 	mov	r7, #240	; 0xf0
    8844:	ef000000 	svc	0x00000000
    8848:	e8bd0090 	pop	{r4, r7}
    884c:	e12fff1e 	bx	lr

00008850 <__futex_syscall4>:
    8850:	eaffffea 	b	8800 <__futex_syscall3>
	...

00008860 <kill>:
    8860:	e92d50f0 	push	{r4, r5, r6, r7, ip, lr}
    8864:	e3a07025 	mov	r7, #37	; 0x25
    8868:	ef000000 	svc	0x00000000
    886c:	e8bd50f0 	pop	{r4, r5, r6, r7, ip, lr}
    8870:	e1b00000 	movs	r0, r0
    8874:	512fff1e 	bxpl	lr
    8878:	ea004812 	b	1a8c8 <sysconf+0xb8>
    887c:	e1a00000 	nop			(mov r0,r0)

00008880 <memcmp>:
    8880:	f5d0f000 	pld	[r0]
    8884:	f5d1f000 	pld	[r1]
    8888:	e1500001 	cmp	r0, r1
    888c:	13520000 	cmpne	r2, #0	; 0x0
    8890:	03a00000 	moveq	r0, #0	; 0x0
    8894:	012fff1e 	bxeq	lr
    8898:	e92d4010 	push	{r4, lr}
    889c:	f5d0f020 	pld	[r0, #32]
    88a0:	f5d1f020 	pld	[r1, #32]
    88a4:	e1a04000 	mov	r4, r0
    88a8:	e352000c 	cmp	r2, #12	; 0xc
    88ac:	4a00003b 	bmi	89a0 <memcmp+0x120>
    88b0:	e2643000 	rsb	r3, r4, #0	; 0x0
    88b4:	e2133003 	ands	r3, r3, #3	; 0x3
    88b8:	0a000006 	beq	88d8 <memcmp+0x58>
    88bc:	e0422003 	sub	r2, r2, r3
    88c0:	e4d40001 	ldrb	r0, [r4], #1
    88c4:	e4d1c001 	ldrb	ip, [r1], #1
    88c8:	e050000c 	subs	r0, r0, ip
    88cc:	1a000039 	bne	89b8 <memcmp+0x138>
    88d0:	e2533001 	subs	r3, r3, #1	; 0x1
    88d4:	1afffff9 	bne	88c0 <memcmp+0x40>
    88d8:	e0240001 	eor	r0, r4, r1
    88dc:	e2100003 	ands	r0, r0, #3	; 0x3
    88e0:	1a000036 	bne	89c0 <memcmp+0x140>
    88e4:	e591c000 	ldr	ip, [r1]
    88e8:	e2522024 	subs	r2, r2, #36	; 0x24
    88ec:	4a00001c 	bmi	8964 <memcmp+0xe4>
    88f0:	f5d4f040 	pld	[r4, #64]
    88f4:	f5d1f040 	pld	[r1, #64]
    88f8:	e4940004 	ldr	r0, [r4], #4
    88fc:	e5b1e004 	ldr	lr, [r1, #4]!
    8900:	e030000c 	eors	r0, r0, ip
    8904:	04940004 	ldreq	r0, [r4], #4
    8908:	05b1c004 	ldreq	ip, [r1, #4]!
    890c:	0030000e 	eorseq	r0, r0, lr
    8910:	04940004 	ldreq	r0, [r4], #4
    8914:	05b1e004 	ldreq	lr, [r1, #4]!
    8918:	0030000c 	eorseq	r0, r0, ip
    891c:	04940004 	ldreq	r0, [r4], #4
    8920:	05b1c004 	ldreq	ip, [r1, #4]!
    8924:	0030000e 	eorseq	r0, r0, lr
    8928:	04940004 	ldreq	r0, [r4], #4
    892c:	05b1e004 	ldreq	lr, [r1, #4]!
    8930:	0030000c 	eorseq	r0, r0, ip
    8934:	04940004 	ldreq	r0, [r4], #4
    8938:	05b1c004 	ldreq	ip, [r1, #4]!
    893c:	0030000e 	eorseq	r0, r0, lr
    8940:	04940004 	ldreq	r0, [r4], #4
    8944:	05b1e004 	ldreq	lr, [r1, #4]!
    8948:	0030000c 	eorseq	r0, r0, ip
    894c:	04940004 	ldreq	r0, [r4], #4
    8950:	05b1c004 	ldreq	ip, [r1, #4]!
    8954:	0030000e 	eorseq	r0, r0, lr
    8958:	1a00000d 	bne	8994 <memcmp+0x114>
    895c:	e2522020 	subs	r2, r2, #32	; 0x20
    8960:	2affffe2 	bcs	88f0 <memcmp+0x70>
    8964:	e2922020 	adds	r2, r2, #32	; 0x20
    8968:	4a000005 	bmi	8984 <memcmp+0x104>
    896c:	e4940004 	ldr	r0, [r4], #4
    8970:	e491c004 	ldr	ip, [r1], #4
    8974:	e030000c 	eors	r0, r0, ip
    8978:	1a000005 	bne	8994 <memcmp+0x114>
    897c:	e2522004 	subs	r2, r2, #4	; 0x4
    8980:	2afffff9 	bcs	896c <memcmp+0xec>
    8984:	e2922004 	adds	r2, r2, #4	; 0x4
    8988:	03a00000 	moveq	r0, #0	; 0x0
    898c:	0a000009 	beq	89b8 <memcmp+0x138>
    8990:	ea000002 	b	89a0 <memcmp+0x120>
    8994:	e2444004 	sub	r4, r4, #4	; 0x4
    8998:	e2411004 	sub	r1, r1, #4	; 0x4
    899c:	e3a02004 	mov	r2, #4	; 0x4
    89a0:	e4d40001 	ldrb	r0, [r4], #1
    89a4:	e4d1c001 	ldrb	ip, [r1], #1
    89a8:	e050000c 	subs	r0, r0, ip
    89ac:	1a000001 	bne	89b8 <memcmp+0x138>
    89b0:	e2522001 	subs	r2, r2, #1	; 0x1
    89b4:	1afffff9 	bne	89a0 <memcmp+0x120>
    89b8:	e8bd4010 	pop	{r4, lr}
    89bc:	e12fff1e 	bx	lr
    89c0:	e2010003 	and	r0, r1, #3	; 0x3
    89c4:	e3500002 	cmp	r0, #2	; 0x2
    89c8:	1a000026 	bne	8a68 <memcmp+0x1e8>
    89cc:	e2522010 	subs	r2, r2, #16	; 0x10
    89d0:	42822010 	addmi	r2, r2, #16	; 0x10
    89d4:	4afffff1 	bmi	89a0 <memcmp+0x120>
    89d8:	e3c11003 	bic	r1, r1, #3	; 0x3
    89dc:	e491e004 	ldr	lr, [r1], #4
    89e0:	f5d1f040 	pld	[r1, #64]
    89e4:	f5d4f040 	pld	[r4, #64]
    89e8:	e1a0c82e 	lsr	ip, lr, #16
    89ec:	e491e004 	ldr	lr, [r1], #4
    89f0:	e4940004 	ldr	r0, [r4], #4
    89f4:	e18cc80e 	orr	ip, ip, lr, lsl #16
    89f8:	e030000c 	eors	r0, r0, ip
    89fc:	01a0c82e 	lsreq	ip, lr, #16
    8a00:	0491e004 	ldreq	lr, [r1], #4
    8a04:	04940004 	ldreq	r0, [r4], #4
    8a08:	018cc80e 	orreq	ip, ip, lr, lsl #16
    8a0c:	0030000c 	eorseq	r0, r0, ip
    8a10:	01a0c82e 	lsreq	ip, lr, #16
    8a14:	0491e004 	ldreq	lr, [r1], #4
    8a18:	04940004 	ldreq	r0, [r4], #4
    8a1c:	018cc80e 	orreq	ip, ip, lr, lsl #16
    8a20:	0030000c 	eorseq	r0, r0, ip
    8a24:	01a0c82e 	lsreq	ip, lr, #16
    8a28:	0491e004 	ldreq	lr, [r1], #4
    8a2c:	04940004 	ldreq	r0, [r4], #4
    8a30:	018cc80e 	orreq	ip, ip, lr, lsl #16
    8a34:	0030000c 	eorseq	r0, r0, ip
    8a38:	1a000006 	bne	8a58 <memcmp+0x1d8>
    8a3c:	e2522010 	subs	r2, r2, #16	; 0x10
    8a40:	2affffe6 	bcs	89e0 <memcmp+0x160>
    8a44:	e2411002 	sub	r1, r1, #2	; 0x2
    8a48:	e2922010 	adds	r2, r2, #16	; 0x10
    8a4c:	03a00000 	moveq	r0, #0	; 0x0
    8a50:	0affffd8 	beq	89b8 <memcmp+0x138>
    8a54:	eaffffd1 	b	89a0 <memcmp+0x120>
    8a58:	e2411006 	sub	r1, r1, #6	; 0x6
    8a5c:	e2444004 	sub	r4, r4, #4	; 0x4
    8a60:	e3a02004 	mov	r2, #4	; 0x4
    8a64:	eaffffcd 	b	89a0 <memcmp+0x120>
    8a68:	e92d00e0 	push	{r5, r6, r7}
    8a6c:	e1a05180 	lsl	r5, r0, #3
    8a70:	e2656020 	rsb	r6, r5, #32	; 0x20
    8a74:	e3c11003 	bic	r1, r1, #3	; 0x3
    8a78:	e4917004 	ldr	r7, [r1], #4
    8a7c:	e2422008 	sub	r2, r2, #8	; 0x8
    8a80:	e1a0c537 	lsr	ip, r7, r5
    8a84:	e4917004 	ldr	r7, [r1], #4
    8a88:	e4940004 	ldr	r0, [r4], #4
    8a8c:	e18cc617 	orr	ip, ip, r7, lsl r6
    8a90:	e030000c 	eors	r0, r0, ip
    8a94:	01a0c537 	lsreq	ip, r7, r5
    8a98:	04917004 	ldreq	r7, [r1], #4
    8a9c:	04940004 	ldreq	r0, [r4], #4
    8aa0:	018cc617 	orreq	ip, ip, r7, lsl r6
    8aa4:	0030000c 	eorseq	r0, r0, ip
    8aa8:	1a000007 	bne	8acc <memcmp+0x24c>
    8aac:	e2522008 	subs	r2, r2, #8	; 0x8
    8ab0:	2afffff2 	bcs	8a80 <memcmp+0x200>
    8ab4:	e04111a6 	sub	r1, r1, r6, lsr #3
    8ab8:	e8bd00e0 	pop	{r5, r6, r7}
    8abc:	e2922008 	adds	r2, r2, #8	; 0x8
    8ac0:	03a00000 	moveq	r0, #0	; 0x0
    8ac4:	0affffbb 	beq	89b8 <memcmp+0x138>
    8ac8:	eaffffb4 	b	89a0 <memcmp+0x120>
    8acc:	e2411004 	sub	r1, r1, #4	; 0x4
    8ad0:	e04111a6 	sub	r1, r1, r6, lsr #3
    8ad4:	e2444004 	sub	r4, r4, #4	; 0x4
    8ad8:	e3a02004 	mov	r2, #4	; 0x4
    8adc:	e8bd00e0 	pop	{r5, r6, r7}
    8ae0:	eaffffae 	b	89a0 <memcmp+0x120>
    8ae4:	e1a00000 	nop			(mov r0,r0)
    8ae8:	e1a00000 	nop			(mov r0,r0)
    8aec:	e1a00000 	nop			(mov r0,r0)

00008af0 <memcpy>:
    8af0:	e92d4011 	push	{r0, r4, lr}
    8af4:	e24dd01c 	sub	sp, sp, #28	; 0x1c
    8af8:	f5d0f000 	pld	[r0]
    8afc:	f5d1f000 	pld	[r1]
    8b00:	f5d1f020 	pld	[r1, #32]
    8b04:	e3520004 	cmp	r2, #4	; 0x4
    8b08:	3a0000b7 	bcc	8dec <copy_last_3_and_return>
    8b0c:	e2613000 	rsb	r3, r1, #0	; 0x0
    8b10:	e2133003 	ands	r3, r3, #3	; 0x3
    8b14:	0a000007 	beq	8b38 <src_aligned>
    8b18:	e1b0cf83 	lsls	ip, r3, #31
    8b1c:	e0422003 	sub	r2, r2, r3
    8b20:	44d13001 	ldrbmi	r3, [r1], #1
    8b24:	24d14001 	ldrbcs	r4, [r1], #1
    8b28:	24d1c001 	ldrbcs	ip, [r1], #1
    8b2c:	44c03001 	strbmi	r3, [r0], #1
    8b30:	24c04001 	strbcs	r4, [r0], #1
    8b34:	24c0c001 	strbcs	ip, [r0], #1

00008b38 <src_aligned>:
    8b38:	e020c001 	eor	ip, r0, r1
    8b3c:	e31c0003 	tst	ip, #3	; 0x3
    8b40:	1a00002b 	bne	8bf4 <non_congruent>
    8b44:	e88d0fe0 	stm	sp, {r5, r6, r7, r8, r9, sl, fp}
    8b48:	e2603000 	rsb	r3, r0, #0	; 0x0
    8b4c:	e213301c 	ands	r3, r3, #28	; 0x1c
    8b50:	0a00000a 	beq	8b80 <cached_aligned32>
    8b54:	e1530002 	cmp	r3, r2
    8b58:	8202301c 	andhi	r3, r2, #28	; 0x1c
    8b5c:	e1b0ce03 	lsls	ip, r3, #28
    8b60:	28b100f0 	ldmcs	r1!, {r4, r5, r6, r7}
    8b64:	48b10300 	ldmmi	r1!, {r8, r9}
    8b68:	28a000f0 	stmiacs	r0!, {r4, r5, r6, r7}
    8b6c:	48a00300 	stmiami	r0!, {r8, r9}
    8b70:	e3130004 	tst	r3, #4	; 0x4
    8b74:	1491a004 	ldrne	sl, [r1], #4
    8b78:	1480a004 	strne	sl, [r0], #4
    8b7c:	e0422003 	sub	r2, r2, r3

00008b80 <cached_aligned32>:
    8b80:	e2522020 	subs	r2, r2, #32	; 0x20
    8b84:	3a000008 	bcc	8bac <less_than_32_left>
    8b88:	e3c1c01f 	bic	ip, r1, #31	; 0x1f
    8b8c:	e28cc040 	add	ip, ip, #64	; 0x40
    8b90:	e8b10ff0 	ldm	r1!, {r4, r5, r6, r7, r8, r9, sl, fp}
    8b94:	f5dcf040 	pld	[ip, #64]
    8b98:	e2522020 	subs	r2, r2, #32	; 0x20
    8b9c:	849c3020 	ldrhi	r3, [ip], #32
    8ba0:	e8a00ff0 	stmia	r0!, {r4, r5, r6, r7, r8, r9, sl, fp}
    8ba4:	2afffff9 	bcs	8b90 <cached_aligned32+0x10>
    8ba8:	e2822020 	add	r2, r2, #32	; 0x20

00008bac <less_than_32_left>:
    8bac:	e312001f 	tst	r2, #31	; 0x1f
    8bb0:	0a00000c 	beq	8be8 <less_than_32_left+0x3c>
    8bb4:	e1b0ce02 	lsls	ip, r2, #28
    8bb8:	28b100f0 	ldmcs	r1!, {r4, r5, r6, r7}
    8bbc:	48b10300 	ldmmi	r1!, {r8, r9}
    8bc0:	28a000f0 	stmiacs	r0!, {r4, r5, r6, r7}
    8bc4:	48a00300 	stmiami	r0!, {r8, r9}
    8bc8:	e1b0cf02 	lsls	ip, r2, #30
    8bcc:	24913004 	ldrcs	r3, [r1], #4
    8bd0:	40d140b2 	ldrhmi	r4, [r1], #2
    8bd4:	24803004 	strcs	r3, [r0], #4
    8bd8:	40c040b2 	strhmi	r4, [r0], #2
    8bdc:	e3120001 	tst	r2, #1	; 0x1
    8be0:	15d13000 	ldrbne	r3, [r1]
    8be4:	15c03000 	strbne	r3, [r0]
    8be8:	e8bd0fe0 	pop	{r5, r6, r7, r8, r9, sl, fp}
    8bec:	e8bd4011 	pop	{r0, r4, lr}
    8bf0:	e12fff1e 	bx	lr

00008bf4 <non_congruent>:
    8bf4:	e3520004 	cmp	r2, #4	; 0x4
    8bf8:	3a00007b 	bcc	8dec <copy_last_3_and_return>
    8bfc:	e88d0fe0 	stm	sp, {r5, r6, r7, r8, r9, sl, fp}
    8c00:	e2605000 	rsb	r5, r0, #0	; 0x0
    8c04:	e2055003 	and	r5, r5, #3	; 0x3
    8c08:	e1a0c185 	lsl	ip, r5, #3
    8c0c:	e26ce020 	rsb	lr, ip, #32	; 0x20
    8c10:	e4913004 	ldr	r3, [r1], #4
    8c14:	e2422004 	sub	r2, r2, #4	; 0x4
    8c18:	e1b05f85 	lsls	r5, r5, #31
    8c1c:	44c03001 	strbmi	r3, [r0], #1
    8c20:	41a03423 	lsrmi	r3, r3, #8
    8c24:	24c03001 	strbcs	r3, [r0], #1
    8c28:	21a03423 	lsrcs	r3, r3, #8
    8c2c:	24c03001 	strbcs	r3, [r0], #1
    8c30:	21a03423 	lsrcs	r3, r3, #8
    8c34:	e3520004 	cmp	r2, #4	; 0x4
    8c38:	3a000064 	bcc	8dd0 <partial_word_tail>
    8c3c:	e310001c 	tst	r0, #28	; 0x1c
    8c40:	0a000007 	beq	8c64 <non_congruent+0x70>
    8c44:	e4915004 	ldr	r5, [r1], #4
    8c48:	e2422004 	sub	r2, r2, #4	; 0x4
    8c4c:	e1834e15 	orr	r4, r3, r5, lsl lr
    8c50:	e1a03c35 	lsr	r3, r5, ip
    8c54:	e4804004 	str	r4, [r0], #4
    8c58:	e3520004 	cmp	r2, #4	; 0x4
    8c5c:	2afffff6 	bcs	8c3c <non_congruent+0x48>
    8c60:	3a00005a 	bcc	8dd0 <partial_word_tail>
    8c64:	e2522020 	subs	r2, r2, #32	; 0x20
    8c68:	3a00004d 	bcc	8da4 <less_than_thirtytwo>
    8c6c:	e35c0018 	cmp	ip, #24	; 0x18
    8c70:	0a000033 	beq	8d44 <loop24>
    8c74:	e35c0008 	cmp	ip, #8	; 0x8
    8c78:	0a000018 	beq	8ce0 <loop8>

00008c7c <loop16>:
    8c7c:	e491c004 	ldr	ip, [r1], #4
    8c80:	e1a0400c 	mov	r4, ip
    8c84:	e8b10fe0 	ldm	r1!, {r5, r6, r7, r8, r9, sl, fp}
    8c88:	f5d1f040 	pld	[r1, #64]
    8c8c:	e2522020 	subs	r2, r2, #32	; 0x20
    8c90:	2491c004 	ldrcs	ip, [r1], #4
    8c94:	e1833804 	orr	r3, r3, r4, lsl #16
    8c98:	e1a04824 	lsr	r4, r4, #16
    8c9c:	e1844805 	orr	r4, r4, r5, lsl #16
    8ca0:	e1a05825 	lsr	r5, r5, #16
    8ca4:	e1855806 	orr	r5, r5, r6, lsl #16
    8ca8:	e1a06826 	lsr	r6, r6, #16
    8cac:	e1866807 	orr	r6, r6, r7, lsl #16
    8cb0:	e1a07827 	lsr	r7, r7, #16
    8cb4:	e1877808 	orr	r7, r7, r8, lsl #16
    8cb8:	e1a08828 	lsr	r8, r8, #16
    8cbc:	e1888809 	orr	r8, r8, r9, lsl #16
    8cc0:	e1a09829 	lsr	r9, r9, #16
    8cc4:	e189980a 	orr	r9, r9, sl, lsl #16
    8cc8:	e1a0a82a 	lsr	sl, sl, #16
    8ccc:	e18aa80b 	orr	sl, sl, fp, lsl #16
    8cd0:	e8a007f8 	stmia	r0!, {r3, r4, r5, r6, r7, r8, r9, sl}
    8cd4:	e1a0382b 	lsr	r3, fp, #16
    8cd8:	2affffe8 	bcs	8c80 <loop16+0x4>
    8cdc:	ea000030 	b	8da4 <less_than_thirtytwo>

00008ce0 <loop8>:
    8ce0:	e491c004 	ldr	ip, [r1], #4
    8ce4:	e1a0400c 	mov	r4, ip
    8ce8:	e8b10fe0 	ldm	r1!, {r5, r6, r7, r8, r9, sl, fp}
    8cec:	f5d1f040 	pld	[r1, #64]
    8cf0:	e2522020 	subs	r2, r2, #32	; 0x20
    8cf4:	2491c004 	ldrcs	ip, [r1], #4
    8cf8:	e1833c04 	orr	r3, r3, r4, lsl #24
    8cfc:	e1a04424 	lsr	r4, r4, #8
    8d00:	e1844c05 	orr	r4, r4, r5, lsl #24
    8d04:	e1a05425 	lsr	r5, r5, #8
    8d08:	e1855c06 	orr	r5, r5, r6, lsl #24
    8d0c:	e1a06426 	lsr	r6, r6, #8
    8d10:	e1866c07 	orr	r6, r6, r7, lsl #24
    8d14:	e1a07427 	lsr	r7, r7, #8
    8d18:	e1877c08 	orr	r7, r7, r8, lsl #24
    8d1c:	e1a08428 	lsr	r8, r8, #8
    8d20:	e1888c09 	orr	r8, r8, r9, lsl #24
    8d24:	e1a09429 	lsr	r9, r9, #8
    8d28:	e1899c0a 	orr	r9, r9, sl, lsl #24
    8d2c:	e1a0a42a 	lsr	sl, sl, #8
    8d30:	e18aac0b 	orr	sl, sl, fp, lsl #24
    8d34:	e8a007f8 	stmia	r0!, {r3, r4, r5, r6, r7, r8, r9, sl}
    8d38:	e1a0342b 	lsr	r3, fp, #8
    8d3c:	2affffe8 	bcs	8ce4 <loop8+0x4>
    8d40:	ea000017 	b	8da4 <less_than_thirtytwo>

00008d44 <loop24>:
    8d44:	e491c004 	ldr	ip, [r1], #4
    8d48:	e1a0400c 	mov	r4, ip
    8d4c:	e8b10fe0 	ldm	r1!, {r5, r6, r7, r8, r9, sl, fp}
    8d50:	f5d1f040 	pld	[r1, #64]
    8d54:	e2522020 	subs	r2, r2, #32	; 0x20
    8d58:	2491c004 	ldrcs	ip, [r1], #4
    8d5c:	e1833404 	orr	r3, r3, r4, lsl #8
    8d60:	e1a04c24 	lsr	r4, r4, #24
    8d64:	e1844405 	orr	r4, r4, r5, lsl #8
    8d68:	e1a05c25 	lsr	r5, r5, #24
    8d6c:	e1855406 	orr	r5, r5, r6, lsl #8
    8d70:	e1a06c26 	lsr	r6, r6, #24
    8d74:	e1866407 	orr	r6, r6, r7, lsl #8
    8d78:	e1a07c27 	lsr	r7, r7, #24
    8d7c:	e1877408 	orr	r7, r7, r8, lsl #8
    8d80:	e1a08c28 	lsr	r8, r8, #24
    8d84:	e1888409 	orr	r8, r8, r9, lsl #8
    8d88:	e1a09c29 	lsr	r9, r9, #24
    8d8c:	e189940a 	orr	r9, r9, sl, lsl #8
    8d90:	e1a0ac2a 	lsr	sl, sl, #24
    8d94:	e18aa40b 	orr	sl, sl, fp, lsl #8
    8d98:	e8a007f8 	stmia	r0!, {r3, r4, r5, r6, r7, r8, r9, sl}
    8d9c:	e1a03c2b 	lsr	r3, fp, #24
    8da0:	2affffe8 	bcs	8d48 <loop24+0x4>

00008da4 <less_than_thirtytwo>:
    8da4:	e26ec020 	rsb	ip, lr, #32	; 0x20
    8da8:	e2822020 	add	r2, r2, #32	; 0x20
    8dac:	e3520004 	cmp	r2, #4	; 0x4
    8db0:	3a000006 	bcc	8dd0 <partial_word_tail>
    8db4:	e4915004 	ldr	r5, [r1], #4
    8db8:	e2422004 	sub	r2, r2, #4	; 0x4
    8dbc:	e1834e15 	orr	r4, r3, r5, lsl lr
    8dc0:	e1a03c35 	lsr	r3, r5, ip
    8dc4:	e4804004 	str	r4, [r0], #4
    8dc8:	e3520004 	cmp	r2, #4	; 0x4
    8dcc:	2afffff8 	bcs	8db4 <less_than_thirtytwo+0x10>

00008dd0 <partial_word_tail>:
    8dd0:	e1b05e0e 	lsls	r5, lr, #28
    8dd4:	44c03001 	strbmi	r3, [r0], #1
    8dd8:	41a03423 	lsrmi	r3, r3, #8
    8ddc:	24c03001 	strbcs	r3, [r0], #1
    8de0:	21a03423 	lsrcs	r3, r3, #8
    8de4:	24c03001 	strbcs	r3, [r0], #1
    8de8:	e89d0fe0 	ldm	sp, {r5, r6, r7, r8, r9, sl, fp}

00008dec <copy_last_3_and_return>:
    8dec:	e1b02f82 	lsls	r2, r2, #31
    8df0:	44d12001 	ldrbmi	r2, [r1], #1
    8df4:	24d13001 	ldrbcs	r3, [r1], #1
    8df8:	25d1c000 	ldrbcs	ip, [r1]
    8dfc:	44c02001 	strbmi	r2, [r0], #1
    8e00:	24c03001 	strbcs	r3, [r0], #1
    8e04:	25c0c000 	strbcs	ip, [r0]
    8e08:	e28dd01c 	add	sp, sp, #28	; 0x1c
    8e0c:	e8bd4011 	pop	{r0, r4, lr}
    8e10:	e12fff1e 	bx	lr
    8e14:	e1a00000 	nop			(mov r0,r0)
    8e18:	e1a00000 	nop			(mov r0,r0)
    8e1c:	e1a00000 	nop			(mov r0,r0)

00008e20 <bzero>:
    8e20:	e1a02001 	mov	r2, r1
    8e24:	e3a01000 	mov	r1, #0	; 0x0

00008e28 <memset>:
    8e28:	e92d40f1 	push	{r0, r4, r5, r6, r7, lr}
    8e2c:	e2603000 	rsb	r3, r0, #0	; 0x0
    8e30:	e2133003 	ands	r3, r3, #3	; 0x3
    8e34:	e1530002 	cmp	r3, r2
    8e38:	81a03002 	movhi	r3, r2
    8e3c:	e1a01c01 	lsl	r1, r1, #24
    8e40:	e1811421 	orr	r1, r1, r1, lsr #8
    8e44:	e1811821 	orr	r1, r1, r1, lsr #16
    8e48:	e1b0cf83 	lsls	ip, r3, #31
    8e4c:	24c01001 	strbcs	r1, [r0], #1
    8e50:	24c01001 	strbcs	r1, [r0], #1
    8e54:	44c01001 	strbmi	r1, [r0], #1
    8e58:	e0522003 	subs	r2, r2, r3
    8e5c:	98bd40f1 	popls	{r0, r4, r5, r6, r7, lr}
    8e60:	912fff1e 	bxls	lr
    8e64:	e1a0c001 	mov	ip, r1
    8e68:	e1a0e001 	mov	lr, r1
    8e6c:	e1a04001 	mov	r4, r1
    8e70:	e1a05001 	mov	r5, r1
    8e74:	e1a06001 	mov	r6, r1
    8e78:	e1a07001 	mov	r7, r1
    8e7c:	e2603000 	rsb	r3, r0, #0	; 0x0
    8e80:	e213301c 	ands	r3, r3, #28	; 0x1c
    8e84:	0a000008 	beq	8eac <memset+0x84>
    8e88:	e1530002 	cmp	r3, r2
    8e8c:	8202301c 	andhi	r3, r2, #28	; 0x1c
    8e90:	e0422003 	sub	r2, r2, r3
    8e94:	e1b03e03 	lsls	r3, r3, #28
    8e98:	28a04002 	stmiacs	r0!, {r1, lr}
    8e9c:	28a04002 	stmiacs	r0!, {r1, lr}
    8ea0:	48a04002 	stmiami	r0!, {r1, lr}
    8ea4:	e1b03103 	lsls	r3, r3, #2
    8ea8:	24801004 	strcs	r1, [r0], #4
    8eac:	e2522020 	subs	r2, r2, #32	; 0x20
    8eb0:	e1a03001 	mov	r3, r1
    8eb4:	4a000002 	bmi	8ec4 <memset+0x9c>
    8eb8:	e2522020 	subs	r2, r2, #32	; 0x20
    8ebc:	e8a050fa 	stmia	r0!, {r1, r3, r4, r5, r6, r7, ip, lr}
    8ec0:	2afffffc 	bcs	8eb8 <memset+0x90>
    8ec4:	e2822020 	add	r2, r2, #32	; 0x20
    8ec8:	e1b02e02 	lsls	r2, r2, #28
    8ecc:	28a0500a 	stmiacs	r0!, {r1, r3, ip, lr}
    8ed0:	48a04002 	stmiami	r0!, {r1, lr}
    8ed4:	e1b02102 	lsls	r2, r2, #2
    8ed8:	24801004 	strcs	r1, [r0], #4
    8edc:	40c010b2 	strhmi	r1, [r0], #2
    8ee0:	e1b02102 	lsls	r2, r2, #2
    8ee4:	25c01000 	strbcs	r1, [r0]
    8ee8:	e8bd40f1 	pop	{r0, r4, r5, r6, r7, lr}
    8eec:	e12fff1e 	bx	lr

00008ef0 <strcpy>:
    8ef0:	f5d1f000 	pld	[r1]
    8ef4:	e0202001 	eor	r2, r0, r1
    8ef8:	e1a0c000 	mov	ip, r0
    8efc:	e3120003 	tst	r2, #3	; 0x3
    8f00:	1a000033 	bne	8fd4 <strcpy+0xe4>
    8f04:	e3110003 	tst	r1, #3	; 0x3
    8f08:	1a000022 	bne	8f98 <strcpy+0xa8>
    8f0c:	e52d5004 	push	{r5}		; (str r5, [sp, #-4]!)
    8f10:	e3a05001 	mov	r5, #1	; 0x1
    8f14:	e1855405 	orr	r5, r5, r5, lsl #8
    8f18:	e1855805 	orr	r5, r5, r5, lsl #16
    8f1c:	e52d4004 	push	{r4}		; (str r4, [sp, #-4]!)
    8f20:	e3110004 	tst	r1, #4	; 0x4
    8f24:	e4913004 	ldr	r3, [r1], #4
    8f28:	0a000005 	beq	8f44 <strcpy+0x54>
    8f2c:	e0432005 	sub	r2, r3, r5
    8f30:	e1d22003 	bics	r2, r2, r3
    8f34:	e1120385 	tst	r2, r5, lsl #7
    8f38:	048c3004 	streq	r3, [ip], #4
    8f3c:	04913004 	ldreq	r3, [r1], #4
    8f40:	1a00000d 	bne	8f7c <strcpy+0x8c>
    8f44:	f5d1f008 	pld	[r1, #8]
    8f48:	e4914004 	ldr	r4, [r1], #4
    8f4c:	e0432005 	sub	r2, r3, r5
    8f50:	e1d22003 	bics	r2, r2, r3
    8f54:	e1120385 	tst	r2, r5, lsl #7
    8f58:	e0442005 	sub	r2, r4, r5
    8f5c:	1a000006 	bne	8f7c <strcpy+0x8c>
    8f60:	e48c3004 	str	r3, [ip], #4
    8f64:	e1d22004 	bics	r2, r2, r4
    8f68:	e1120385 	tst	r2, r5, lsl #7
    8f6c:	04913004 	ldreq	r3, [r1], #4
    8f70:	048c4004 	streq	r4, [ip], #4
    8f74:	0afffff2 	beq	8f44 <strcpy+0x54>
    8f78:	e1a03004 	mov	r3, r4
    8f7c:	e4cc3001 	strb	r3, [ip], #1
    8f80:	e31300ff 	tst	r3, #255	; 0xff
    8f84:	e1a03463 	ror	r3, r3, #8
    8f88:	1afffffb 	bne	8f7c <strcpy+0x8c>
    8f8c:	e49d4004 	pop	{r4}		; (ldr r4, [sp], #4)
    8f90:	e49d5004 	pop	{r5}		; (ldr r5, [sp], #4)
    8f94:	e12fff1e 	bx	lr
    8f98:	e3110001 	tst	r1, #1	; 0x1
    8f9c:	0a000003 	beq	8fb0 <strcpy+0xc0>
    8fa0:	e4d12001 	ldrb	r2, [r1], #1
    8fa4:	e4cc2001 	strb	r2, [ip], #1
    8fa8:	e3520000 	cmp	r2, #0	; 0x0
    8fac:	012fff1e 	bxeq	lr
    8fb0:	e3110002 	tst	r1, #2	; 0x2
    8fb4:	0affffd4 	beq	8f0c <strcpy+0x1c>
    8fb8:	e0d120b2 	ldrh	r2, [r1], #2
    8fbc:	e31200ff 	tst	r2, #255	; 0xff
    8fc0:	10cc20b2 	strhne	r2, [ip], #2
    8fc4:	05cc2000 	strbeq	r2, [ip]
    8fc8:	13120cff 	tstne	r2, #65280	; 0xff00
    8fcc:	1affffce 	bne	8f0c <strcpy+0x1c>
    8fd0:	e12fff1e 	bx	lr
    8fd4:	e4d12001 	ldrb	r2, [r1], #1
    8fd8:	e4cc2001 	strb	r2, [ip], #1
    8fdc:	e3520000 	cmp	r2, #0	; 0x0
    8fe0:	1afffffb 	bne	8fd4 <strcpy+0xe4>
    8fe4:	e12fff1e 	bx	lr
    8fe8:	e1a00000 	nop			(mov r0,r0)
    8fec:	e1a00000 	nop			(mov r0,r0)

00008ff0 <strcmp>:
    8ff0:	f5d0f000 	pld	[r0]
    8ff4:	f5d1f000 	pld	[r1]
    8ff8:	e0202001 	eor	r2, r0, r1
    8ffc:	e3120003 	tst	r2, #3	; 0x3
    9000:	1a000023 	bne	9094 <strcmp+0xa4>
    9004:	e2102003 	ands	r2, r0, #3	; 0x3
    9008:	e3c00003 	bic	r0, r0, #3	; 0x3
    900c:	e3c11003 	bic	r1, r1, #3	; 0x3
    9010:	e490c004 	ldr	ip, [r0], #4
    9014:	04913004 	ldreq	r3, [r1], #4
    9018:	0a000006 	beq	9038 <strcmp+0x48>
    901c:	e2222003 	eor	r2, r2, #3	; 0x3
    9020:	e1a02182 	lsl	r2, r2, #3
    9024:	e3e034ff 	mvn	r3, #-16777216	; 0xff000000
    9028:	e1a02233 	lsr	r2, r3, r2
    902c:	e4913004 	ldr	r3, [r1], #4
    9030:	e18cc002 	orr	ip, ip, r2
    9034:	e1833002 	orr	r3, r3, r2
    9038:	e52d4004 	push	{r4}		; (str r4, [sp, #-4]!)
    903c:	e3a04001 	mov	r4, #1	; 0x1
    9040:	e1844404 	orr	r4, r4, r4, lsl #8
    9044:	e1844804 	orr	r4, r4, r4, lsl #16
    9048:	f5d0f008 	pld	[r0, #8]
    904c:	f5d1f008 	pld	[r1, #8]
    9050:	e04c2004 	sub	r2, ip, r4
    9054:	e15c0003 	cmp	ip, r3
    9058:	01c2200c 	biceq	r2, r2, ip
    905c:	01120384 	tsteq	r2, r4, lsl #7
    9060:	0490c004 	ldreq	ip, [r0], #4
    9064:	04913004 	ldreq	r3, [r1], #4
    9068:	0afffff6 	beq	9048 <strcmp+0x58>
    906c:	e1a00c0c 	lsl	r0, ip, #24
    9070:	e1a0c42c 	lsr	ip, ip, #8
    9074:	e3500001 	cmp	r0, #1	; 0x1
    9078:	21500c03 	cmpcs	r0, r3, lsl #24
    907c:	01a03423 	lsreq	r3, r3, #8
    9080:	0afffff9 	beq	906c <strcmp+0x7c>
    9084:	e20330ff 	and	r3, r3, #255	; 0xff
    9088:	e0630c20 	rsb	r0, r3, r0, lsr #24
    908c:	e49d4004 	pop	{r4}		; (ldr r4, [sp], #4)
    9090:	e12fff1e 	bx	lr
    9094:	e3100003 	tst	r0, #3	; 0x3
    9098:	0a000006 	beq	90b8 <strcmp+0xc8>
    909c:	e4d02001 	ldrb	r2, [r0], #1
    90a0:	e4d13001 	ldrb	r3, [r1], #1
    90a4:	e3520001 	cmp	r2, #1	; 0x1
    90a8:	21520003 	cmpcs	r2, r3
    90ac:	0afffff8 	beq	9094 <strcmp+0xa4>
    90b0:	e0420003 	sub	r0, r2, r3
    90b4:	e12fff1e 	bx	lr
    90b8:	e52d5004 	push	{r5}		; (str r5, [sp, #-4]!)
    90bc:	e52d4004 	push	{r4}		; (str r4, [sp, #-4]!)
    90c0:	e3a02001 	mov	r2, #1	; 0x1
    90c4:	e1822402 	orr	r2, r2, r2, lsl #8
    90c8:	e1822802 	orr	r2, r2, r2, lsl #16
    90cc:	e201c003 	and	ip, r1, #3	; 0x3
    90d0:	e3c11003 	bic	r1, r1, #3	; 0x3
    90d4:	e4904004 	ldr	r4, [r0], #4
    90d8:	e4915004 	ldr	r5, [r1], #4
    90dc:	e35c0002 	cmp	ip, #2	; 0x2
    90e0:	0a000017 	beq	9144 <strcmp+0x154>
    90e4:	8a00002d 	bhi	91a0 <strcmp+0x1b0>
    90e8:	e3c4c4ff 	bic	ip, r4, #-16777216	; 0xff000000
    90ec:	e15c0425 	cmp	ip, r5, lsr #8
    90f0:	e0443002 	sub	r3, r4, r2
    90f4:	e1c33004 	bic	r3, r3, r4
    90f8:	1a000007 	bne	911c <strcmp+0x12c>
    90fc:	e0133382 	ands	r3, r3, r2, lsl #7
    9100:	04915004 	ldreq	r5, [r1], #4
    9104:	1a000006 	bne	9124 <strcmp+0x134>
    9108:	e02cc004 	eor	ip, ip, r4
    910c:	e15c0c05 	cmp	ip, r5, lsl #24
    9110:	1a000008 	bne	9138 <strcmp+0x148>
    9114:	e4904004 	ldr	r4, [r0], #4
    9118:	eafffff2 	b	90e8 <strcmp+0xf8>
    911c:	e1a05425 	lsr	r5, r5, #8
    9120:	ea000037 	b	9204 <strcmp+0x214>
    9124:	e3d334ff 	bics	r3, r3, #-16777216	; 0xff000000
    9128:	1a000031 	bne	91f4 <strcmp+0x204>
    912c:	e5d15000 	ldrb	r5, [r1]
    9130:	e1a0cc24 	lsr	ip, r4, #24
    9134:	ea000032 	b	9204 <strcmp+0x214>
    9138:	e1a0cc24 	lsr	ip, r4, #24
    913c:	e20550ff 	and	r5, r5, #255	; 0xff
    9140:	ea00002f 	b	9204 <strcmp+0x214>
    9144:	e1a0c804 	lsl	ip, r4, #16
    9148:	e0443002 	sub	r3, r4, r2
    914c:	e1a0c82c 	lsr	ip, ip, #16
    9150:	e1c33004 	bic	r3, r3, r4
    9154:	e15c0825 	cmp	ip, r5, lsr #16
    9158:	1a00000e 	bne	9198 <strcmp+0x1a8>
    915c:	e0133382 	ands	r3, r3, r2, lsl #7
    9160:	04915004 	ldreq	r5, [r1], #4
    9164:	1a000004 	bne	917c <strcmp+0x18c>
    9168:	e02cc004 	eor	ip, ip, r4
    916c:	e15c0805 	cmp	ip, r5, lsl #16
    9170:	1a000006 	bne	9190 <strcmp+0x1a0>
    9174:	e4904004 	ldr	r4, [r0], #4
    9178:	eafffff1 	b	9144 <strcmp+0x154>
    917c:	e1b03803 	lsls	r3, r3, #16
    9180:	1a00001b 	bne	91f4 <strcmp+0x204>
    9184:	e1d150b0 	ldrh	r5, [r1]
    9188:	e1a0c824 	lsr	ip, r4, #16
    918c:	ea00001c 	b	9204 <strcmp+0x214>
    9190:	e1a05805 	lsl	r5, r5, #16
    9194:	e1a0c824 	lsr	ip, r4, #16
    9198:	e1a05825 	lsr	r5, r5, #16
    919c:	ea000018 	b	9204 <strcmp+0x214>
    91a0:	e204c0ff 	and	ip, r4, #255	; 0xff
    91a4:	e15c0c25 	cmp	ip, r5, lsr #24
    91a8:	e0443002 	sub	r3, r4, r2
    91ac:	e1c33004 	bic	r3, r3, r4
    91b0:	1a000007 	bne	91d4 <strcmp+0x1e4>
    91b4:	e0133382 	ands	r3, r3, r2, lsl #7
    91b8:	04915004 	ldreq	r5, [r1], #4
    91bc:	1a000006 	bne	91dc <strcmp+0x1ec>
    91c0:	e02cc004 	eor	ip, ip, r4
    91c4:	e15c0405 	cmp	ip, r5, lsl #8
    91c8:	1a000006 	bne	91e8 <strcmp+0x1f8>
    91cc:	e4904004 	ldr	r4, [r0], #4
    91d0:	eafffff2 	b	91a0 <strcmp+0x1b0>
    91d4:	e1a05c25 	lsr	r5, r5, #24
    91d8:	ea000009 	b	9204 <strcmp+0x214>
    91dc:	e31400ff 	tst	r4, #255	; 0xff
    91e0:	0a000003 	beq	91f4 <strcmp+0x204>
    91e4:	e4915004 	ldr	r5, [r1], #4
    91e8:	e1a0c424 	lsr	ip, r4, #8
    91ec:	e3c554ff 	bic	r5, r5, #-16777216	; 0xff000000
    91f0:	ea000003 	b	9204 <strcmp+0x214>
    91f4:	e3a00000 	mov	r0, #0	; 0x0
    91f8:	e49d4004 	pop	{r4}		; (ldr r4, [sp], #4)
    91fc:	e49d5004 	pop	{r5}		; (ldr r5, [sp], #4)
    9200:	e12fff1e 	bx	lr
    9204:	e20c20ff 	and	r2, ip, #255	; 0xff
    9208:	e20500ff 	and	r0, r5, #255	; 0xff
    920c:	e3500001 	cmp	r0, #1	; 0x1
    9210:	21500002 	cmpcs	r0, r2
    9214:	01a0c42c 	lsreq	ip, ip, #8
    9218:	01a05425 	lsreq	r5, r5, #8
    921c:	0afffff8 	beq	9204 <strcmp+0x214>
    9220:	e0420000 	sub	r0, r2, r0
    9224:	e49d4004 	pop	{r4}		; (ldr r4, [sp], #4)
    9228:	e49d5004 	pop	{r5}		; (ldr r5, [sp], #4)
    922c:	e12fff1e 	bx	lr

00009230 <__fork>:
    9230:	e92d0090 	push	{r4, r7}
    9234:	e3a07002 	mov	r7, #2	; 0x2
    9238:	ef000000 	svc	0x00000000
    923c:	e8bd0090 	pop	{r4, r7}
    9240:	e1b00000 	movs	r0, r0
    9244:	512fff1e 	bxpl	lr
    9248:	ea00459e 	b	1a8c8 <sysconf+0xb8>
    924c:	e1a00000 	nop			(mov r0,r0)

00009250 <__setuid>:
    9250:	e92d0090 	push	{r4, r7}
    9254:	e3a070d5 	mov	r7, #213	; 0xd5
    9258:	ef000000 	svc	0x00000000
    925c:	e8bd0090 	pop	{r4, r7}
    9260:	e1b00000 	movs	r0, r0
    9264:	512fff1e 	bxpl	lr
    9268:	ea004596 	b	1a8c8 <sysconf+0xb8>
    926c:	e1a00000 	nop			(mov r0,r0)

00009270 <getuid>:
    9270:	e92d0090 	push	{r4, r7}
    9274:	e3a070c7 	mov	r7, #199	; 0xc7
    9278:	ef000000 	svc	0x00000000
    927c:	e8bd0090 	pop	{r4, r7}
    9280:	e1b00000 	movs	r0, r0
    9284:	512fff1e 	bxpl	lr
    9288:	ea00458e 	b	1a8c8 <sysconf+0xb8>
    928c:	e1a00000 	nop			(mov r0,r0)

00009290 <setresgid>:
    9290:	e92d0090 	push	{r4, r7}
    9294:	e3a070d2 	mov	r7, #210	; 0xd2
    9298:	ef000000 	svc	0x00000000
    929c:	e8bd0090 	pop	{r4, r7}
    92a0:	e1b00000 	movs	r0, r0
    92a4:	512fff1e 	bxpl	lr
    92a8:	ea004586 	b	1a8c8 <sysconf+0xb8>
    92ac:	e1a00000 	nop			(mov r0,r0)

000092b0 <__open>:
    92b0:	e92d0090 	push	{r4, r7}
    92b4:	e3a07005 	mov	r7, #5	; 0x5
    92b8:	ef000000 	svc	0x00000000
    92bc:	e8bd0090 	pop	{r4, r7}
    92c0:	e1b00000 	movs	r0, r0
    92c4:	512fff1e 	bxpl	lr
    92c8:	ea00457e 	b	1a8c8 <sysconf+0xb8>
    92cc:	e1a00000 	nop			(mov r0,r0)

000092d0 <__openat>:
    92d0:	e92d0090 	push	{r4, r7}
    92d4:	e59f7010 	ldr	r7, [pc, #16]	; 92ec <__openat+0x1c>
    92d8:	ef000000 	svc	0x00000000
    92dc:	e8bd0090 	pop	{r4, r7}
    92e0:	e1b00000 	movs	r0, r0
    92e4:	512fff1e 	bxpl	lr
    92e8:	ea004576 	b	1a8c8 <sysconf+0xb8>
    92ec:	00000142 	.word	0x00000142

000092f0 <__mmap2>:
    92f0:	e1a0c00d 	mov	ip, sp
    92f4:	e92d00f0 	push	{r4, r5, r6, r7}
    92f8:	e89c0070 	ldm	ip, {r4, r5, r6}
    92fc:	e3a070c0 	mov	r7, #192	; 0xc0
    9300:	ef000000 	svc	0x00000000
    9304:	e8bd00f0 	pop	{r4, r5, r6, r7}
    9308:	e1b00000 	movs	r0, r0
    930c:	512fff1e 	bxpl	lr
    9310:	ea00456c 	b	1a8c8 <sysconf+0xb8>
    9314:	e1a00000 	nop			(mov r0,r0)
    9318:	e1a00000 	nop			(mov r0,r0)
    931c:	e1a00000 	nop			(mov r0,r0)

00009320 <mprotect>:
    9320:	e92d0090 	push	{r4, r7}
    9324:	e3a0707d 	mov	r7, #125	; 0x7d
    9328:	ef000000 	svc	0x00000000
    932c:	e8bd0090 	pop	{r4, r7}
    9330:	e1b00000 	movs	r0, r0
    9334:	512fff1e 	bxpl	lr
    9338:	ea004562 	b	1a8c8 <sysconf+0xb8>
    933c:	e1a00000 	nop			(mov r0,r0)

00009340 <__ioctl>:
    9340:	e92d0090 	push	{r4, r7}
    9344:	e3a07036 	mov	r7, #54	; 0x36
    9348:	ef000000 	svc	0x00000000
    934c:	e8bd0090 	pop	{r4, r7}
    9350:	e1b00000 	movs	r0, r0
    9354:	512fff1e 	bxpl	lr
    9358:	ea00455a 	b	1a8c8 <sysconf+0xb8>
    935c:	e1a00000 	nop			(mov r0,r0)

00009360 <getdents>:
    9360:	e92d0090 	push	{r4, r7}
    9364:	e3a070d9 	mov	r7, #217	; 0xd9
    9368:	ef000000 	svc	0x00000000
    936c:	e8bd0090 	pop	{r4, r7}
    9370:	e1b00000 	movs	r0, r0
    9374:	512fff1e 	bxpl	lr
    9378:	ea004552 	b	1a8c8 <sysconf+0xb8>
    937c:	e1a00000 	nop			(mov r0,r0)

00009380 <__fcntl64>:
    9380:	e92d0090 	push	{r4, r7}
    9384:	e3a070dd 	mov	r7, #221	; 0xdd
    9388:	ef000000 	svc	0x00000000
    938c:	e8bd0090 	pop	{r4, r7}
    9390:	e1b00000 	movs	r0, r0
    9394:	512fff1e 	bxpl	lr
    9398:	ea00454a 	b	1a8c8 <sysconf+0xb8>
    939c:	e1a00000 	nop			(mov r0,r0)

000093a0 <nanosleep>:
    93a0:	e92d0090 	push	{r4, r7}
    93a4:	e3a070a2 	mov	r7, #162	; 0xa2
    93a8:	ef000000 	svc	0x00000000
    93ac:	e8bd0090 	pop	{r4, r7}
    93b0:	e1b00000 	movs	r0, r0
    93b4:	512fff1e 	bxpl	lr
    93b8:	ea004542 	b	1a8c8 <sysconf+0xb8>
    93bc:	e1a00000 	nop			(mov r0,r0)

000093c0 <sigprocmask>:
    93c0:	e92d0090 	push	{r4, r7}
    93c4:	e3a0707e 	mov	r7, #126	; 0x7e
    93c8:	ef000000 	svc	0x00000000
    93cc:	e8bd0090 	pop	{r4, r7}
    93d0:	e1b00000 	movs	r0, r0
    93d4:	512fff1e 	bxpl	lr
    93d8:	ea00453a 	b	1a8c8 <sysconf+0xb8>
    93dc:	e1a00000 	nop			(mov r0,r0)

000093e0 <recvfrom>:
    93e0:	e1a0c00d 	mov	ip, sp
    93e4:	e92d00f0 	push	{r4, r5, r6, r7}
    93e8:	e89c0070 	ldm	ip, {r4, r5, r6}
    93ec:	e3a07f49 	mov	r7, #292	; 0x124
    93f0:	ef000000 	svc	0x00000000
    93f4:	e8bd00f0 	pop	{r4, r5, r6, r7}
    93f8:	e1b00000 	movs	r0, r0
    93fc:	512fff1e 	bxpl	lr
    9400:	ea004530 	b	1a8c8 <sysconf+0xb8>
    9404:	e1a00000 	nop			(mov r0,r0)
    9408:	e1a00000 	nop			(mov r0,r0)
    940c:	e1a00000 	nop			(mov r0,r0)

00009410 <sched_setscheduler>:
    9410:	e92d0090 	push	{r4, r7}
    9414:	e3a0709c 	mov	r7, #156	; 0x9c
    9418:	ef000000 	svc	0x00000000
    941c:	e8bd0090 	pop	{r4, r7}
    9420:	e1b00000 	movs	r0, r0
    9424:	512fff1e 	bxpl	lr
    9428:	ea004526 	b	1a8c8 <sysconf+0xb8>
    942c:	e1a00000 	nop			(mov r0,r0)

00009430 <__wait4>:
    9430:	e92d0090 	push	{r4, r7}
    9434:	e3a07072 	mov	r7, #114	; 0x72
    9438:	ef000000 	svc	0x00000000
    943c:	e8bd0090 	pop	{r4, r7}
    9440:	e1b00000 	movs	r0, r0
    9444:	512fff1e 	bxpl	lr
    9448:	ea00451e 	b	1a8c8 <sysconf+0xb8>
    944c:	e1a00000 	nop			(mov r0,r0)

00009450 <__set_tls>:
    9450:	e92d0090 	push	{r4, r7}
    9454:	e59f7010 	ldr	r7, [pc, #16]	; 946c <__set_tls+0x1c>
    9458:	ef000000 	svc	0x00000000
    945c:	e8bd0090 	pop	{r4, r7}
    9460:	e1b00000 	movs	r0, r0
    9464:	512fff1e 	bxpl	lr
    9468:	ea004516 	b	1a8c8 <sysconf+0xb8>
    946c:	000f0005 	.word	0x000f0005

00009470 <gettid>:
    9470:	e92d0090 	push	{r4, r7}
    9474:	e3a070e0 	mov	r7, #224	; 0xe0
    9478:	ef000000 	svc	0x00000000
    947c:	e8bd0090 	pop	{r4, r7}
    9480:	e1b00000 	movs	r0, r0
    9484:	512fff1e 	bxpl	lr
    9488:	ea00450e 	b	1a8c8 <sysconf+0xb8>
    948c:	e1a00000 	nop			(mov r0,r0)

00009490 <writev>:
    9490:	e92d0090 	push	{r4, r7}
    9494:	e3a07092 	mov	r7, #146	; 0x92
    9498:	ef000000 	svc	0x00000000
    949c:	e8bd0090 	pop	{r4, r7}
    94a0:	e1b00000 	movs	r0, r0
    94a4:	512fff1e 	bxpl	lr
    94a8:	ea004506 	b	1a8c8 <sysconf+0xb8>
    94ac:	e1a00000 	nop			(mov r0,r0)

000094b0 <__get_sp>:
    94b0:	e1a0000d 	mov	r0, sp
    94b4:	e12fff1e 	bx	lr
	...

000094c0 <__brk>:
    94c0:	e92d0090 	push	{r4, r7}
    94c4:	e3a0702d 	mov	r7, #45	; 0x2d
    94c8:	ef000000 	svc	0x00000000
    94cc:	e8bd0090 	pop	{r4, r7}
    94d0:	e1b00000 	movs	r0, r0
    94d4:	512fff1e 	bxpl	lr
    94d8:	ea0044fa 	b	1a8c8 <sysconf+0xb8>
    94dc:	e1a00000 	nop			(mov r0,r0)

000094e0 <__aeabi_uidiv>:
    94e0:	e2512001 	subs	r2, r1, #1	; 0x1
    94e4:	012fff1e 	bxeq	lr
    94e8:	3a000023 	bcc	957c <__aeabi_uidiv+0x9c>
    94ec:	e1500001 	cmp	r0, r1
    94f0:	9a00001a 	bls	9560 <__aeabi_uidiv+0x80>
    94f4:	e1110002 	tst	r1, r2
    94f8:	0a00001b 	beq	956c <__aeabi_uidiv+0x8c>
    94fc:	e16f3f11 	clz	r3, r1
    9500:	e16f2f10 	clz	r2, r0
    9504:	e0432002 	sub	r2, r3, r2
    9508:	e3a03001 	mov	r3, #1	; 0x1
    950c:	e1a01211 	lsl	r1, r1, r2
    9510:	e1a03213 	lsl	r3, r3, r2
    9514:	e3a02000 	mov	r2, #0	; 0x0
    9518:	e1500001 	cmp	r0, r1
    951c:	20400001 	subcs	r0, r0, r1
    9520:	21822003 	orrcs	r2, r2, r3
    9524:	e15000a1 	cmp	r0, r1, lsr #1
    9528:	204000a1 	subcs	r0, r0, r1, lsr #1
    952c:	218220a3 	orrcs	r2, r2, r3, lsr #1
    9530:	e1500121 	cmp	r0, r1, lsr #2
    9534:	20400121 	subcs	r0, r0, r1, lsr #2
    9538:	21822123 	orrcs	r2, r2, r3, lsr #2
    953c:	e15001a1 	cmp	r0, r1, lsr #3
    9540:	204001a1 	subcs	r0, r0, r1, lsr #3
    9544:	218221a3 	orrcs	r2, r2, r3, lsr #3
    9548:	e3500000 	cmp	r0, #0	; 0x0
    954c:	11b03223 	lsrsne	r3, r3, #4
    9550:	11a01221 	lsrne	r1, r1, #4
    9554:	1affffef 	bne	9518 <__aeabi_uidiv+0x38>
    9558:	e1a00002 	mov	r0, r2
    955c:	e12fff1e 	bx	lr
    9560:	03a00001 	moveq	r0, #1	; 0x1
    9564:	13a00000 	movne	r0, #0	; 0x0
    9568:	e12fff1e 	bx	lr
    956c:	e16f2f11 	clz	r2, r1
    9570:	e262201f 	rsb	r2, r2, #31	; 0x1f
    9574:	e1a00230 	lsr	r0, r0, r2
    9578:	e12fff1e 	bx	lr
    957c:	e52de008 	str	lr, [sp, #-8]!
    9580:	eb000044 	bl	9698 <__aeabi_idiv0>
    9584:	e3a00000 	mov	r0, #0	; 0x0
    9588:	e49df008 	ldr	pc, [sp], #8

0000958c <__aeabi_uidivmod>:
    958c:	e92d4003 	push	{r0, r1, lr}
    9590:	ebffffd2 	bl	94e0 <__aeabi_uidiv>
    9594:	e8bd4006 	pop	{r1, r2, lr}
    9598:	e0030092 	mul	r3, r2, r0
    959c:	e0411003 	sub	r1, r1, r3
    95a0:	e12fff1e 	bx	lr

000095a4 <__aeabi_idiv>:
    95a4:	e3510000 	cmp	r1, #0	; 0x0
    95a8:	e020c001 	eor	ip, r0, r1
    95ac:	0a00002f 	beq	9670 <__aeabi_idiv+0xcc>
    95b0:	42611000 	rsbmi	r1, r1, #0	; 0x0
    95b4:	e2512001 	subs	r2, r1, #1	; 0x1
    95b8:	0a00001f 	beq	963c <__aeabi_idiv+0x98>
    95bc:	e1b03000 	movs	r3, r0
    95c0:	42603000 	rsbmi	r3, r0, #0	; 0x0
    95c4:	e1530001 	cmp	r3, r1
    95c8:	9a00001e 	bls	9648 <__aeabi_idiv+0xa4>
    95cc:	e1110002 	tst	r1, r2
    95d0:	0a000020 	beq	9658 <__aeabi_idiv+0xb4>
    95d4:	e16f2f11 	clz	r2, r1
    95d8:	e16f0f13 	clz	r0, r3
    95dc:	e0420000 	sub	r0, r2, r0
    95e0:	e3a02001 	mov	r2, #1	; 0x1
    95e4:	e1a01011 	lsl	r1, r1, r0
    95e8:	e1a02012 	lsl	r2, r2, r0
    95ec:	e3a00000 	mov	r0, #0	; 0x0
    95f0:	e1530001 	cmp	r3, r1
    95f4:	20433001 	subcs	r3, r3, r1
    95f8:	21800002 	orrcs	r0, r0, r2
    95fc:	e15300a1 	cmp	r3, r1, lsr #1
    9600:	204330a1 	subcs	r3, r3, r1, lsr #1
    9604:	218000a2 	orrcs	r0, r0, r2, lsr #1
    9608:	e1530121 	cmp	r3, r1, lsr #2
    960c:	20433121 	subcs	r3, r3, r1, lsr #2
    9610:	21800122 	orrcs	r0, r0, r2, lsr #2
    9614:	e15301a1 	cmp	r3, r1, lsr #3
    9618:	204331a1 	subcs	r3, r3, r1, lsr #3
    961c:	218001a2 	orrcs	r0, r0, r2, lsr #3
    9620:	e3530000 	cmp	r3, #0	; 0x0
    9624:	11b02222 	lsrsne	r2, r2, #4
    9628:	11a01221 	lsrne	r1, r1, #4
    962c:	1affffef 	bne	95f0 <__aeabi_idiv+0x4c>
    9630:	e35c0000 	cmp	ip, #0	; 0x0
    9634:	42600000 	rsbmi	r0, r0, #0	; 0x0
    9638:	e12fff1e 	bx	lr
    963c:	e13c0000 	teq	ip, r0
    9640:	42600000 	rsbmi	r0, r0, #0	; 0x0
    9644:	e12fff1e 	bx	lr
    9648:	33a00000 	movcc	r0, #0	; 0x0
    964c:	01a00fcc 	asreq	r0, ip, #31
    9650:	03800001 	orreq	r0, r0, #1	; 0x1
    9654:	e12fff1e 	bx	lr
    9658:	e16f2f11 	clz	r2, r1
    965c:	e262201f 	rsb	r2, r2, #31	; 0x1f
    9660:	e35c0000 	cmp	ip, #0	; 0x0
    9664:	e1a00233 	lsr	r0, r3, r2
    9668:	42600000 	rsbmi	r0, r0, #0	; 0x0
    966c:	e12fff1e 	bx	lr
    9670:	e52de008 	str	lr, [sp, #-8]!
    9674:	eb000007 	bl	9698 <__aeabi_idiv0>
    9678:	e3a00000 	mov	r0, #0	; 0x0
    967c:	e49df008 	ldr	pc, [sp], #8

00009680 <__aeabi_idivmod>:
    9680:	e92d4003 	push	{r0, r1, lr}
    9684:	ebffffc6 	bl	95a4 <__aeabi_idiv>
    9688:	e8bd4006 	pop	{r1, r2, lr}
    968c:	e0030092 	mul	r3, r2, r0
    9690:	e0411003 	sub	r1, r1, r3
    9694:	e12fff1e 	bx	lr

00009698 <__aeabi_idiv0>:
    9698:	e12fff1e 	bx	lr

0000969c <__aeabi_drsub>:
    969c:	e2211102 	eor	r1, r1, #-2147483648	; 0x80000000
    96a0:	ea000000 	b	96a8 <__adddf3>

000096a4 <__aeabi_dsub>:
    96a4:	e2233102 	eor	r3, r3, #-2147483648	; 0x80000000

000096a8 <__adddf3>:
    96a8:	e92d4030 	push	{r4, r5, lr}
    96ac:	e1a04081 	lsl	r4, r1, #1
    96b0:	e1a05083 	lsl	r5, r3, #1
    96b4:	e1340005 	teq	r4, r5
    96b8:	01300002 	teqeq	r0, r2
    96bc:	1194c000 	orrsne	ip, r4, r0
    96c0:	1195c002 	orrsne	ip, r5, r2
    96c4:	11f0cac4 	mvnsne	ip, r4, asr #21
    96c8:	11f0cac5 	mvnsne	ip, r5, asr #21
    96cc:	0a000079 	beq	98b8 <__adddf3+0x210>
    96d0:	e1a04aa4 	lsr	r4, r4, #21
    96d4:	e0745aa5 	rsbs	r5, r4, r5, lsr #21
    96d8:	b2655000 	rsblt	r5, r5, #0	; 0x0
    96dc:	da000006 	ble	96fc <__adddf3+0x54>
    96e0:	e0844005 	add	r4, r4, r5
    96e4:	e0202002 	eor	r2, r0, r2
    96e8:	e0213003 	eor	r3, r1, r3
    96ec:	e0220000 	eor	r0, r2, r0
    96f0:	e0231001 	eor	r1, r3, r1
    96f4:	e0202002 	eor	r2, r0, r2
    96f8:	e0213003 	eor	r3, r1, r3
    96fc:	e3550036 	cmp	r5, #54	; 0x36
    9700:	88bd8030 	pophi	{r4, r5, pc}
    9704:	e3110102 	tst	r1, #-2147483648	; 0x80000000
    9708:	e1a01601 	lsl	r1, r1, #12
    970c:	e3a0c601 	mov	ip, #1048576	; 0x100000
    9710:	e18c1621 	orr	r1, ip, r1, lsr #12
    9714:	0a000001 	beq	9720 <__adddf3+0x78>
    9718:	e2700000 	rsbs	r0, r0, #0	; 0x0
    971c:	e2e11000 	rsc	r1, r1, #0	; 0x0
    9720:	e3130102 	tst	r3, #-2147483648	; 0x80000000
    9724:	e1a03603 	lsl	r3, r3, #12
    9728:	e18c3623 	orr	r3, ip, r3, lsr #12
    972c:	0a000001 	beq	9738 <__adddf3+0x90>
    9730:	e2722000 	rsbs	r2, r2, #0	; 0x0
    9734:	e2e33000 	rsc	r3, r3, #0	; 0x0
    9738:	e1340005 	teq	r4, r5
    973c:	0a000057 	beq	98a0 <__adddf3+0x1f8>
    9740:	e2444001 	sub	r4, r4, #1	; 0x1
    9744:	e275e020 	rsbs	lr, r5, #32	; 0x20
    9748:	ba000005 	blt	9764 <__adddf3+0xbc>
    974c:	e1a0ce12 	lsl	ip, r2, lr
    9750:	e0900532 	adds	r0, r0, r2, lsr r5
    9754:	e2a11000 	adc	r1, r1, #0	; 0x0
    9758:	e0900e13 	adds	r0, r0, r3, lsl lr
    975c:	e0b11553 	adcs	r1, r1, r3, asr r5
    9760:	ea000006 	b	9780 <__adddf3+0xd8>
    9764:	e2455020 	sub	r5, r5, #32	; 0x20
    9768:	e28ee020 	add	lr, lr, #32	; 0x20
    976c:	e3520001 	cmp	r2, #1	; 0x1
    9770:	e1a0ce13 	lsl	ip, r3, lr
    9774:	238cc002 	orrcs	ip, ip, #2	; 0x2
    9778:	e0900553 	adds	r0, r0, r3, asr r5
    977c:	e0b11fc3 	adcs	r1, r1, r3, asr #31
    9780:	e2015102 	and	r5, r1, #-2147483648	; 0x80000000
    9784:	5a000002 	bpl	9794 <__adddf3+0xec>
    9788:	e27cc000 	rsbs	ip, ip, #0	; 0x0
    978c:	e2f00000 	rscs	r0, r0, #0	; 0x0
    9790:	e2e11000 	rsc	r1, r1, #0	; 0x0
    9794:	e3510601 	cmp	r1, #1048576	; 0x100000
    9798:	3a00000e 	bcc	97d8 <__adddf3+0x130>
    979c:	e3510602 	cmp	r1, #2097152	; 0x200000
    97a0:	3a000006 	bcc	97c0 <__adddf3+0x118>
    97a4:	e1b010a1 	lsrs	r1, r1, #1
    97a8:	e1b00060 	rrxs	r0, r0
    97ac:	e1a0c06c 	rrx	ip, ip
    97b0:	e2844001 	add	r4, r4, #1	; 0x1
    97b4:	e1a02a84 	lsl	r2, r4, #21
    97b8:	e3720501 	cmn	r2, #4194304	; 0x400000
    97bc:	2a000055 	bcs	9918 <__adddf3+0x270>
    97c0:	e35c0102 	cmp	ip, #-2147483648	; 0x80000000
    97c4:	01b0c0a0 	lsrseq	ip, r0, #1
    97c8:	e2b00000 	adcs	r0, r0, #0	; 0x0
    97cc:	e0a11a04 	adc	r1, r1, r4, lsl #20
    97d0:	e1811005 	orr	r1, r1, r5
    97d4:	e8bd8030 	pop	{r4, r5, pc}
    97d8:	e1b0c08c 	lsls	ip, ip, #1
    97dc:	e0b00000 	adcs	r0, r0, r0
    97e0:	e0a11001 	adc	r1, r1, r1
    97e4:	e3110601 	tst	r1, #1048576	; 0x100000
    97e8:	e2444001 	sub	r4, r4, #1	; 0x1
    97ec:	1afffff3 	bne	97c0 <__adddf3+0x118>
    97f0:	e3310000 	teq	r1, #0	; 0x0
    97f4:	01a01000 	moveq	r1, r0
    97f8:	03a00000 	moveq	r0, #0	; 0x0
    97fc:	e16f3f11 	clz	r3, r1
    9800:	02833020 	addeq	r3, r3, #32	; 0x20
    9804:	e243300b 	sub	r3, r3, #11	; 0xb
    9808:	e2532020 	subs	r2, r3, #32	; 0x20
    980c:	aa000007 	bge	9830 <__adddf3+0x188>
    9810:	e292200c 	adds	r2, r2, #12	; 0xc
    9814:	da000004 	ble	982c <__adddf3+0x184>
    9818:	e282c014 	add	ip, r2, #20	; 0x14
    981c:	e262200c 	rsb	r2, r2, #12	; 0xc
    9820:	e1a00c11 	lsl	r0, r1, ip
    9824:	e1a01231 	lsr	r1, r1, r2
    9828:	ea000004 	b	9840 <__adddf3+0x198>
    982c:	e2822014 	add	r2, r2, #20	; 0x14
    9830:	d262c020 	rsble	ip, r2, #32	; 0x20
    9834:	e1a01211 	lsl	r1, r1, r2
    9838:	d1811c30 	orrle	r1, r1, r0, lsr ip
    983c:	d1a00210 	lslle	r0, r0, r2
    9840:	e0544003 	subs	r4, r4, r3
    9844:	a0811a04 	addge	r1, r1, r4, lsl #20
    9848:	a1811005 	orrge	r1, r1, r5
    984c:	a8bd8030 	popge	{r4, r5, pc}
    9850:	e1e04004 	mvn	r4, r4
    9854:	e254401f 	subs	r4, r4, #31	; 0x1f
    9858:	aa00000d 	bge	9894 <__adddf3+0x1ec>
    985c:	e294400c 	adds	r4, r4, #12	; 0xc
    9860:	ca000005 	bgt	987c <__adddf3+0x1d4>
    9864:	e2844014 	add	r4, r4, #20	; 0x14
    9868:	e2642020 	rsb	r2, r4, #32	; 0x20
    986c:	e1a00430 	lsr	r0, r0, r4
    9870:	e1800211 	orr	r0, r0, r1, lsl r2
    9874:	e1851431 	orr	r1, r5, r1, lsr r4
    9878:	e8bd8030 	pop	{r4, r5, pc}
    987c:	e264400c 	rsb	r4, r4, #12	; 0xc
    9880:	e2642020 	rsb	r2, r4, #32	; 0x20
    9884:	e1a00230 	lsr	r0, r0, r2
    9888:	e1800411 	orr	r0, r0, r1, lsl r4
    988c:	e1a01005 	mov	r1, r5
    9890:	e8bd8030 	pop	{r4, r5, pc}
    9894:	e1a00431 	lsr	r0, r1, r4
    9898:	e1a01005 	mov	r1, r5
    989c:	e8bd8030 	pop	{r4, r5, pc}
    98a0:	e3340000 	teq	r4, #0	; 0x0
    98a4:	e2233601 	eor	r3, r3, #1048576	; 0x100000
    98a8:	02211601 	eoreq	r1, r1, #1048576	; 0x100000
    98ac:	02844001 	addeq	r4, r4, #1	; 0x1
    98b0:	12455001 	subne	r5, r5, #1	; 0x1
    98b4:	eaffffa1 	b	9740 <__adddf3+0x98>
    98b8:	e1f0cac4 	mvns	ip, r4, asr #21
    98bc:	11f0cac5 	mvnsne	ip, r5, asr #21
    98c0:	0a000018 	beq	9928 <__adddf3+0x280>
    98c4:	e1340005 	teq	r4, r5
    98c8:	01300002 	teqeq	r0, r2
    98cc:	0a000003 	beq	98e0 <__adddf3+0x238>
    98d0:	e194c000 	orrs	ip, r4, r0
    98d4:	01a01003 	moveq	r1, r3
    98d8:	01a00002 	moveq	r0, r2
    98dc:	e8bd8030 	pop	{r4, r5, pc}
    98e0:	e1310003 	teq	r1, r3
    98e4:	13a01000 	movne	r1, #0	; 0x0
    98e8:	13a00000 	movne	r0, #0	; 0x0
    98ec:	18bd8030 	popne	{r4, r5, pc}
    98f0:	e1b0caa4 	lsrs	ip, r4, #21
    98f4:	1a000003 	bne	9908 <__adddf3+0x260>
    98f8:	e1b00080 	lsls	r0, r0, #1
    98fc:	e0b11001 	adcs	r1, r1, r1
    9900:	23811102 	orrcs	r1, r1, #-2147483648	; 0x80000000
    9904:	e8bd8030 	pop	{r4, r5, pc}
    9908:	e2944501 	adds	r4, r4, #4194304	; 0x400000
    990c:	32811601 	addcc	r1, r1, #1048576	; 0x100000
    9910:	38bd8030 	popcc	{r4, r5, pc}
    9914:	e2015102 	and	r5, r1, #-2147483648	; 0x80000000
    9918:	e385147f 	orr	r1, r5, #2130706432	; 0x7f000000
    991c:	e381160f 	orr	r1, r1, #15728640	; 0xf00000
    9920:	e3a00000 	mov	r0, #0	; 0x0
    9924:	e8bd8030 	pop	{r4, r5, pc}
    9928:	e1f0cac4 	mvns	ip, r4, asr #21
    992c:	11a01003 	movne	r1, r3
    9930:	11a00002 	movne	r0, r2
    9934:	01f0cac5 	mvnseq	ip, r5, asr #21
    9938:	11a03001 	movne	r3, r1
    993c:	11a02000 	movne	r2, r0
    9940:	e1904601 	orrs	r4, r0, r1, lsl #12
    9944:	01925603 	orrseq	r5, r2, r3, lsl #12
    9948:	01310003 	teqeq	r1, r3
    994c:	13811702 	orrne	r1, r1, #524288	; 0x80000
    9950:	e8bd8030 	pop	{r4, r5, pc}

00009954 <__aeabi_ui2d>:
    9954:	e3300000 	teq	r0, #0	; 0x0
    9958:	03a01000 	moveq	r1, #0	; 0x0
    995c:	012fff1e 	bxeq	lr
    9960:	e92d4030 	push	{r4, r5, lr}
    9964:	e3a04b01 	mov	r4, #1024	; 0x400
    9968:	e2844032 	add	r4, r4, #50	; 0x32
    996c:	e3a05000 	mov	r5, #0	; 0x0
    9970:	e3a01000 	mov	r1, #0	; 0x0
    9974:	eaffff9d 	b	97f0 <__adddf3+0x148>

00009978 <__aeabi_i2d>:
    9978:	e3300000 	teq	r0, #0	; 0x0
    997c:	03a01000 	moveq	r1, #0	; 0x0
    9980:	012fff1e 	bxeq	lr
    9984:	e92d4030 	push	{r4, r5, lr}
    9988:	e3a04b01 	mov	r4, #1024	; 0x400
    998c:	e2844032 	add	r4, r4, #50	; 0x32
    9990:	e2105102 	ands	r5, r0, #-2147483648	; 0x80000000
    9994:	42600000 	rsbmi	r0, r0, #0	; 0x0
    9998:	e3a01000 	mov	r1, #0	; 0x0
    999c:	eaffff93 	b	97f0 <__adddf3+0x148>

000099a0 <__aeabi_f2d>:
    99a0:	e1b02080 	lsls	r2, r0, #1
    99a4:	e1a011c2 	asr	r1, r2, #3
    99a8:	e1a01061 	rrx	r1, r1
    99ac:	e1a00e02 	lsl	r0, r2, #28
    99b0:	121234ff 	andsne	r3, r2, #-16777216	; 0xff000000
    99b4:	133304ff 	teqne	r3, #-16777216	; 0xff000000
    99b8:	1221130e 	eorne	r1, r1, #939524096	; 0x38000000
    99bc:	112fff1e 	bxne	lr
    99c0:	e3320000 	teq	r2, #0	; 0x0
    99c4:	133304ff 	teqne	r3, #-16777216	; 0xff000000
    99c8:	012fff1e 	bxeq	lr
    99cc:	e92d4030 	push	{r4, r5, lr}
    99d0:	e3a04d0e 	mov	r4, #896	; 0x380
    99d4:	e2015102 	and	r5, r1, #-2147483648	; 0x80000000
    99d8:	e3c11102 	bic	r1, r1, #-2147483648	; 0x80000000
    99dc:	eaffff83 	b	97f0 <__adddf3+0x148>

000099e0 <__aeabi_ul2d>:
    99e0:	e1902001 	orrs	r2, r0, r1
    99e4:	012fff1e 	bxeq	lr
    99e8:	e92d4030 	push	{r4, r5, lr}
    99ec:	e3a05000 	mov	r5, #0	; 0x0
    99f0:	ea000006 	b	9a10 <__aeabi_l2d+0x1c>

000099f4 <__aeabi_l2d>:
    99f4:	e1902001 	orrs	r2, r0, r1
    99f8:	012fff1e 	bxeq	lr
    99fc:	e92d4030 	push	{r4, r5, lr}
    9a00:	e2115102 	ands	r5, r1, #-2147483648	; 0x80000000
    9a04:	5a000001 	bpl	9a10 <__aeabi_l2d+0x1c>
    9a08:	e2700000 	rsbs	r0, r0, #0	; 0x0
    9a0c:	e2e11000 	rsc	r1, r1, #0	; 0x0
    9a10:	e3a04b01 	mov	r4, #1024	; 0x400
    9a14:	e2844032 	add	r4, r4, #50	; 0x32
    9a18:	e1b0cb21 	lsrs	ip, r1, #22
    9a1c:	0affff5c 	beq	9794 <__adddf3+0xec>
    9a20:	e3a02003 	mov	r2, #3	; 0x3
    9a24:	e1b0c1ac 	lsrs	ip, ip, #3
    9a28:	12822003 	addne	r2, r2, #3	; 0x3
    9a2c:	e1b0c1ac 	lsrs	ip, ip, #3
    9a30:	12822003 	addne	r2, r2, #3	; 0x3
    9a34:	e08221ac 	add	r2, r2, ip, lsr #3
    9a38:	e2623020 	rsb	r3, r2, #32	; 0x20
    9a3c:	e1a0c310 	lsl	ip, r0, r3
    9a40:	e1a00230 	lsr	r0, r0, r2
    9a44:	e1800311 	orr	r0, r0, r1, lsl r3
    9a48:	e1a01231 	lsr	r1, r1, r2
    9a4c:	e0844002 	add	r4, r4, r2
    9a50:	eaffff4f 	b	9794 <__adddf3+0xec>

00009a54 <__aeabi_dmul>:
    9a54:	e92d4070 	push	{r4, r5, r6, lr}
    9a58:	e3a0c0ff 	mov	ip, #255	; 0xff
    9a5c:	e38ccc07 	orr	ip, ip, #1792	; 0x700
    9a60:	e01c4a21 	ands	r4, ip, r1, lsr #20
    9a64:	101c5a23 	andsne	r5, ip, r3, lsr #20
    9a68:	1134000c 	teqne	r4, ip
    9a6c:	1135000c 	teqne	r5, ip
    9a70:	0b00006f 	bleq	9c34 <__aeabi_dmul+0x1e0>
    9a74:	e0844005 	add	r4, r4, r5
    9a78:	e0216003 	eor	r6, r1, r3
    9a7c:	e1c11a8c 	bic	r1, r1, ip, lsl #21
    9a80:	e1c33a8c 	bic	r3, r3, ip, lsl #21
    9a84:	e1905601 	orrs	r5, r0, r1, lsl #12
    9a88:	11925603 	orrsne	r5, r2, r3, lsl #12
    9a8c:	e3811601 	orr	r1, r1, #1048576	; 0x100000
    9a90:	e3833601 	orr	r3, r3, #1048576	; 0x100000
    9a94:	0a00001c 	beq	9b0c <__aeabi_dmul+0xb8>
    9a98:	e08ec290 	umull	ip, lr, r0, r2
    9a9c:	e3a05000 	mov	r5, #0	; 0x0
    9aa0:	e0a5e291 	umlal	lr, r5, r1, r2
    9aa4:	e2062102 	and	r2, r6, #-2147483648	; 0x80000000
    9aa8:	e0a5e390 	umlal	lr, r5, r0, r3
    9aac:	e3a06000 	mov	r6, #0	; 0x0
    9ab0:	e0a65391 	umlal	r5, r6, r1, r3
    9ab4:	e33c0000 	teq	ip, #0	; 0x0
    9ab8:	138ee001 	orrne	lr, lr, #1	; 0x1
    9abc:	e24440ff 	sub	r4, r4, #255	; 0xff
    9ac0:	e3560c02 	cmp	r6, #512	; 0x200
    9ac4:	e2c44c03 	sbc	r4, r4, #768	; 0x300
    9ac8:	2a000002 	bcs	9ad8 <__aeabi_dmul+0x84>
    9acc:	e1b0e08e 	lsls	lr, lr, #1
    9ad0:	e0b55005 	adcs	r5, r5, r5
    9ad4:	e0a66006 	adc	r6, r6, r6
    9ad8:	e1821586 	orr	r1, r2, r6, lsl #11
    9adc:	e1811aa5 	orr	r1, r1, r5, lsr #21
    9ae0:	e1a00585 	lsl	r0, r5, #11
    9ae4:	e1800aae 	orr	r0, r0, lr, lsr #21
    9ae8:	e1a0e58e 	lsl	lr, lr, #11
    9aec:	e254c0fd 	subs	ip, r4, #253	; 0xfd
    9af0:	835c0c07 	cmphi	ip, #1792	; 0x700
    9af4:	8a00000f 	bhi	9b38 <__aeabi_dmul+0xe4>
    9af8:	e35e0102 	cmp	lr, #-2147483648	; 0x80000000
    9afc:	01b0e0a0 	lsrseq	lr, r0, #1
    9b00:	e2b00000 	adcs	r0, r0, #0	; 0x0
    9b04:	e0a11a04 	adc	r1, r1, r4, lsl #20
    9b08:	e8bd8070 	pop	{r4, r5, r6, pc}
    9b0c:	e2066102 	and	r6, r6, #-2147483648	; 0x80000000
    9b10:	e1861001 	orr	r1, r6, r1
    9b14:	e1800002 	orr	r0, r0, r2
    9b18:	e0211003 	eor	r1, r1, r3
    9b1c:	e05440ac 	subs	r4, r4, ip, lsr #1
    9b20:	c074500c 	rsbsgt	r5, r4, ip
    9b24:	c1811a04 	orrgt	r1, r1, r4, lsl #20
    9b28:	c8bd8070 	popgt	{r4, r5, r6, pc}
    9b2c:	e3811601 	orr	r1, r1, #1048576	; 0x100000
    9b30:	e3a0e000 	mov	lr, #0	; 0x0
    9b34:	e2544001 	subs	r4, r4, #1	; 0x1
    9b38:	ca000058 	bgt	9ca0 <__aeabi_dmul+0x24c>
    9b3c:	e3740036 	cmn	r4, #54	; 0x36
    9b40:	d3a00000 	movle	r0, #0	; 0x0
    9b44:	d2011102 	andle	r1, r1, #-2147483648	; 0x80000000
    9b48:	d8bd8070 	pople	{r4, r5, r6, pc}
    9b4c:	e2644000 	rsb	r4, r4, #0	; 0x0
    9b50:	e2544020 	subs	r4, r4, #32	; 0x20
    9b54:	aa000018 	bge	9bbc <__aeabi_dmul+0x168>
    9b58:	e294400c 	adds	r4, r4, #12	; 0xc
    9b5c:	ca00000b 	bgt	9b90 <__aeabi_dmul+0x13c>
    9b60:	e2844014 	add	r4, r4, #20	; 0x14
    9b64:	e2645020 	rsb	r5, r4, #32	; 0x20
    9b68:	e1a03510 	lsl	r3, r0, r5
    9b6c:	e1a00430 	lsr	r0, r0, r4
    9b70:	e1800511 	orr	r0, r0, r1, lsl r5
    9b74:	e2012102 	and	r2, r1, #-2147483648	; 0x80000000
    9b78:	e3c11102 	bic	r1, r1, #-2147483648	; 0x80000000
    9b7c:	e0900fa3 	adds	r0, r0, r3, lsr #31
    9b80:	e0a21431 	adc	r1, r2, r1, lsr r4
    9b84:	e19ee083 	orrs	lr, lr, r3, lsl #1
    9b88:	01c00fa3 	biceq	r0, r0, r3, lsr #31
    9b8c:	e8bd8070 	pop	{r4, r5, r6, pc}
    9b90:	e264400c 	rsb	r4, r4, #12	; 0xc
    9b94:	e2645020 	rsb	r5, r4, #32	; 0x20
    9b98:	e1a03410 	lsl	r3, r0, r4
    9b9c:	e1a00530 	lsr	r0, r0, r5
    9ba0:	e1800411 	orr	r0, r0, r1, lsl r4
    9ba4:	e2011102 	and	r1, r1, #-2147483648	; 0x80000000
    9ba8:	e0900fa3 	adds	r0, r0, r3, lsr #31
    9bac:	e2a11000 	adc	r1, r1, #0	; 0x0
    9bb0:	e19ee083 	orrs	lr, lr, r3, lsl #1
    9bb4:	01c00fa3 	biceq	r0, r0, r3, lsr #31
    9bb8:	e8bd8070 	pop	{r4, r5, r6, pc}
    9bbc:	e2645020 	rsb	r5, r4, #32	; 0x20
    9bc0:	e18ee510 	orr	lr, lr, r0, lsl r5
    9bc4:	e1a03430 	lsr	r3, r0, r4
    9bc8:	e1833511 	orr	r3, r3, r1, lsl r5
    9bcc:	e1a00431 	lsr	r0, r1, r4
    9bd0:	e2011102 	and	r1, r1, #-2147483648	; 0x80000000
    9bd4:	e1c00431 	bic	r0, r0, r1, lsr r4
    9bd8:	e0800fa3 	add	r0, r0, r3, lsr #31
    9bdc:	e19ee083 	orrs	lr, lr, r3, lsl #1
    9be0:	01c00fa3 	biceq	r0, r0, r3, lsr #31
    9be4:	e8bd8070 	pop	{r4, r5, r6, pc}
    9be8:	e3340000 	teq	r4, #0	; 0x0
    9bec:	1a000008 	bne	9c14 <__aeabi_dmul+0x1c0>
    9bf0:	e2016102 	and	r6, r1, #-2147483648	; 0x80000000
    9bf4:	e1b00080 	lsls	r0, r0, #1
    9bf8:	e0a11001 	adc	r1, r1, r1
    9bfc:	e3110601 	tst	r1, #1048576	; 0x100000
    9c00:	02444001 	subeq	r4, r4, #1	; 0x1
    9c04:	0afffffa 	beq	9bf4 <__aeabi_dmul+0x1a0>
    9c08:	e1811006 	orr	r1, r1, r6
    9c0c:	e3350000 	teq	r5, #0	; 0x0
    9c10:	112fff1e 	bxne	lr
    9c14:	e2036102 	and	r6, r3, #-2147483648	; 0x80000000
    9c18:	e1b02082 	lsls	r2, r2, #1
    9c1c:	e0a33003 	adc	r3, r3, r3
    9c20:	e3130601 	tst	r3, #1048576	; 0x100000
    9c24:	02455001 	subeq	r5, r5, #1	; 0x1
    9c28:	0afffffa 	beq	9c18 <__aeabi_dmul+0x1c4>
    9c2c:	e1833006 	orr	r3, r3, r6
    9c30:	e12fff1e 	bx	lr
    9c34:	e134000c 	teq	r4, ip
    9c38:	e00c5a23 	and	r5, ip, r3, lsr #20
    9c3c:	1135000c 	teqne	r5, ip
    9c40:	0a000006 	beq	9c60 <__aeabi_dmul+0x20c>
    9c44:	e1906081 	orrs	r6, r0, r1, lsl #1
    9c48:	11926083 	orrsne	r6, r2, r3, lsl #1
    9c4c:	1affffe5 	bne	9be8 <__aeabi_dmul+0x194>
    9c50:	e0211003 	eor	r1, r1, r3
    9c54:	e2011102 	and	r1, r1, #-2147483648	; 0x80000000
    9c58:	e3a00000 	mov	r0, #0	; 0x0
    9c5c:	e8bd8070 	pop	{r4, r5, r6, pc}
    9c60:	e1906081 	orrs	r6, r0, r1, lsl #1
    9c64:	01a00002 	moveq	r0, r2
    9c68:	01a01003 	moveq	r1, r3
    9c6c:	11926083 	orrsne	r6, r2, r3, lsl #1
    9c70:	0a00000f 	beq	9cb4 <__aeabi_dmul+0x260>
    9c74:	e134000c 	teq	r4, ip
    9c78:	1a000001 	bne	9c84 <__aeabi_dmul+0x230>
    9c7c:	e1906601 	orrs	r6, r0, r1, lsl #12
    9c80:	1a00000b 	bne	9cb4 <__aeabi_dmul+0x260>
    9c84:	e135000c 	teq	r5, ip
    9c88:	1a000003 	bne	9c9c <__aeabi_dmul+0x248>
    9c8c:	e1926603 	orrs	r6, r2, r3, lsl #12
    9c90:	11a00002 	movne	r0, r2
    9c94:	11a01003 	movne	r1, r3
    9c98:	1a000005 	bne	9cb4 <__aeabi_dmul+0x260>
    9c9c:	e0211003 	eor	r1, r1, r3
    9ca0:	e2011102 	and	r1, r1, #-2147483648	; 0x80000000
    9ca4:	e381147f 	orr	r1, r1, #2130706432	; 0x7f000000
    9ca8:	e381160f 	orr	r1, r1, #15728640	; 0xf00000
    9cac:	e3a00000 	mov	r0, #0	; 0x0
    9cb0:	e8bd8070 	pop	{r4, r5, r6, pc}
    9cb4:	e381147f 	orr	r1, r1, #2130706432	; 0x7f000000
    9cb8:	e381173e 	orr	r1, r1, #16252928	; 0xf80000
    9cbc:	e8bd8070 	pop	{r4, r5, r6, pc}

00009cc0 <__aeabi_ddiv>:
    9cc0:	e92d4070 	push	{r4, r5, r6, lr}
    9cc4:	e3a0c0ff 	mov	ip, #255	; 0xff
    9cc8:	e38ccc07 	orr	ip, ip, #1792	; 0x700
    9ccc:	e01c4a21 	ands	r4, ip, r1, lsr #20
    9cd0:	101c5a23 	andsne	r5, ip, r3, lsr #20
    9cd4:	1134000c 	teqne	r4, ip
    9cd8:	1135000c 	teqne	r5, ip
    9cdc:	0b00005c 	bleq	9e54 <__aeabi_ddiv+0x194>
    9ce0:	e0444005 	sub	r4, r4, r5
    9ce4:	e021e003 	eor	lr, r1, r3
    9ce8:	e1925603 	orrs	r5, r2, r3, lsl #12
    9cec:	e1a01601 	lsl	r1, r1, #12
    9cf0:	0a00004b 	beq	9e24 <__aeabi_ddiv+0x164>
    9cf4:	e1a03603 	lsl	r3, r3, #12
    9cf8:	e3a05201 	mov	r5, #268435456	; 0x10000000
    9cfc:	e1853223 	orr	r3, r5, r3, lsr #4
    9d00:	e1833c22 	orr	r3, r3, r2, lsr #24
    9d04:	e1a02402 	lsl	r2, r2, #8
    9d08:	e1855221 	orr	r5, r5, r1, lsr #4
    9d0c:	e1855c20 	orr	r5, r5, r0, lsr #24
    9d10:	e1a06400 	lsl	r6, r0, #8
    9d14:	e20e1102 	and	r1, lr, #-2147483648	; 0x80000000
    9d18:	e1550003 	cmp	r5, r3
    9d1c:	01560002 	cmpeq	r6, r2
    9d20:	e2a440fd 	adc	r4, r4, #253	; 0xfd
    9d24:	e2844c03 	add	r4, r4, #768	; 0x300
    9d28:	2a000001 	bcs	9d34 <__aeabi_ddiv+0x74>
    9d2c:	e1b030a3 	lsrs	r3, r3, #1
    9d30:	e1a02062 	rrx	r2, r2
    9d34:	e0566002 	subs	r6, r6, r2
    9d38:	e0c55003 	sbc	r5, r5, r3
    9d3c:	e1b030a3 	lsrs	r3, r3, #1
    9d40:	e1a02062 	rrx	r2, r2
    9d44:	e3a00601 	mov	r0, #1048576	; 0x100000
    9d48:	e3a0c702 	mov	ip, #524288	; 0x80000
    9d4c:	e056e002 	subs	lr, r6, r2
    9d50:	e0d5e003 	sbcs	lr, r5, r3
    9d54:	20466002 	subcs	r6, r6, r2
    9d58:	21a0500e 	movcs	r5, lr
    9d5c:	2180000c 	orrcs	r0, r0, ip
    9d60:	e1b030a3 	lsrs	r3, r3, #1
    9d64:	e1a02062 	rrx	r2, r2
    9d68:	e056e002 	subs	lr, r6, r2
    9d6c:	e0d5e003 	sbcs	lr, r5, r3
    9d70:	20466002 	subcs	r6, r6, r2
    9d74:	21a0500e 	movcs	r5, lr
    9d78:	218000ac 	orrcs	r0, r0, ip, lsr #1
    9d7c:	e1b030a3 	lsrs	r3, r3, #1
    9d80:	e1a02062 	rrx	r2, r2
    9d84:	e056e002 	subs	lr, r6, r2
    9d88:	e0d5e003 	sbcs	lr, r5, r3
    9d8c:	20466002 	subcs	r6, r6, r2
    9d90:	21a0500e 	movcs	r5, lr
    9d94:	2180012c 	orrcs	r0, r0, ip, lsr #2
    9d98:	e1b030a3 	lsrs	r3, r3, #1
    9d9c:	e1a02062 	rrx	r2, r2
    9da0:	e056e002 	subs	lr, r6, r2
    9da4:	e0d5e003 	sbcs	lr, r5, r3
    9da8:	20466002 	subcs	r6, r6, r2
    9dac:	21a0500e 	movcs	r5, lr
    9db0:	218001ac 	orrcs	r0, r0, ip, lsr #3
    9db4:	e195e006 	orrs	lr, r5, r6
    9db8:	0a00000d 	beq	9df4 <__aeabi_ddiv+0x134>
    9dbc:	e1a05205 	lsl	r5, r5, #4
    9dc0:	e1855e26 	orr	r5, r5, r6, lsr #28
    9dc4:	e1a06206 	lsl	r6, r6, #4
    9dc8:	e1a03183 	lsl	r3, r3, #3
    9dcc:	e1833ea2 	orr	r3, r3, r2, lsr #29
    9dd0:	e1a02182 	lsl	r2, r2, #3
    9dd4:	e1b0c22c 	lsrs	ip, ip, #4
    9dd8:	1affffdb 	bne	9d4c <__aeabi_ddiv+0x8c>
    9ddc:	e3110601 	tst	r1, #1048576	; 0x100000
    9de0:	1a000006 	bne	9e00 <__aeabi_ddiv+0x140>
    9de4:	e1811000 	orr	r1, r1, r0
    9de8:	e3a00000 	mov	r0, #0	; 0x0
    9dec:	e3a0c102 	mov	ip, #-2147483648	; 0x80000000
    9df0:	eaffffd5 	b	9d4c <__aeabi_ddiv+0x8c>
    9df4:	e3110601 	tst	r1, #1048576	; 0x100000
    9df8:	01811000 	orreq	r1, r1, r0
    9dfc:	03a00000 	moveq	r0, #0	; 0x0
    9e00:	e254c0fd 	subs	ip, r4, #253	; 0xfd
    9e04:	835c0c07 	cmphi	ip, #1792	; 0x700
    9e08:	8affff4a 	bhi	9b38 <__aeabi_dmul+0xe4>
    9e0c:	e055c003 	subs	ip, r5, r3
    9e10:	0056c002 	subseq	ip, r6, r2
    9e14:	01b0c0a0 	lsrseq	ip, r0, #1
    9e18:	e2b00000 	adcs	r0, r0, #0	; 0x0
    9e1c:	e0a11a04 	adc	r1, r1, r4, lsl #20
    9e20:	e8bd8070 	pop	{r4, r5, r6, pc}
    9e24:	e20ee102 	and	lr, lr, #-2147483648	; 0x80000000
    9e28:	e18e1621 	orr	r1, lr, r1, lsr #12
    9e2c:	e09440ac 	adds	r4, r4, ip, lsr #1
    9e30:	c074500c 	rsbsgt	r5, r4, ip
    9e34:	c1811a04 	orrgt	r1, r1, r4, lsl #20
    9e38:	c8bd8070 	popgt	{r4, r5, r6, pc}
    9e3c:	e3811601 	orr	r1, r1, #1048576	; 0x100000
    9e40:	e3a0e000 	mov	lr, #0	; 0x0
    9e44:	e2544001 	subs	r4, r4, #1	; 0x1
    9e48:	eaffff3a 	b	9b38 <__aeabi_dmul+0xe4>
    9e4c:	e185e006 	orr	lr, r5, r6
    9e50:	eaffff38 	b	9b38 <__aeabi_dmul+0xe4>
    9e54:	e00c5a23 	and	r5, ip, r3, lsr #20
    9e58:	e134000c 	teq	r4, ip
    9e5c:	0135000c 	teqeq	r5, ip
    9e60:	0affff93 	beq	9cb4 <__aeabi_dmul+0x260>
    9e64:	e134000c 	teq	r4, ip
    9e68:	1a000006 	bne	9e88 <__aeabi_ddiv+0x1c8>
    9e6c:	e1904601 	orrs	r4, r0, r1, lsl #12
    9e70:	1affff8f 	bne	9cb4 <__aeabi_dmul+0x260>
    9e74:	e135000c 	teq	r5, ip
    9e78:	1affff87 	bne	9c9c <__aeabi_dmul+0x248>
    9e7c:	e1a00002 	mov	r0, r2
    9e80:	e1a01003 	mov	r1, r3
    9e84:	eaffff8a 	b	9cb4 <__aeabi_dmul+0x260>
    9e88:	e135000c 	teq	r5, ip
    9e8c:	1a000004 	bne	9ea4 <__aeabi_ddiv+0x1e4>
    9e90:	e1925603 	orrs	r5, r2, r3, lsl #12
    9e94:	0affff6d 	beq	9c50 <__aeabi_dmul+0x1fc>
    9e98:	e1a00002 	mov	r0, r2
    9e9c:	e1a01003 	mov	r1, r3
    9ea0:	eaffff83 	b	9cb4 <__aeabi_dmul+0x260>
    9ea4:	e1906081 	orrs	r6, r0, r1, lsl #1
    9ea8:	11926083 	orrsne	r6, r2, r3, lsl #1
    9eac:	1affff4d 	bne	9be8 <__aeabi_dmul+0x194>
    9eb0:	e1904081 	orrs	r4, r0, r1, lsl #1
    9eb4:	1affff78 	bne	9c9c <__aeabi_dmul+0x248>
    9eb8:	e1925083 	orrs	r5, r2, r3, lsl #1
    9ebc:	1affff63 	bne	9c50 <__aeabi_dmul+0x1fc>
    9ec0:	eaffff7b 	b	9cb4 <__aeabi_dmul+0x260>

00009ec4 <__gedf2>:
    9ec4:	e3e0c000 	mvn	ip, #0	; 0x0
    9ec8:	ea000002 	b	9ed8 <__cmpdf2+0x4>

00009ecc <__ledf2>:
    9ecc:	e3a0c001 	mov	ip, #1	; 0x1
    9ed0:	ea000000 	b	9ed8 <__cmpdf2+0x4>

00009ed4 <__cmpdf2>:
    9ed4:	e3a0c001 	mov	ip, #1	; 0x1
    9ed8:	e52dc004 	push	{ip}		; (str ip, [sp, #-4]!)
    9edc:	e1a0c081 	lsl	ip, r1, #1
    9ee0:	e1f0cacc 	mvns	ip, ip, asr #21
    9ee4:	e1a0c083 	lsl	ip, r3, #1
    9ee8:	11f0cacc 	mvnsne	ip, ip, asr #21
    9eec:	0a00000e 	beq	9f2c <__cmpdf2+0x58>
    9ef0:	e28dd004 	add	sp, sp, #4	; 0x4
    9ef4:	e190c081 	orrs	ip, r0, r1, lsl #1
    9ef8:	0192c083 	orrseq	ip, r2, r3, lsl #1
    9efc:	11310003 	teqne	r1, r3
    9f00:	01300002 	teqeq	r0, r2
    9f04:	03a00000 	moveq	r0, #0	; 0x0
    9f08:	012fff1e 	bxeq	lr
    9f0c:	e3700000 	cmn	r0, #0	; 0x0
    9f10:	e1310003 	teq	r1, r3
    9f14:	51510003 	cmppl	r1, r3
    9f18:	01500002 	cmpeq	r0, r2
    9f1c:	21a00fc3 	asrcs	r0, r3, #31
    9f20:	31e00fc3 	mvncc	r0, r3, asr #31
    9f24:	e3800001 	orr	r0, r0, #1	; 0x1
    9f28:	e12fff1e 	bx	lr
    9f2c:	e1a0c081 	lsl	ip, r1, #1
    9f30:	e1f0cacc 	mvns	ip, ip, asr #21
    9f34:	1a000001 	bne	9f40 <__cmpdf2+0x6c>
    9f38:	e190c601 	orrs	ip, r0, r1, lsl #12
    9f3c:	1a000004 	bne	9f54 <__cmpdf2+0x80>
    9f40:	e1a0c083 	lsl	ip, r3, #1
    9f44:	e1f0cacc 	mvns	ip, ip, asr #21
    9f48:	1affffe8 	bne	9ef0 <__cmpdf2+0x1c>
    9f4c:	e192c603 	orrs	ip, r2, r3, lsl #12
    9f50:	0affffe6 	beq	9ef0 <__cmpdf2+0x1c>
    9f54:	e49d0004 	pop	{r0}		; (ldr r0, [sp], #4)
    9f58:	e12fff1e 	bx	lr

00009f5c <__aeabi_cdrcmple>:
    9f5c:	e1a0c000 	mov	ip, r0
    9f60:	e1a00002 	mov	r0, r2
    9f64:	e1a0200c 	mov	r2, ip
    9f68:	e1a0c001 	mov	ip, r1
    9f6c:	e1a01003 	mov	r1, r3
    9f70:	e1a0300c 	mov	r3, ip
    9f74:	eaffffff 	b	9f78 <__aeabi_cdcmpeq>

00009f78 <__aeabi_cdcmpeq>:
    9f78:	e92d4001 	push	{r0, lr}
    9f7c:	ebffffd4 	bl	9ed4 <__cmpdf2>
    9f80:	e3500000 	cmp	r0, #0	; 0x0
    9f84:	43700000 	cmnmi	r0, #0	; 0x0
    9f88:	e8bd8001 	pop	{r0, pc}

00009f8c <__aeabi_dcmpeq>:
    9f8c:	e52de008 	str	lr, [sp, #-8]!
    9f90:	ebfffff8 	bl	9f78 <__aeabi_cdcmpeq>
    9f94:	03a00001 	moveq	r0, #1	; 0x1
    9f98:	13a00000 	movne	r0, #0	; 0x0
    9f9c:	e49df008 	ldr	pc, [sp], #8

00009fa0 <__aeabi_dcmplt>:
    9fa0:	e52de008 	str	lr, [sp, #-8]!
    9fa4:	ebfffff3 	bl	9f78 <__aeabi_cdcmpeq>
    9fa8:	33a00001 	movcc	r0, #1	; 0x1
    9fac:	23a00000 	movcs	r0, #0	; 0x0
    9fb0:	e49df008 	ldr	pc, [sp], #8

00009fb4 <__aeabi_dcmple>:
    9fb4:	e52de008 	str	lr, [sp, #-8]!
    9fb8:	ebffffee 	bl	9f78 <__aeabi_cdcmpeq>
    9fbc:	93a00001 	movls	r0, #1	; 0x1
    9fc0:	83a00000 	movhi	r0, #0	; 0x0
    9fc4:	e49df008 	ldr	pc, [sp], #8

00009fc8 <__aeabi_dcmpge>:
    9fc8:	e52de008 	str	lr, [sp, #-8]!
    9fcc:	ebffffe2 	bl	9f5c <__aeabi_cdrcmple>
    9fd0:	93a00001 	movls	r0, #1	; 0x1
    9fd4:	83a00000 	movhi	r0, #0	; 0x0
    9fd8:	e49df008 	ldr	pc, [sp], #8

00009fdc <__aeabi_dcmpgt>:
    9fdc:	e52de008 	str	lr, [sp, #-8]!
    9fe0:	ebffffdd 	bl	9f5c <__aeabi_cdrcmple>
    9fe4:	33a00001 	movcc	r0, #1	; 0x1
    9fe8:	23a00000 	movcs	r0, #0	; 0x0
    9fec:	e49df008 	ldr	pc, [sp], #8

00009ff0 <__aeabi_d2iz>:
    9ff0:	e1a02081 	lsl	r2, r1, #1
    9ff4:	e2922602 	adds	r2, r2, #2097152	; 0x200000
    9ff8:	2a00000c 	bcs	a030 <__aeabi_d2iz+0x40>
    9ffc:	5a000009 	bpl	a028 <__aeabi_d2iz+0x38>
    a000:	e3e03e3e 	mvn	r3, #992	; 0x3e0
    a004:	e0532ac2 	subs	r2, r3, r2, asr #21
    a008:	9a00000a 	bls	a038 <__aeabi_d2iz+0x48>
    a00c:	e1a03581 	lsl	r3, r1, #11
    a010:	e3833102 	orr	r3, r3, #-2147483648	; 0x80000000
    a014:	e1833aa0 	orr	r3, r3, r0, lsr #21
    a018:	e3110102 	tst	r1, #-2147483648	; 0x80000000
    a01c:	e1a00233 	lsr	r0, r3, r2
    a020:	12600000 	rsbne	r0, r0, #0	; 0x0
    a024:	e12fff1e 	bx	lr
    a028:	e3a00000 	mov	r0, #0	; 0x0
    a02c:	e12fff1e 	bx	lr
    a030:	e1900601 	orrs	r0, r0, r1, lsl #12
    a034:	1a000002 	bne	a044 <__aeabi_d2iz+0x54>
    a038:	e2110102 	ands	r0, r1, #-2147483648	; 0x80000000
    a03c:	03e00102 	mvneq	r0, #-2147483648	; 0x80000000
    a040:	e12fff1e 	bx	lr
    a044:	e3a00000 	mov	r0, #0	; 0x0
    a048:	e12fff1e 	bx	lr

0000a04c <__aeabi_d2f>:
    a04c:	e1a02081 	lsl	r2, r1, #1
    a050:	e2523207 	subs	r3, r2, #1879048192	; 0x70000000
    a054:	2253c602 	subscs	ip, r3, #2097152	; 0x200000
    a058:	227cc57f 	rsbscs	ip, ip, #532676608	; 0x1fc00000
    a05c:	9a000006 	bls	a07c <__aeabi_d2f+0x30>
    a060:	e201c102 	and	ip, r1, #-2147483648	; 0x80000000
    a064:	e1a02180 	lsl	r2, r0, #3
    a068:	e18c0ea0 	orr	r0, ip, r0, lsr #29
    a06c:	e3520102 	cmp	r2, #-2147483648	; 0x80000000
    a070:	e0a00103 	adc	r0, r0, r3, lsl #2
    a074:	03c00001 	biceq	r0, r0, #1	; 0x1
    a078:	e12fff1e 	bx	lr
    a07c:	e3110101 	tst	r1, #1073741824	; 0x40000000
    a080:	1a00000f 	bne	a0c4 <__aeabi_d2f+0x78>
    a084:	e293262e 	adds	r2, r3, #48234496	; 0x2e00000
    a088:	b2010102 	andlt	r0, r1, #-2147483648	; 0x80000000
    a08c:	b12fff1e 	bxlt	lr
    a090:	e3811601 	orr	r1, r1, #1048576	; 0x100000
    a094:	e1a02aa2 	lsr	r2, r2, #21
    a098:	e2622018 	rsb	r2, r2, #24	; 0x18
    a09c:	e262c020 	rsb	ip, r2, #32	; 0x20
    a0a0:	e1b03c10 	lsls	r3, r0, ip
    a0a4:	e1a00230 	lsr	r0, r0, r2
    a0a8:	13800001 	orrne	r0, r0, #1	; 0x1
    a0ac:	e1a03581 	lsl	r3, r1, #11
    a0b0:	e1a035a3 	lsr	r3, r3, #11
    a0b4:	e1800c13 	orr	r0, r0, r3, lsl ip
    a0b8:	e1a03233 	lsr	r3, r3, r2
    a0bc:	e1a03083 	lsl	r3, r3, #1
    a0c0:	eaffffe6 	b	a060 <__aeabi_d2f+0x14>
    a0c4:	e1f03ac2 	mvns	r3, r2, asr #21
    a0c8:	1a000003 	bne	a0dc <__aeabi_d2f+0x90>
    a0cc:	e1903601 	orrs	r3, r0, r1, lsl #12
    a0d0:	13a0047f 	movne	r0, #2130706432	; 0x7f000000
    a0d4:	13800503 	orrne	r0, r0, #12582912	; 0xc00000
    a0d8:	112fff1e 	bxne	lr
    a0dc:	e2010102 	and	r0, r1, #-2147483648	; 0x80000000
    a0e0:	e380047f 	orr	r0, r0, #2130706432	; 0x7f000000
    a0e4:	e3800502 	orr	r0, r0, #8388608	; 0x800000
    a0e8:	e12fff1e 	bx	lr

0000a0ec <__aeabi_lmul>:
    a0ec:	e0010192 	mul	r1, r2, r1
    a0f0:	e0231390 	mla	r3, r0, r3, r1
    a0f4:	e0810092 	umull	r0, r1, r2, r0
    a0f8:	e0811003 	add	r1, r1, r3
    a0fc:	e12fff1e 	bx	lr

0000a100 <__aeabi_ldivmod>:
    a100:	e24dd008 	sub	sp, sp, #8	; 0x8
    a104:	e92d6000 	push	{sp, lr}
    a108:	eb00001b 	bl	a17c <__gnu_ldivmod_helper>
    a10c:	e59de004 	ldr	lr, [sp, #4]
    a110:	e28dd008 	add	sp, sp, #8	; 0x8
    a114:	e8bd000c 	pop	{r2, r3}
    a118:	e12fff1e 	bx	lr

0000a11c <__aeabi_uldivmod>:
    a11c:	e24dd008 	sub	sp, sp, #8	; 0x8
    a120:	e92d6000 	push	{sp, lr}
    a124:	eb000003 	bl	a138 <__gnu_uldivmod_helper>
    a128:	e59de004 	ldr	lr, [sp, #4]
    a12c:	e28dd008 	add	sp, sp, #8	; 0x8
    a130:	e8bd000c 	pop	{r2, r3}
    a134:	e12fff1e 	bx	lr

0000a138 <__gnu_uldivmod_helper>:
    a138:	e92d41f0 	push	{r4, r5, r6, r7, r8, lr}
    a13c:	e1a04002 	mov	r4, r2
    a140:	e1a05003 	mov	r5, r3
    a144:	e1a06000 	mov	r6, r0
    a148:	e1a07001 	mov	r7, r1
    a14c:	eb00064e 	bl	ba8c <__udivdi3>
    a150:	e0080590 	mul	r8, r0, r5
    a154:	e0832490 	umull	r2, r3, r0, r4
    a158:	e02c8194 	mla	ip, r4, r1, r8
    a15c:	e1a05007 	mov	r5, r7
    a160:	e08c3003 	add	r3, ip, r3
    a164:	e1a04006 	mov	r4, r6
    a168:	e0544002 	subs	r4, r4, r2
    a16c:	e0c55003 	sbc	r5, r5, r3
    a170:	e59d3018 	ldr	r3, [sp, #24]
    a174:	e1c340f0 	strd	r4, [r3]
    a178:	e8bd81f0 	pop	{r4, r5, r6, r7, r8, pc}

0000a17c <__gnu_ldivmod_helper>:
    a17c:	e92d41f0 	push	{r4, r5, r6, r7, r8, lr}
    a180:	e1a04002 	mov	r4, r2
    a184:	e1a05003 	mov	r5, r3
    a188:	e1a06000 	mov	r6, r0
    a18c:	e1a07001 	mov	r7, r1
    a190:	eb00051e 	bl	b610 <__divdi3>
    a194:	e0080590 	mul	r8, r0, r5
    a198:	e0832490 	umull	r2, r3, r0, r4
    a19c:	e02c8194 	mla	ip, r4, r1, r8
    a1a0:	e1a05007 	mov	r5, r7
    a1a4:	e08c3003 	add	r3, ip, r3
    a1a8:	e1a04006 	mov	r4, r6
    a1ac:	e0544002 	subs	r4, r4, r2
    a1b0:	e0c55003 	sbc	r5, r5, r3
    a1b4:	e59d3018 	ldr	r3, [sp, #24]
    a1b8:	e1c340f0 	strd	r4, [r3]
    a1bc:	e8bd81f0 	pop	{r4, r5, r6, r7, r8, pc}

0000a1c0 <_Unwind_decode_target2>:
    a1c0:	e5903000 	ldr	r3, [r0]
    a1c4:	e3530000 	cmp	r3, #0	; 0x0
    a1c8:	10833000 	addne	r3, r3, r0
    a1cc:	e1a00003 	mov	r0, r3
    a1d0:	e12fff1e 	bx	lr

0000a1d4 <_Unwind_VRS_Get>:
    a1d4:	e3510000 	cmp	r1, #0	; 0x0
    a1d8:	0a000003 	beq	a1ec <_Unwind_VRS_Get+0x18>
    a1dc:	e3510004 	cmp	r1, #4	; 0x4
    a1e0:	93a00001 	movls	r0, #1	; 0x1
    a1e4:	912fff1e 	bxls	lr
    a1e8:	ea00000a 	b	a218 <_Unwind_VRS_Get+0x44>
    a1ec:	e352000f 	cmp	r2, #15	; 0xf
    a1f0:	93530000 	cmpls	r3, #0	; 0x0
    a1f4:	03a03000 	moveq	r3, #0	; 0x0
    a1f8:	13a03001 	movne	r3, #1	; 0x1
    a1fc:	1a000005 	bne	a218 <_Unwind_VRS_Get+0x44>
    a200:	e0800102 	add	r0, r0, r2, lsl #2
    a204:	e59d2000 	ldr	r2, [sp]
    a208:	e5901004 	ldr	r1, [r0, #4]
    a20c:	e5821000 	str	r1, [r2]
    a210:	e1a00003 	mov	r0, r3
    a214:	e12fff1e 	bx	lr
    a218:	e3a00002 	mov	r0, #2	; 0x2
    a21c:	e12fff1e 	bx	lr

0000a220 <_Unwind_GetGR>:
    a220:	e92d401f 	push	{r0, r1, r2, r3, r4, lr}
    a224:	e1a02001 	mov	r2, r1
    a228:	e3a01000 	mov	r1, #0	; 0x0
    a22c:	e28dc00c 	add	ip, sp, #12	; 0xc
    a230:	e1a03001 	mov	r3, r1
    a234:	e58dc000 	str	ip, [sp]
    a238:	ebffffe5 	bl	a1d4 <_Unwind_VRS_Get>
    a23c:	e59d000c 	ldr	r0, [sp, #12]
    a240:	e28dd014 	add	sp, sp, #20	; 0x14
    a244:	e8bd8000 	pop	{pc}

0000a248 <_Unwind_VRS_Set>:
    a248:	e3510000 	cmp	r1, #0	; 0x0
    a24c:	0a000003 	beq	a260 <_Unwind_VRS_Set+0x18>
    a250:	e3510004 	cmp	r1, #4	; 0x4
    a254:	93a00001 	movls	r0, #1	; 0x1
    a258:	912fff1e 	bxls	lr
    a25c:	ea00000a 	b	a28c <_Unwind_VRS_Set+0x44>
    a260:	e352000f 	cmp	r2, #15	; 0xf
    a264:	93530000 	cmpls	r3, #0	; 0x0
    a268:	03a03000 	moveq	r3, #0	; 0x0
    a26c:	13a03001 	movne	r3, #1	; 0x1
    a270:	1a000005 	bne	a28c <_Unwind_VRS_Set+0x44>
    a274:	e0800102 	add	r0, r0, r2, lsl #2
    a278:	e59d2000 	ldr	r2, [sp]
    a27c:	e5922000 	ldr	r2, [r2]
    a280:	e5802004 	str	r2, [r0, #4]
    a284:	e1a00003 	mov	r0, r3
    a288:	e12fff1e 	bx	lr
    a28c:	e3a00002 	mov	r0, #2	; 0x2
    a290:	e12fff1e 	bx	lr

0000a294 <_Unwind_SetGR>:
    a294:	e92d401f 	push	{r0, r1, r2, r3, r4, lr}
    a298:	e1a03001 	mov	r3, r1
    a29c:	e28dc010 	add	ip, sp, #16	; 0x10
    a2a0:	e3a01000 	mov	r1, #0	; 0x0
    a2a4:	e52c2004 	str	r2, [ip, #-4]!
    a2a8:	e1a02003 	mov	r2, r3
    a2ac:	e1a03001 	mov	r3, r1
    a2b0:	e58dc000 	str	ip, [sp]
    a2b4:	ebffffe3 	bl	a248 <_Unwind_VRS_Set>
    a2b8:	e28dd014 	add	sp, sp, #20	; 0x14
    a2bc:	e8bd8000 	pop	{pc}

0000a2c0 <selfrel_offset31>:
    a2c0:	e5903000 	ldr	r3, [r0]
    a2c4:	e3130101 	tst	r3, #1073741824	; 0x40000000
    a2c8:	13833102 	orrne	r3, r3, #-2147483648	; 0x80000000
    a2cc:	03c33102 	biceq	r3, r3, #-2147483648	; 0x80000000
    a2d0:	e0800003 	add	r0, r0, r3
    a2d4:	e12fff1e 	bx	lr

0000a2d8 <search_EIT_table>:
    a2d8:	e3510000 	cmp	r1, #0	; 0x0
    a2dc:	e92d4ff8 	push	{r3, r4, r5, r6, r7, r8, r9, sl, fp, lr}
    a2e0:	e1a04000 	mov	r4, r0
    a2e4:	e1a09002 	mov	r9, r2
    a2e8:	0a00001a 	beq	a358 <search_EIT_table+0x80>
    a2ec:	e241a001 	sub	sl, r1, #1	; 0x1
    a2f0:	e1a0800a 	mov	r8, sl
    a2f4:	e3a07000 	mov	r7, #0	; 0x0
    a2f8:	e0885007 	add	r5, r8, r7
    a2fc:	e0855fa5 	add	r5, r5, r5, lsr #31
    a300:	e1a050c5 	asr	r5, r5, #1
    a304:	e0846185 	add	r6, r4, r5, lsl #3
    a308:	e1a00006 	mov	r0, r6
    a30c:	ebffffeb 	bl	a2c0 <selfrel_offset31>
    a310:	e155000a 	cmp	r5, sl
    a314:	e3e03000 	mvn	r3, #0	; 0x0
    a318:	e1a0b000 	mov	fp, r0
    a31c:	e2850001 	add	r0, r5, #1	; 0x1
    a320:	e0840180 	add	r0, r4, r0, lsl #3
    a324:	0a000001 	beq	a330 <search_EIT_table+0x58>
    a328:	ebffffe4 	bl	a2c0 <selfrel_offset31>
    a32c:	e2403001 	sub	r3, r0, #1	; 0x1
    a330:	e159000b 	cmp	r9, fp
    a334:	2a000003 	bcs	a348 <search_EIT_table+0x70>
    a338:	e1550007 	cmp	r5, r7
    a33c:	e2458001 	sub	r8, r5, #1	; 0x1
    a340:	1affffec 	bne	a2f8 <search_EIT_table+0x20>
    a344:	ea000003 	b	a358 <search_EIT_table+0x80>
    a348:	e1590003 	cmp	r9, r3
    a34c:	e2857001 	add	r7, r5, #1	; 0x1
    a350:	8affffe8 	bhi	a2f8 <search_EIT_table+0x20>
    a354:	ea000000 	b	a35c <search_EIT_table+0x84>
    a358:	e3a06000 	mov	r6, #0	; 0x0
    a35c:	e1a00006 	mov	r0, r6
    a360:	e8bd8ff8 	pop	{r3, r4, r5, r6, r7, r8, r9, sl, fp, pc}

0000a364 <_Unwind_GetCFA>:
    a364:	e5900044 	ldr	r0, [r0, #68]
    a368:	e12fff1e 	bx	lr

0000a36c <_Unwind_Complete>:
    a36c:	e12fff1e 	bx	lr

0000a370 <_Unwind_DeleteException>:
    a370:	e5903008 	ldr	r3, [r0, #8]
    a374:	e92d4010 	push	{r4, lr}
    a378:	e3530000 	cmp	r3, #0	; 0x0
    a37c:	e1a01000 	mov	r1, r0
    a380:	08bd8010 	popeq	{r4, pc}
    a384:	e3a00001 	mov	r0, #1	; 0x1
    a388:	e12fff33 	blx	r3
    a38c:	e8bd8010 	pop	{r4, pc}

0000a390 <__gnu_unwind_pr_common>:
    a390:	e92d4ff0 	push	{r4, r5, r6, r7, r8, r9, sl, fp, lr}
    a394:	e591804c 	ldr	r8, [r1, #76]
    a398:	e24dd024 	sub	sp, sp, #36	; 0x24
    a39c:	e3530000 	cmp	r3, #0	; 0x0
    a3a0:	e58d3004 	str	r3, [sp, #4]
    a3a4:	e2007003 	and	r7, r0, #3	; 0x3
    a3a8:	e4983004 	ldr	r3, [r8], #4
    a3ac:	e2000008 	and	r0, r0, #8	; 0x8
    a3b0:	e1a04001 	mov	r4, r1
    a3b4:	e1a06002 	mov	r6, r2
    a3b8:	e58d8014 	str	r8, [sp, #20]
    a3bc:	e58d000c 	str	r0, [sp, #12]
    a3c0:	1a000006 	bne	a3e0 <__gnu_unwind_pr_common+0x50>
    a3c4:	e1a03403 	lsl	r3, r3, #8
    a3c8:	e58d3010 	str	r3, [sp, #16]
    a3cc:	e3a03003 	mov	r3, #3	; 0x3
    a3d0:	e5cd3018 	strb	r3, [sp, #24]
    a3d4:	e59d3004 	ldr	r3, [sp, #4]
    a3d8:	e5cd3019 	strb	r3, [sp, #25]
    a3dc:	ea000007 	b	a400 <__gnu_unwind_pr_common+0x70>
    a3e0:	e1a02823 	lsr	r2, r3, #16
    a3e4:	e20220ff 	and	r2, r2, #255	; 0xff
    a3e8:	e1a03803 	lsl	r3, r3, #16
    a3ec:	e58d3010 	str	r3, [sp, #16]
    a3f0:	e0888102 	add	r8, r8, r2, lsl #2
    a3f4:	e3a03002 	mov	r3, #2	; 0x2
    a3f8:	e5cd3018 	strb	r3, [sp, #24]
    a3fc:	e5cd2019 	strb	r2, [sp, #25]
    a400:	e5949050 	ldr	r9, [r4, #80]
    a404:	e3570002 	cmp	r7, #2	; 0x2
    a408:	05948038 	ldreq	r8, [r4, #56]
    a40c:	e2199001 	ands	r9, r9, #1	; 0x1
    a410:	02843058 	addeq	r3, r4, #88	; 0x58
    a414:	13a09000 	movne	r9, #0	; 0x0
    a418:	058d3008 	streq	r3, [sp, #8]
    a41c:	0a0000ac 	beq	a6d4 <__gnu_unwind_pr_common+0x344>
    a420:	ea0000ae 	b	a6e0 <__gnu_unwind_pr_common+0x350>
    a424:	e59d3004 	ldr	r3, [sp, #4]
    a428:	e1a00006 	mov	r0, r6
    a42c:	e3530002 	cmp	r3, #2	; 0x2
    a430:	0598b004 	ldreq	fp, [r8, #4]
    a434:	11d8b0b2 	ldrhne	fp, [r8, #2]
    a438:	e5943048 	ldr	r3, [r4, #72]
    a43c:	02885008 	addeq	r5, r8, #8	; 0x8
    a440:	11d8a0b0 	ldrhne	sl, [r8]
    a444:	12885004 	addne	r5, r8, #4	; 0x4
    a448:	e3a0100f 	mov	r1, #15	; 0xf
    a44c:	e3cb8001 	bic	r8, fp, #1	; 0x1
    a450:	e0888003 	add	r8, r8, r3
    a454:	ebffff71 	bl	a220 <_Unwind_GetGR>
    a458:	e1580000 	cmp	r8, r0
    a45c:	83a00000 	movhi	r0, #0	; 0x0
    a460:	8a000004 	bhi	a478 <__gnu_unwind_pr_common+0xe8>
    a464:	e3ca3001 	bic	r3, sl, #1	; 0x1
    a468:	e0888003 	add	r8, r8, r3
    a46c:	e1500008 	cmp	r0, r8
    a470:	23a00000 	movcs	r0, #0	; 0x0
    a474:	33a00001 	movcc	r0, #1	; 0x1
    a478:	e20bb001 	and	fp, fp, #1	; 0x1
    a47c:	e20aa001 	and	sl, sl, #1	; 0x1
    a480:	e18aa08b 	orr	sl, sl, fp, lsl #1
    a484:	e35a0001 	cmp	sl, #1	; 0x1
    a488:	0a000015 	beq	a4e4 <__gnu_unwind_pr_common+0x154>
    a48c:	3a000002 	bcc	a49c <__gnu_unwind_pr_common+0x10c>
    a490:	e35a0002 	cmp	sl, #2	; 0x2
    a494:	1a0000a4 	bne	a72c <__gnu_unwind_pr_common+0x39c>
    a498:	ea00003f 	b	a59c <__gnu_unwind_pr_common+0x20c>
    a49c:	e3570000 	cmp	r7, #0	; 0x0
    a4a0:	03a00000 	moveq	r0, #0	; 0x0
    a4a4:	12000001 	andne	r0, r0, #1	; 0x1
    a4a8:	e3500000 	cmp	r0, #0	; 0x0
    a4ac:	e2858004 	add	r8, r5, #4	; 0x4
    a4b0:	0a000087 	beq	a6d4 <__gnu_unwind_pr_common+0x344>
    a4b4:	e1a00005 	mov	r0, r5
    a4b8:	ebffff80 	bl	a2c0 <selfrel_offset31>
    a4bc:	e5848038 	str	r8, [r4, #56]
    a4c0:	e1a05000 	mov	r5, r0
    a4c4:	e1a00004 	mov	r0, r4
    a4c8:	e1a00000 	nop			(mov r0,r0)
    a4cc:	e3500000 	cmp	r0, #0	; 0x0
    a4d0:	11a00006 	movne	r0, r6
    a4d4:	11a02005 	movne	r2, r5
    a4d8:	13a0100f 	movne	r1, #15	; 0xf
    a4dc:	0a000092 	beq	a72c <__gnu_unwind_pr_common+0x39c>
    a4e0:	ea000072 	b	a6b0 <__gnu_unwind_pr_common+0x320>
    a4e4:	e3570000 	cmp	r7, #0	; 0x0
    a4e8:	1a000016 	bne	a548 <__gnu_unwind_pr_common+0x1b8>
    a4ec:	e3500000 	cmp	r0, #0	; 0x0
    a4f0:	0a000027 	beq	a594 <__gnu_unwind_pr_common+0x204>
    a4f4:	e5953004 	ldr	r3, [r5, #4]
    a4f8:	e1a00005 	mov	r0, r5
    a4fc:	e3730002 	cmn	r3, #2	; 0x2
    a500:	e4908004 	ldr	r8, [r0], #4
    a504:	0a000088 	beq	a72c <__gnu_unwind_pr_common+0x39c>
    a508:	e3730001 	cmn	r3, #1	; 0x1
    a50c:	e59d3008 	ldr	r3, [sp, #8]
    a510:	e58d301c 	str	r3, [sp, #28]
    a514:	0a000007 	beq	a538 <__gnu_unwind_pr_common+0x1a8>
    a518:	ebffff28 	bl	a1c0 <_Unwind_decode_target2>
    a51c:	e1a02fa8 	lsr	r2, r8, #31
    a520:	e28d301c 	add	r3, sp, #28	; 0x1c
    a524:	e1a01000 	mov	r1, r0
    a528:	e1a00004 	mov	r0, r4
    a52c:	e1a00000 	nop			(mov r0,r0)
    a530:	e3500000 	cmp	r0, #0	; 0x0
    a534:	058d701c 	streq	r7, [sp, #28]
    a538:	e59d301c 	ldr	r3, [sp, #28]
    a53c:	e3530000 	cmp	r3, #0	; 0x0
    a540:	0a000013 	beq	a594 <__gnu_unwind_pr_common+0x204>
    a544:	ea000033 	b	a618 <__gnu_unwind_pr_common+0x288>
    a548:	e1a00006 	mov	r0, r6
    a54c:	e3a0100d 	mov	r1, #13	; 0xd
    a550:	e5948020 	ldr	r8, [r4, #32]
    a554:	ebffff31 	bl	a220 <_Unwind_GetGR>
    a558:	e1580000 	cmp	r8, r0
    a55c:	1a00000c 	bne	a594 <__gnu_unwind_pr_common+0x204>
    a560:	e5943028 	ldr	r3, [r4, #40]
    a564:	e1550003 	cmp	r5, r3
    a568:	1a000009 	bne	a594 <__gnu_unwind_pr_common+0x204>
    a56c:	e1a00005 	mov	r0, r5
    a570:	ebffff52 	bl	a2c0 <selfrel_offset31>
    a574:	e3a0100f 	mov	r1, #15	; 0xf
    a578:	e1a02000 	mov	r2, r0
    a57c:	e1a00006 	mov	r0, r6
    a580:	ebffff43 	bl	a294 <_Unwind_SetGR>
    a584:	e1a00006 	mov	r0, r6
    a588:	e1a02004 	mov	r2, r4
    a58c:	e3a01000 	mov	r1, #0	; 0x0
    a590:	ea000046 	b	a6b0 <__gnu_unwind_pr_common+0x320>
    a594:	e2858008 	add	r8, r5, #8	; 0x8
    a598:	ea00004d 	b	a6d4 <__gnu_unwind_pr_common+0x344>
    a59c:	e5958000 	ldr	r8, [r5]
    a5a0:	e3570000 	cmp	r7, #0	; 0x0
    a5a4:	e3c88102 	bic	r8, r8, #-2147483648	; 0x80000000
    a5a8:	1a000023 	bne	a63c <__gnu_unwind_pr_common+0x2ac>
    a5ac:	e3500000 	cmp	r0, #0	; 0x0
    a5b0:	0a000042 	beq	a6c0 <__gnu_unwind_pr_common+0x330>
    a5b4:	e59d300c 	ldr	r3, [sp, #12]
    a5b8:	e3530000 	cmp	r3, #0	; 0x0
    a5bc:	13580000 	cmpne	r8, #0	; 0x0
    a5c0:	0285b004 	addeq	fp, r5, #4	; 0x4
    a5c4:	01a0a007 	moveq	sl, r7
    a5c8:	0a00000d 	beq	a604 <__gnu_unwind_pr_common+0x274>
    a5cc:	ea00003b 	b	a6c0 <__gnu_unwind_pr_common+0x330>
    a5d0:	e59d3008 	ldr	r3, [sp, #8]
    a5d4:	e58d301c 	str	r3, [sp, #28]
    a5d8:	ebfffef8 	bl	a1c0 <_Unwind_decode_target2>
    a5dc:	e28d301c 	add	r3, sp, #28	; 0x1c
    a5e0:	e3a02000 	mov	r2, #0	; 0x0
    a5e4:	e28bb004 	add	fp, fp, #4	; 0x4
    a5e8:	e1a01000 	mov	r1, r0
    a5ec:	e1a00004 	mov	r0, r4
    a5f0:	e1a00000 	nop			(mov r0,r0)
    a5f4:	e28a3001 	add	r3, sl, #1	; 0x1
    a5f8:	e3500000 	cmp	r0, #0	; 0x0
    a5fc:	1a000003 	bne	a610 <__gnu_unwind_pr_common+0x280>
    a600:	e1a0a003 	mov	sl, r3
    a604:	e15a0008 	cmp	sl, r8
    a608:	e1a0000b 	mov	r0, fp
    a60c:	3affffef 	bcc	a5d0 <__gnu_unwind_pr_common+0x240>
    a610:	e15a0008 	cmp	sl, r8
    a614:	1a000029 	bne	a6c0 <__gnu_unwind_pr_common+0x330>
    a618:	e1a00006 	mov	r0, r6
    a61c:	e3a0100d 	mov	r1, #13	; 0xd
    a620:	ebfffefe 	bl	a220 <_Unwind_GetGR>
    a624:	e59d301c 	ldr	r3, [sp, #28]
    a628:	e5843024 	str	r3, [r4, #36]
    a62c:	e5845028 	str	r5, [r4, #40]
    a630:	e3a03006 	mov	r3, #6	; 0x6
    a634:	e5840020 	str	r0, [r4, #32]
    a638:	ea00003c 	b	a730 <__gnu_unwind_pr_common+0x3a0>
    a63c:	e1a00006 	mov	r0, r6
    a640:	e3a0100d 	mov	r1, #13	; 0xd
    a644:	e594a020 	ldr	sl, [r4, #32]
    a648:	ebfffef4 	bl	a220 <_Unwind_GetGR>
    a64c:	e15a0000 	cmp	sl, r0
    a650:	1a00001a 	bne	a6c0 <__gnu_unwind_pr_common+0x330>
    a654:	e5943028 	ldr	r3, [r4, #40]
    a658:	e1550003 	cmp	r5, r3
    a65c:	1a000017 	bne	a6c0 <__gnu_unwind_pr_common+0x330>
    a660:	e2853004 	add	r3, r5, #4	; 0x4
    a664:	e5843034 	str	r3, [r4, #52]
    a668:	e3a03000 	mov	r3, #0	; 0x0
    a66c:	e584302c 	str	r3, [r4, #44]
    a670:	e2833004 	add	r3, r3, #4	; 0x4
    a674:	e5848028 	str	r8, [r4, #40]
    a678:	e5843030 	str	r3, [r4, #48]
    a67c:	e5953000 	ldr	r3, [r5]
    a680:	e3530000 	cmp	r3, #0	; 0x0
    a684:	ba00000c 	blt	a6bc <__gnu_unwind_pr_common+0x32c>
    a688:	e2880001 	add	r0, r8, #1	; 0x1
    a68c:	e0850100 	add	r0, r5, r0, lsl #2
    a690:	ebffff0a 	bl	a2c0 <selfrel_offset31>
    a694:	e3a0100f 	mov	r1, #15	; 0xf
    a698:	e1a02000 	mov	r2, r0
    a69c:	e1a00006 	mov	r0, r6
    a6a0:	ebfffefb 	bl	a294 <_Unwind_SetGR>
    a6a4:	e1a00006 	mov	r0, r6
    a6a8:	e3a01000 	mov	r1, #0	; 0x0
    a6ac:	e1a02004 	mov	r2, r4
    a6b0:	ebfffef7 	bl	a294 <_Unwind_SetGR>
    a6b4:	e3a03007 	mov	r3, #7	; 0x7
    a6b8:	ea00001c 	b	a730 <__gnu_unwind_pr_common+0x3a0>
    a6bc:	e3a09001 	mov	r9, #1	; 0x1
    a6c0:	e5953000 	ldr	r3, [r5]
    a6c4:	e2888001 	add	r8, r8, #1	; 0x1
    a6c8:	e3530000 	cmp	r3, #0	; 0x0
    a6cc:	b2855004 	addlt	r5, r5, #4	; 0x4
    a6d0:	e0858108 	add	r8, r5, r8, lsl #2
    a6d4:	e598a000 	ldr	sl, [r8]
    a6d8:	e35a0000 	cmp	sl, #0	; 0x0
    a6dc:	1affff50 	bne	a424 <__gnu_unwind_pr_common+0x94>
    a6e0:	e1a00006 	mov	r0, r6
    a6e4:	e28d1010 	add	r1, sp, #16	; 0x10
    a6e8:	eb0002da 	bl	b258 <__gnu_unwind_execute>
    a6ec:	e3500000 	cmp	r0, #0	; 0x0
    a6f0:	1a00000d 	bne	a72c <__gnu_unwind_pr_common+0x39c>
    a6f4:	e3590000 	cmp	r9, #0	; 0x0
    a6f8:	03a03008 	moveq	r3, #8	; 0x8
    a6fc:	0a00000b 	beq	a730 <__gnu_unwind_pr_common+0x3a0>
    a700:	e3a0100f 	mov	r1, #15	; 0xf
    a704:	e1a00006 	mov	r0, r6
    a708:	ebfffec4 	bl	a220 <_Unwind_GetGR>
    a70c:	e3a0100e 	mov	r1, #14	; 0xe
    a710:	e1a02000 	mov	r2, r0
    a714:	e1a00006 	mov	r0, r6
    a718:	ebfffedd 	bl	a294 <_Unwind_SetGR>
    a71c:	e1a00006 	mov	r0, r6
    a720:	e3a0100f 	mov	r1, #15	; 0xf
    a724:	e59f2010 	ldr	r2, [pc, #16]	; a73c <__gnu_unwind_pr_common+0x3ac>
    a728:	eaffffe0 	b	a6b0 <__gnu_unwind_pr_common+0x320>
    a72c:	e3a03009 	mov	r3, #9	; 0x9
    a730:	e1a00003 	mov	r0, r3
    a734:	e28dd024 	add	sp, sp, #36	; 0x24
    a738:	e8bd8ff0 	pop	{r4, r5, r6, r7, r8, r9, sl, fp, pc}
    a73c:	00000000 	.word	0x00000000

0000a740 <__aeabi_unwind_cpp_pr2>:
    a740:	e3a03002 	mov	r3, #2	; 0x2
    a744:	eaffff11 	b	a390 <__gnu_unwind_pr_common>

0000a748 <__aeabi_unwind_cpp_pr1>:
    a748:	e3a03001 	mov	r3, #1	; 0x1
    a74c:	eaffff0f 	b	a390 <__gnu_unwind_pr_common>

0000a750 <__aeabi_unwind_cpp_pr0>:
    a750:	e3a03000 	mov	r3, #0	; 0x0
    a754:	eaffff0d 	b	a390 <__gnu_unwind_pr_common>

0000a758 <get_eit_entry>:
    a758:	e59f3114 	ldr	r3, [pc, #276]	; a874 <get_eit_entry+0x11c>
    a75c:	e92d4037 	push	{r0, r1, r2, r4, r5, lr}
    a760:	e3530000 	cmp	r3, #0	; 0x0
    a764:	e1a04000 	mov	r4, r0
    a768:	e2415002 	sub	r5, r1, #2	; 0x2
    a76c:	0a000006 	beq	a78c <get_eit_entry+0x34>
    a770:	e1a00005 	mov	r0, r5
    a774:	e28d1004 	add	r1, sp, #4	; 0x4
    a778:	e1a00000 	nop			(mov r0,r0)
    a77c:	e3500000 	cmp	r0, #0	; 0x0
    a780:	e1a03000 	mov	r3, r0
    a784:	1a000006 	bne	a7a4 <get_eit_entry+0x4c>
    a788:	ea000031 	b	a854 <get_eit_entry+0xfc>
    a78c:	e59f30e4 	ldr	r3, [pc, #228]	; a878 <get_eit_entry+0x120>
    a790:	e59f20e4 	ldr	r2, [pc, #228]	; a87c <get_eit_entry+0x124>
    a794:	e1a00003 	mov	r0, r3
    a798:	e0633002 	rsb	r3, r3, r2
    a79c:	e1a031c3 	asr	r3, r3, #3
    a7a0:	e58d3004 	str	r3, [sp, #4]
    a7a4:	e1a02005 	mov	r2, r5
    a7a8:	e59d1004 	ldr	r1, [sp, #4]
    a7ac:	ebfffec9 	bl	a2d8 <search_EIT_table>
    a7b0:	e2505000 	subs	r5, r0, #0	; 0x0
    a7b4:	05845010 	streq	r5, [r4, #16]
    a7b8:	03a03009 	moveq	r3, #9	; 0x9
    a7bc:	0a00002a 	beq	a86c <get_eit_entry+0x114>
    a7c0:	ebfffebe 	bl	a2c0 <selfrel_offset31>
    a7c4:	e5840048 	str	r0, [r4, #72]
    a7c8:	e5953004 	ldr	r3, [r5, #4]
    a7cc:	e3530001 	cmp	r3, #1	; 0x1
    a7d0:	03a03000 	moveq	r3, #0	; 0x0
    a7d4:	05843010 	streq	r3, [r4, #16]
    a7d8:	02833005 	addeq	r3, r3, #5	; 0x5
    a7dc:	0a000022 	beq	a86c <get_eit_entry+0x114>
    a7e0:	e3530000 	cmp	r3, #0	; 0x0
    a7e4:	e2850004 	add	r0, r5, #4	; 0x4
    a7e8:	b3a03001 	movlt	r3, #1	; 0x1
    a7ec:	b584004c 	strlt	r0, [r4, #76]
    a7f0:	b5843050 	strlt	r3, [r4, #80]
    a7f4:	ba000003 	blt	a808 <get_eit_entry+0xb0>
    a7f8:	ebfffeb0 	bl	a2c0 <selfrel_offset31>
    a7fc:	e3a03000 	mov	r3, #0	; 0x0
    a800:	e5843050 	str	r3, [r4, #80]
    a804:	e584004c 	str	r0, [r4, #76]
    a808:	e594004c 	ldr	r0, [r4, #76]
    a80c:	e5903000 	ldr	r3, [r0]
    a810:	e3530000 	cmp	r3, #0	; 0x0
    a814:	aa000011 	bge	a860 <get_eit_entry+0x108>
    a818:	e1a03c23 	lsr	r3, r3, #24
    a81c:	e213300f 	ands	r3, r3, #15	; 0xf
    a820:	059f2058 	ldreq	r2, [pc, #88]	; a880 <get_eit_entry+0x128>
    a824:	05842010 	streq	r2, [r4, #16]
    a828:	0a00000f 	beq	a86c <get_eit_entry+0x114>
    a82c:	e3530001 	cmp	r3, #1	; 0x1
    a830:	059f304c 	ldreq	r3, [pc, #76]	; a884 <get_eit_entry+0x12c>
    a834:	0a000003 	beq	a848 <get_eit_entry+0xf0>
    a838:	e3530002 	cmp	r3, #2	; 0x2
    a83c:	13a03000 	movne	r3, #0	; 0x0
    a840:	1a000003 	bne	a854 <get_eit_entry+0xfc>
    a844:	e59f303c 	ldr	r3, [pc, #60]	; a888 <get_eit_entry+0x130>
    a848:	e5843010 	str	r3, [r4, #16]
    a84c:	e3a03000 	mov	r3, #0	; 0x0
    a850:	ea000005 	b	a86c <get_eit_entry+0x114>
    a854:	e5843010 	str	r3, [r4, #16]
    a858:	e2833009 	add	r3, r3, #9	; 0x9
    a85c:	ea000002 	b	a86c <get_eit_entry+0x114>
    a860:	ebfffe96 	bl	a2c0 <selfrel_offset31>
    a864:	e3a03000 	mov	r3, #0	; 0x0
    a868:	e5840010 	str	r0, [r4, #16]
    a86c:	e1a00003 	mov	r0, r3
    a870:	e8bd803e 	pop	{r1, r2, r3, r4, r5, pc}
    a874:	00000000 	.word	0x00000000
    a878:	0001dc80 	.word	0x0001dc80
    a87c:	0001e670 	.word	0x0001e670
    a880:	0000a750 	.word	0x0000a750
    a884:	0000a748 	.word	0x0000a748
    a888:	0000a740 	.word	0x0000a740

0000a88c <restore_non_core_regs>:
    a88c:	e5903000 	ldr	r3, [r0]
    a890:	e92d4010 	push	{r4, lr}
    a894:	e3130001 	tst	r3, #1	; 0x1
    a898:	e1a04000 	mov	r4, r0
    a89c:	1a000005 	bne	a8b8 <restore_non_core_regs+0x2c>
    a8a0:	e3130002 	tst	r3, #2	; 0x2
    a8a4:	e2800048 	add	r0, r0, #72	; 0x48
    a8a8:	0a000001 	beq	a8b4 <restore_non_core_regs+0x28>
    a8ac:	eb0001d7 	bl	b010 <__gnu_Unwind_Restore_VFP_D>
    a8b0:	ea000000 	b	a8b8 <restore_non_core_regs+0x2c>
    a8b4:	eb0001d1 	bl	b000 <__gnu_Unwind_Restore_VFP>
    a8b8:	e5943000 	ldr	r3, [r4]
    a8bc:	e3130004 	tst	r3, #4	; 0x4
    a8c0:	1a000001 	bne	a8cc <restore_non_core_regs+0x40>
    a8c4:	e28400d0 	add	r0, r4, #208	; 0xd0
    a8c8:	eb0001d4 	bl	b020 <__gnu_Unwind_Restore_VFP_D_16_to_31>
    a8cc:	e5943000 	ldr	r3, [r4]
    a8d0:	e3130008 	tst	r3, #8	; 0x8
    a8d4:	1a000001 	bne	a8e0 <restore_non_core_regs+0x54>
    a8d8:	e2840e1b 	add	r0, r4, #432	; 0x1b0
    a8dc:	eb0001d3 	bl	b030 <__gnu_Unwind_Restore_WMMXD>
    a8e0:	e5943000 	ldr	r3, [r4]
    a8e4:	e3130010 	tst	r3, #16	; 0x10
    a8e8:	18bd8010 	popne	{r4, pc}
    a8ec:	e2840e23 	add	r0, r4, #560	; 0x230
    a8f0:	e8bd4010 	pop	{r4, lr}
    a8f4:	ea0001ef 	b	b0b8 <__gnu_Unwind_Restore_WMMXC>

0000a8f8 <__gnu_Unwind_Backtrace>:
    a8f8:	e92d41f0 	push	{r4, r5, r6, r7, r8, lr}
    a8fc:	e592303c 	ldr	r3, [r2, #60]
    a900:	e282e004 	add	lr, r2, #4	; 0x4
    a904:	e5823040 	str	r3, [r2, #64]
    a908:	e1a07000 	mov	r7, r0
    a90c:	e1a06001 	mov	r6, r1
    a910:	e8be000f 	ldm	lr!, {r0, r1, r2, r3}
    a914:	e24ddfa6 	sub	sp, sp, #664	; 0x298
    a918:	e28dc004 	add	ip, sp, #4	; 0x4
    a91c:	e8ac000f 	stmia	ip!, {r0, r1, r2, r3}
    a920:	e8be000f 	ldm	lr!, {r0, r1, r2, r3}
    a924:	e8ac000f 	stmia	ip!, {r0, r1, r2, r3}
    a928:	e8be000f 	ldm	lr!, {r0, r1, r2, r3}
    a92c:	e8ac000f 	stmia	ip!, {r0, r1, r2, r3}
    a930:	e89e000f 	ldm	lr, {r0, r1, r2, r3}
    a934:	e28d5d09 	add	r5, sp, #576	; 0x240
    a938:	e88c000f 	stm	ip, {r0, r1, r2, r3}
    a93c:	e1a0400d 	mov	r4, sp
    a940:	e3e03000 	mvn	r3, #0	; 0x0
    a944:	e58d3000 	str	r3, [sp]
    a948:	e59d1040 	ldr	r1, [sp, #64]
    a94c:	e1a00005 	mov	r0, r5
    a950:	ebffff80 	bl	a758 <get_eit_entry>
    a954:	e1a02005 	mov	r2, r5
    a958:	e3a0100c 	mov	r1, #12	; 0xc
    a95c:	e3500000 	cmp	r0, #0	; 0x0
    a960:	e1a0000d 	mov	r0, sp
    a964:	1a00000f 	bne	a9a8 <__gnu_Unwind_Backtrace+0xb0>
    a968:	ebfffe49 	bl	a294 <_Unwind_SetGR>
    a96c:	e1a01006 	mov	r1, r6
    a970:	e1a0000d 	mov	r0, sp
    a974:	e12fff37 	blx	r7
    a978:	e1a01005 	mov	r1, r5
    a97c:	e1a0200d 	mov	r2, sp
    a980:	e3500000 	cmp	r0, #0	; 0x0
    a984:	e3a00008 	mov	r0, #8	; 0x8
    a988:	1a000006 	bne	a9a8 <__gnu_Unwind_Backtrace+0xb0>
    a98c:	e1a0e00f 	mov	lr, pc
    a990:	e59df250 	ldr	pc, [sp, #592]
    a994:	e3500009 	cmp	r0, #9	; 0x9
    a998:	13500005 	cmpne	r0, #5	; 0x5
    a99c:	e1a08000 	mov	r8, r0
    a9a0:	1affffe8 	bne	a948 <__gnu_Unwind_Backtrace+0x50>
    a9a4:	ea000000 	b	a9ac <__gnu_Unwind_Backtrace+0xb4>
    a9a8:	e3a08009 	mov	r8, #9	; 0x9
    a9ac:	e1a0000d 	mov	r0, sp
    a9b0:	ebffffb5 	bl	a88c <restore_non_core_regs>
    a9b4:	e1a00008 	mov	r0, r8
    a9b8:	e28ddfa6 	add	sp, sp, #664	; 0x298
    a9bc:	e8bd81f0 	pop	{r4, r5, r6, r7, r8, pc}

0000a9c0 <unwind_phase2_forced>:
    a9c0:	e92d4ff0 	push	{r4, r5, r6, r7, r8, r9, sl, fp, lr}
    a9c4:	e281e004 	add	lr, r1, #4	; 0x4
    a9c8:	e1a04000 	mov	r4, r0
    a9cc:	e24ddd12 	sub	sp, sp, #1152	; 0x480
    a9d0:	e1a05002 	mov	r5, r2
    a9d4:	e8be000f 	ldm	lr!, {r0, r1, r2, r3}
    a9d8:	e24dd00c 	sub	sp, sp, #12	; 0xc
    a9dc:	e28dcf93 	add	ip, sp, #588	; 0x24c
    a9e0:	e8ac000f 	stmia	ip!, {r0, r1, r2, r3}
    a9e4:	e8be000f 	ldm	lr!, {r0, r1, r2, r3}
    a9e8:	e8ac000f 	stmia	ip!, {r0, r1, r2, r3}
    a9ec:	e8be000f 	ldm	lr!, {r0, r1, r2, r3}
    a9f0:	e8ac000f 	stmia	ip!, {r0, r1, r2, r3}
    a9f4:	e89e000f 	ldm	lr, {r0, r1, r2, r3}
    a9f8:	e3a0e000 	mov	lr, #0	; 0x0
    a9fc:	e1a0800e 	mov	r8, lr
    aa00:	e28d7008 	add	r7, sp, #8	; 0x8
    aa04:	e28d6f92 	add	r6, sp, #584	; 0x248
    aa08:	e594900c 	ldr	r9, [r4, #12]
    aa0c:	e594b018 	ldr	fp, [r4, #24]
    aa10:	e88c000f 	stm	ip, {r0, r1, r2, r3}
    aa14:	e58de248 	str	lr, [sp, #584]
    aa18:	e1a00004 	mov	r0, r4
    aa1c:	e59d1288 	ldr	r1, [sp, #648]
    aa20:	ebffff4c 	bl	a758 <get_eit_entry>
    aa24:	e3550000 	cmp	r5, #0	; 0x0
    aa28:	03a0a009 	moveq	sl, #9	; 0x9
    aa2c:	13a0a00a 	movne	sl, #10	; 0xa
    aa30:	e2505000 	subs	r5, r0, #0	; 0x0
    aa34:	138aa010 	orrne	sl, sl, #16	; 0x10
    aa38:	159d3280 	ldrne	r3, [sp, #640]
    aa3c:	1a00000c 	bne	aa74 <unwind_phase2_forced+0xb4>
    aa40:	e59d3288 	ldr	r3, [sp, #648]
    aa44:	e5843014 	str	r3, [r4, #20]
    aa48:	e1a01006 	mov	r1, r6
    aa4c:	e3a02d09 	mov	r2, #576	; 0x240
    aa50:	e1a00007 	mov	r0, r7
    aa54:	ebfff825 	bl	8af0 <memcpy>
    aa58:	e1a0000a 	mov	r0, sl
    aa5c:	e1a01004 	mov	r1, r4
    aa60:	e1a02007 	mov	r2, r7
    aa64:	e1a0e00f 	mov	lr, pc
    aa68:	e594f010 	ldr	pc, [r4, #16]
    aa6c:	e59d3040 	ldr	r3, [sp, #64]
    aa70:	e1a08000 	mov	r8, r0
    aa74:	e58d328c 	str	r3, [sp, #652]
    aa78:	e88d0840 	stm	sp, {r6, fp}
    aa7c:	e1a0100a 	mov	r1, sl
    aa80:	e3a00001 	mov	r0, #1	; 0x1
    aa84:	e1a02004 	mov	r2, r4
    aa88:	e1a03004 	mov	r3, r4
    aa8c:	e12fff39 	blx	r9
    aa90:	e3500000 	cmp	r0, #0	; 0x0
    aa94:	1a00000b 	bne	aac8 <unwind_phase2_forced+0x108>
    aa98:	e3550000 	cmp	r5, #0	; 0x0
    aa9c:	1a00000a 	bne	aacc <unwind_phase2_forced+0x10c>
    aaa0:	e1a00006 	mov	r0, r6
    aaa4:	e1a01007 	mov	r1, r7
    aaa8:	e3a02d09 	mov	r2, #576	; 0x240
    aaac:	ebfff80f 	bl	8af0 <memcpy>
    aab0:	e3580008 	cmp	r8, #8	; 0x8
    aab4:	0affffd7 	beq	aa18 <unwind_phase2_forced+0x58>
    aab8:	e3580007 	cmp	r8, #7	; 0x7
    aabc:	1a000001 	bne	aac8 <unwind_phase2_forced+0x108>
    aac0:	e28d0f93 	add	r0, sp, #588	; 0x24c
    aac4:	eb000148 	bl	afec <__restore_core_regs>
    aac8:	e3a05009 	mov	r5, #9	; 0x9
    aacc:	e1a00005 	mov	r0, r5
    aad0:	e28dd08c 	add	sp, sp, #140	; 0x8c
    aad4:	e28ddb01 	add	sp, sp, #1024	; 0x400
    aad8:	e8bd8ff0 	pop	{r4, r5, r6, r7, r8, r9, sl, fp, pc}

0000aadc <__gnu_Unwind_ForcedUnwind>:
    aadc:	e580100c 	str	r1, [r0, #12]
    aae0:	e5802018 	str	r2, [r0, #24]
    aae4:	e593203c 	ldr	r2, [r3, #60]
    aae8:	e5832040 	str	r2, [r3, #64]
    aaec:	e1a01003 	mov	r1, r3
    aaf0:	e3a02000 	mov	r2, #0	; 0x0
    aaf4:	eaffffb1 	b	a9c0 <unwind_phase2_forced>

0000aaf8 <unwind_phase2>:
    aaf8:	e92d4070 	push	{r4, r5, r6, lr}
    aafc:	e1a05000 	mov	r5, r0
    ab00:	e1a04001 	mov	r4, r1
    ab04:	e1a00005 	mov	r0, r5
    ab08:	e5941040 	ldr	r1, [r4, #64]
    ab0c:	ebffff11 	bl	a758 <get_eit_entry>
    ab10:	e3500000 	cmp	r0, #0	; 0x0
    ab14:	1a00000a 	bne	ab44 <unwind_phase2+0x4c>
    ab18:	e5943040 	ldr	r3, [r4, #64]
    ab1c:	e5853014 	str	r3, [r5, #20]
    ab20:	e3a00001 	mov	r0, #1	; 0x1
    ab24:	e1a01005 	mov	r1, r5
    ab28:	e1a02004 	mov	r2, r4
    ab2c:	e1a0e00f 	mov	lr, pc
    ab30:	e595f010 	ldr	pc, [r5, #16]
    ab34:	e3500008 	cmp	r0, #8	; 0x8
    ab38:	0afffff1 	beq	ab04 <unwind_phase2+0xc>
    ab3c:	e3500007 	cmp	r0, #7	; 0x7
    ab40:	0a000000 	beq	ab48 <unwind_phase2+0x50>
    ab44:	fa003e42 	blx	1a454 <abort>
    ab48:	e2840004 	add	r0, r4, #4	; 0x4
    ab4c:	eb000126 	bl	afec <__restore_core_regs>

0000ab50 <__gnu_Unwind_RaiseException>:
    ab50:	e92d40f0 	push	{r4, r5, r6, r7, lr}
    ab54:	e591303c 	ldr	r3, [r1, #60]
    ab58:	e281e004 	add	lr, r1, #4	; 0x4
    ab5c:	e5813040 	str	r3, [r1, #64]
    ab60:	e1a04001 	mov	r4, r1
    ab64:	e1a05000 	mov	r5, r0
    ab68:	e8be000f 	ldm	lr!, {r0, r1, r2, r3}
    ab6c:	e24ddf91 	sub	sp, sp, #580	; 0x244
    ab70:	e28dc004 	add	ip, sp, #4	; 0x4
    ab74:	e8ac000f 	stmia	ip!, {r0, r1, r2, r3}
    ab78:	e8be000f 	ldm	lr!, {r0, r1, r2, r3}
    ab7c:	e8ac000f 	stmia	ip!, {r0, r1, r2, r3}
    ab80:	e8be000f 	ldm	lr!, {r0, r1, r2, r3}
    ab84:	e8ac000f 	stmia	ip!, {r0, r1, r2, r3}
    ab88:	e89e000f 	ldm	lr, {r0, r1, r2, r3}
    ab8c:	e28d6d09 	add	r6, sp, #576	; 0x240
    ab90:	e88c000f 	stm	ip, {r0, r1, r2, r3}
    ab94:	e3e03000 	mvn	r3, #0	; 0x0
    ab98:	e5263240 	str	r3, [r6, #-576]!
    ab9c:	e1a00005 	mov	r0, r5
    aba0:	e59d1040 	ldr	r1, [sp, #64]
    aba4:	ebfffeeb 	bl	a758 <get_eit_entry>
    aba8:	e3500000 	cmp	r0, #0	; 0x0
    abac:	1a00000d 	bne	abe8 <__gnu_Unwind_RaiseException+0x98>
    abb0:	e1a01005 	mov	r1, r5
    abb4:	e1a0200d 	mov	r2, sp
    abb8:	e1a0e00f 	mov	lr, pc
    abbc:	e595f010 	ldr	pc, [r5, #16]
    abc0:	e3500008 	cmp	r0, #8	; 0x8
    abc4:	e1a07000 	mov	r7, r0
    abc8:	0afffff3 	beq	ab9c <__gnu_Unwind_RaiseException+0x4c>
    abcc:	e1a0000d 	mov	r0, sp
    abd0:	ebffff2d 	bl	a88c <restore_non_core_regs>
    abd4:	e3570006 	cmp	r7, #6	; 0x6
    abd8:	1a000002 	bne	abe8 <__gnu_Unwind_RaiseException+0x98>
    abdc:	e1a00005 	mov	r0, r5
    abe0:	e1a01004 	mov	r1, r4
    abe4:	ebffffc3 	bl	aaf8 <unwind_phase2>
    abe8:	e3a00009 	mov	r0, #9	; 0x9
    abec:	e28ddf91 	add	sp, sp, #580	; 0x244
    abf0:	e8bd80f0 	pop	{r4, r5, r6, r7, pc}

0000abf4 <__gnu_Unwind_Resume_or_Rethrow>:
    abf4:	e590200c 	ldr	r2, [r0, #12]
    abf8:	e3520000 	cmp	r2, #0	; 0x0
    abfc:	1a000000 	bne	ac04 <__gnu_Unwind_Resume_or_Rethrow+0x10>
    ac00:	eaffffd2 	b	ab50 <__gnu_Unwind_RaiseException>
    ac04:	e591203c 	ldr	r2, [r1, #60]
    ac08:	e5812040 	str	r2, [r1, #64]
    ac0c:	e3a02000 	mov	r2, #0	; 0x0
    ac10:	eaffff6a 	b	a9c0 <unwind_phase2_forced>

0000ac14 <__gnu_Unwind_Resume>:
    ac14:	e5903014 	ldr	r3, [r0, #20]
    ac18:	e5813040 	str	r3, [r1, #64]
    ac1c:	e590300c 	ldr	r3, [r0, #12]
    ac20:	e92d4070 	push	{r4, r5, r6, lr}
    ac24:	e3530000 	cmp	r3, #0	; 0x0
    ac28:	e1a04000 	mov	r4, r0
    ac2c:	e1a05001 	mov	r5, r1
    ac30:	0a000002 	beq	ac40 <__gnu_Unwind_Resume+0x2c>
    ac34:	e3a02001 	mov	r2, #1	; 0x1
    ac38:	ebffff60 	bl	a9c0 <unwind_phase2_forced>
    ac3c:	ea00000e 	b	ac7c <__gnu_Unwind_Resume+0x68>
    ac40:	e3a00002 	mov	r0, #2	; 0x2
    ac44:	e1a01004 	mov	r1, r4
    ac48:	e1a02005 	mov	r2, r5
    ac4c:	e1a0e00f 	mov	lr, pc
    ac50:	e594f010 	ldr	pc, [r4, #16]
    ac54:	e3500007 	cmp	r0, #7	; 0x7
    ac58:	0a000002 	beq	ac68 <__gnu_Unwind_Resume+0x54>
    ac5c:	e3500008 	cmp	r0, #8	; 0x8
    ac60:	1a000005 	bne	ac7c <__gnu_Unwind_Resume+0x68>
    ac64:	ea000001 	b	ac70 <__gnu_Unwind_Resume+0x5c>
    ac68:	e2850004 	add	r0, r5, #4	; 0x4
    ac6c:	eb0000de 	bl	afec <__restore_core_regs>
    ac70:	e1a00004 	mov	r0, r4
    ac74:	e1a01005 	mov	r1, r5
    ac78:	ebffff9e 	bl	aaf8 <unwind_phase2>
    ac7c:	fa003df4 	blx	1a454 <abort>

0000ac80 <_Unwind_VRS_Pop>:
    ac80:	e92d45f0 	push	{r4, r5, r6, r7, r8, sl, lr}
    ac84:	e1a04000 	mov	r4, r0
    ac88:	e24ddf67 	sub	sp, sp, #412	; 0x19c
    ac8c:	e1a05002 	mov	r5, r2
    ac90:	e3510004 	cmp	r1, #4	; 0x4
    ac94:	979ff101 	ldrls	pc, [pc, r1, lsl #2]
    ac98:	ea0000ce 	b	afd8 <_Unwind_VRS_Pop+0x358>
    ac9c:	0000acb8 	.word	0x0000acb8
    aca0:	0000acfc 	.word	0x0000acfc
    aca4:	0000acb0 	.word	0x0000acb0
    aca8:	0000aee8 	.word	0x0000aee8
    acac:	0000af74 	.word	0x0000af74
    acb0:	e3a00001 	mov	r0, #1	; 0x1
    acb4:	ea0000ca 	b	afe4 <_Unwind_VRS_Pop+0x364>
    acb8:	e3530000 	cmp	r3, #0	; 0x0
    acbc:	1a0000c5 	bne	afd8 <_Unwind_VRS_Pop+0x358>
    acc0:	e1a00802 	lsl	r0, r2, #16
    acc4:	e5942038 	ldr	r2, [r4, #56]
    acc8:	e1a00820 	lsr	r0, r0, #16
    accc:	e3a01001 	mov	r1, #1	; 0x1
    acd0:	e010c311 	ands	ip, r0, r1, lsl r3
    acd4:	e084c103 	add	ip, r4, r3, lsl #2
    acd8:	14925004 	ldrne	r5, [r2], #4
    acdc:	e2833001 	add	r3, r3, #1	; 0x1
    ace0:	158c5004 	strne	r5, [ip, #4]
    ace4:	e3530010 	cmp	r3, #16	; 0x10
    ace8:	1afffff8 	bne	acd0 <_Unwind_VRS_Pop+0x50>
    acec:	e2100a02 	ands	r0, r0, #8192	; 0x2000
    acf0:	05842038 	streq	r2, [r4, #56]
    acf4:	0a0000ba 	beq	afe4 <_Unwind_VRS_Pop+0x364>
    acf8:	ea0000b8 	b	afe0 <_Unwind_VRS_Pop+0x360>
    acfc:	e2531005 	subs	r1, r3, #5	; 0x5
    ad00:	13a01001 	movne	r1, #1	; 0x1
    ad04:	e3530001 	cmp	r3, #1	; 0x1
    ad08:	13530005 	cmpne	r3, #5	; 0x5
    ad0c:	1a0000b1 	bne	afd8 <_Unwind_VRS_Pop+0x358>
    ad10:	e1a08802 	lsl	r8, r2, #16
    ad14:	e3530001 	cmp	r3, #1	; 0x1
    ad18:	e1a08828 	lsr	r8, r8, #16
    ad1c:	e1a05822 	lsr	r5, r2, #16
    ad20:	03a00010 	moveq	r0, #16	; 0x10
    ad24:	13a00020 	movne	r0, #32	; 0x20
    ad28:	e0882005 	add	r2, r8, r5
    ad2c:	e1520000 	cmp	r2, r0
    ad30:	8a0000a8 	bhi	afd8 <_Unwind_VRS_Pop+0x358>
    ad34:	e3530001 	cmp	r3, #1	; 0x1
    ad38:	13a07000 	movne	r7, #0	; 0x0
    ad3c:	03a07001 	moveq	r7, #1	; 0x1
    ad40:	e355000f 	cmp	r5, #15	; 0xf
    ad44:	93a06000 	movls	r6, #0	; 0x0
    ad48:	83a06001 	movhi	r6, #1	; 0x1
    ad4c:	e1160007 	tst	r6, r7
    ad50:	1a0000a0 	bne	afd8 <_Unwind_VRS_Pop+0x358>
    ad54:	e3560000 	cmp	r6, #0	; 0x0
    ad58:	11a06008 	movne	r6, r8
    ad5c:	1a000001 	bne	ad68 <_Unwind_VRS_Pop+0xe8>
    ad60:	e3520010 	cmp	r2, #16	; 0x10
    ad64:	82426010 	subhi	r6, r2, #16	; 0x10
    ad68:	e256a000 	subs	sl, r6, #0	; 0x0
    ad6c:	13a0a001 	movne	sl, #1	; 0x1
    ad70:	e11a0001 	tst	sl, r1
    ad74:	1a000097 	bne	afd8 <_Unwind_VRS_Pop+0x358>
    ad78:	e355000f 	cmp	r5, #15	; 0xf
    ad7c:	8a00000e 	bhi	adbc <_Unwind_VRS_Pop+0x13c>
    ad80:	e5942000 	ldr	r2, [r4]
    ad84:	e3120001 	tst	r2, #1	; 0x1
    ad88:	0a00000b 	beq	adbc <_Unwind_VRS_Pop+0x13c>
    ad8c:	e3530005 	cmp	r3, #5	; 0x5
    ad90:	e1a00004 	mov	r0, r4
    ad94:	e3c23001 	bic	r3, r2, #1	; 0x1
    ad98:	e4803048 	str	r3, [r0], #72
    ad9c:	1a000003 	bne	adb0 <_Unwind_VRS_Pop+0x130>
    ada0:	e3833002 	orr	r3, r3, #2	; 0x2
    ada4:	e5843000 	str	r3, [r4]
    ada8:	eb00009a 	bl	b018 <__gnu_Unwind_Save_VFP_D>
    adac:	ea000002 	b	adbc <_Unwind_VRS_Pop+0x13c>
    adb0:	e3c22003 	bic	r2, r2, #3	; 0x3
    adb4:	e5842000 	str	r2, [r4]
    adb8:	eb000092 	bl	b008 <__gnu_Unwind_Save_VFP>
    adbc:	e3560000 	cmp	r6, #0	; 0x0
    adc0:	da000006 	ble	ade0 <_Unwind_VRS_Pop+0x160>
    adc4:	e5943000 	ldr	r3, [r4]
    adc8:	e3130004 	tst	r3, #4	; 0x4
    adcc:	0a000003 	beq	ade0 <_Unwind_VRS_Pop+0x160>
    add0:	e3c33004 	bic	r3, r3, #4	; 0x4
    add4:	e1a00004 	mov	r0, r4
    add8:	e48030d0 	str	r3, [r0], #208
    addc:	eb000091 	bl	b028 <__gnu_Unwind_Save_VFP_D_16_to_31>
    ade0:	e3570000 	cmp	r7, #0	; 0x0
    ade4:	0a000002 	beq	adf4 <_Unwind_VRS_Pop+0x174>
    ade8:	e1a0000d 	mov	r0, sp
    adec:	eb000085 	bl	b008 <__gnu_Unwind_Save_VFP>
    adf0:	ea000007 	b	ae14 <_Unwind_VRS_Pop+0x194>
    adf4:	e355000f 	cmp	r5, #15	; 0xf
    adf8:	8a000001 	bhi	ae04 <_Unwind_VRS_Pop+0x184>
    adfc:	e1a0000d 	mov	r0, sp
    ae00:	eb000084 	bl	b018 <__gnu_Unwind_Save_VFP_D>
    ae04:	e35a0000 	cmp	sl, #0	; 0x0
    ae08:	0a000003 	beq	ae1c <_Unwind_VRS_Pop+0x19c>
    ae0c:	e28d0f42 	add	r0, sp, #264	; 0x108
    ae10:	eb000084 	bl	b028 <__gnu_Unwind_Save_VFP_D_16_to_31>
    ae14:	e3560000 	cmp	r6, #0	; 0x0
    ae18:	c2658010 	rsbgt	r8, r5, #16	; 0x10
    ae1c:	e5941038 	ldr	r1, [r4, #56]
    ae20:	e3580000 	cmp	r8, #0	; 0x0
    ae24:	e1a03001 	mov	r3, r1
    ae28:	da00000b 	ble	ae5c <_Unwind_VRS_Pop+0x1dc>
    ae2c:	e1a08088 	lsl	r8, r8, #1
    ae30:	e1a0300d 	mov	r3, sp
    ae34:	e0833185 	add	r3, r3, r5, lsl #3
    ae38:	e1a00008 	mov	r0, r8
    ae3c:	e3a02000 	mov	r2, #0	; 0x0
    ae40:	ea000002 	b	ae50 <_Unwind_VRS_Pop+0x1d0>
    ae44:	e792c001 	ldr	ip, [r2, r1]
    ae48:	e783c002 	str	ip, [r3, r2]
    ae4c:	e2822004 	add	r2, r2, #4	; 0x4
    ae50:	e2500001 	subs	r0, r0, #1	; 0x1
    ae54:	2afffffa 	bcs	ae44 <_Unwind_VRS_Pop+0x1c4>
    ae58:	e0813108 	add	r3, r1, r8, lsl #2
    ae5c:	e3560000 	cmp	r6, #0	; 0x0
    ae60:	da00000f 	ble	aea4 <_Unwind_VRS_Pop+0x224>
    ae64:	e3550010 	cmp	r5, #16	; 0x10
    ae68:	21a0c005 	movcs	ip, r5
    ae6c:	33a0c010 	movcc	ip, #16	; 0x10
    ae70:	e28d2f42 	add	r2, sp, #264	; 0x108
    ae74:	e24cc010 	sub	ip, ip, #16	; 0x10
    ae78:	e1a00086 	lsl	r0, r6, #1
    ae7c:	e082c18c 	add	ip, r2, ip, lsl #3
    ae80:	e1a01000 	mov	r1, r0
    ae84:	e3a02000 	mov	r2, #0	; 0x0
    ae88:	ea000002 	b	ae98 <_Unwind_VRS_Pop+0x218>
    ae8c:	e7938002 	ldr	r8, [r3, r2]
    ae90:	e78c8002 	str	r8, [ip, r2]
    ae94:	e2822004 	add	r2, r2, #4	; 0x4
    ae98:	e2511001 	subs	r1, r1, #1	; 0x1
    ae9c:	2afffffa 	bcs	ae8c <_Unwind_VRS_Pop+0x20c>
    aea0:	e0833100 	add	r3, r3, r0, lsl #2
    aea4:	e3570000 	cmp	r7, #0	; 0x0
    aea8:	12833004 	addne	r3, r3, #4	; 0x4
    aeac:	e3570000 	cmp	r7, #0	; 0x0
    aeb0:	e5843038 	str	r3, [r4, #56]
    aeb4:	0a000002 	beq	aec4 <_Unwind_VRS_Pop+0x244>
    aeb8:	e1a0000d 	mov	r0, sp
    aebc:	eb00004f 	bl	b000 <__gnu_Unwind_Restore_VFP>
    aec0:	ea000046 	b	afe0 <_Unwind_VRS_Pop+0x360>
    aec4:	e355000f 	cmp	r5, #15	; 0xf
    aec8:	8a000001 	bhi	aed4 <_Unwind_VRS_Pop+0x254>
    aecc:	e1a0000d 	mov	r0, sp
    aed0:	eb00004e 	bl	b010 <__gnu_Unwind_Restore_VFP_D>
    aed4:	e3560000 	cmp	r6, #0	; 0x0
    aed8:	da000040 	ble	afe0 <_Unwind_VRS_Pop+0x360>
    aedc:	e28d0f42 	add	r0, sp, #264	; 0x108
    aee0:	eb00004e 	bl	b020 <__gnu_Unwind_Restore_VFP_D_16_to_31>
    aee4:	ea00003d 	b	afe0 <_Unwind_VRS_Pop+0x360>
    aee8:	e3530003 	cmp	r3, #3	; 0x3
    aeec:	1a000039 	bne	afd8 <_Unwind_VRS_Pop+0x358>
    aef0:	e1a07802 	lsl	r7, r2, #16
    aef4:	e1a07827 	lsr	r7, r7, #16
    aef8:	e1a05822 	lsr	r5, r2, #16
    aefc:	e0873005 	add	r3, r7, r5
    af00:	e3530010 	cmp	r3, #16	; 0x10
    af04:	8a000033 	bhi	afd8 <_Unwind_VRS_Pop+0x358>
    af08:	e5903000 	ldr	r3, [r0]
    af0c:	e3130008 	tst	r3, #8	; 0x8
    af10:	0a000002 	beq	af20 <_Unwind_VRS_Pop+0x2a0>
    af14:	e3c33008 	bic	r3, r3, #8	; 0x8
    af18:	e48031b0 	str	r3, [r0], #432
    af1c:	eb000054 	bl	b074 <__gnu_Unwind_Save_WMMXD>
    af20:	e28d6088 	add	r6, sp, #136	; 0x88
    af24:	e1a00006 	mov	r0, r6
    af28:	e1a07087 	lsl	r7, r7, #1
    af2c:	eb000050 	bl	b074 <__gnu_Unwind_Save_WMMXD>
    af30:	e0865185 	add	r5, r6, r5, lsl #3
    af34:	e5942038 	ldr	r2, [r4, #56]
    af38:	e1a06007 	mov	r6, r7
    af3c:	e3a03000 	mov	r3, #0	; 0x0
    af40:	ea000003 	b	af54 <_Unwind_VRS_Pop+0x2d4>
    af44:	e7931002 	ldr	r1, [r3, r2]
    af48:	e7851003 	str	r1, [r5, r3]
    af4c:	e2466001 	sub	r6, r6, #1	; 0x1
    af50:	e2833004 	add	r3, r3, #4	; 0x4
    af54:	e3560000 	cmp	r6, #0	; 0x0
    af58:	1afffff9 	bne	af44 <_Unwind_VRS_Pop+0x2c4>
    af5c:	e0827107 	add	r7, r2, r7, lsl #2
    af60:	e28d0088 	add	r0, sp, #136	; 0x88
    af64:	e5847038 	str	r7, [r4, #56]
    af68:	eb000030 	bl	b030 <__gnu_Unwind_Restore_WMMXD>
    af6c:	e1a00006 	mov	r0, r6
    af70:	ea00001b 	b	afe4 <_Unwind_VRS_Pop+0x364>
    af74:	e3520010 	cmp	r2, #16	; 0x10
    af78:	93530000 	cmpls	r3, #0	; 0x0
    af7c:	1a000015 	bne	afd8 <_Unwind_VRS_Pop+0x358>
    af80:	e5903000 	ldr	r3, [r0]
    af84:	e3130010 	tst	r3, #16	; 0x10
    af88:	0a000002 	beq	af98 <_Unwind_VRS_Pop+0x318>
    af8c:	e3c33010 	bic	r3, r3, #16	; 0x10
    af90:	e4803230 	str	r3, [r0], #560
    af94:	eb00004c 	bl	b0cc <__gnu_Unwind_Save_WMMXC>
    af98:	e28d6f62 	add	r6, sp, #392	; 0x188
    af9c:	e1a00006 	mov	r0, r6
    afa0:	eb000049 	bl	b0cc <__gnu_Unwind_Save_WMMXC>
    afa4:	e5942038 	ldr	r2, [r4, #56]
    afa8:	e3a03000 	mov	r3, #0	; 0x0
    afac:	e3a01001 	mov	r1, #1	; 0x1
    afb0:	e0150311 	ands	r0, r5, r1, lsl r3
    afb4:	14920004 	ldrne	r0, [r2], #4
    afb8:	17860103 	strne	r0, [r6, r3, lsl #2]
    afbc:	e2833001 	add	r3, r3, #1	; 0x1
    afc0:	e3530004 	cmp	r3, #4	; 0x4
    afc4:	1afffff9 	bne	afb0 <_Unwind_VRS_Pop+0x330>
    afc8:	e5842038 	str	r2, [r4, #56]
    afcc:	e28d0f62 	add	r0, sp, #392	; 0x188
    afd0:	eb000038 	bl	b0b8 <__gnu_Unwind_Restore_WMMXC>
    afd4:	ea000001 	b	afe0 <_Unwind_VRS_Pop+0x360>
    afd8:	e3a00002 	mov	r0, #2	; 0x2
    afdc:	ea000000 	b	afe4 <_Unwind_VRS_Pop+0x364>
    afe0:	e3a00000 	mov	r0, #0	; 0x0
    afe4:	e28ddf67 	add	sp, sp, #412	; 0x19c
    afe8:	e8bd85f0 	pop	{r4, r5, r6, r7, r8, sl, pc}

0000afec <__restore_core_regs>:
    afec:	e2801034 	add	r1, r0, #52	; 0x34
    aff0:	e8910038 	ldm	r1, {r3, r4, r5}
    aff4:	e92d0038 	push	{r3, r4, r5}
    aff8:	e8900fff 	ldm	r0, {r0, r1, r2, r3, r4, r5, r6, r7, r8, r9, sl, fp}
    affc:	e89de000 	ldm	sp, {sp, lr, pc}

0000b000 <__gnu_Unwind_Restore_VFP>:
    b000:	ec900b21 	fldmiax	r0, {d0-d15}
    b004:	e12fff1e 	bx	lr

0000b008 <__gnu_Unwind_Save_VFP>:
    b008:	ec800b21 	fstmiax	r0, {d0-d15}
    b00c:	e12fff1e 	bx	lr

0000b010 <__gnu_Unwind_Restore_VFP_D>:
    b010:	ec900b20 	vldmia	r0, {d0-d15}
    b014:	e12fff1e 	bx	lr

0000b018 <__gnu_Unwind_Save_VFP_D>:
    b018:	ec800b20 	vstmia	r0, {d0-d15}
    b01c:	e12fff1e 	bx	lr

0000b020 <__gnu_Unwind_Restore_VFP_D_16_to_31>:
    b020:	ecd00b20 	vldmia	r0, {d16-d31}
    b024:	e12fff1e 	bx	lr

0000b028 <__gnu_Unwind_Save_VFP_D_16_to_31>:
    b028:	ecc00b20 	vstmia	r0, {d16-d31}
    b02c:	e12fff1e 	bx	lr

0000b030 <__gnu_Unwind_Restore_WMMXD>:
    b030:	ecf00102 	ldfe	f0, [r0], #8
    b034:	ecf01102 	ldfe	f1, [r0], #8
    b038:	ecf02102 	ldfe	f2, [r0], #8
    b03c:	ecf03102 	ldfe	f3, [r0], #8
    b040:	ecf04102 	ldfe	f4, [r0], #8
    b044:	ecf05102 	ldfe	f5, [r0], #8
    b048:	ecf06102 	ldfe	f6, [r0], #8
    b04c:	ecf07102 	ldfe	f7, [r0], #8
    b050:	ecf08102 	ldfp	f0, [r0], #8
    b054:	ecf09102 	ldfp	f1, [r0], #8
    b058:	ecf0a102 	ldfp	f2, [r0], #8
    b05c:	ecf0b102 	ldfp	f3, [r0], #8
    b060:	ecf0c102 	ldfp	f4, [r0], #8
    b064:	ecf0d102 	ldfp	f5, [r0], #8
    b068:	ecf0e102 	ldfp	f6, [r0], #8
    b06c:	ecf0f102 	ldfp	f7, [r0], #8
    b070:	e12fff1e 	bx	lr

0000b074 <__gnu_Unwind_Save_WMMXD>:
    b074:	ece00102 	stfe	f0, [r0], #8
    b078:	ece01102 	stfe	f1, [r0], #8
    b07c:	ece02102 	stfe	f2, [r0], #8
    b080:	ece03102 	stfe	f3, [r0], #8
    b084:	ece04102 	stfe	f4, [r0], #8
    b088:	ece05102 	stfe	f5, [r0], #8
    b08c:	ece06102 	stfe	f6, [r0], #8
    b090:	ece07102 	stfe	f7, [r0], #8
    b094:	ece08102 	stfp	f0, [r0], #8
    b098:	ece09102 	stfp	f1, [r0], #8
    b09c:	ece0a102 	stfp	f2, [r0], #8
    b0a0:	ece0b102 	stfp	f3, [r0], #8
    b0a4:	ece0c102 	stfp	f4, [r0], #8
    b0a8:	ece0d102 	stfp	f5, [r0], #8
    b0ac:	ece0e102 	stfp	f6, [r0], #8
    b0b0:	ece0f102 	stfp	f7, [r0], #8
    b0b4:	e12fff1e 	bx	lr

0000b0b8 <__gnu_Unwind_Restore_WMMXC>:
    b0b8:	fcb08101 	ldc2	1, cr8, [r0], #4
    b0bc:	fcb09101 	ldc2	1, cr9, [r0], #4
    b0c0:	fcb0a101 	ldc2	1, cr10, [r0], #4
    b0c4:	fcb0b101 	ldc2	1, cr11, [r0], #4
    b0c8:	e12fff1e 	bx	lr

0000b0cc <__gnu_Unwind_Save_WMMXC>:
    b0cc:	fca08101 	stc2	1, cr8, [r0], #4
    b0d0:	fca09101 	stc2	1, cr9, [r0], #4
    b0d4:	fca0a101 	stc2	1, cr10, [r0], #4
    b0d8:	fca0b101 	stc2	1, cr11, [r0], #4
    b0dc:	e12fff1e 	bx	lr

0000b0e0 <_Unwind_RaiseException>:
    b0e0:	e92de000 	push	{sp, lr, pc}
    b0e4:	e92d1fff 	push	{r0, r1, r2, r3, r4, r5, r6, r7, r8, r9, sl, fp, ip}
    b0e8:	e3a03000 	mov	r3, #0	; 0x0
    b0ec:	e92d000c 	push	{r2, r3}
    b0f0:	e28d1004 	add	r1, sp, #4	; 0x4
    b0f4:	ebfffe95 	bl	ab50 <__gnu_Unwind_RaiseException>
    b0f8:	e59de040 	ldr	lr, [sp, #64]
    b0fc:	e28dd048 	add	sp, sp, #72	; 0x48
    b100:	e12fff1e 	bx	lr

0000b104 <_Unwind_Resume>:
    b104:	e92de000 	push	{sp, lr, pc}
    b108:	e92d1fff 	push	{r0, r1, r2, r3, r4, r5, r6, r7, r8, r9, sl, fp, ip}
    b10c:	e3a03000 	mov	r3, #0	; 0x0
    b110:	e92d000c 	push	{r2, r3}
    b114:	e28d1004 	add	r1, sp, #4	; 0x4
    b118:	ebfffebd 	bl	ac14 <__gnu_Unwind_Resume>
    b11c:	e59de040 	ldr	lr, [sp, #64]
    b120:	e28dd048 	add	sp, sp, #72	; 0x48
    b124:	e12fff1e 	bx	lr

0000b128 <_Unwind_Resume_or_Rethrow>:
    b128:	e92de000 	push	{sp, lr, pc}
    b12c:	e92d1fff 	push	{r0, r1, r2, r3, r4, r5, r6, r7, r8, r9, sl, fp, ip}
    b130:	e3a03000 	mov	r3, #0	; 0x0
    b134:	e92d000c 	push	{r2, r3}
    b138:	e28d1004 	add	r1, sp, #4	; 0x4
    b13c:	ebfffeac 	bl	abf4 <__gnu_Unwind_Resume_or_Rethrow>
    b140:	e59de040 	ldr	lr, [sp, #64]
    b144:	e28dd048 	add	sp, sp, #72	; 0x48
    b148:	e12fff1e 	bx	lr

0000b14c <_Unwind_ForcedUnwind>:
    b14c:	e92de000 	push	{sp, lr, pc}
    b150:	e92d1fff 	push	{r0, r1, r2, r3, r4, r5, r6, r7, r8, r9, sl, fp, ip}
    b154:	e3a03000 	mov	r3, #0	; 0x0
    b158:	e92d000c 	push	{r2, r3}
    b15c:	e28d3004 	add	r3, sp, #4	; 0x4
    b160:	ebfffe5d 	bl	aadc <__gnu_Unwind_ForcedUnwind>
    b164:	e59de040 	ldr	lr, [sp, #64]
    b168:	e28dd048 	add	sp, sp, #72	; 0x48
    b16c:	e12fff1e 	bx	lr

0000b170 <_Unwind_Backtrace>:
    b170:	e92de000 	push	{sp, lr, pc}
    b174:	e92d1fff 	push	{r0, r1, r2, r3, r4, r5, r6, r7, r8, r9, sl, fp, ip}
    b178:	e3a03000 	mov	r3, #0	; 0x0
    b17c:	e92d000c 	push	{r2, r3}
    b180:	e28d2004 	add	r2, sp, #4	; 0x4
    b184:	ebfffddb 	bl	a8f8 <__gnu_Unwind_Backtrace>
    b188:	e59de040 	ldr	lr, [sp, #64]
    b18c:	e28dd048 	add	sp, sp, #72	; 0x48
    b190:	e12fff1e 	bx	lr

0000b194 <next_unwind_byte>:
    b194:	e5d02008 	ldrb	r2, [r0, #8]
    b198:	e1a03000 	mov	r3, r0
    b19c:	e3520000 	cmp	r2, #0	; 0x0
    b1a0:	1a00000a 	bne	b1d0 <next_unwind_byte+0x3c>
    b1a4:	e5d01009 	ldrb	r1, [r0, #9]
    b1a8:	e3510000 	cmp	r1, #0	; 0x0
    b1ac:	03a000b0 	moveq	r0, #176	; 0xb0
    b1b0:	012fff1e 	bxeq	lr
    b1b4:	e5932004 	ldr	r2, [r3, #4]
    b1b8:	e2411001 	sub	r1, r1, #1	; 0x1
    b1bc:	e5c31009 	strb	r1, [r3, #9]
    b1c0:	e4921004 	ldr	r1, [r2], #4
    b1c4:	e8830006 	stm	r3, {r1, r2}
    b1c8:	e3a02003 	mov	r2, #3	; 0x3
    b1cc:	ea000000 	b	b1d4 <next_unwind_byte+0x40>
    b1d0:	e2422001 	sub	r2, r2, #1	; 0x1
    b1d4:	e5930000 	ldr	r0, [r3]
    b1d8:	e5c32008 	strb	r2, [r3, #8]
    b1dc:	e1a02400 	lsl	r2, r0, #8
    b1e0:	e5832000 	str	r2, [r3]
    b1e4:	e1a00c20 	lsr	r0, r0, #24
    b1e8:	e12fff1e 	bx	lr

0000b1ec <_Unwind_GetTextRelBase>:
    b1ec:	e92d4010 	push	{r4, lr}
    b1f0:	fa003c97 	blx	1a454 <abort>

0000b1f4 <_Unwind_GetDataRelBase>:
    b1f4:	e92d4010 	push	{r4, lr}
    b1f8:	fa003c95 	blx	1a454 <abort>

0000b1fc <_Unwind_GetGR>:
    b1fc:	e92d401f 	push	{r0, r1, r2, r3, r4, lr}
    b200:	e1a02001 	mov	r2, r1
    b204:	e3a01000 	mov	r1, #0	; 0x0
    b208:	e28dc00c 	add	ip, sp, #12	; 0xc
    b20c:	e1a03001 	mov	r3, r1
    b210:	e58dc000 	str	ip, [sp]
    b214:	ebfffbee 	bl	a1d4 <_Unwind_VRS_Get>
    b218:	e59d000c 	ldr	r0, [sp, #12]
    b21c:	e28dd014 	add	sp, sp, #20	; 0x14
    b220:	e8bd8000 	pop	{pc}

0000b224 <unwind_UCB_from_context>:
    b224:	e3a0100c 	mov	r1, #12	; 0xc
    b228:	eafffff3 	b	b1fc <_Unwind_GetGR>

0000b22c <_Unwind_GetLanguageSpecificData>:
    b22c:	e92d4010 	push	{r4, lr}
    b230:	ebfffffb 	bl	b224 <unwind_UCB_from_context>
    b234:	e590304c 	ldr	r3, [r0, #76]
    b238:	e5d32007 	ldrb	r2, [r3, #7]
    b23c:	e0833102 	add	r3, r3, r2, lsl #2
    b240:	e2830008 	add	r0, r3, #8	; 0x8
    b244:	e8bd8010 	pop	{r4, pc}

0000b248 <_Unwind_GetRegionStart>:
    b248:	e92d4010 	push	{r4, lr}
    b24c:	ebfffff4 	bl	b224 <unwind_UCB_from_context>
    b250:	e5900048 	ldr	r0, [r0, #72]
    b254:	e8bd8010 	pop	{r4, pc}

0000b258 <__gnu_unwind_execute>:
    b258:	e92d47ff 	push	{r0, r1, r2, r3, r4, r5, r6, r7, r8, r9, sl, lr}
    b25c:	e1a05000 	mov	r5, r0
    b260:	e1a06001 	mov	r6, r1
    b264:	e3a07000 	mov	r7, #0	; 0x0
    b268:	e28da00c 	add	sl, sp, #12	; 0xc
    b26c:	e3a09eff 	mov	r9, #4080	; 0xff0
    b270:	e1a00006 	mov	r0, r6
    b274:	ebffffc6 	bl	b194 <next_unwind_byte>
    b278:	e35000b0 	cmp	r0, #176	; 0xb0
    b27c:	e1a04000 	mov	r4, r0
    b280:	1a000011 	bne	b2cc <__gnu_unwind_execute+0x74>
    b284:	e3570000 	cmp	r7, #0	; 0x0
    b288:	13a00000 	movne	r0, #0	; 0x0
    b28c:	1a0000cd 	bne	b5c8 <__gnu_unwind_execute+0x370>
    b290:	e28d400c 	add	r4, sp, #12	; 0xc
    b294:	e1a01007 	mov	r1, r7
    b298:	e3a0200e 	mov	r2, #14	; 0xe
    b29c:	e1a03007 	mov	r3, r7
    b2a0:	e1a00005 	mov	r0, r5
    b2a4:	e58d4000 	str	r4, [sp]
    b2a8:	ebfffbc9 	bl	a1d4 <_Unwind_VRS_Get>
    b2ac:	e1a00005 	mov	r0, r5
    b2b0:	e1a01007 	mov	r1, r7
    b2b4:	e3a0200f 	mov	r2, #15	; 0xf
    b2b8:	e1a03007 	mov	r3, r7
    b2bc:	e58d4000 	str	r4, [sp]
    b2c0:	ebfffbe0 	bl	a248 <_Unwind_VRS_Set>
    b2c4:	e1a00007 	mov	r0, r7
    b2c8:	ea0000be 	b	b5c8 <__gnu_unwind_execute+0x370>
    b2cc:	e2101080 	ands	r1, r0, #128	; 0x80
    b2d0:	1a00000e 	bne	b310 <__gnu_unwind_execute+0xb8>
    b2d4:	e1a03001 	mov	r3, r1
    b2d8:	e1a08100 	lsl	r8, r0, #2
    b2dc:	e3a0200d 	mov	r2, #13	; 0xd
    b2e0:	e1a00005 	mov	r0, r5
    b2e4:	e20880ff 	and	r8, r8, #255	; 0xff
    b2e8:	e58da000 	str	sl, [sp]
    b2ec:	ebfffbb8 	bl	a1d4 <_Unwind_VRS_Get>
    b2f0:	e59d300c 	ldr	r3, [sp, #12]
    b2f4:	e2888004 	add	r8, r8, #4	; 0x4
    b2f8:	e3140040 	tst	r4, #64	; 0x40
    b2fc:	10688003 	rsbne	r8, r8, r3
    b300:	00838008 	addeq	r8, r3, r8
    b304:	e58d800c 	str	r8, [sp, #12]
    b308:	e3a01000 	mov	r1, #0	; 0x0
    b30c:	ea000022 	b	b39c <__gnu_unwind_execute+0x144>
    b310:	e20030f0 	and	r3, r0, #240	; 0xf0
    b314:	e3530080 	cmp	r3, #128	; 0x80
    b318:	1a000011 	bne	b364 <__gnu_unwind_execute+0x10c>
    b31c:	e1a00006 	mov	r0, r6
    b320:	ebffff9b 	bl	b194 <next_unwind_byte>
    b324:	e1a04404 	lsl	r4, r4, #8
    b328:	e1804004 	orr	r4, r0, r4
    b32c:	e3540902 	cmp	r4, #32768	; 0x8000
    b330:	0a0000a3 	beq	b5c4 <__gnu_unwind_execute+0x36c>
    b334:	e1a02a04 	lsl	r2, r4, #20
    b338:	e3a01000 	mov	r1, #0	; 0x0
    b33c:	e1a02822 	lsr	r2, r2, #16
    b340:	e1a00005 	mov	r0, r5
    b344:	e1a03001 	mov	r3, r1
    b348:	ebfffe4c 	bl	ac80 <_Unwind_VRS_Pop>
    b34c:	e1a04204 	lsl	r4, r4, #4
    b350:	e3500000 	cmp	r0, #0	; 0x0
    b354:	1a00009a 	bne	b5c4 <__gnu_unwind_execute+0x36c>
    b358:	e3140902 	tst	r4, #32768	; 0x8000
    b35c:	13a07001 	movne	r7, #1	; 0x1
    b360:	eaffffc2 	b	b270 <__gnu_unwind_execute+0x18>
    b364:	e3530090 	cmp	r3, #144	; 0x90
    b368:	1a000011 	bne	b3b4 <__gnu_unwind_execute+0x15c>
    b36c:	e200200f 	and	r2, r0, #15	; 0xf
    b370:	e352000d 	cmp	r2, #13	; 0xd
    b374:	1352000f 	cmpne	r2, #15	; 0xf
    b378:	13a08000 	movne	r8, #0	; 0x0
    b37c:	03a08001 	moveq	r8, #1	; 0x1
    b380:	0a00008f 	beq	b5c4 <__gnu_unwind_execute+0x36c>
    b384:	e1a01008 	mov	r1, r8
    b388:	e1a03008 	mov	r3, r8
    b38c:	e1a00005 	mov	r0, r5
    b390:	e58da000 	str	sl, [sp]
    b394:	ebfffb8e 	bl	a1d4 <_Unwind_VRS_Get>
    b398:	e1a01008 	mov	r1, r8
    b39c:	e1a00005 	mov	r0, r5
    b3a0:	e3a0200d 	mov	r2, #13	; 0xd
    b3a4:	e1a03001 	mov	r3, r1
    b3a8:	e58da000 	str	sl, [sp]
    b3ac:	ebfffba5 	bl	a248 <_Unwind_VRS_Set>
    b3b0:	eaffffae 	b	b270 <__gnu_unwind_execute+0x18>
    b3b4:	e35300a0 	cmp	r3, #160	; 0xa0
    b3b8:	1a000007 	bne	b3dc <__gnu_unwind_execute+0x184>
    b3bc:	e1e02000 	mvn	r2, r0
    b3c0:	e2022007 	and	r2, r2, #7	; 0x7
    b3c4:	e1a02259 	asr	r2, r9, r2
    b3c8:	e3100008 	tst	r0, #8	; 0x8
    b3cc:	e2022eff 	and	r2, r2, #4080	; 0xff0
    b3d0:	13822901 	orrne	r2, r2, #16384	; 0x4000
    b3d4:	e3a01000 	mov	r1, #0	; 0x0
    b3d8:	ea000058 	b	b540 <__gnu_unwind_execute+0x2e8>
    b3dc:	e35300b0 	cmp	r3, #176	; 0xb0
    b3e0:	1a000038 	bne	b4c8 <__gnu_unwind_execute+0x270>
    b3e4:	e35000b1 	cmp	r0, #177	; 0xb1
    b3e8:	1a000006 	bne	b408 <__gnu_unwind_execute+0x1b0>
    b3ec:	e1a00006 	mov	r0, r6
    b3f0:	ebffff67 	bl	b194 <next_unwind_byte>
    b3f4:	e2502000 	subs	r2, r0, #0	; 0x0
    b3f8:	0a000071 	beq	b5c4 <__gnu_unwind_execute+0x36c>
    b3fc:	e21210f0 	ands	r1, r2, #240	; 0xf0
    b400:	0a00004e 	beq	b540 <__gnu_unwind_execute+0x2e8>
    b404:	ea00006e 	b	b5c4 <__gnu_unwind_execute+0x36c>
    b408:	e35000b2 	cmp	r0, #178	; 0xb2
    b40c:	1a000019 	bne	b478 <__gnu_unwind_execute+0x220>
    b410:	e3a01000 	mov	r1, #0	; 0x0
    b414:	e3a0200d 	mov	r2, #13	; 0xd
    b418:	e1a03001 	mov	r3, r1
    b41c:	e1a00005 	mov	r0, r5
    b420:	e58da000 	str	sl, [sp]
    b424:	e3a04002 	mov	r4, #2	; 0x2
    b428:	ebfffb69 	bl	a1d4 <_Unwind_VRS_Get>
    b42c:	e1a00006 	mov	r0, r6
    b430:	ea000002 	b	b440 <__gnu_unwind_execute+0x1e8>
    b434:	e0838418 	add	r8, r3, r8, lsl r4
    b438:	e2844007 	add	r4, r4, #7	; 0x7
    b43c:	e58d800c 	str	r8, [sp, #12]
    b440:	ebffff53 	bl	b194 <next_unwind_byte>
    b444:	e59d300c 	ldr	r3, [sp, #12]
    b448:	e1a08000 	mov	r8, r0
    b44c:	e2181080 	ands	r1, r8, #128	; 0x80
    b450:	e1a00006 	mov	r0, r6
    b454:	e208807f 	and	r8, r8, #127	; 0x7f
    b458:	1afffff5 	bne	b434 <__gnu_unwind_execute+0x1dc>
    b45c:	e2833f81 	add	r3, r3, #516	; 0x204
    b460:	e0838418 	add	r8, r3, r8, lsl r4
    b464:	e1a00005 	mov	r0, r5
    b468:	e3a0200d 	mov	r2, #13	; 0xd
    b46c:	e1a03001 	mov	r3, r1
    b470:	e58d800c 	str	r8, [sp, #12]
    b474:	eaffffcb 	b	b3a8 <__gnu_unwind_execute+0x150>
    b478:	e35000b3 	cmp	r0, #179	; 0xb3
    b47c:	1a000006 	bne	b49c <__gnu_unwind_execute+0x244>
    b480:	e1a00006 	mov	r0, r6
    b484:	ebffff42 	bl	b194 <next_unwind_byte>
    b488:	e3a01001 	mov	r1, #1	; 0x1
    b48c:	e200300f 	and	r3, r0, #15	; 0xf
    b490:	e2833001 	add	r3, r3, #1	; 0x1
    b494:	e20020f0 	and	r2, r0, #240	; 0xf0
    b498:	ea000014 	b	b4f0 <__gnu_unwind_execute+0x298>
    b49c:	e20030fc 	and	r3, r0, #252	; 0xfc
    b4a0:	e35300b4 	cmp	r3, #180	; 0xb4
    b4a4:	02004003 	andeq	r4, r0, #3	; 0x3
    b4a8:	12044007 	andne	r4, r4, #7	; 0x7
    b4ac:	02842001 	addeq	r2, r4, #1	; 0x1
    b4b0:	12842001 	addne	r2, r4, #1	; 0x1
    b4b4:	03a01002 	moveq	r1, #2	; 0x2
    b4b8:	03822701 	orreq	r2, r2, #262144	; 0x40000
    b4bc:	13a01001 	movne	r1, #1	; 0x1
    b4c0:	13822702 	orrne	r2, r2, #524288	; 0x80000
    b4c4:	ea00001d 	b	b540 <__gnu_unwind_execute+0x2e8>
    b4c8:	e35300c0 	cmp	r3, #192	; 0xc0
    b4cc:	1a000030 	bne	b594 <__gnu_unwind_execute+0x33c>
    b4d0:	e35000c6 	cmp	r0, #198	; 0xc6
    b4d4:	1a000007 	bne	b4f8 <__gnu_unwind_execute+0x2a0>
    b4d8:	e1a00006 	mov	r0, r6
    b4dc:	ebffff2c 	bl	b194 <next_unwind_byte>
    b4e0:	e3a01003 	mov	r1, #3	; 0x3
    b4e4:	e200300f 	and	r3, r0, #15	; 0xf
    b4e8:	e2833001 	add	r3, r3, #1	; 0x1
    b4ec:	e20020f0 	and	r2, r0, #240	; 0xf0
    b4f0:	e1832602 	orr	r2, r3, r2, lsl #12
    b4f4:	ea000011 	b	b540 <__gnu_unwind_execute+0x2e8>
    b4f8:	e35000c7 	cmp	r0, #199	; 0xc7
    b4fc:	1a000008 	bne	b524 <__gnu_unwind_execute+0x2cc>
    b500:	e1a00006 	mov	r0, r6
    b504:	ebffff22 	bl	b194 <next_unwind_byte>
    b508:	e2502000 	subs	r2, r0, #0	; 0x0
    b50c:	0a00002c 	beq	b5c4 <__gnu_unwind_execute+0x36c>
    b510:	e21230f0 	ands	r3, r2, #240	; 0xf0
    b514:	1a00002a 	bne	b5c4 <__gnu_unwind_execute+0x36c>
    b518:	e1a00005 	mov	r0, r5
    b51c:	e3a01004 	mov	r1, #4	; 0x4
    b520:	ea000024 	b	b5b8 <__gnu_unwind_execute+0x360>
    b524:	e20030f8 	and	r3, r0, #248	; 0xf8
    b528:	e35300c0 	cmp	r3, #192	; 0xc0
    b52c:	1a000006 	bne	b54c <__gnu_unwind_execute+0x2f4>
    b530:	e200400f 	and	r4, r0, #15	; 0xf
    b534:	e2842001 	add	r2, r4, #1	; 0x1
    b538:	e3a01003 	mov	r1, #3	; 0x3
    b53c:	e382280a 	orr	r2, r2, #655360	; 0xa0000
    b540:	e1a00005 	mov	r0, r5
    b544:	e1a03001 	mov	r3, r1
    b548:	ea00001a 	b	b5b8 <__gnu_unwind_execute+0x360>
    b54c:	e35000c8 	cmp	r0, #200	; 0xc8
    b550:	1a000006 	bne	b570 <__gnu_unwind_execute+0x318>
    b554:	e1a00006 	mov	r0, r6
    b558:	ebffff0d 	bl	b194 <next_unwind_byte>
    b55c:	e200300f 	and	r3, r0, #15	; 0xf
    b560:	e20000f0 	and	r0, r0, #240	; 0xf0
    b564:	e2802010 	add	r2, r0, #16	; 0x10
    b568:	e2833001 	add	r3, r3, #1	; 0x1
    b56c:	ea000006 	b	b58c <__gnu_unwind_execute+0x334>
    b570:	e35000c9 	cmp	r0, #201	; 0xc9
    b574:	1a000012 	bne	b5c4 <__gnu_unwind_execute+0x36c>
    b578:	e1a00006 	mov	r0, r6
    b57c:	ebffff04 	bl	b194 <next_unwind_byte>
    b580:	e200300f 	and	r3, r0, #15	; 0xf
    b584:	e2833001 	add	r3, r3, #1	; 0x1
    b588:	e20020f0 	and	r2, r0, #240	; 0xf0
    b58c:	e1832602 	orr	r2, r3, r2, lsl #12
    b590:	ea000005 	b	b5ac <__gnu_unwind_execute+0x354>
    b594:	e20030f8 	and	r3, r0, #248	; 0xf8
    b598:	e35300d0 	cmp	r3, #208	; 0xd0
    b59c:	1a000008 	bne	b5c4 <__gnu_unwind_execute+0x36c>
    b5a0:	e2004007 	and	r4, r0, #7	; 0x7
    b5a4:	e2842001 	add	r2, r4, #1	; 0x1
    b5a8:	e3822702 	orr	r2, r2, #524288	; 0x80000
    b5ac:	e1a00005 	mov	r0, r5
    b5b0:	e3a01001 	mov	r1, #1	; 0x1
    b5b4:	e3a03005 	mov	r3, #5	; 0x5
    b5b8:	ebfffdb0 	bl	ac80 <_Unwind_VRS_Pop>
    b5bc:	e3500000 	cmp	r0, #0	; 0x0
    b5c0:	0affff2a 	beq	b270 <__gnu_unwind_execute+0x18>
    b5c4:	e3a00009 	mov	r0, #9	; 0x9
    b5c8:	e28dd010 	add	sp, sp, #16	; 0x10
    b5cc:	e8bd87f0 	pop	{r4, r5, r6, r7, r8, r9, sl, pc}

0000b5d0 <__gnu_unwind_frame>:
    b5d0:	e92d401f 	push	{r0, r1, r2, r3, r4, lr}
    b5d4:	e590304c 	ldr	r3, [r0, #76]
    b5d8:	e3a00003 	mov	r0, #3	; 0x3
    b5dc:	e5932004 	ldr	r2, [r3, #4]
    b5e0:	e5cd000c 	strb	r0, [sp, #12]
    b5e4:	e1a02402 	lsl	r2, r2, #8
    b5e8:	e58d2004 	str	r2, [sp, #4]
    b5ec:	e1a00001 	mov	r0, r1
    b5f0:	e5d32007 	ldrb	r2, [r3, #7]
    b5f4:	e28d1004 	add	r1, sp, #4	; 0x4
    b5f8:	e2833008 	add	r3, r3, #8	; 0x8
    b5fc:	e58d3008 	str	r3, [sp, #8]
    b600:	e5cd200d 	strb	r2, [sp, #13]
    b604:	ebffff13 	bl	b258 <__gnu_unwind_execute>
    b608:	e28dd014 	add	sp, sp, #20	; 0x14
    b60c:	e8bd8000 	pop	{pc}

0000b610 <__divdi3>:
    b610:	e92d4ff0 	push	{r4, r5, r6, r7, r8, r9, sl, fp, lr}
    b614:	e24dd014 	sub	sp, sp, #20	; 0x14
    b618:	e3510000 	cmp	r1, #0	; 0x0
    b61c:	e1a04002 	mov	r4, r2
    b620:	e1a05003 	mov	r5, r3
    b624:	a3a0a000 	movge	sl, #0	; 0x0
    b628:	aa000002 	bge	b638 <__divdi3+0x28>
    b62c:	e2700000 	rsbs	r0, r0, #0	; 0x0
    b630:	e2e11000 	rsc	r1, r1, #0	; 0x0
    b634:	e3e0a000 	mvn	sl, #0	; 0x0
    b638:	e3530000 	cmp	r3, #0	; 0x0
    b63c:	aa000002 	bge	b64c <__divdi3+0x3c>
    b640:	e2724000 	rsbs	r4, r2, #0	; 0x0
    b644:	e2e35000 	rsc	r5, r3, #0	; 0x0
    b648:	e1e0a00a 	mvn	sl, sl
    b64c:	e255c000 	subs	ip, r5, #0	; 0x0
    b650:	e1a03004 	mov	r3, r4
    b654:	e1a05000 	mov	r5, r0
    b658:	e1a08001 	mov	r8, r1
    b65c:	e1a02001 	mov	r2, r1
    b660:	1a00009f 	bne	b8e4 <__divdi3+0x2d4>
    b664:	e1540001 	cmp	r4, r1
    b668:	9a000031 	bls	b734 <__divdi3+0x124>
    b66c:	e16f3f14 	clz	r3, r4
    b670:	e3530000 	cmp	r3, #0	; 0x0
    b674:	12632020 	rsbne	r2, r3, #32	; 0x20
    b678:	11a02230 	lsrne	r2, r0, r2
    b67c:	11a04314 	lslne	r4, r4, r3
    b680:	11828311 	orrne	r8, r2, r1, lsl r3
    b684:	e1a07824 	lsr	r7, r4, #16
    b688:	11a05310 	lslne	r5, r0, r3
    b68c:	e1a01007 	mov	r1, r7
    b690:	e1a00008 	mov	r0, r8
    b694:	ebfff7bc 	bl	958c <__aeabi_uidivmod>
    b698:	e1a00008 	mov	r0, r8
    b69c:	e1a09804 	lsl	r9, r4, #16
    b6a0:	e1a09829 	lsr	r9, r9, #16
    b6a4:	e1a0b001 	mov	fp, r1
    b6a8:	e1a01007 	mov	r1, r7
    b6ac:	ebfff78b 	bl	94e0 <__aeabi_uidiv>
    b6b0:	e1a03825 	lsr	r3, r5, #16
    b6b4:	e183b80b 	orr	fp, r3, fp, lsl #16
    b6b8:	e0080099 	mul	r8, r9, r0
    b6bc:	e1a06000 	mov	r6, r0
    b6c0:	e15b0008 	cmp	fp, r8
    b6c4:	2a000005 	bcs	b6e0 <__divdi3+0xd0>
    b6c8:	e09bb004 	adds	fp, fp, r4
    b6cc:	e2406001 	sub	r6, r0, #1	; 0x1
    b6d0:	2a000002 	bcs	b6e0 <__divdi3+0xd0>
    b6d4:	e15b0008 	cmp	fp, r8
    b6d8:	32466001 	subcc	r6, r6, #1	; 0x1
    b6dc:	308bb004 	addcc	fp, fp, r4
    b6e0:	e068800b 	rsb	r8, r8, fp
    b6e4:	e1a00008 	mov	r0, r8
    b6e8:	e1a01007 	mov	r1, r7
    b6ec:	ebfff7a6 	bl	958c <__aeabi_uidivmod>
    b6f0:	e1a00008 	mov	r0, r8
    b6f4:	e1a05805 	lsl	r5, r5, #16
    b6f8:	e1a05825 	lsr	r5, r5, #16
    b6fc:	e1a0b001 	mov	fp, r1
    b700:	e1a01007 	mov	r1, r7
    b704:	ebfff775 	bl	94e0 <__aeabi_uidiv>
    b708:	e185b80b 	orr	fp, r5, fp, lsl #16
    b70c:	e0030099 	mul	r3, r9, r0
    b710:	e15b0003 	cmp	fp, r3
    b714:	2a000004 	bcs	b72c <__divdi3+0x11c>
    b718:	e09bb004 	adds	fp, fp, r4
    b71c:	e2400001 	sub	r0, r0, #1	; 0x1
    b720:	2a000001 	bcs	b72c <__divdi3+0x11c>
    b724:	e15b0003 	cmp	fp, r3
    b728:	32400001 	subcc	r0, r0, #1	; 0x1
    b72c:	e1808806 	orr	r8, r0, r6, lsl #16
    b730:	ea0000c7 	b	ba54 <__divdi3+0x444>
    b734:	e3540000 	cmp	r4, #0	; 0x0
    b738:	1a000003 	bne	b74c <__divdi3+0x13c>
    b73c:	e1a01003 	mov	r1, r3
    b740:	e3a00001 	mov	r0, #1	; 0x1
    b744:	ebfff765 	bl	94e0 <__aeabi_uidiv>
    b748:	e1a04000 	mov	r4, r0
    b74c:	e16f3f14 	clz	r3, r4
    b750:	e3530000 	cmp	r3, #0	; 0x0
    b754:	00648008 	rsbeq	r8, r4, r8
    b758:	03a07001 	moveq	r7, #1	; 0x1
    b75c:	0a000033 	beq	b830 <__divdi3+0x220>
    b760:	e1a04314 	lsl	r4, r4, r3
    b764:	e2632020 	rsb	r2, r3, #32	; 0x20
    b768:	e1a06238 	lsr	r6, r8, r2
    b76c:	e1a07824 	lsr	r7, r4, #16
    b770:	e1a02235 	lsr	r2, r5, r2
    b774:	e1a00006 	mov	r0, r6
    b778:	e1a01007 	mov	r1, r7
    b77c:	e1828318 	orr	r8, r2, r8, lsl r3
    b780:	e1a05315 	lsl	r5, r5, r3
    b784:	ebfff780 	bl	958c <__aeabi_uidivmod>
    b788:	e1a00006 	mov	r0, r6
    b78c:	e1a09804 	lsl	r9, r4, #16
    b790:	e1a09829 	lsr	r9, r9, #16
    b794:	e1a0b001 	mov	fp, r1
    b798:	e1a01007 	mov	r1, r7
    b79c:	ebfff74f 	bl	94e0 <__aeabi_uidiv>
    b7a0:	e1a02828 	lsr	r2, r8, #16
    b7a4:	e182b80b 	orr	fp, r2, fp, lsl #16
    b7a8:	e0030099 	mul	r3, r9, r0
    b7ac:	e1a06000 	mov	r6, r0
    b7b0:	e15b0003 	cmp	fp, r3
    b7b4:	2a000005 	bcs	b7d0 <__divdi3+0x1c0>
    b7b8:	e09bb004 	adds	fp, fp, r4
    b7bc:	e2406001 	sub	r6, r0, #1	; 0x1
    b7c0:	2a000002 	bcs	b7d0 <__divdi3+0x1c0>
    b7c4:	e15b0003 	cmp	fp, r3
    b7c8:	32466001 	subcc	r6, r6, #1	; 0x1
    b7cc:	308bb004 	addcc	fp, fp, r4
    b7d0:	e063b00b 	rsb	fp, r3, fp
    b7d4:	e1a0000b 	mov	r0, fp
    b7d8:	e1a01007 	mov	r1, r7
    b7dc:	ebfff76a 	bl	958c <__aeabi_uidivmod>
    b7e0:	e1a0000b 	mov	r0, fp
    b7e4:	e1a08808 	lsl	r8, r8, #16
    b7e8:	e1a08828 	lsr	r8, r8, #16
    b7ec:	e1a03001 	mov	r3, r1
    b7f0:	e1a01007 	mov	r1, r7
    b7f4:	e58d3004 	str	r3, [sp, #4]
    b7f8:	ebfff738 	bl	94e0 <__aeabi_uidiv>
    b7fc:	e59d3004 	ldr	r3, [sp, #4]
    b800:	e1883803 	orr	r3, r8, r3, lsl #16
    b804:	e0020099 	mul	r2, r9, r0
    b808:	e1530002 	cmp	r3, r2
    b80c:	2a000005 	bcs	b828 <__divdi3+0x218>
    b810:	e0933004 	adds	r3, r3, r4
    b814:	e2400001 	sub	r0, r0, #1	; 0x1
    b818:	2a000002 	bcs	b828 <__divdi3+0x218>
    b81c:	e1530002 	cmp	r3, r2
    b820:	32400001 	subcc	r0, r0, #1	; 0x1
    b824:	30833004 	addcc	r3, r3, r4
    b828:	e0628003 	rsb	r8, r2, r3
    b82c:	e1807806 	orr	r7, r0, r6, lsl #16
    b830:	e1a06824 	lsr	r6, r4, #16
    b834:	e1a00008 	mov	r0, r8
    b838:	e1a01006 	mov	r1, r6
    b83c:	ebfff752 	bl	958c <__aeabi_uidivmod>
    b840:	e1a00008 	mov	r0, r8
    b844:	e1a09804 	lsl	r9, r4, #16
    b848:	e1a09829 	lsr	r9, r9, #16
    b84c:	e1a0b001 	mov	fp, r1
    b850:	e1a01006 	mov	r1, r6
    b854:	ebfff721 	bl	94e0 <__aeabi_uidiv>
    b858:	e1a02825 	lsr	r2, r5, #16
    b85c:	e182b80b 	orr	fp, r2, fp, lsl #16
    b860:	e0030099 	mul	r3, r9, r0
    b864:	e1a08000 	mov	r8, r0
    b868:	e15b0003 	cmp	fp, r3
    b86c:	2a000005 	bcs	b888 <__divdi3+0x278>
    b870:	e09bb004 	adds	fp, fp, r4
    b874:	e2408001 	sub	r8, r0, #1	; 0x1
    b878:	2a000002 	bcs	b888 <__divdi3+0x278>
    b87c:	e15b0003 	cmp	fp, r3
    b880:	32488001 	subcc	r8, r8, #1	; 0x1
    b884:	308bb004 	addcc	fp, fp, r4
    b888:	e063b00b 	rsb	fp, r3, fp
    b88c:	e1a0000b 	mov	r0, fp
    b890:	e1a01006 	mov	r1, r6
    b894:	ebfff73c 	bl	958c <__aeabi_uidivmod>
    b898:	e1a0000b 	mov	r0, fp
    b89c:	e1a05805 	lsl	r5, r5, #16
    b8a0:	e1a05825 	lsr	r5, r5, #16
    b8a4:	e1a03001 	mov	r3, r1
    b8a8:	e1a01006 	mov	r1, r6
    b8ac:	e58d3004 	str	r3, [sp, #4]
    b8b0:	ebfff70a 	bl	94e0 <__aeabi_uidiv>
    b8b4:	e59d3004 	ldr	r3, [sp, #4]
    b8b8:	e1853803 	orr	r3, r5, r3, lsl #16
    b8bc:	e0020099 	mul	r2, r9, r0
    b8c0:	e1530002 	cmp	r3, r2
    b8c4:	2a000004 	bcs	b8dc <__divdi3+0x2cc>
    b8c8:	e0933004 	adds	r3, r3, r4
    b8cc:	e2400001 	sub	r0, r0, #1	; 0x1
    b8d0:	2a000001 	bcs	b8dc <__divdi3+0x2cc>
    b8d4:	e1530002 	cmp	r3, r2
    b8d8:	32400001 	subcc	r0, r0, #1	; 0x1
    b8dc:	e1808808 	orr	r8, r0, r8, lsl #16
    b8e0:	ea00005f 	b	ba64 <__divdi3+0x454>
    b8e4:	e15c0001 	cmp	ip, r1
    b8e8:	8a00005b 	bhi	ba5c <__divdi3+0x44c>
    b8ec:	e16f7f1c 	clz	r7, ip
    b8f0:	e3570000 	cmp	r7, #0	; 0x0
    b8f4:	1a000004 	bne	b90c <__divdi3+0x2fc>
    b8f8:	e151000c 	cmp	r1, ip
    b8fc:	91500004 	cmpls	r0, r4
    b900:	23a08001 	movcs	r8, #1	; 0x1
    b904:	2a000056 	bcs	ba64 <__divdi3+0x454>
    b908:	ea000053 	b	ba5c <__divdi3+0x44c>
    b90c:	e2673020 	rsb	r3, r7, #32	; 0x20
    b910:	e1a06334 	lsr	r6, r4, r3
    b914:	e1a08331 	lsr	r8, r1, r3
    b918:	e186671c 	orr	r6, r6, ip, lsl r7
    b91c:	e1a03330 	lsr	r3, r0, r3
    b920:	e1a09826 	lsr	r9, r6, #16
    b924:	e1832712 	orr	r2, r3, r2, lsl r7
    b928:	e1a00008 	mov	r0, r8
    b92c:	e1a01009 	mov	r1, r9
    b930:	e58d200c 	str	r2, [sp, #12]
    b934:	ebfff714 	bl	958c <__aeabi_uidivmod>
    b938:	e1a00008 	mov	r0, r8
    b93c:	e1a0b806 	lsl	fp, r6, #16
    b940:	e1a0b82b 	lsr	fp, fp, #16
    b944:	e1a03001 	mov	r3, r1
    b948:	e1a01009 	mov	r1, r9
    b94c:	e58d3004 	str	r3, [sp, #4]
    b950:	ebfff6e2 	bl	94e0 <__aeabi_uidiv>
    b954:	e59d3004 	ldr	r3, [sp, #4]
    b958:	e001009b 	mul	r1, fp, r0
    b95c:	e1a08000 	mov	r8, r0
    b960:	e59d000c 	ldr	r0, [sp, #12]
    b964:	e1a02820 	lsr	r2, r0, #16
    b968:	e1823803 	orr	r3, r2, r3, lsl #16
    b96c:	e1530001 	cmp	r3, r1
    b970:	e1a02714 	lsl	r2, r4, r7
    b974:	2a000005 	bcs	b990 <__divdi3+0x380>
    b978:	e0933006 	adds	r3, r3, r6
    b97c:	e2488001 	sub	r8, r8, #1	; 0x1
    b980:	2a000002 	bcs	b990 <__divdi3+0x380>
    b984:	e1530001 	cmp	r3, r1
    b988:	32488001 	subcc	r8, r8, #1	; 0x1
    b98c:	30833006 	addcc	r3, r3, r6
    b990:	e0614003 	rsb	r4, r1, r3
    b994:	e1a00004 	mov	r0, r4
    b998:	e1a01009 	mov	r1, r9
    b99c:	e58d2008 	str	r2, [sp, #8]
    b9a0:	ebfff6f9 	bl	958c <__aeabi_uidivmod>
    b9a4:	e1a00004 	mov	r0, r4
    b9a8:	e1a03001 	mov	r3, r1
    b9ac:	e1a01009 	mov	r1, r9
    b9b0:	e58d3004 	str	r3, [sp, #4]
    b9b4:	ebfff6c9 	bl	94e0 <__aeabi_uidiv>
    b9b8:	e59d400c 	ldr	r4, [sp, #12]
    b9bc:	e59d3004 	ldr	r3, [sp, #4]
    b9c0:	e1a0c804 	lsl	ip, r4, #16
    b9c4:	e1a0c82c 	lsr	ip, ip, #16
    b9c8:	e18c3803 	orr	r3, ip, r3, lsl #16
    b9cc:	e59d2008 	ldr	r2, [sp, #8]
    b9d0:	e001009b 	mul	r1, fp, r0
    b9d4:	e1530001 	cmp	r3, r1
    b9d8:	2a000005 	bcs	b9f4 <__divdi3+0x3e4>
    b9dc:	e0933006 	adds	r3, r3, r6
    b9e0:	e2400001 	sub	r0, r0, #1	; 0x1
    b9e4:	2a000002 	bcs	b9f4 <__divdi3+0x3e4>
    b9e8:	e1530001 	cmp	r3, r1
    b9ec:	30833006 	addcc	r3, r3, r6
    b9f0:	32400001 	subcc	r0, r0, #1	; 0x1
    b9f4:	e0613003 	rsb	r3, r1, r3
    b9f8:	e1808808 	orr	r8, r0, r8, lsl #16
    b9fc:	e1a00828 	lsr	r0, r8, #16
    ba00:	e1a01822 	lsr	r1, r2, #16
    ba04:	e1c8c800 	bic	ip, r8, r0, lsl #16
    ba08:	e1c24801 	bic	r4, r2, r1, lsl #16
    ba0c:	e002049c 	mul	r2, ip, r4
    ba10:	e0040490 	mul	r4, r0, r4
    ba14:	e00c0c91 	mul	ip, r1, ip
    ba18:	e0010190 	mul	r1, r0, r1
    ba1c:	e094c00c 	adds	ip, r4, ip
    ba20:	22811801 	addcs	r1, r1, #65536	; 0x10000
    ba24:	e092280c 	adds	r2, r2, ip, lsl #16
    ba28:	e0a1182c 	adc	r1, r1, ip, lsr #16
    ba2c:	e1510003 	cmp	r1, r3
    ba30:	8a000006 	bhi	ba50 <__divdi3+0x440>
    ba34:	13a06000 	movne	r6, #0	; 0x0
    ba38:	03a06001 	moveq	r6, #1	; 0x1
    ba3c:	e1520715 	cmp	r2, r5, lsl r7
    ba40:	93a07000 	movls	r7, #0	; 0x0
    ba44:	82067001 	andhi	r7, r6, #1	; 0x1
    ba48:	e3570000 	cmp	r7, #0	; 0x0
    ba4c:	0a000004 	beq	ba64 <__divdi3+0x454>
    ba50:	e2488001 	sub	r8, r8, #1	; 0x1
    ba54:	e3a07000 	mov	r7, #0	; 0x0
    ba58:	ea000001 	b	ba64 <__divdi3+0x454>
    ba5c:	e3a07000 	mov	r7, #0	; 0x0
    ba60:	e1a08007 	mov	r8, r7
    ba64:	e35a0000 	cmp	sl, #0	; 0x0
    ba68:	e1a02008 	mov	r2, r8
    ba6c:	e1a03007 	mov	r3, r7
    ba70:	0a000001 	beq	ba7c <__divdi3+0x46c>
    ba74:	e2722000 	rsbs	r2, r2, #0	; 0x0
    ba78:	e2e33000 	rsc	r3, r3, #0	; 0x0
    ba7c:	e1a01003 	mov	r1, r3
    ba80:	e1a00002 	mov	r0, r2
    ba84:	e28dd014 	add	sp, sp, #20	; 0x14
    ba88:	e8bd8ff0 	pop	{r4, r5, r6, r7, r8, r9, sl, fp, pc}

0000ba8c <__udivdi3>:
    ba8c:	e92d4ff7 	push	{r0, r1, r2, r4, r5, r6, r7, r8, r9, sl, fp, lr}
    ba90:	e3530000 	cmp	r3, #0	; 0x0
    ba94:	e1a04001 	mov	r4, r1
    ba98:	e1a06000 	mov	r6, r0
    ba9c:	e1a05002 	mov	r5, r2
    baa0:	e1a07001 	mov	r7, r1
    baa4:	1a00009b 	bne	bd18 <__udivdi3+0x28c>
    baa8:	e1520001 	cmp	r2, r1
    baac:	9a000031 	bls	bb78 <__udivdi3+0xec>
    bab0:	e16f3f12 	clz	r3, r2
    bab4:	e3530000 	cmp	r3, #0	; 0x0
    bab8:	12632020 	rsbne	r2, r3, #32	; 0x20
    babc:	11a02230 	lsrne	r2, r0, r2
    bac0:	11a05315 	lslne	r5, r5, r3
    bac4:	11827311 	orrne	r7, r2, r1, lsl r3
    bac8:	e1a08825 	lsr	r8, r5, #16
    bacc:	11a06310 	lslne	r6, r0, r3
    bad0:	e1a01008 	mov	r1, r8
    bad4:	e1a00007 	mov	r0, r7
    bad8:	ebfff6ab 	bl	958c <__aeabi_uidivmod>
    badc:	e1a00007 	mov	r0, r7
    bae0:	e1a0a805 	lsl	sl, r5, #16
    bae4:	e1a0a82a 	lsr	sl, sl, #16
    bae8:	e1a09001 	mov	r9, r1
    baec:	e1a01008 	mov	r1, r8
    baf0:	ebfff67a 	bl	94e0 <__aeabi_uidiv>
    baf4:	e1a03826 	lsr	r3, r6, #16
    baf8:	e1839809 	orr	r9, r3, r9, lsl #16
    bafc:	e007009a 	mul	r7, sl, r0
    bb00:	e1a04000 	mov	r4, r0
    bb04:	e1590007 	cmp	r9, r7
    bb08:	2a000005 	bcs	bb24 <__udivdi3+0x98>
    bb0c:	e0999005 	adds	r9, r9, r5
    bb10:	e2404001 	sub	r4, r0, #1	; 0x1
    bb14:	2a000002 	bcs	bb24 <__udivdi3+0x98>
    bb18:	e1590007 	cmp	r9, r7
    bb1c:	32444001 	subcc	r4, r4, #1	; 0x1
    bb20:	30899005 	addcc	r9, r9, r5
    bb24:	e0677009 	rsb	r7, r7, r9
    bb28:	e1a00007 	mov	r0, r7
    bb2c:	e1a01008 	mov	r1, r8
    bb30:	ebfff695 	bl	958c <__aeabi_uidivmod>
    bb34:	e1a00007 	mov	r0, r7
    bb38:	e1a06806 	lsl	r6, r6, #16
    bb3c:	e1a06826 	lsr	r6, r6, #16
    bb40:	e1a0b001 	mov	fp, r1
    bb44:	e1a01008 	mov	r1, r8
    bb48:	ebfff664 	bl	94e0 <__aeabi_uidiv>
    bb4c:	e186b80b 	orr	fp, r6, fp, lsl #16
    bb50:	e003009a 	mul	r3, sl, r0
    bb54:	e15b0003 	cmp	fp, r3
    bb58:	2a000004 	bcs	bb70 <__udivdi3+0xe4>
    bb5c:	e09bb005 	adds	fp, fp, r5
    bb60:	e2400001 	sub	r0, r0, #1	; 0x1
    bb64:	2a000001 	bcs	bb70 <__udivdi3+0xe4>
    bb68:	e15b0003 	cmp	fp, r3
    bb6c:	32400001 	subcc	r0, r0, #1	; 0x1
    bb70:	e1804804 	orr	r4, r0, r4, lsl #16
    bb74:	ea0000bf 	b	be78 <__udivdi3+0x3ec>
    bb78:	e3520000 	cmp	r2, #0	; 0x0
    bb7c:	1a000003 	bne	bb90 <__udivdi3+0x104>
    bb80:	e1a01002 	mov	r1, r2
    bb84:	e3a00001 	mov	r0, #1	; 0x1
    bb88:	ebfff654 	bl	94e0 <__aeabi_uidiv>
    bb8c:	e1a05000 	mov	r5, r0
    bb90:	e16f3f15 	clz	r3, r5
    bb94:	e3530000 	cmp	r3, #0	; 0x0
    bb98:	00654004 	rsbeq	r4, r5, r4
    bb9c:	03a08001 	moveq	r8, #1	; 0x1
    bba0:	0a000031 	beq	bc6c <__udivdi3+0x1e0>
    bba4:	e1a05315 	lsl	r5, r5, r3
    bba8:	e263a020 	rsb	sl, r3, #32	; 0x20
    bbac:	e1a07a34 	lsr	r7, r4, sl
    bbb0:	e1a08825 	lsr	r8, r5, #16
    bbb4:	e1a0aa36 	lsr	sl, r6, sl
    bbb8:	e1a00007 	mov	r0, r7
    bbbc:	e1a01008 	mov	r1, r8
    bbc0:	e18aa314 	orr	sl, sl, r4, lsl r3
    bbc4:	e1a06316 	lsl	r6, r6, r3
    bbc8:	ebfff66f 	bl	958c <__aeabi_uidivmod>
    bbcc:	e1a00007 	mov	r0, r7
    bbd0:	e1a09805 	lsl	r9, r5, #16
    bbd4:	e1a09829 	lsr	r9, r9, #16
    bbd8:	e1a04001 	mov	r4, r1
    bbdc:	e1a01008 	mov	r1, r8
    bbe0:	ebfff63e 	bl	94e0 <__aeabi_uidiv>
    bbe4:	e1a0382a 	lsr	r3, sl, #16
    bbe8:	e1834804 	orr	r4, r3, r4, lsl #16
    bbec:	e00b0099 	mul	fp, r9, r0
    bbf0:	e1a07000 	mov	r7, r0
    bbf4:	e154000b 	cmp	r4, fp
    bbf8:	2a000005 	bcs	bc14 <__udivdi3+0x188>
    bbfc:	e0944005 	adds	r4, r4, r5
    bc00:	e2407001 	sub	r7, r0, #1	; 0x1
    bc04:	2a000002 	bcs	bc14 <__udivdi3+0x188>
    bc08:	e154000b 	cmp	r4, fp
    bc0c:	32477001 	subcc	r7, r7, #1	; 0x1
    bc10:	30844005 	addcc	r4, r4, r5
    bc14:	e06bb004 	rsb	fp, fp, r4
    bc18:	e1a0000b 	mov	r0, fp
    bc1c:	e1a01008 	mov	r1, r8
    bc20:	ebfff659 	bl	958c <__aeabi_uidivmod>
    bc24:	e1a0000b 	mov	r0, fp
    bc28:	e1a0a80a 	lsl	sl, sl, #16
    bc2c:	e1a0a82a 	lsr	sl, sl, #16
    bc30:	e1a04001 	mov	r4, r1
    bc34:	e1a01008 	mov	r1, r8
    bc38:	ebfff628 	bl	94e0 <__aeabi_uidiv>
    bc3c:	e18a4804 	orr	r4, sl, r4, lsl #16
    bc40:	e0030099 	mul	r3, r9, r0
    bc44:	e1540003 	cmp	r4, r3
    bc48:	2a000005 	bcs	bc64 <__udivdi3+0x1d8>
    bc4c:	e0944005 	adds	r4, r4, r5
    bc50:	e2400001 	sub	r0, r0, #1	; 0x1
    bc54:	2a000002 	bcs	bc64 <__udivdi3+0x1d8>
    bc58:	e1540003 	cmp	r4, r3
    bc5c:	32400001 	subcc	r0, r0, #1	; 0x1
    bc60:	30844005 	addcc	r4, r4, r5
    bc64:	e0634004 	rsb	r4, r3, r4
    bc68:	e1808807 	orr	r8, r0, r7, lsl #16
    bc6c:	e1a07825 	lsr	r7, r5, #16
    bc70:	e1a00004 	mov	r0, r4
    bc74:	e1a01007 	mov	r1, r7
    bc78:	ebfff643 	bl	958c <__aeabi_uidivmod>
    bc7c:	e1a00004 	mov	r0, r4
    bc80:	e1a0a805 	lsl	sl, r5, #16
    bc84:	e1a0a82a 	lsr	sl, sl, #16
    bc88:	e1a0b001 	mov	fp, r1
    bc8c:	e1a01007 	mov	r1, r7
    bc90:	ebfff612 	bl	94e0 <__aeabi_uidiv>
    bc94:	e1a03826 	lsr	r3, r6, #16
    bc98:	e183b80b 	orr	fp, r3, fp, lsl #16
    bc9c:	e009009a 	mul	r9, sl, r0
    bca0:	e1a04000 	mov	r4, r0
    bca4:	e15b0009 	cmp	fp, r9
    bca8:	2a000005 	bcs	bcc4 <__udivdi3+0x238>
    bcac:	e09bb005 	adds	fp, fp, r5
    bcb0:	e2404001 	sub	r4, r0, #1	; 0x1
    bcb4:	2a000002 	bcs	bcc4 <__udivdi3+0x238>
    bcb8:	e15b0009 	cmp	fp, r9
    bcbc:	32444001 	subcc	r4, r4, #1	; 0x1
    bcc0:	308bb005 	addcc	fp, fp, r5
    bcc4:	e069900b 	rsb	r9, r9, fp
    bcc8:	e1a00009 	mov	r0, r9
    bccc:	e1a01007 	mov	r1, r7
    bcd0:	ebfff62d 	bl	958c <__aeabi_uidivmod>
    bcd4:	e1a00009 	mov	r0, r9
    bcd8:	e1a06806 	lsl	r6, r6, #16
    bcdc:	e1a06826 	lsr	r6, r6, #16
    bce0:	e1a0b001 	mov	fp, r1
    bce4:	e1a01007 	mov	r1, r7
    bce8:	ebfff5fc 	bl	94e0 <__aeabi_uidiv>
    bcec:	e186b80b 	orr	fp, r6, fp, lsl #16
    bcf0:	e003009a 	mul	r3, sl, r0
    bcf4:	e15b0003 	cmp	fp, r3
    bcf8:	2a000004 	bcs	bd10 <__udivdi3+0x284>
    bcfc:	e09bb005 	adds	fp, fp, r5
    bd00:	e2400001 	sub	r0, r0, #1	; 0x1
    bd04:	2a000001 	bcs	bd10 <__udivdi3+0x284>
    bd08:	e15b0003 	cmp	fp, r3
    bd0c:	32400001 	subcc	r0, r0, #1	; 0x1
    bd10:	e1804804 	orr	r4, r0, r4, lsl #16
    bd14:	ea00005b 	b	be88 <__udivdi3+0x3fc>
    bd18:	e1530001 	cmp	r3, r1
    bd1c:	8a000057 	bhi	be80 <__udivdi3+0x3f4>
    bd20:	e16f8f13 	clz	r8, r3
    bd24:	e3580000 	cmp	r8, #0	; 0x0
    bd28:	1a000004 	bne	bd40 <__udivdi3+0x2b4>
    bd2c:	e1510003 	cmp	r1, r3
    bd30:	91500002 	cmpls	r0, r2
    bd34:	23a04001 	movcs	r4, #1	; 0x1
    bd38:	2a000052 	bcs	be88 <__udivdi3+0x3fc>
    bd3c:	ea00004f 	b	be80 <__udivdi3+0x3f4>
    bd40:	e2682020 	rsb	r2, r8, #32	; 0x20
    bd44:	e1a07235 	lsr	r7, r5, r2
    bd48:	e1877813 	orr	r7, r7, r3, lsl r8
    bd4c:	e1a09231 	lsr	r9, r1, r2
    bd50:	e1a03230 	lsr	r3, r0, r2
    bd54:	e1a0a827 	lsr	sl, r7, #16
    bd58:	e1a00009 	mov	r0, r9
    bd5c:	e1a0100a 	mov	r1, sl
    bd60:	e1834814 	orr	r4, r3, r4, lsl r8
    bd64:	ebfff608 	bl	958c <__aeabi_uidivmod>
    bd68:	e1a00009 	mov	r0, r9
    bd6c:	e1a0b807 	lsl	fp, r7, #16
    bd70:	e1a0b82b 	lsr	fp, fp, #16
    bd74:	e1a03001 	mov	r3, r1
    bd78:	e1a0100a 	mov	r1, sl
    bd7c:	e58d3004 	str	r3, [sp, #4]
    bd80:	ebfff5d6 	bl	94e0 <__aeabi_uidiv>
    bd84:	e59d3004 	ldr	r3, [sp, #4]
    bd88:	e1a02824 	lsr	r2, r4, #16
    bd8c:	e1823803 	orr	r3, r2, r3, lsl #16
    bd90:	e1a02815 	lsl	r2, r5, r8
    bd94:	e001009b 	mul	r1, fp, r0
    bd98:	e1a09000 	mov	r9, r0
    bd9c:	e1530001 	cmp	r3, r1
    bda0:	2a000005 	bcs	bdbc <__udivdi3+0x330>
    bda4:	e0933007 	adds	r3, r3, r7
    bda8:	e2409001 	sub	r9, r0, #1	; 0x1
    bdac:	2a000002 	bcs	bdbc <__udivdi3+0x330>
    bdb0:	e1530001 	cmp	r3, r1
    bdb4:	32499001 	subcc	r9, r9, #1	; 0x1
    bdb8:	30833007 	addcc	r3, r3, r7
    bdbc:	e0615003 	rsb	r5, r1, r3
    bdc0:	e1a00005 	mov	r0, r5
    bdc4:	e1a0100a 	mov	r1, sl
    bdc8:	e58d2000 	str	r2, [sp]
    bdcc:	ebfff5ee 	bl	958c <__aeabi_uidivmod>
    bdd0:	e1a00005 	mov	r0, r5
    bdd4:	e1a04804 	lsl	r4, r4, #16
    bdd8:	e1a04824 	lsr	r4, r4, #16
    bddc:	e1a03001 	mov	r3, r1
    bde0:	e1a0100a 	mov	r1, sl
    bde4:	e58d3004 	str	r3, [sp, #4]
    bde8:	ebfff5bc 	bl	94e0 <__aeabi_uidiv>
    bdec:	e89d000c 	ldm	sp, {r2, r3}
    bdf0:	e1843803 	orr	r3, r4, r3, lsl #16
    bdf4:	e001009b 	mul	r1, fp, r0
    bdf8:	e1530001 	cmp	r3, r1
    bdfc:	2a000005 	bcs	be18 <__udivdi3+0x38c>
    be00:	e0933007 	adds	r3, r3, r7
    be04:	e2400001 	sub	r0, r0, #1	; 0x1
    be08:	2a000002 	bcs	be18 <__udivdi3+0x38c>
    be0c:	e1530001 	cmp	r3, r1
    be10:	30833007 	addcc	r3, r3, r7
    be14:	32400001 	subcc	r0, r0, #1	; 0x1
    be18:	e0613003 	rsb	r3, r1, r3
    be1c:	e1804809 	orr	r4, r0, r9, lsl #16
    be20:	e1a00824 	lsr	r0, r4, #16
    be24:	e1a01822 	lsr	r1, r2, #16
    be28:	e1c4c800 	bic	ip, r4, r0, lsl #16
    be2c:	e1c25801 	bic	r5, r2, r1, lsl #16
    be30:	e002059c 	mul	r2, ip, r5
    be34:	e0050590 	mul	r5, r0, r5
    be38:	e00c0c91 	mul	ip, r1, ip
    be3c:	e0010190 	mul	r1, r0, r1
    be40:	e095c00c 	adds	ip, r5, ip
    be44:	22811801 	addcs	r1, r1, #65536	; 0x10000
    be48:	e092280c 	adds	r2, r2, ip, lsl #16
    be4c:	e0a1182c 	adc	r1, r1, ip, lsr #16
    be50:	e1510003 	cmp	r1, r3
    be54:	8a000006 	bhi	be74 <__udivdi3+0x3e8>
    be58:	13a03000 	movne	r3, #0	; 0x0
    be5c:	03a03001 	moveq	r3, #1	; 0x1
    be60:	e1520816 	cmp	r2, r6, lsl r8
    be64:	93a08000 	movls	r8, #0	; 0x0
    be68:	82038001 	andhi	r8, r3, #1	; 0x1
    be6c:	e3580000 	cmp	r8, #0	; 0x0
    be70:	0a000004 	beq	be88 <__udivdi3+0x3fc>
    be74:	e2444001 	sub	r4, r4, #1	; 0x1
    be78:	e3a08000 	mov	r8, #0	; 0x0
    be7c:	ea000001 	b	be88 <__udivdi3+0x3fc>
    be80:	e3a08000 	mov	r8, #0	; 0x0
    be84:	e1a04008 	mov	r4, r8
    be88:	e1a00004 	mov	r0, r4
    be8c:	e1a01008 	mov	r1, r8
    be90:	e28dd00c 	add	sp, sp, #12	; 0xc
    be94:	e8bd8ff0 	pop	{r4, r5, r6, r7, r8, r9, sl, fp, pc}

0000be98 <do_exec>:
    be98:	2001      	movs	r0, #1
    be9a:	4240      	negs	r0, r0
    be9c:	4770      	bx	lr
    be9e:	46c0      	nop			(mov r8, r8)

0000bea0 <do_wait>:
    bea0:	b510      	push	{r4, lr}
    bea2:	2802      	cmp	r0, #2
    bea4:	d002      	beq.n	beac <do_wait+0xc>
    bea6:	2001      	movs	r0, #1
    bea8:	4240      	negs	r0, r0
    beaa:	e003      	b.n	beb4 <do_wait+0x14>
    beac:	6848      	ldr	r0, [r1, #4]
    beae:	2105      	movs	r1, #5
    beb0:	f003 f8e2 	bl	f078 <wait_for_file>
    beb4:	bd10      	pop	{r4, pc}
    beb6:	46c0      	nop			(mov r8, r8)

0000beb8 <do_loglevel>:
    beb8:	b510      	push	{r4, lr}
    beba:	2802      	cmp	r0, #2
    bebc:	d002      	beq.n	bec4 <do_loglevel+0xc>
    bebe:	2001      	movs	r0, #1
    bec0:	4240      	negs	r0, r0
    bec2:	e005      	b.n	bed0 <do_loglevel+0x18>
    bec4:	6848      	ldr	r0, [r1, #4]
    bec6:	f007 fb89 	bl	135dc <atoi>
    beca:	f002 fe0f 	bl	eaec <log_set_level>
    bece:	2000      	movs	r0, #0
    bed0:	bd10      	pop	{r4, pc}
    bed2:	46c0      	nop			(mov r8, r8)

0000bed4 <do_chmod>:
    bed4:	b510      	push	{r4, lr}
    bed6:	1c0a      	adds	r2, r1, #0
    bed8:	684b      	ldr	r3, [r1, #4]
    beda:	2100      	movs	r1, #0
    bedc:	e00b      	b.n	bef6 <do_chmod+0x22>
    bede:	3830      	subs	r0, #48
    bee0:	0604      	lsls	r4, r0, #24
    bee2:	0e24      	lsrs	r4, r4, #24
    bee4:	2c07      	cmp	r4, #7
    bee6:	d901      	bls.n	beec <do_chmod+0x18>
    bee8:	490a      	ldr	r1, [pc, #40]	(bf14 <do_chmod+0x40>)
    beea:	e007      	b.n	befc <do_chmod+0x28>
    beec:	00cc      	lsls	r4, r1, #3
    beee:	4320      	orrs	r0, r4
    bef0:	0401      	lsls	r1, r0, #16
    bef2:	0c09      	lsrs	r1, r1, #16
    bef4:	3301      	adds	r3, #1
    bef6:	7818      	ldrb	r0, [r3, #0]
    bef8:	2800      	cmp	r0, #0
    befa:	d1f0      	bne.n	bede <do_chmod+0xa>
    befc:	6890      	ldr	r0, [r2, #8]
    befe:	f7fc ea90 	blx	8420 <chmod>
    bf02:	1c03      	adds	r3, r0, #0
    bf04:	2000      	movs	r0, #0
    bf06:	2b00      	cmp	r3, #0
    bf08:	da03      	bge.n	bf12 <do_chmod+0x3e>
    bf0a:	f00a ff87 	bl	16e1c <__errno>
    bf0e:	6800      	ldr	r0, [r0, #0]
    bf10:	4240      	negs	r0, r0
    bf12:	bd10      	pop	{r4, pc}
    bf14:	0000ffff 	.word	0x0000ffff

0000bf18 <do_chown>:
    bf18:	b570      	push	{r4, r5, r6, lr}
    bf1a:	1c0c      	adds	r4, r1, #0
    bf1c:	2803      	cmp	r0, #3
    bf1e:	d10c      	bne.n	bf3a <do_chown+0x22>
    bf20:	6848      	ldr	r0, [r1, #4]
    bf22:	688d      	ldr	r5, [r1, #8]
    bf24:	f002 ff0c 	bl	ed40 <decode_uid>
    bf28:	2201      	movs	r2, #1
    bf2a:	1c01      	adds	r1, r0, #0
    bf2c:	4252      	negs	r2, r2
    bf2e:	1c28      	adds	r0, r5, #0
    bf30:	f7fc ea86 	blx	8440 <chown>
    bf34:	2800      	cmp	r0, #0
    bf36:	da18      	bge.n	bf6a <do_chown+0x52>
    bf38:	e013      	b.n	bf62 <do_chown+0x4a>
    bf3a:	2804      	cmp	r0, #4
    bf3c:	d002      	beq.n	bf44 <do_chown+0x2c>
    bf3e:	2001      	movs	r0, #1
    bf40:	4240      	negs	r0, r0
    bf42:	e013      	b.n	bf6c <do_chown+0x54>
    bf44:	6848      	ldr	r0, [r1, #4]
    bf46:	68cd      	ldr	r5, [r1, #12]
    bf48:	f002 fefa 	bl	ed40 <decode_uid>
    bf4c:	1c06      	adds	r6, r0, #0
    bf4e:	68a0      	ldr	r0, [r4, #8]
    bf50:	f002 fef6 	bl	ed40 <decode_uid>
    bf54:	1c31      	adds	r1, r6, #0
    bf56:	1c02      	adds	r2, r0, #0
    bf58:	1c28      	adds	r0, r5, #0
    bf5a:	f7fc ea72 	blx	8440 <chown>
    bf5e:	2800      	cmp	r0, #0
    bf60:	d003      	beq.n	bf6a <do_chown+0x52>
    bf62:	f00a ff5b 	bl	16e1c <__errno>
    bf66:	6800      	ldr	r0, [r0, #0]
    bf68:	e7ea      	b.n	bf40 <do_chown+0x28>
    bf6a:	2000      	movs	r0, #0
    bf6c:	bd70      	pop	{r4, r5, r6, pc}
    bf6e:	46c0      	nop			(mov r8, r8)

0000bf70 <do_copy>:
    bf70:	b5f0      	push	{r4, r5, r6, r7, lr}
    bf72:	b09d      	sub	sp, #116
    bf74:	1c0c      	adds	r4, r1, #0
    bf76:	2803      	cmp	r0, #3
    bf78:	d14b      	bne.n	c012 <do_copy+0xa2>
    bf7a:	ad02      	add	r5, sp, #8
    bf7c:	6848      	ldr	r0, [r1, #4]
    bf7e:	1c29      	adds	r1, r5, #0
    bf80:	f7fc ea96 	blx	84b0 <stat>
    bf84:	2800      	cmp	r0, #0
    bf86:	db44      	blt.n	c012 <do_copy+0xa2>
    bf88:	6860      	ldr	r0, [r4, #4]
    bf8a:	2100      	movs	r1, #0
    bf8c:	f004 ff52 	bl	10e34 <open>
    bf90:	9000      	str	r0, [sp, #0]
    bf92:	2800      	cmp	r0, #0
    bf94:	db42      	blt.n	c01c <do_copy+0xac>
    bf96:	22d8      	movs	r2, #216
    bf98:	68a0      	ldr	r0, [r4, #8]
    bf9a:	4926      	ldr	r1, [pc, #152]	(c034 <do_copy+0xc4>)
    bf9c:	0052      	lsls	r2, r2, #1
    bf9e:	f004 ff49 	bl	10e34 <open>
    bfa2:	1e06      	subs	r6, r0, #0
    bfa4:	db3c      	blt.n	c020 <do_copy+0xb0>
    bfa6:	6b28      	ldr	r0, [r5, #48]
    bfa8:	f00a ff40 	bl	16e2c <malloc>
    bfac:	9001      	str	r0, [sp, #4]
    bfae:	2800      	cmp	r0, #0
    bfb0:	d036      	beq.n	c020 <do_copy+0xb0>
    bfb2:	6b2c      	ldr	r4, [r5, #48]
    bfb4:	1c05      	adds	r5, r0, #0
    bfb6:	e00a      	b.n	bfce <do_copy+0x5e>
    bfb8:	9800      	ldr	r0, [sp, #0]
    bfba:	1c29      	adds	r1, r5, #0
    bfbc:	1c22      	adds	r2, r4, #0
    bfbe:	f7fc e960 	blx	8280 <read>
    bfc2:	2800      	cmp	r0, #0
    bfc4:	db17      	blt.n	bff6 <do_copy+0x86>
    bfc6:	2800      	cmp	r0, #0
    bfc8:	d003      	beq.n	bfd2 <do_copy+0x62>
    bfca:	182d      	adds	r5, r5, r0
    bfcc:	1a24      	subs	r4, r4, r0
    bfce:	2c00      	cmp	r4, #0
    bfd0:	d1f2      	bne.n	bfb8 <do_copy+0x48>
    bfd2:	9d0e      	ldr	r5, [sp, #56]
    bfd4:	9f01      	ldr	r7, [sp, #4]
    bfd6:	e00a      	b.n	bfee <do_copy+0x7e>
    bfd8:	1c30      	adds	r0, r6, #0
    bfda:	1c39      	adds	r1, r7, #0
    bfdc:	1c2a      	adds	r2, r5, #0
    bfde:	f7fc e960 	blx	82a0 <write>
    bfe2:	1e04      	subs	r4, r0, #0
    bfe4:	db07      	blt.n	bff6 <do_copy+0x86>
    bfe6:	2c00      	cmp	r4, #0
    bfe8:	d007      	beq.n	bffa <do_copy+0x8a>
    bfea:	193f      	adds	r7, r7, r4
    bfec:	1b2d      	subs	r5, r5, r4
    bfee:	2d00      	cmp	r5, #0
    bff0:	d1f2      	bne.n	bfd8 <do_copy+0x68>
    bff2:	2400      	movs	r4, #0
    bff4:	e001      	b.n	bffa <do_copy+0x8a>
    bff6:	2401      	movs	r4, #1
    bff8:	4264      	negs	r4, r4
    bffa:	9801      	ldr	r0, [sp, #4]
    bffc:	f00a ff24 	bl	16e48 <free>
    c000:	9800      	ldr	r0, [sp, #0]
    c002:	f7fc e95e 	blx	82c0 <close>
    c006:	2e00      	cmp	r6, #0
    c008:	db05      	blt.n	c016 <do_copy+0xa6>
    c00a:	1c30      	adds	r0, r6, #0
    c00c:	f7fc e958 	blx	82c0 <close>
    c010:	e001      	b.n	c016 <do_copy+0xa6>
    c012:	2001      	movs	r0, #1
    c014:	4244      	negs	r4, r0
    c016:	b01d      	add	sp, #116
    c018:	1c20      	adds	r0, r4, #0
    c01a:	bdf0      	pop	{r4, r5, r6, r7, pc}
    c01c:	2601      	movs	r6, #1
    c01e:	4276      	negs	r6, r6
    c020:	9b00      	ldr	r3, [sp, #0]
    c022:	2b00      	cmp	r3, #0
    c024:	da02      	bge.n	c02c <do_copy+0xbc>
    c026:	2101      	movs	r1, #1
    c028:	424c      	negs	r4, r1
    c02a:	e7ec      	b.n	c006 <do_copy+0x96>
    c02c:	2501      	movs	r5, #1
    c02e:	426c      	negs	r4, r5
    c030:	e7e6      	b.n	c000 <do_copy+0x90>
    c032:	46c0      	nop			(mov r8, r8)
    c034:	00000241 	.word	0x00000241

0000c038 <write_file>:
    c038:	b5f8      	push	{r3, r4, r5, r6, r7, lr}
    c03a:	22c9      	movs	r2, #201
    c03c:	1c0d      	adds	r5, r1, #0
    c03e:	0052      	lsls	r2, r2, #1
    c040:	2141      	movs	r1, #65
    c042:	f004 fef7 	bl	10e34 <open>
    c046:	1e04      	subs	r4, r0, #0
    c048:	db15      	blt.n	c076 <write_file+0x3e>
    c04a:	1c28      	adds	r0, r5, #0
    c04c:	f004 ee2c 	blx	10ca8 <strlen>
    c050:	1c07      	adds	r7, r0, #0
    c052:	1c20      	adds	r0, r4, #0
    c054:	1c29      	adds	r1, r5, #0
    c056:	1c3a      	adds	r2, r7, #0
    c058:	f7fc e922 	blx	82a0 <write>
    c05c:	1e06      	subs	r6, r0, #0
    c05e:	da04      	bge.n	c06a <write_file+0x32>
    c060:	f00a fedc 	bl	16e1c <__errno>
    c064:	6803      	ldr	r3, [r0, #0]
    c066:	2b04      	cmp	r3, #4
    c068:	d0f3      	beq.n	c052 <write_file+0x1a>
    c06a:	1c20      	adds	r0, r4, #0
    c06c:	f7fc e928 	blx	82c0 <close>
    c070:	2000      	movs	r0, #0
    c072:	2e00      	cmp	r6, #0
    c074:	da03      	bge.n	c07e <write_file+0x46>
    c076:	f00a fed1 	bl	16e1c <__errno>
    c07a:	6800      	ldr	r0, [r0, #0]
    c07c:	4240      	negs	r0, r0
    c07e:	bdf8      	pop	{r3, r4, r5, r6, r7, pc}

0000c080 <do_write>:
    c080:	b510      	push	{r4, lr}
    c082:	6848      	ldr	r0, [r1, #4]
    c084:	6889      	ldr	r1, [r1, #8]
    c086:	f7ff ffd7 	bl	c038 <write_file>
    c08a:	bd10      	pop	{r4, pc}

0000c08c <do_hostname>:
    c08c:	b510      	push	{r4, lr}
    c08e:	4803      	ldr	r0, [pc, #12]	(c09c <do_hostname+0x10>)
    c090:	6849      	ldr	r1, [r1, #4]
    c092:	4478      	add	r0, pc
    c094:	f7ff ffd0 	bl	c038 <write_file>
    c098:	bd10      	pop	{r4, pc}
    c09a:	46c0      	nop			(mov r8, r8)
    c09c:	0000f3b2 	.word	0x0000f3b2

0000c0a0 <do_domainname>:
    c0a0:	b510      	push	{r4, lr}
    c0a2:	4803      	ldr	r0, [pc, #12]	(c0b0 <do_domainname+0x10>)
    c0a4:	6849      	ldr	r1, [r1, #4]
    c0a6:	4478      	add	r0, pc
    c0a8:	f7ff ffc6 	bl	c038 <write_file>
    c0ac:	bd10      	pop	{r4, pc}
    c0ae:	46c0      	nop			(mov r8, r8)
    c0b0:	0000f3b8 	.word	0x0000f3b8

0000c0b4 <do_sysclktz>:
    c0b4:	b510      	push	{r4, lr}
    c0b6:	b082      	sub	sp, #8
    c0b8:	2802      	cmp	r0, #2
    c0ba:	d10d      	bne.n	c0d8 <do_sysclktz+0x24>
    c0bc:	2300      	movs	r3, #0
    c0be:	9300      	str	r3, [sp, #0]
    c0c0:	9301      	str	r3, [sp, #4]
    c0c2:	6848      	ldr	r0, [r1, #4]
    c0c4:	f007 fa8a 	bl	135dc <atoi>
    c0c8:	4669      	mov	r1, sp
    c0ca:	9000      	str	r0, [sp, #0]
    c0cc:	2000      	movs	r0, #0
    c0ce:	f7fc ea40 	blx	8550 <settimeofday>
    c0d2:	2300      	movs	r3, #0
    c0d4:	2800      	cmp	r0, #0
    c0d6:	d001      	beq.n	c0dc <do_sysclktz+0x28>
    c0d8:	2001      	movs	r0, #1
    c0da:	4243      	negs	r3, r0
    c0dc:	b002      	add	sp, #8
    c0de:	1c18      	adds	r0, r3, #0
    c0e0:	bd10      	pop	{r4, pc}
    c0e2:	46c0      	nop			(mov r8, r8)

0000c0e4 <do_symlink>:
    c0e4:	b510      	push	{r4, lr}
    c0e6:	6848      	ldr	r0, [r1, #4]
    c0e8:	6889      	ldr	r1, [r1, #8]
    c0ea:	f7fc ea22 	blx	8530 <symlink>
    c0ee:	bd10      	pop	{r4, pc}

0000c0f0 <do_trigger>:
    c0f0:	b510      	push	{r4, lr}
    c0f2:	4b04      	ldr	r3, [pc, #16]	(c104 <do_trigger+0x14>)
    c0f4:	4a04      	ldr	r2, [pc, #16]	(c108 <do_trigger+0x18>)
    c0f6:	6848      	ldr	r0, [r1, #4]
    c0f8:	447b      	add	r3, pc
    c0fa:	5899      	ldr	r1, [r3, r2]
    c0fc:	f003 fe52 	bl	fda4 <action_for_each_trigger>
    c100:	2000      	movs	r0, #0
    c102:	bd10      	pop	{r4, pc}
    c104:	00013678 	.word	0x00013678
    c108:	ffffff8c 	.word	0xffffff8c

0000c10c <do_stop>:
    c10c:	b510      	push	{r4, lr}
    c10e:	6848      	ldr	r0, [r1, #4]
    c110:	f003 fe74 	bl	fdfc <service_find_by_name>
    c114:	2800      	cmp	r0, #0
    c116:	d001      	beq.n	c11c <do_stop+0x10>
    c118:	f000 ffd2 	bl	d0c0 <service_stop>
    c11c:	2000      	movs	r0, #0
    c11e:	bd10      	pop	{r4, pc}

0000c120 <do_restart>:
    c120:	b510      	push	{r4, lr}
    c122:	6848      	ldr	r0, [r1, #4]
    c124:	f003 fe6a 	bl	fdfc <service_find_by_name>
    c128:	1e04      	subs	r4, r0, #0
    c12a:	d006      	beq.n	c13a <do_restart+0x1a>
    c12c:	1c20      	adds	r0, r4, #0
    c12e:	f000 ffc7 	bl	d0c0 <service_stop>
    c132:	1c20      	adds	r0, r4, #0
    c134:	2100      	movs	r1, #0
    c136:	f001 f8a9 	bl	d28c <service_start>
    c13a:	2000      	movs	r0, #0
    c13c:	bd10      	pop	{r4, pc}
    c13e:	46c0      	nop			(mov r8, r8)

0000c140 <service_start_if_not_disabled>:
    c140:	b510      	push	{r4, lr}
    c142:	6903      	ldr	r3, [r0, #16]
    c144:	07da      	lsls	r2, r3, #31
    c146:	d402      	bmi.n	c14e <service_start_if_not_disabled+0xe>
    c148:	2100      	movs	r1, #0
    c14a:	f001 f89f 	bl	d28c <service_start>
    c14e:	bd10      	pop	{r4, pc}

0000c150 <do_start>:
    c150:	b510      	push	{r4, lr}
    c152:	6848      	ldr	r0, [r1, #4]
    c154:	f003 fe52 	bl	fdfc <service_find_by_name>
    c158:	1e04      	subs	r4, r0, #0
    c15a:	d00a      	beq.n	c172 <do_start+0x22>
    c15c:	4906      	ldr	r1, [pc, #24]	(c178 <do_start+0x28>)
    c15e:	4a07      	ldr	r2, [pc, #28]	(c17c <do_start+0x2c>)
    c160:	2006      	movs	r0, #6
    c162:	4479      	add	r1, pc
    c164:	447a      	add	r2, pc
    c166:	f002 fe6b 	bl	ee40 <log_write>
    c16a:	1c20      	adds	r0, r4, #0
    c16c:	2100      	movs	r1, #0
    c16e:	f001 f88d 	bl	d28c <service_start>
    c172:	2000      	movs	r0, #0
    c174:	bd10      	pop	{r4, pc}
    c176:	46c0      	nop			(mov r8, r8)
    c178:	0000f318 	.word	0x0000f318
    c17c:	0000e778 	.word	0x0000e778

0000c180 <do_setrlimit>:
    c180:	b570      	push	{r4, r5, r6, lr}
    c182:	b082      	sub	sp, #8
    c184:	6848      	ldr	r0, [r1, #4]
    c186:	1c0c      	adds	r4, r1, #0
    c188:	f007 fa28 	bl	135dc <atoi>
    c18c:	1c06      	adds	r6, r0, #0
    c18e:	68a0      	ldr	r0, [r4, #8]
    c190:	f007 fa24 	bl	135dc <atoi>
    c194:	9000      	str	r0, [sp, #0]
    c196:	68e0      	ldr	r0, [r4, #12]
    c198:	f007 fa20 	bl	135dc <atoi>
    c19c:	4669      	mov	r1, sp
    c19e:	9001      	str	r0, [sp, #4]
    c1a0:	1c30      	adds	r0, r6, #0
    c1a2:	f7fc e82e 	blx	8200 <setrlimit>
    c1a6:	b002      	add	sp, #8
    c1a8:	bd70      	pop	{r4, r5, r6, pc}
    c1aa:	46c0      	nop			(mov r8, r8)

0000c1ac <do_setprop>:
    c1ac:	b510      	push	{r4, lr}
    c1ae:	6848      	ldr	r0, [r1, #4]
    c1b0:	6889      	ldr	r1, [r1, #8]
    c1b2:	f002 f9ab 	bl	e50c <property_set>
    c1b6:	2000      	movs	r0, #0
    c1b8:	bd10      	pop	{r4, pc}
    c1ba:	46c0      	nop			(mov r8, r8)

0000c1bc <setkey>:
    c1bc:	b570      	push	{r4, r5, r6, lr}
    c1be:	1c04      	adds	r4, r0, #0
    c1c0:	480a      	ldr	r0, [pc, #40]	(c1ec <setkey+0x30>)
    c1c2:	490b      	ldr	r1, [pc, #44]	(c1f0 <setkey+0x34>)
    c1c4:	4478      	add	r0, pc
    c1c6:	f004 fe35 	bl	10e34 <open>
    c1ca:	1e05      	subs	r5, r0, #0
    c1cc:	da02      	bge.n	c1d4 <setkey+0x18>
    c1ce:	2401      	movs	r4, #1
    c1d0:	4264      	negs	r4, r4
    c1d2:	e008      	b.n	c1e6 <setkey+0x2a>
    c1d4:	1c22      	adds	r2, r4, #0
    c1d6:	1c28      	adds	r0, r5, #0
    c1d8:	4906      	ldr	r1, [pc, #24]	(c1f4 <setkey+0x38>)
    c1da:	f00a f967 	bl	164ac <ioctl>
    c1de:	1c04      	adds	r4, r0, #0
    c1e0:	1c28      	adds	r0, r5, #0
    c1e2:	f7fc e86e 	blx	82c0 <close>
    c1e6:	1c20      	adds	r0, r4, #0
    c1e8:	bd70      	pop	{r4, r5, r6, pc}
    c1ea:	46c0      	nop			(mov r8, r8)
    c1ec:	0000f2c6 	.word	0x0000f2c6
    c1f0:	00001002 	.word	0x00001002
    c1f4:	00004b47 	.word	0x00004b47

0000c1f8 <do_setkey>:
    c1f8:	b530      	push	{r4, r5, lr}
    c1fa:	b083      	sub	sp, #12
    c1fc:	1c0c      	adds	r4, r1, #0
    c1fe:	6848      	ldr	r0, [r1, #4]
    c200:	2200      	movs	r2, #0
    c202:	2100      	movs	r1, #0
    c204:	f009 fdc8 	bl	15d98 <strtoul>
    c208:	ad01      	add	r5, sp, #4
    c20a:	7028      	strb	r0, [r5, #0]
    c20c:	2100      	movs	r1, #0
    c20e:	68a0      	ldr	r0, [r4, #8]
    c210:	2200      	movs	r2, #0
    c212:	f009 fdc1 	bl	15d98 <strtoul>
    c216:	2100      	movs	r1, #0
    c218:	7068      	strb	r0, [r5, #1]
    c21a:	2200      	movs	r2, #0
    c21c:	68e0      	ldr	r0, [r4, #12]
    c21e:	f009 fdbb 	bl	15d98 <strtoul>
    c222:	8068      	strh	r0, [r5, #2]
    c224:	1c28      	adds	r0, r5, #0
    c226:	f7ff ffc9 	bl	c1bc <setkey>
    c22a:	b003      	add	sp, #12
    c22c:	bd30      	pop	{r4, r5, pc}
    c22e:	46c0      	nop			(mov r8, r8)

0000c230 <do_mount>:
    c230:	b5f0      	push	{r4, r5, r6, r7, lr}
    c232:	4b75      	ldr	r3, [pc, #468]	(c408 <do_mount+0x1d8>)
    c234:	4f75      	ldr	r7, [pc, #468]	(c40c <do_mount+0x1dc>)
    c236:	b0bf      	sub	sp, #252
    c238:	447b      	add	r3, pc
    c23a:	59de      	ldr	r6, [r3, r7]
    c23c:	9308      	str	r3, [sp, #32]
    c23e:	4b74      	ldr	r3, [pc, #464]	(c410 <do_mount+0x1e0>)
    c240:	6835      	ldr	r5, [r6, #0]
    c242:	4f74      	ldr	r7, [pc, #464]	(c414 <do_mount+0x1e4>)
    c244:	9009      	str	r0, [sp, #36]
    c246:	1c08      	adds	r0, r1, #0
    c248:	1c0c      	adds	r4, r1, #0
    c24a:	3010      	adds	r0, #16
    c24c:	2100      	movs	r1, #0
    c24e:	2204      	movs	r2, #4
    c250:	447b      	add	r3, pc
    c252:	953d      	str	r5, [sp, #244]
    c254:	9003      	str	r0, [sp, #12]
    c256:	9104      	str	r1, [sp, #16]
    c258:	9202      	str	r2, [sp, #8]
    c25a:	9106      	str	r1, [sp, #24]
    c25c:	2600      	movs	r6, #0
    c25e:	447f      	add	r7, pc
    c260:	9307      	str	r3, [sp, #28]
    c262:	e024      	b.n	c2ae <do_mount+0x7e>
    c264:	f7fc eec4 	blx	8ff0 <strcmp>
    c268:	3508      	adds	r5, #8
    c26a:	2800      	cmp	r0, #0
    c26c:	d109      	bne.n	c282 <do_mount+0x52>
    c26e:	9905      	ldr	r1, [sp, #20]
    c270:	4d69      	ldr	r5, [pc, #420]	(c418 <do_mount+0x1e8>)
    c272:	00cb      	lsls	r3, r1, #3
    c274:	447d      	add	r5, pc
    c276:	18e8      	adds	r0, r5, r3
    c278:	9906      	ldr	r1, [sp, #24]
    c27a:	6842      	ldr	r2, [r0, #4]
    c27c:	4311      	orrs	r1, r2
    c27e:	9106      	str	r1, [sp, #24]
    c280:	e00d      	b.n	c29e <do_mount+0x6e>
    c282:	9b05      	ldr	r3, [sp, #20]
    c284:	3301      	adds	r3, #1
    c286:	9a03      	ldr	r2, [sp, #12]
    c288:	6829      	ldr	r1, [r5, #0]
    c28a:	9305      	str	r3, [sp, #20]
    c28c:	6810      	ldr	r0, [r2, #0]
    c28e:	2900      	cmp	r1, #0
    c290:	d1e8      	bne.n	c264 <do_mount+0x34>
    c292:	e0aa      	b.n	c3ea <do_mount+0x1ba>
    c294:	9802      	ldr	r0, [sp, #8]
    c296:	9909      	ldr	r1, [sp, #36]
    c298:	3001      	adds	r0, #1
    c29a:	4288      	cmp	r0, r1
    c29c:	d000      	beq.n	c2a0 <do_mount+0x70>
    c29e:	1c35      	adds	r5, r6, #0
    c2a0:	9b02      	ldr	r3, [sp, #8]
    c2a2:	9e03      	ldr	r6, [sp, #12]
    c2a4:	3301      	adds	r3, #1
    c2a6:	3604      	adds	r6, #4
    c2a8:	9603      	str	r6, [sp, #12]
    c2aa:	9302      	str	r3, [sp, #8]
    c2ac:	1c2e      	adds	r6, r5, #0
    c2ae:	9d02      	ldr	r5, [sp, #8]
    c2b0:	9a09      	ldr	r2, [sp, #36]
    c2b2:	4295      	cmp	r5, r2
    c2b4:	da02      	bge.n	c2bc <do_mount+0x8c>
    c2b6:	1c3d      	adds	r5, r7, #0
    c2b8:	2300      	movs	r3, #0
    c2ba:	e7e4      	b.n	c286 <do_mount+0x56>
    c2bc:	6867      	ldr	r7, [r4, #4]
    c2be:	4957      	ldr	r1, [pc, #348]	(c41c <do_mount+0x1ec>)
    c2c0:	2204      	movs	r2, #4
    c2c2:	9703      	str	r7, [sp, #12]
    c2c4:	68a5      	ldr	r5, [r4, #8]
    c2c6:	68e4      	ldr	r4, [r4, #12]
    c2c8:	4479      	add	r1, pc
    c2ca:	1c28      	adds	r0, r5, #0
    c2cc:	9405      	str	r4, [sp, #20]
    c2ce:	f00a f9eb 	bl	166a8 <strncmp>
    c2d2:	2800      	cmp	r0, #0
    c2d4:	d114      	bne.n	c300 <do_mount+0xd0>
    c2d6:	1d28      	adds	r0, r5, #4
    c2d8:	f002 ff92 	bl	f200 <mtd_name_to_number>
    c2dc:	1e02      	subs	r2, r0, #0
    c2de:	db78      	blt.n	c3d2 <do_mount+0x1a2>
    c2e0:	494f      	ldr	r1, [pc, #316]	(c420 <do_mount+0x1f0>)
    c2e2:	ac2d      	add	r4, sp, #180
    c2e4:	1c20      	adds	r0, r4, #0
    c2e6:	4479      	add	r1, pc
    c2e8:	f004 ff2a 	bl	11140 <sprintf>
    c2ec:	9904      	ldr	r1, [sp, #16]
    c2ee:	2900      	cmp	r1, #0
    c2f0:	d003      	beq.n	c2fa <do_mount+0xca>
    c2f2:	1c20      	adds	r0, r4, #0
    c2f4:	2105      	movs	r1, #5
    c2f6:	f002 febf 	bl	f078 <wait_for_file>
    c2fa:	9600      	str	r6, [sp, #0]
    c2fc:	a82d      	add	r0, sp, #180
    c2fe:	e061      	b.n	c3c4 <do_mount+0x194>
    c300:	4948      	ldr	r1, [pc, #288]	(c424 <do_mount+0x1f4>)
    c302:	1c28      	adds	r0, r5, #0
    c304:	2205      	movs	r2, #5
    c306:	4479      	add	r1, pc
    c308:	f00a f9ce 	bl	166a8 <strncmp>
    c30c:	2800      	cmp	r0, #0
    c30e:	d150      	bne.n	c3b2 <do_mount+0x182>
    c310:	9c06      	ldr	r4, [sp, #24]
    c312:	2201      	movs	r2, #1
    c314:	4022      	ands	r2, r4
    c316:	4250      	negs	r0, r2
    c318:	4150      	adcs	r0, r2
    c31a:	0043      	lsls	r3, r0, #1
    c31c:	1c19      	adds	r1, r3, #0
    c31e:	1d68      	adds	r0, r5, #5
    c320:	9307      	str	r3, [sp, #28]
    c322:	f004 fd87 	bl	10e34 <open>
    c326:	9002      	str	r0, [sp, #8]
    c328:	2800      	cmp	r0, #0
    c32a:	db52      	blt.n	c3d2 <do_mount+0x1a2>
    c32c:	4d3e      	ldr	r5, [pc, #248]	(c428 <do_mount+0x1f8>)
    c32e:	4669      	mov	r1, sp
    c330:	31b4      	adds	r1, #180
    c332:	2700      	movs	r7, #0
    c334:	9104      	str	r1, [sp, #16]
    c336:	447d      	add	r5, pc
    c338:	1c29      	adds	r1, r5, #0
    c33a:	9804      	ldr	r0, [sp, #16]
    c33c:	1c3a      	adds	r2, r7, #0
    c33e:	f004 feff 	bl	11140 <sprintf>
    c342:	9804      	ldr	r0, [sp, #16]
    c344:	9907      	ldr	r1, [sp, #28]
    c346:	f004 fd75 	bl	10e34 <open>
    c34a:	1e04      	subs	r4, r0, #0
    c34c:	db41      	blt.n	c3d2 <do_mount+0x1a2>
    c34e:	1c20      	adds	r0, r4, #0
    c350:	4936      	ldr	r1, [pc, #216]	(c42c <do_mount+0x1fc>)
    c352:	aa0a      	add	r2, sp, #40
    c354:	f00a f8aa 	bl	164ac <ioctl>
    c358:	2800      	cmp	r0, #0
    c35a:	da25      	bge.n	c3a8 <do_mount+0x178>
    c35c:	f00a fd5e 	bl	16e1c <__errno>
    c360:	6803      	ldr	r3, [r0, #0]
    c362:	2b06      	cmp	r3, #6
    c364:	d120      	bne.n	c3a8 <do_mount+0x178>
    c366:	2298      	movs	r2, #152
    c368:	01d1      	lsls	r1, r2, #7
    c36a:	1c20      	adds	r0, r4, #0
    c36c:	9a02      	ldr	r2, [sp, #8]
    c36e:	f00a f89d 	bl	164ac <ioctl>
    c372:	2800      	cmp	r0, #0
    c374:	db18      	blt.n	c3a8 <do_mount+0x178>
    c376:	9802      	ldr	r0, [sp, #8]
    c378:	f7fb efa2 	blx	82c0 <close>
    c37c:	9804      	ldr	r0, [sp, #16]
    c37e:	9905      	ldr	r1, [sp, #20]
    c380:	9a03      	ldr	r2, [sp, #12]
    c382:	9b06      	ldr	r3, [sp, #24]
    c384:	9600      	str	r6, [sp, #0]
    c386:	f7fc e86c 	blx	8460 <mount>
    c38a:	2800      	cmp	r0, #0
    c38c:	da08      	bge.n	c3a0 <do_mount+0x170>
    c38e:	1c20      	adds	r0, r4, #0
    c390:	4927      	ldr	r1, [pc, #156]	(c430 <do_mount+0x200>)
    c392:	2200      	movs	r2, #0
    c394:	f00a f88a 	bl	164ac <ioctl>
    c398:	1c20      	adds	r0, r4, #0
    c39a:	f7fb ef92 	blx	82c0 <close>
    c39e:	e018      	b.n	c3d2 <do_mount+0x1a2>
    c3a0:	1c20      	adds	r0, r4, #0
    c3a2:	f7fb ef8e 	blx	82c0 <close>
    c3a6:	e017      	b.n	c3d8 <do_mount+0x1a8>
    c3a8:	1c20      	adds	r0, r4, #0
    c3aa:	f7fb ef8a 	blx	82c0 <close>
    c3ae:	3701      	adds	r7, #1
    c3b0:	e7c2      	b.n	c338 <do_mount+0x108>
    c3b2:	9f04      	ldr	r7, [sp, #16]
    c3b4:	2f00      	cmp	r7, #0
    c3b6:	d003      	beq.n	c3c0 <do_mount+0x190>
    c3b8:	1c28      	adds	r0, r5, #0
    c3ba:	2105      	movs	r1, #5
    c3bc:	f002 fe5c 	bl	f078 <wait_for_file>
    c3c0:	9600      	str	r6, [sp, #0]
    c3c2:	1c28      	adds	r0, r5, #0
    c3c4:	9905      	ldr	r1, [sp, #20]
    c3c6:	9a03      	ldr	r2, [sp, #12]
    c3c8:	9b06      	ldr	r3, [sp, #24]
    c3ca:	f7fc e84a 	blx	8460 <mount>
    c3ce:	2800      	cmp	r0, #0
    c3d0:	da02      	bge.n	c3d8 <do_mount+0x1a8>
    c3d2:	2601      	movs	r6, #1
    c3d4:	4270      	negs	r0, r6
    c3d6:	e000      	b.n	c3da <do_mount+0x1aa>
    c3d8:	2000      	movs	r0, #0
    c3da:	4a0c      	ldr	r2, [pc, #48]	(c40c <do_mount+0x1dc>)
    c3dc:	9908      	ldr	r1, [sp, #32]
    c3de:	9d3d      	ldr	r5, [sp, #244]
    c3e0:	588c      	ldr	r4, [r1, r2]
    c3e2:	6823      	ldr	r3, [r4, #0]
    c3e4:	429d      	cmp	r5, r3
    c3e6:	d00d      	beq.n	c404 <do_mount+0x1d4>
    c3e8:	e00a      	b.n	c400 <do_mount+0x1d0>
    c3ea:	9907      	ldr	r1, [sp, #28]
    c3ec:	1c05      	adds	r5, r0, #0
    c3ee:	f7fc ee00 	blx	8ff0 <strcmp>
    c3f2:	2800      	cmp	r0, #0
    c3f4:	d000      	beq.n	c3f8 <do_mount+0x1c8>
    c3f6:	e74d      	b.n	c294 <do_mount+0x64>
    c3f8:	2001      	movs	r0, #1
    c3fa:	1c35      	adds	r5, r6, #0
    c3fc:	9004      	str	r0, [sp, #16]
    c3fe:	e74f      	b.n	c2a0 <do_mount+0x70>
    c400:	f00a f862 	bl	164c8 <__stack_chk_fail>
    c404:	b03f      	add	sp, #252
    c406:	bdf0      	pop	{r4, r5, r6, r7, pc}
    c408:	00013538 	.word	0x00013538
    c40c:	ffffff90 	.word	0xffffff90
    c410:	0000f277 	.word	0x0000f277
    c414:	00012dde 	.word	0x00012dde
    c418:	00012dc8 	.word	0x00012dc8
    c41c:	0000f1cc 	.word	0x0000f1cc
    c420:	0000f1b3 	.word	0x0000f1b3
    c424:	0000f1a9 	.word	0x0000f1a9
    c428:	0000f17f 	.word	0x0000f17f
    c42c:	00004c03 	.word	0x00004c03
    c430:	00004c01 	.word	0x00004c01

0000c434 <do_mkdir>:
    c434:	b570      	push	{r4, r5, r6, lr}
    c436:	1c05      	adds	r5, r0, #0
    c438:	1c0c      	adds	r4, r1, #0
    c43a:	2802      	cmp	r0, #2
    c43c:	dc01      	bgt.n	c442 <do_mkdir+0xe>
    c43e:	4915      	ldr	r1, [pc, #84]	(c494 <do_mkdir+0x60>)
    c440:	e006      	b.n	c450 <do_mkdir+0x1c>
    c442:	6888      	ldr	r0, [r1, #8]
    c444:	2208      	movs	r2, #8
    c446:	2100      	movs	r1, #0
    c448:	f009 fca6 	bl	15d98 <strtoul>
    c44c:	0401      	lsls	r1, r0, #16
    c44e:	0c09      	lsrs	r1, r1, #16
    c450:	6860      	ldr	r0, [r4, #4]
    c452:	f7fc e83e 	blx	84d0 <mkdir>
    c456:	2800      	cmp	r0, #0
    c458:	d114      	bne.n	c484 <do_mkdir+0x50>
    c45a:	2d03      	cmp	r5, #3
    c45c:	dd17      	ble.n	c48e <do_mkdir+0x5a>
    c45e:	68e0      	ldr	r0, [r4, #12]
    c460:	f002 fc6e 	bl	ed40 <decode_uid>
    c464:	1c06      	adds	r6, r0, #0
    c466:	2d05      	cmp	r5, #5
    c468:	d002      	beq.n	c470 <do_mkdir+0x3c>
    c46a:	2201      	movs	r2, #1
    c46c:	4252      	negs	r2, r2
    c46e:	e003      	b.n	c478 <do_mkdir+0x44>
    c470:	6920      	ldr	r0, [r4, #16]
    c472:	f002 fc65 	bl	ed40 <decode_uid>
    c476:	1c02      	adds	r2, r0, #0
    c478:	6860      	ldr	r0, [r4, #4]
    c47a:	1c31      	adds	r1, r6, #0
    c47c:	f7fb efe0 	blx	8440 <chown>
    c480:	2800      	cmp	r0, #0
    c482:	d004      	beq.n	c48e <do_mkdir+0x5a>
    c484:	f00a fcca 	bl	16e1c <__errno>
    c488:	6800      	ldr	r0, [r0, #0]
    c48a:	4240      	negs	r0, r0
    c48c:	e000      	b.n	c490 <do_mkdir+0x5c>
    c48e:	2000      	movs	r0, #0
    c490:	bd70      	pop	{r4, r5, r6, pc}
    c492:	46c0      	nop			(mov r8, r8)
    c494:	000001ed 	.word	0x000001ed

0000c498 <do_import>:
    c498:	b510      	push	{r4, lr}
    c49a:	6848      	ldr	r0, [r1, #4]
    c49c:	f004 f806 	bl	104ac <init_parse_config_file>
    c4a0:	bd10      	pop	{r4, pc}
    c4a2:	46c0      	nop			(mov r8, r8)

0000c4a4 <insmod>:
    c4a4:	b530      	push	{r4, r5, lr}
    c4a6:	b083      	sub	sp, #12
    c4a8:	1c0c      	adds	r4, r1, #0
    c4aa:	a901      	add	r1, sp, #4
    c4ac:	f002 fc84 	bl	edb8 <read_file>
    c4b0:	1e05      	subs	r5, r0, #0
    c4b2:	d102      	bne.n	c4ba <insmod+0x16>
    c4b4:	2401      	movs	r4, #1
    c4b6:	4264      	negs	r4, r4
    c4b8:	e008      	b.n	c4cc <insmod+0x28>
    c4ba:	1c22      	adds	r2, r4, #0
    c4bc:	1c28      	adds	r0, r5, #0
    c4be:	9901      	ldr	r1, [sp, #4]
    c4c0:	f7fc e936 	blx	8730 <init_module>
    c4c4:	1c04      	adds	r4, r0, #0
    c4c6:	1c28      	adds	r0, r5, #0
    c4c8:	f00a fcbe 	bl	16e48 <free>
    c4cc:	b003      	add	sp, #12
    c4ce:	1c20      	adds	r0, r4, #0
    c4d0:	bd30      	pop	{r4, r5, pc}
    c4d2:	46c0      	nop			(mov r8, r8)

0000c4d4 <do_insmod_inner>:
    c4d4:	b5f0      	push	{r4, r5, r6, r7, lr}
    c4d6:	4d21      	ldr	r5, [pc, #132]	(c55c <do_insmod_inner+0x88>)
    c4d8:	1c0c      	adds	r4, r1, #0
    c4da:	4921      	ldr	r1, [pc, #132]	(c560 <do_insmod_inner+0x8c>)
    c4dc:	447d      	add	r5, pc
    c4de:	b087      	sub	sp, #28
    c4e0:	586b      	ldr	r3, [r5, r1]
    c4e2:	320f      	adds	r2, #15
    c4e4:	af00      	add	r7, sp, #0
    c4e6:	08d6      	lsrs	r6, r2, #3
    c4e8:	6038      	str	r0, [r7, #0]
    c4ea:	00f1      	lsls	r1, r6, #3
    c4ec:	6818      	ldr	r0, [r3, #0]
    c4ee:	466b      	mov	r3, sp
    c4f0:	1a5b      	subs	r3, r3, r1
    c4f2:	469d      	mov	sp, r3
    c4f4:	6178      	str	r0, [r7, #20]
    c4f6:	466a      	mov	r2, sp
    c4f8:	2000      	movs	r0, #0
    c4fa:	60fb      	str	r3, [r7, #12]
    c4fc:	7010      	strb	r0, [r2, #0]
    c4fe:	683b      	ldr	r3, [r7, #0]
    c500:	2b02      	cmp	r3, #2
    c502:	dd1c      	ble.n	c53e <do_insmod_inner+0x6a>
    c504:	1c26      	adds	r6, r4, #0
    c506:	360c      	adds	r6, #12
    c508:	68a1      	ldr	r1, [r4, #8]
    c50a:	68f8      	ldr	r0, [r7, #12]
    c50c:	f7fc ecf0 	blx	8ef0 <strcpy>
    c510:	607e      	str	r6, [r7, #4]
    c512:	4e14      	ldr	r6, [pc, #80]	(c564 <do_insmod_inner+0x90>)
    c514:	2203      	movs	r2, #3
    c516:	60ba      	str	r2, [r7, #8]
    c518:	447e      	add	r6, pc
    c51a:	e00c      	b.n	c536 <do_insmod_inner+0x62>
    c51c:	1c31      	adds	r1, r6, #0
    c51e:	68f8      	ldr	r0, [r7, #12]
    c520:	f009 fdde 	bl	160e0 <strcat>
    c524:	687b      	ldr	r3, [r7, #4]
    c526:	68f8      	ldr	r0, [r7, #12]
    c528:	cb02      	ldmia	r3!, {r1}
    c52a:	607b      	str	r3, [r7, #4]
    c52c:	f009 fdd8 	bl	160e0 <strcat>
    c530:	68b8      	ldr	r0, [r7, #8]
    c532:	3001      	adds	r0, #1
    c534:	60b8      	str	r0, [r7, #8]
    c536:	68b9      	ldr	r1, [r7, #8]
    c538:	683b      	ldr	r3, [r7, #0]
    c53a:	4299      	cmp	r1, r3
    c53c:	d1ee      	bne.n	c51c <do_insmod_inner+0x48>
    c53e:	4e08      	ldr	r6, [pc, #32]	(c560 <do_insmod_inner+0x8c>)
    c540:	6860      	ldr	r0, [r4, #4]
    c542:	68f9      	ldr	r1, [r7, #12]
    c544:	f7ff ffae 	bl	c4a4 <insmod>
    c548:	59aa      	ldr	r2, [r5, r6]
    c54a:	697c      	ldr	r4, [r7, #20]
    c54c:	6813      	ldr	r3, [r2, #0]
    c54e:	429c      	cmp	r4, r3
    c550:	d001      	beq.n	c556 <do_insmod_inner+0x82>
    c552:	f009 ffb9 	bl	164c8 <__stack_chk_fail>
    c556:	46bd      	mov	sp, r7
    c558:	b007      	add	sp, #28
    c55a:	bdf0      	pop	{r4, r5, r6, r7, pc}
    c55c:	00013294 	.word	0x00013294
    c560:	ffffff90 	.word	0xffffff90
    c564:	0000efb4 	.word	0x0000efb4

0000c568 <do_insmod>:
    c568:	b5f0      	push	{r4, r5, r6, r7, lr}
    c56a:	b083      	sub	sp, #12
    c56c:	1c07      	adds	r7, r0, #0
    c56e:	9101      	str	r1, [sp, #4]
    c570:	2500      	movs	r5, #0
    c572:	2802      	cmp	r0, #2
    c574:	dd0a      	ble.n	c58c <do_insmod+0x24>
    c576:	1c0c      	adds	r4, r1, #0
    c578:	3408      	adds	r4, #8
    c57a:	2602      	movs	r6, #2
    c57c:	cc01      	ldmia	r4!, {r0}
    c57e:	f004 eb94 	blx	10ca8 <strlen>
    c582:	3601      	adds	r6, #1
    c584:	3001      	adds	r0, #1
    c586:	1945      	adds	r5, r0, r5
    c588:	42be      	cmp	r6, r7
    c58a:	d1f7      	bne.n	c57c <do_insmod+0x14>
    c58c:	1c38      	adds	r0, r7, #0
    c58e:	9901      	ldr	r1, [sp, #4]
    c590:	1c2a      	adds	r2, r5, #0
    c592:	f7ff ff9f 	bl	c4d4 <do_insmod_inner>
    c596:	b003      	add	sp, #12
    c598:	bdf0      	pop	{r4, r5, r6, r7, pc}
    c59a:	46c0      	nop			(mov r8, r8)

0000c59c <do_export>:
    c59c:	b510      	push	{r4, lr}
    c59e:	6848      	ldr	r0, [r1, #4]
    c5a0:	6889      	ldr	r1, [r1, #8]
    c5a2:	f000 fe01 	bl	d1a8 <add_environment>
    c5a6:	2000      	movs	r0, #0
    c5a8:	bd10      	pop	{r4, pc}
    c5aa:	46c0      	nop			(mov r8, r8)

0000c5ac <do_class_stop>:
    c5ac:	b510      	push	{r4, lr}
    c5ae:	4b04      	ldr	r3, [pc, #16]	(c5c0 <do_class_stop+0x14>)
    c5b0:	4a04      	ldr	r2, [pc, #16]	(c5c4 <do_class_stop+0x18>)
    c5b2:	6848      	ldr	r0, [r1, #4]
    c5b4:	447b      	add	r3, pc
    c5b6:	5899      	ldr	r1, [r3, r2]
    c5b8:	f003 fc0a 	bl	fdd0 <service_for_each_class>
    c5bc:	2000      	movs	r0, #0
    c5be:	bd10      	pop	{r4, pc}
    c5c0:	000131bc 	.word	0x000131bc
    c5c4:	ffffff94 	.word	0xffffff94

0000c5c8 <do_class_start>:
    c5c8:	b510      	push	{r4, lr}
    c5ca:	6848      	ldr	r0, [r1, #4]
    c5cc:	4902      	ldr	r1, [pc, #8]	(c5d8 <do_class_start+0x10>)
    c5ce:	4479      	add	r1, pc
    c5d0:	f003 fbfe 	bl	fdd0 <service_for_each_class>
    c5d4:	2000      	movs	r0, #0
    c5d6:	bd10      	pop	{r4, pc}
    c5d8:	fffffb6f 	.word	0xfffffb6f

0000c5dc <do_chroot>:
    c5dc:	b510      	push	{r4, lr}
    c5de:	6848      	ldr	r0, [r1, #4]
    c5e0:	f7fb ee3e 	blx	8260 <chroot>
    c5e4:	2000      	movs	r0, #0
    c5e6:	bd10      	pop	{r4, pc}

0000c5e8 <do_chdir>:
    c5e8:	b510      	push	{r4, lr}
    c5ea:	6848      	ldr	r0, [r1, #4]
    c5ec:	f7fb eef8 	blx	83e0 <chdir>
    c5f0:	2000      	movs	r0, #0
    c5f2:	bd10      	pop	{r4, pc}

0000c5f4 <__ifupdown.clone.0>:
    c5f4:	b5f0      	push	{r4, r5, r6, r7, lr}
    c5f6:	4d1b      	ldr	r5, [pc, #108]	(c664 <__ifupdown.clone.0+0x70>)
    c5f8:	4a1b      	ldr	r2, [pc, #108]	(c668 <__ifupdown.clone.0+0x74>)
    c5fa:	1c01      	adds	r1, r0, #0
    c5fc:	447d      	add	r5, pc
    c5fe:	58a8      	ldr	r0, [r5, r2]
    c600:	b08b      	sub	sp, #44
    c602:	ae01      	add	r6, sp, #4
    c604:	6803      	ldr	r3, [r0, #0]
    c606:	2210      	movs	r2, #16
    c608:	1c30      	adds	r0, r6, #0
    c60a:	9309      	str	r3, [sp, #36]
    c60c:	f009 fe04 	bl	16218 <strlcpy>
    c610:	2002      	movs	r0, #2
    c612:	2102      	movs	r1, #2
    c614:	2200      	movs	r2, #0
    c616:	f7fb efcc 	blx	85b0 <socket>
    c61a:	1e07      	subs	r7, r0, #0
    c61c:	da02      	bge.n	c624 <__ifupdown.clone.0+0x30>
    c61e:	2401      	movs	r4, #1
    c620:	4264      	negs	r4, r4
    c622:	e013      	b.n	c64c <__ifupdown.clone.0+0x58>
    c624:	1c38      	adds	r0, r7, #0
    c626:	4911      	ldr	r1, [pc, #68]	(c66c <__ifupdown.clone.0+0x78>)
    c628:	1c32      	adds	r2, r6, #0
    c62a:	f009 ff3f 	bl	164ac <ioctl>
    c62e:	1e04      	subs	r4, r0, #0
    c630:	db09      	blt.n	c646 <__ifupdown.clone.0+0x52>
    c632:	8a33      	ldrh	r3, [r6, #16]
    c634:	2101      	movs	r1, #1
    c636:	1c38      	adds	r0, r7, #0
    c638:	4319      	orrs	r1, r3
    c63a:	8231      	strh	r1, [r6, #16]
    c63c:	1c32      	adds	r2, r6, #0
    c63e:	490c      	ldr	r1, [pc, #48]	(c670 <__ifupdown.clone.0+0x7c>)
    c640:	f009 ff34 	bl	164ac <ioctl>
    c644:	1c04      	adds	r4, r0, #0
    c646:	1c38      	adds	r0, r7, #0
    c648:	f7fb ee3a 	blx	82c0 <close>
    c64c:	4f06      	ldr	r7, [pc, #24]	(c668 <__ifupdown.clone.0+0x74>)
    c64e:	1c20      	adds	r0, r4, #0
    c650:	59ee      	ldr	r6, [r5, r7]
    c652:	9d09      	ldr	r5, [sp, #36]
    c654:	6833      	ldr	r3, [r6, #0]
    c656:	429d      	cmp	r5, r3
    c658:	d001      	beq.n	c65e <__ifupdown.clone.0+0x6a>
    c65a:	f009 ff35 	bl	164c8 <__stack_chk_fail>
    c65e:	b00b      	add	sp, #44
    c660:	bdf0      	pop	{r4, r5, r6, r7, pc}
    c662:	46c0      	nop			(mov r8, r8)
    c664:	00013174 	.word	0x00013174
    c668:	ffffff90 	.word	0xffffff90
    c66c:	00008913 	.word	0x00008913
    c670:	00008914 	.word	0x00008914

0000c674 <do_ifup>:
    c674:	b510      	push	{r4, lr}
    c676:	6848      	ldr	r0, [r1, #4]
    c678:	f7ff ffbc 	bl	c5f4 <__ifupdown.clone.0>
    c67c:	bd10      	pop	{r4, pc}
    c67e:	46c0      	nop			(mov r8, r8)

0000c680 <import_kernel_nv>:
    c680:	b5f0      	push	{r4, r5, r6, r7, lr}
    c682:	4e43      	ldr	r6, [pc, #268]	(c790 <import_kernel_nv+0x110>)
    c684:	1c0f      	adds	r7, r1, #0
    c686:	4943      	ldr	r1, [pc, #268]	(c794 <import_kernel_nv+0x114>)
    c688:	447e      	add	r6, pc
    c68a:	1c04      	adds	r4, r0, #0
    c68c:	5870      	ldr	r0, [r6, r1]
    c68e:	b08b      	sub	sp, #44
    c690:	213d      	movs	r1, #61
    c692:	6803      	ldr	r3, [r0, #0]
    c694:	1c20      	adds	r0, r4, #0
    c696:	9309      	str	r3, [sp, #36]
    c698:	f009 fd30 	bl	160fc <strchr>
    c69c:	2800      	cmp	r0, #0
    c69e:	d06c      	beq.n	c77a <import_kernel_nv+0xfa>
    c6a0:	2500      	movs	r5, #0
    c6a2:	7005      	strb	r5, [r0, #0]
    c6a4:	7822      	ldrb	r2, [r4, #0]
    c6a6:	2a00      	cmp	r2, #0
    c6a8:	d067      	beq.n	c77a <import_kernel_nv+0xfa>
    c6aa:	1c45      	adds	r5, r0, #1
    c6ac:	2f00      	cmp	r7, #0
    c6ae:	d156      	bne.n	c75e <import_kernel_nv+0xde>
    c6b0:	4939      	ldr	r1, [pc, #228]	(c798 <import_kernel_nv+0x118>)
    c6b2:	1c20      	adds	r0, r4, #0
    c6b4:	4479      	add	r1, pc
    c6b6:	f7fc ec9c 	blx	8ff0 <strcmp>
    c6ba:	2800      	cmp	r0, #0
    c6bc:	d102      	bne.n	c6c4 <import_kernel_nv+0x44>
    c6be:	4837      	ldr	r0, [pc, #220]	(c79c <import_kernel_nv+0x11c>)
    c6c0:	4478      	add	r0, pc
    c6c2:	e009      	b.n	c6d8 <import_kernel_nv+0x58>
    c6c4:	4936      	ldr	r1, [pc, #216]	(c7a0 <import_kernel_nv+0x120>)
    c6c6:	1c20      	adds	r0, r4, #0
    c6c8:	4479      	add	r1, pc
    c6ca:	f7fc ec92 	blx	8ff0 <strcmp>
    c6ce:	2800      	cmp	r0, #0
    c6d0:	d107      	bne.n	c6e2 <import_kernel_nv+0x62>
    c6d2:	4834      	ldr	r0, [pc, #208]	(c7a4 <import_kernel_nv+0x124>)
    c6d4:	4478      	add	r0, pc
    c6d6:	3020      	adds	r0, #32
    c6d8:	1c29      	adds	r1, r5, #0
    c6da:	2220      	movs	r2, #32
    c6dc:	f009 fd9c 	bl	16218 <strlcpy>
    c6e0:	e04b      	b.n	c77a <import_kernel_nv+0xfa>
    c6e2:	4931      	ldr	r1, [pc, #196]	(c7a8 <import_kernel_nv+0x128>)
    c6e4:	1c20      	adds	r0, r4, #0
    c6e6:	4479      	add	r1, pc
    c6e8:	f7fc ec82 	blx	8ff0 <strcmp>
    c6ec:	2800      	cmp	r0, #0
    c6ee:	d102      	bne.n	c6f6 <import_kernel_nv+0x76>
    c6f0:	482e      	ldr	r0, [pc, #184]	(c7ac <import_kernel_nv+0x12c>)
    c6f2:	4478      	add	r0, pc
    c6f4:	e026      	b.n	c744 <import_kernel_nv+0xc4>
    c6f6:	492e      	ldr	r1, [pc, #184]	(c7b0 <import_kernel_nv+0x130>)
    c6f8:	1c20      	adds	r0, r4, #0
    c6fa:	4479      	add	r1, pc
    c6fc:	f7fc ec78 	blx	8ff0 <strcmp>
    c700:	2800      	cmp	r0, #0
    c702:	d102      	bne.n	c70a <import_kernel_nv+0x8a>
    c704:	482b      	ldr	r0, [pc, #172]	(c7b4 <import_kernel_nv+0x134>)
    c706:	4478      	add	r0, pc
    c708:	e027      	b.n	c75a <import_kernel_nv+0xda>
    c70a:	492b      	ldr	r1, [pc, #172]	(c7b8 <import_kernel_nv+0x138>)
    c70c:	1c20      	adds	r0, r4, #0
    c70e:	4479      	add	r1, pc
    c710:	f7fc ec6e 	blx	8ff0 <strcmp>
    c714:	2800      	cmp	r0, #0
    c716:	d102      	bne.n	c71e <import_kernel_nv+0x9e>
    c718:	4828      	ldr	r0, [pc, #160]	(c7bc <import_kernel_nv+0x13c>)
    c71a:	4478      	add	r0, pc
    c71c:	e7dc      	b.n	c6d8 <import_kernel_nv+0x58>
    c71e:	4928      	ldr	r1, [pc, #160]	(c7c0 <import_kernel_nv+0x140>)
    c720:	1c20      	adds	r0, r4, #0
    c722:	4479      	add	r1, pc
    c724:	f7fc ec64 	blx	8ff0 <strcmp>
    c728:	2800      	cmp	r0, #0
    c72a:	d102      	bne.n	c732 <import_kernel_nv+0xb2>
    c72c:	4825      	ldr	r0, [pc, #148]	(c7c4 <import_kernel_nv+0x144>)
    c72e:	4478      	add	r0, pc
    c730:	e7d1      	b.n	c6d6 <import_kernel_nv+0x56>
    c732:	4925      	ldr	r1, [pc, #148]	(c7c8 <import_kernel_nv+0x148>)
    c734:	1c20      	adds	r0, r4, #0
    c736:	4479      	add	r1, pc
    c738:	f7fc ec5a 	blx	8ff0 <strcmp>
    c73c:	2800      	cmp	r0, #0
    c73e:	d103      	bne.n	c748 <import_kernel_nv+0xc8>
    c740:	4822      	ldr	r0, [pc, #136]	(c7cc <import_kernel_nv+0x14c>)
    c742:	4478      	add	r0, pc
    c744:	3040      	adds	r0, #64
    c746:	e7c7      	b.n	c6d8 <import_kernel_nv+0x58>
    c748:	4921      	ldr	r1, [pc, #132]	(c7d0 <import_kernel_nv+0x150>)
    c74a:	1c20      	adds	r0, r4, #0
    c74c:	4479      	add	r1, pc
    c74e:	f7fc ec50 	blx	8ff0 <strcmp>
    c752:	2800      	cmp	r0, #0
    c754:	d111      	bne.n	c77a <import_kernel_nv+0xfa>
    c756:	481f      	ldr	r0, [pc, #124]	(c7d4 <import_kernel_nv+0x154>)
    c758:	4478      	add	r0, pc
    c75a:	3060      	adds	r0, #96
    c75c:	e7bc      	b.n	c6d8 <import_kernel_nv+0x58>
    c75e:	4a1e      	ldr	r2, [pc, #120]	(c7d8 <import_kernel_nv+0x158>)
    c760:	af01      	add	r7, sp, #4
    c762:	1c38      	adds	r0, r7, #0
    c764:	447a      	add	r2, pc
    c766:	2120      	movs	r1, #32
    c768:	1c23      	adds	r3, r4, #0
    c76a:	f004 fcbd 	bl	110e8 <snprintf>
    c76e:	281f      	cmp	r0, #31
    c770:	dc03      	bgt.n	c77a <import_kernel_nv+0xfa>
    c772:	1c38      	adds	r0, r7, #0
    c774:	1c29      	adds	r1, r5, #0
    c776:	f001 fec9 	bl	e50c <property_set>
    c77a:	4806      	ldr	r0, [pc, #24]	(c794 <import_kernel_nv+0x114>)
    c77c:	9c09      	ldr	r4, [sp, #36]
    c77e:	5837      	ldr	r7, [r6, r0]
    c780:	683b      	ldr	r3, [r7, #0]
    c782:	429c      	cmp	r4, r3
    c784:	d001      	beq.n	c78a <import_kernel_nv+0x10a>
    c786:	f009 fe9f 	bl	164c8 <__stack_chk_fail>
    c78a:	b00b      	add	sp, #44
    c78c:	bdf0      	pop	{r4, r5, r6, r7, pc}
    c78e:	46c0      	nop			(mov r8, r8)
    c790:	000130e8 	.word	0x000130e8
    c794:	ffffff90 	.word	0xffffff90
    c798:	0000ee60 	.word	0x0000ee60
    c79c:	00014e14 	.word	0x00014e14
    c7a0:	0000ee51 	.word	0x0000ee51
    c7a4:	00014e00 	.word	0x00014e00
    c7a8:	0000ee47 	.word	0x0000ee47
    c7ac:	00014de2 	.word	0x00014de2
    c7b0:	0000ee44 	.word	0x0000ee44
    c7b4:	00014dce 	.word	0x00014dce
    c7b8:	0000ee45 	.word	0x0000ee45
    c7bc:	00014e3a 	.word	0x00014e3a
    c7c0:	0000ee46 	.word	0x0000ee46
    c7c4:	00014e26 	.word	0x00014e26
    c7c8:	0000ee46 	.word	0x0000ee46
    c7cc:	00014e12 	.word	0x00014e12
    c7d0:	0000ee47 	.word	0x0000ee47
    c7d4:	00014dfc 	.word	0x00014dfc
    c7d8:	0000ee44 	.word	0x0000ee44

0000c7dc <import_kernel_cmdline>:
    c7dc:	b5f0      	push	{r4, r5, r6, r7, lr}
    c7de:	4c29      	ldr	r4, [pc, #164]	(c884 <import_kernel_cmdline+0xa8>)
    c7e0:	4d29      	ldr	r5, [pc, #164]	(c888 <import_kernel_cmdline+0xac>)
    c7e2:	4a2a      	ldr	r2, [pc, #168]	(c88c <import_kernel_cmdline+0xb0>)
    c7e4:	44a5      	add	sp, r4
    c7e6:	447d      	add	r5, pc
    c7e8:	9001      	str	r0, [sp, #4]
    c7ea:	58a8      	ldr	r0, [r5, r2]
    c7ec:	4928      	ldr	r1, [pc, #160]	(c890 <import_kernel_cmdline+0xb4>)
    c7ee:	ae03      	add	r6, sp, #12
    c7f0:	6803      	ldr	r3, [r0, #0]
    c7f2:	4828      	ldr	r0, [pc, #160]	(c894 <import_kernel_cmdline+0xb8>)
    c7f4:	4469      	add	r1, sp
    c7f6:	600b      	str	r3, [r1, #0]
    c7f8:	4478      	add	r0, pc
    c7fa:	2100      	movs	r1, #0
    c7fc:	f004 fb1a 	bl	10e34 <open>
    c800:	1c04      	adds	r4, r0, #0
    c802:	2800      	cmp	r0, #0
    c804:	db14      	blt.n	c830 <import_kernel_cmdline+0x54>
    c806:	1c31      	adds	r1, r6, #0
    c808:	4a23      	ldr	r2, [pc, #140]	(c898 <import_kernel_cmdline+0xbc>)
    c80a:	f7fb ed3a 	blx	8280 <read>
    c80e:	2300      	movs	r3, #0
    c810:	2800      	cmp	r0, #0
    c812:	db06      	blt.n	c822 <import_kernel_cmdline+0x46>
    c814:	2800      	cmp	r0, #0
    c816:	d003      	beq.n	c820 <import_kernel_cmdline+0x44>
    c818:	1e43      	subs	r3, r0, #1
    c81a:	5cf7      	ldrb	r7, [r6, r3]
    c81c:	2f0a      	cmp	r7, #10
    c81e:	d000      	beq.n	c822 <import_kernel_cmdline+0x46>
    c820:	1c03      	adds	r3, r0, #0
    c822:	2600      	movs	r6, #0
    c824:	a903      	add	r1, sp, #12
    c826:	54ce      	strb	r6, [r1, r3]
    c828:	1c20      	adds	r0, r4, #0
    c82a:	f7fb ed4a 	blx	82c0 <close>
    c82e:	e001      	b.n	c834 <import_kernel_cmdline+0x58>
    c830:	2300      	movs	r3, #0
    c832:	7033      	strb	r3, [r6, #0]
    c834:	ae03      	add	r6, sp, #12
    c836:	2700      	movs	r7, #0
    c838:	e00d      	b.n	c856 <import_kernel_cmdline+0x7a>
    c83a:	1c30      	adds	r0, r6, #0
    c83c:	2120      	movs	r1, #32
    c83e:	f009 fc5d 	bl	160fc <strchr>
    c842:	1e04      	subs	r4, r0, #0
    c844:	d001      	beq.n	c84a <import_kernel_cmdline+0x6e>
    c846:	7027      	strb	r7, [r4, #0]
    c848:	3401      	adds	r4, #1
    c84a:	1c30      	adds	r0, r6, #0
    c84c:	9901      	ldr	r1, [sp, #4]
    c84e:	f7ff ff17 	bl	c680 <import_kernel_nv>
    c852:	1e26      	subs	r6, r4, #0
    c854:	d002      	beq.n	c85c <import_kernel_cmdline+0x80>
    c856:	7832      	ldrb	r2, [r6, #0]
    c858:	2a00      	cmp	r2, #0
    c85a:	d1ee      	bne.n	c83a <import_kernel_cmdline+0x5e>
    c85c:	480f      	ldr	r0, [pc, #60]	(c89c <import_kernel_cmdline+0xc0>)
    c85e:	4e0b      	ldr	r6, [pc, #44]	(c88c <import_kernel_cmdline+0xb0>)
    c860:	2190      	movs	r1, #144
    c862:	4478      	add	r0, pc
    c864:	0049      	lsls	r1, r1, #1
    c866:	4f0a      	ldr	r7, [pc, #40]	(c890 <import_kernel_cmdline+0xb4>)
    c868:	f7fb edda 	blx	8420 <chmod>
    c86c:	59ac      	ldr	r4, [r5, r6]
    c86e:	446f      	add	r7, sp
    c870:	683d      	ldr	r5, [r7, #0]
    c872:	6823      	ldr	r3, [r4, #0]
    c874:	429d      	cmp	r5, r3
    c876:	d001      	beq.n	c87c <import_kernel_cmdline+0xa0>
    c878:	f009 fe26 	bl	164c8 <__stack_chk_fail>
    c87c:	4808      	ldr	r0, [pc, #32]	(c8a0 <import_kernel_cmdline+0xc4>)
    c87e:	4485      	add	sp, r0
    c880:	bdf0      	pop	{r4, r5, r6, r7, pc}
    c882:	46c0      	nop			(mov r8, r8)
    c884:	fffffbec 	.word	0xfffffbec
    c888:	00012f8a 	.word	0x00012f8a
    c88c:	ffffff90 	.word	0xffffff90
    c890:	0000040c 	.word	0x0000040c
    c894:	0000edbd 	.word	0x0000edbd
    c898:	000003ff 	.word	0x000003ff
    c89c:	0000ed53 	.word	0x0000ed53
    c8a0:	00000414 	.word	0x00000414

0000c8a4 <set_init_properties_action>:
    c8a4:	b530      	push	{r4, r5, lr}
    c8a6:	4c46      	ldr	r4, [pc, #280]	(c9c0 <set_init_properties_action+0x11c>)
    c8a8:	4d46      	ldr	r5, [pc, #280]	(c9c4 <set_init_properties_action+0x120>)
    c8aa:	4847      	ldr	r0, [pc, #284]	(c9c8 <set_init_properties_action+0x124>)
    c8ac:	447c      	add	r4, pc
    c8ae:	5962      	ldr	r2, [r4, r5]
    c8b0:	b099      	sub	sp, #100
    c8b2:	4478      	add	r0, pc
    c8b4:	6811      	ldr	r1, [r2, #0]
    c8b6:	9117      	str	r1, [sp, #92]
    c8b8:	7803      	ldrb	r3, [r0, #0]
    c8ba:	2b00      	cmp	r3, #0
    c8bc:	d002      	beq.n	c8c4 <set_init_properties_action+0x20>
    c8be:	2001      	movs	r0, #1
    c8c0:	f7ff ff8c 	bl	c7dc <import_kernel_cmdline>
    c8c4:	4d41      	ldr	r5, [pc, #260]	(c9cc <set_init_properties_action+0x128>)
    c8c6:	4942      	ldr	r1, [pc, #264]	(c9d0 <set_init_properties_action+0x12c>)
    c8c8:	447d      	add	r5, pc
    c8ca:	3540      	adds	r5, #64
    c8cc:	4479      	add	r1, pc
    c8ce:	1c28      	adds	r0, r5, #0
    c8d0:	f7fc eb8e 	blx	8ff0 <strcmp>
    c8d4:	2800      	cmp	r0, #0
    c8d6:	d104      	bne.n	c8e2 <set_init_properties_action+0x3e>
    c8d8:	483e      	ldr	r0, [pc, #248]	(c9d4 <set_init_properties_action+0x130>)
    c8da:	493f      	ldr	r1, [pc, #252]	(c9d8 <set_init_properties_action+0x134>)
    c8dc:	4478      	add	r0, pc
    c8de:	4479      	add	r1, pc
    c8e0:	e00f      	b.n	c902 <set_init_properties_action+0x5e>
    c8e2:	493e      	ldr	r1, [pc, #248]	(c9dc <set_init_properties_action+0x138>)
    c8e4:	1c28      	adds	r0, r5, #0
    c8e6:	4479      	add	r1, pc
    c8e8:	f7fc eb82 	blx	8ff0 <strcmp>
    c8ec:	2800      	cmp	r0, #0
    c8ee:	d104      	bne.n	c8fa <set_init_properties_action+0x56>
    c8f0:	483b      	ldr	r0, [pc, #236]	(c9e0 <set_init_properties_action+0x13c>)
    c8f2:	493c      	ldr	r1, [pc, #240]	(c9e4 <set_init_properties_action+0x140>)
    c8f4:	4478      	add	r0, pc
    c8f6:	4479      	add	r1, pc
    c8f8:	e003      	b.n	c902 <set_init_properties_action+0x5e>
    c8fa:	483b      	ldr	r0, [pc, #236]	(c9e8 <set_init_properties_action+0x144>)
    c8fc:	493b      	ldr	r1, [pc, #236]	(c9ec <set_init_properties_action+0x148>)
    c8fe:	4478      	add	r0, pc
    c900:	4479      	add	r1, pc
    c902:	f001 fe03 	bl	e50c <property_set>
    c906:	493a      	ldr	r1, [pc, #232]	(c9f0 <set_init_properties_action+0x14c>)
    c908:	4479      	add	r1, pc
    c90a:	3160      	adds	r1, #96
    c90c:	780b      	ldrb	r3, [r1, #0]
    c90e:	2b00      	cmp	r3, #0
    c910:	d101      	bne.n	c916 <set_init_properties_action+0x72>
    c912:	4938      	ldr	r1, [pc, #224]	(c9f4 <set_init_properties_action+0x150>)
    c914:	4479      	add	r1, pc
    c916:	4838      	ldr	r0, [pc, #224]	(c9f8 <set_init_properties_action+0x154>)
    c918:	4478      	add	r0, pc
    c91a:	f001 fdf7 	bl	e50c <property_set>
    c91e:	4937      	ldr	r1, [pc, #220]	(c9fc <set_init_properties_action+0x158>)
    c920:	4479      	add	r1, pc
    c922:	3140      	adds	r1, #64
    c924:	7808      	ldrb	r0, [r1, #0]
    c926:	2800      	cmp	r0, #0
    c928:	d101      	bne.n	c92e <set_init_properties_action+0x8a>
    c92a:	4935      	ldr	r1, [pc, #212]	(ca00 <set_init_properties_action+0x15c>)
    c92c:	4479      	add	r1, pc
    c92e:	4835      	ldr	r0, [pc, #212]	(ca04 <set_init_properties_action+0x160>)
    c930:	4478      	add	r0, pc
    c932:	f001 fdeb 	bl	e50c <property_set>
    c936:	4934      	ldr	r1, [pc, #208]	(ca08 <set_init_properties_action+0x164>)
    c938:	4479      	add	r1, pc
    c93a:	780a      	ldrb	r2, [r1, #0]
    c93c:	2a00      	cmp	r2, #0
    c93e:	d101      	bne.n	c944 <set_init_properties_action+0xa0>
    c940:	4932      	ldr	r1, [pc, #200]	(ca0c <set_init_properties_action+0x168>)
    c942:	4479      	add	r1, pc
    c944:	4832      	ldr	r0, [pc, #200]	(ca10 <set_init_properties_action+0x16c>)
    c946:	4478      	add	r0, pc
    c948:	f001 fde0 	bl	e50c <property_set>
    c94c:	4931      	ldr	r1, [pc, #196]	(ca14 <set_init_properties_action+0x170>)
    c94e:	4479      	add	r1, pc
    c950:	1c4b      	adds	r3, r1, #1
    c952:	7fdd      	ldrb	r5, [r3, #31]
    c954:	3120      	adds	r1, #32
    c956:	2d00      	cmp	r5, #0
    c958:	d101      	bne.n	c95e <set_init_properties_action+0xba>
    c95a:	492f      	ldr	r1, [pc, #188]	(ca18 <set_init_properties_action+0x174>)
    c95c:	4479      	add	r1, pc
    c95e:	482f      	ldr	r0, [pc, #188]	(ca1c <set_init_properties_action+0x178>)
    c960:	4478      	add	r0, pc
    c962:	f001 fdd3 	bl	e50c <property_set>
    c966:	492e      	ldr	r1, [pc, #184]	(ca20 <set_init_properties_action+0x17c>)
    c968:	4479      	add	r1, pc
    c96a:	3140      	adds	r1, #64
    c96c:	7808      	ldrb	r0, [r1, #0]
    c96e:	2800      	cmp	r0, #0
    c970:	d101      	bne.n	c976 <set_init_properties_action+0xd2>
    c972:	492c      	ldr	r1, [pc, #176]	(ca24 <set_init_properties_action+0x180>)
    c974:	4479      	add	r1, pc
    c976:	482c      	ldr	r0, [pc, #176]	(ca28 <set_init_properties_action+0x184>)
    c978:	4d2c      	ldr	r5, [pc, #176]	(ca2c <set_init_properties_action+0x188>)
    c97a:	4478      	add	r0, pc
    c97c:	f001 fdc6 	bl	e50c <property_set>
    c980:	492b      	ldr	r1, [pc, #172]	(ca30 <set_init_properties_action+0x18c>)
    c982:	482c      	ldr	r0, [pc, #176]	(ca34 <set_init_properties_action+0x190>)
    c984:	447d      	add	r5, pc
    c986:	4479      	add	r1, pc
    c988:	3160      	adds	r1, #96
    c98a:	4478      	add	r0, pc
    c98c:	f001 fdbe 	bl	e50c <property_set>
    c990:	4a29      	ldr	r2, [pc, #164]	(ca38 <set_init_properties_action+0x194>)
    c992:	682b      	ldr	r3, [r5, #0]
    c994:	215c      	movs	r1, #92
    c996:	447a      	add	r2, pc
    c998:	4668      	mov	r0, sp
    c99a:	f004 fba5 	bl	110e8 <snprintf>
    c99e:	4827      	ldr	r0, [pc, #156]	(ca3c <set_init_properties_action+0x198>)
    c9a0:	4669      	mov	r1, sp
    c9a2:	4478      	add	r0, pc
    c9a4:	f001 fdb2 	bl	e50c <property_set>
    c9a8:	4a06      	ldr	r2, [pc, #24]	(c9c4 <set_init_properties_action+0x120>)
    c9aa:	2000      	movs	r0, #0
    c9ac:	58a1      	ldr	r1, [r4, r2]
    c9ae:	9c17      	ldr	r4, [sp, #92]
    c9b0:	680b      	ldr	r3, [r1, #0]
    c9b2:	429c      	cmp	r4, r3
    c9b4:	d001      	beq.n	c9ba <set_init_properties_action+0x116>
    c9b6:	f009 fd87 	bl	164c8 <__stack_chk_fail>
    c9ba:	b019      	add	sp, #100
    c9bc:	bd30      	pop	{r4, r5, pc}
    c9be:	46c0      	nop			(mov r8, r8)
    c9c0:	00012ec4 	.word	0x00012ec4
    c9c4:	ffffff90 	.word	0xffffff90
    c9c8:	00014c22 	.word	0x00014c22
    c9cc:	00014c0c 	.word	0x00014c0c
    c9d0:	0000ecf7 	.word	0x0000ecf7
    c9d4:	0000ecef 	.word	0x0000ecef
    c9d8:	0000ecfc 	.word	0x0000ecfc
    c9dc:	0000ecf6 	.word	0x0000ecf6
    c9e0:	0000ecd7 	.word	0x0000ecd7
    c9e4:	0000ecef 	.word	0x0000ecef
    c9e8:	0000eccd 	.word	0x0000eccd
    c9ec:	0000ece7 	.word	0x0000ece7
    c9f0:	00014bcc 	.word	0x00014bcc
    c9f4:	0000ecd5 	.word	0x0000ecd5
    c9f8:	0000ecd2 	.word	0x0000ecd2
    c9fc:	00014bb4 	.word	0x00014bb4
    ca00:	0000ecca 	.word	0x0000ecca
    ca04:	0000ecce 	.word	0x0000ecce
    ca08:	00014c1c 	.word	0x00014c1c
    ca0c:	0000ecb4 	.word	0x0000ecb4
    ca10:	0000ecc4 	.word	0x0000ecc4
    ca14:	00014c06 	.word	0x00014c06
    ca18:	0000ec9a 	.word	0x0000ec9a
    ca1c:	0000ecb6 	.word	0x0000ecb6
    ca20:	00014bec 	.word	0x00014bec
    ca24:	0000ec82 	.word	0x0000ec82
    ca28:	0000eca7 	.word	0x0000eca7
    ca2c:	00014c50 	.word	0x00014c50
    ca30:	00014bce 	.word	0x00014bce
    ca34:	0000eca5 	.word	0x0000eca5
    ca38:	0000eca5 	.word	0x0000eca5
    ca3c:	0000ec9c 	.word	0x0000ec9c

0000ca40 <queue_property_triggers_action>:
    ca40:	b510      	push	{r4, lr}
    ca42:	f003 f94d 	bl	fce0 <queue_all_property_triggers>
    ca46:	4b03      	ldr	r3, [pc, #12]	(ca54 <queue_property_triggers_action+0x14>)
    ca48:	2201      	movs	r2, #1
    ca4a:	2000      	movs	r0, #0
    ca4c:	447b      	add	r3, pc
    ca4e:	605a      	str	r2, [r3, #4]
    ca50:	bd10      	pop	{r4, pc}
    ca52:	46c0      	nop			(mov r8, r8)
    ca54:	00014b88 	.word	0x00014b88

0000ca58 <check_startup_action>:
    ca58:	b510      	push	{r4, lr}
    ca5a:	f001 fc61 	bl	e320 <get_property_set_fd>
    ca5e:	2800      	cmp	r0, #0
    ca60:	db03      	blt.n	ca6a <check_startup_action+0x12>
    ca62:	f002 ff6d 	bl	f940 <get_signal_fd>
    ca66:	2800      	cmp	r0, #0
    ca68:	da07      	bge.n	ca7a <check_startup_action+0x22>
    ca6a:	4905      	ldr	r1, [pc, #20]	(ca80 <check_startup_action+0x28>)
    ca6c:	2003      	movs	r0, #3
    ca6e:	4479      	add	r1, pc
    ca70:	f002 f9e6 	bl	ee40 <log_write>
    ca74:	2001      	movs	r0, #1
    ca76:	f006 fdb7 	bl	135e8 <exit>
    ca7a:	2000      	movs	r0, #0
    ca7c:	bd10      	pop	{r4, pc}
    ca7e:	46c0      	nop			(mov r8, r8)
    ca80:	0000ebdc 	.word	0x0000ebdc

0000ca84 <signal_init_action>:
    ca84:	b510      	push	{r4, lr}
    ca86:	f003 f85b 	bl	fb40 <signal_init>
    ca8a:	2000      	movs	r0, #0
    ca8c:	bd10      	pop	{r4, pc}
    ca8e:	46c0      	nop			(mov r8, r8)

0000ca90 <property_service_init_action>:
    ca90:	b510      	push	{r4, lr}
    ca92:	f001 fee3 	bl	e85c <start_property_service>
    ca96:	2000      	movs	r0, #0
    ca98:	bd10      	pop	{r4, pc}
    ca9a:	46c0      	nop			(mov r8, r8)

0000ca9c <notify_service_state>:
    ca9c:	b5f0      	push	{r4, r5, r6, r7, lr}
    ca9e:	4c12      	ldr	r4, [pc, #72]	(cae8 <notify_service_state+0x4c>)
    caa0:	1c0f      	adds	r7, r1, #0
    caa2:	4912      	ldr	r1, [pc, #72]	(caec <notify_service_state+0x50>)
    caa4:	447c      	add	r4, pc
    caa6:	1c05      	adds	r5, r0, #0
    caa8:	5860      	ldr	r0, [r4, r1]
    caaa:	b08b      	sub	sp, #44
    caac:	6803      	ldr	r3, [r0, #0]
    caae:	1c28      	adds	r0, r5, #0
    cab0:	9309      	str	r3, [sp, #36]
    cab2:	f004 e8fa 	blx	10ca8 <strlen>
    cab6:	2816      	cmp	r0, #22
    cab8:	dc0b      	bgt.n	cad2 <notify_service_state+0x36>
    caba:	4a0d      	ldr	r2, [pc, #52]	(caf0 <notify_service_state+0x54>)
    cabc:	ae01      	add	r6, sp, #4
    cabe:	2120      	movs	r1, #32
    cac0:	447a      	add	r2, pc
    cac2:	1c30      	adds	r0, r6, #0
    cac4:	1c2b      	adds	r3, r5, #0
    cac6:	f004 fb0f 	bl	110e8 <snprintf>
    caca:	1c30      	adds	r0, r6, #0
    cacc:	1c39      	adds	r1, r7, #0
    cace:	f001 fd1d 	bl	e50c <property_set>
    cad2:	4f06      	ldr	r7, [pc, #24]	(caec <notify_service_state+0x50>)
    cad4:	9a09      	ldr	r2, [sp, #36]
    cad6:	59e5      	ldr	r5, [r4, r7]
    cad8:	682b      	ldr	r3, [r5, #0]
    cada:	429a      	cmp	r2, r3
    cadc:	d001      	beq.n	cae2 <notify_service_state+0x46>
    cade:	f009 fcf3 	bl	164c8 <__stack_chk_fail>
    cae2:	b00b      	add	sp, #44
    cae4:	bdf0      	pop	{r4, r5, r6, r7, pc}
    cae6:	46c0      	nop			(mov r8, r8)
    cae8:	00012ccc 	.word	0x00012ccc
    caec:	ffffff90 	.word	0xffffff90
    caf0:	0000eba9 	.word	0x0000eba9

0000caf4 <console_init_action>:
    caf4:	b530      	push	{r4, r5, lr}
    caf6:	4c24      	ldr	r4, [pc, #144]	(cb88 <console_init_action+0x94>)
    caf8:	4d24      	ldr	r5, [pc, #144]	(cb8c <console_init_action+0x98>)
    cafa:	b099      	sub	sp, #100
    cafc:	447c      	add	r4, pc
    cafe:	5961      	ldr	r1, [r4, r5]
    cb00:	680b      	ldr	r3, [r1, #0]
    cb02:	9317      	str	r3, [sp, #92]
    cb04:	4b22      	ldr	r3, [pc, #136]	(cb90 <console_init_action+0x9c>)
    cb06:	447b      	add	r3, pc
    cb08:	1c58      	adds	r0, r3, #1
    cb0a:	7fc2      	ldrb	r2, [r0, #31]
    cb0c:	2a00      	cmp	r2, #0
    cb0e:	d00c      	beq.n	cb2a <console_init_action+0x36>
    cb10:	4a20      	ldr	r2, [pc, #128]	(cb94 <console_init_action+0xa0>)
    cb12:	3320      	adds	r3, #32
    cb14:	215c      	movs	r1, #92
    cb16:	447a      	add	r2, pc
    cb18:	4668      	mov	r0, sp
    cb1a:	f004 fae5 	bl	110e8 <snprintf>
    cb1e:	4668      	mov	r0, sp
    cb20:	f009 faf6 	bl	16110 <strdup>
    cb24:	4a1c      	ldr	r2, [pc, #112]	(cb98 <console_init_action+0xa4>)
    cb26:	447a      	add	r2, pc
    cb28:	6010      	str	r0, [r2, #0]
    cb2a:	4b1c      	ldr	r3, [pc, #112]	(cb9c <console_init_action+0xa8>)
    cb2c:	2102      	movs	r1, #2
    cb2e:	447b      	add	r3, pc
    cb30:	6818      	ldr	r0, [r3, #0]
    cb32:	f004 f97f 	bl	10e34 <open>
    cb36:	2800      	cmp	r0, #0
    cb38:	db03      	blt.n	cb42 <console_init_action+0x4e>
    cb3a:	4d19      	ldr	r5, [pc, #100]	(cba0 <console_init_action+0xac>)
    cb3c:	2101      	movs	r1, #1
    cb3e:	447d      	add	r5, pc
    cb40:	60a9      	str	r1, [r5, #8]
    cb42:	f7fb ebbe 	blx	82c0 <close>
    cb46:	4817      	ldr	r0, [pc, #92]	(cba4 <console_init_action+0xb0>)
    cb48:	4478      	add	r0, pc
    cb4a:	f002 fd6d 	bl	f628 <load_565rle_image>
    cb4e:	2800      	cmp	r0, #0
    cb50:	d00f      	beq.n	cb72 <console_init_action+0x7e>
    cb52:	4815      	ldr	r0, [pc, #84]	(cba8 <console_init_action+0xb4>)
    cb54:	2101      	movs	r1, #1
    cb56:	4478      	add	r0, pc
    cb58:	f004 f96c 	bl	10e34 <open>
    cb5c:	1e05      	subs	r5, r0, #0
    cb5e:	db08      	blt.n	cb72 <console_init_action+0x7e>
    cb60:	4912      	ldr	r1, [pc, #72]	(cbac <console_init_action+0xb8>)
    cb62:	1c28      	adds	r0, r5, #0
    cb64:	2229      	movs	r2, #41
    cb66:	4479      	add	r1, pc
    cb68:	f7fb eb9a 	blx	82a0 <write>
    cb6c:	1c28      	adds	r0, r5, #0
    cb6e:	f7fb eba8 	blx	82c0 <close>
    cb72:	4906      	ldr	r1, [pc, #24]	(cb8c <console_init_action+0x98>)
    cb74:	2000      	movs	r0, #0
    cb76:	5862      	ldr	r2, [r4, r1]
    cb78:	9c17      	ldr	r4, [sp, #92]
    cb7a:	6813      	ldr	r3, [r2, #0]
    cb7c:	429c      	cmp	r4, r3
    cb7e:	d001      	beq.n	cb84 <console_init_action+0x90>
    cb80:	f009 fca2 	bl	164c8 <__stack_chk_fail>
    cb84:	b019      	add	sp, #100
    cb86:	bd30      	pop	{r4, r5, pc}
    cb88:	00012c74 	.word	0x00012c74
    cb8c:	ffffff90 	.word	0xffffff90
    cb90:	000149ce 	.word	0x000149ce
    cb94:	0000eb5f 	.word	0x0000eb5f
    cb98:	00012caa 	.word	0x00012caa
    cb9c:	00012ca2 	.word	0x00012ca2
    cba0:	00014a96 	.word	0x00014a96
    cba4:	0000eb35 	.word	0x0000eb35
    cba8:	0000e934 	.word	0x0000e934
    cbac:	0000eb25 	.word	0x0000eb25

0000cbb0 <keychord_init_action>:
    cbb0:	b510      	push	{r4, lr}
    cbb2:	f002 fe2b 	bl	f80c <keychord_init>
    cbb6:	2000      	movs	r0, #0
    cbb8:	bd10      	pop	{r4, pc}
    cbba:	46c0      	nop			(mov r8, r8)

0000cbbc <property_init_action>:
    cbbc:	b510      	push	{r4, lr}
    cbbe:	4904      	ldr	r1, [pc, #16]	(cbd0 <property_init_action+0x14>)
    cbc0:	2006      	movs	r0, #6
    cbc2:	4479      	add	r1, pc
    cbc4:	f002 f93c 	bl	ee40 <log_write>
    cbc8:	f001 ff86 	bl	ead8 <property_init>
    cbcc:	2000      	movs	r0, #0
    cbce:	bd10      	pop	{r4, pc}
    cbd0:	0000eaf3 	.word	0x0000eaf3

0000cbd4 <wait_for_coldboot_done_action>:
    cbd4:	b570      	push	{r4, r5, r6, lr}
    cbd6:	4b0b      	ldr	r3, [pc, #44]	(cc04 <wait_for_coldboot_done_action+0x30>)
    cbd8:	490b      	ldr	r1, [pc, #44]	(cc08 <wait_for_coldboot_done_action+0x34>)
    cbda:	2006      	movs	r0, #6
    cbdc:	447b      	add	r3, pc
    cbde:	681c      	ldr	r4, [r3, #0]
    cbe0:	4479      	add	r1, pc
    cbe2:	1c22      	adds	r2, r4, #0
    cbe4:	f002 f92c 	bl	ee40 <log_write>
    cbe8:	1c20      	adds	r0, r4, #0
    cbea:	2128      	movs	r1, #40
    cbec:	f002 fa44 	bl	f078 <wait_for_file>
    cbf0:	1e05      	subs	r5, r0, #0
    cbf2:	d005      	beq.n	cc00 <wait_for_coldboot_done_action+0x2c>
    cbf4:	4905      	ldr	r1, [pc, #20]	(cc0c <wait_for_coldboot_done_action+0x38>)
    cbf6:	2003      	movs	r0, #3
    cbf8:	1c22      	adds	r2, r4, #0
    cbfa:	4479      	add	r1, pc
    cbfc:	f002 f920 	bl	ee40 <log_write>
    cc00:	1c28      	adds	r0, r5, #0
    cc02:	bd70      	pop	{r4, r5, r6, pc}
    cc04:	000124b8 	.word	0x000124b8
    cc08:	0000eaed 	.word	0x0000eaed
    cc0c:	0000eae9 	.word	0x0000eae9

0000cc10 <execute_one_command>:
    cc10:	b510      	push	{r4, lr}
    cc12:	4b1e      	ldr	r3, [pc, #120]	(cc8c <execute_one_command+0x7c>)
    cc14:	447b      	add	r3, pc
    cc16:	68da      	ldr	r2, [r3, #12]
    cc18:	2a00      	cmp	r2, #0
    cc1a:	d005      	beq.n	cc28 <execute_one_command+0x18>
    cc1c:	691b      	ldr	r3, [r3, #16]
    cc1e:	2b00      	cmp	r3, #0
    cc20:	d002      	beq.n	cc28 <execute_one_command+0x18>
    cc22:	6a51      	ldr	r1, [r2, #36]
    cc24:	4299      	cmp	r1, r3
    cc26:	d113      	bne.n	cc50 <execute_one_command+0x40>
    cc28:	f003 f81a 	bl	fc60 <action_remove_queue_head>
    cc2c:	4c18      	ldr	r4, [pc, #96]	(cc90 <execute_one_command+0x80>)
    cc2e:	2300      	movs	r3, #0
    cc30:	1c02      	adds	r2, r0, #0
    cc32:	447c      	add	r4, pc
    cc34:	60e0      	str	r0, [r4, #12]
    cc36:	6123      	str	r3, [r4, #16]
    cc38:	2800      	cmp	r0, #0
    cc3a:	d026      	beq.n	cc8a <execute_one_command+0x7a>
    cc3c:	4915      	ldr	r1, [pc, #84]	(cc94 <execute_one_command+0x84>)
    cc3e:	69c3      	ldr	r3, [r0, #28]
    cc40:	2006      	movs	r0, #6
    cc42:	4479      	add	r1, pc
    cc44:	f002 f8fc 	bl	ee40 <log_write>
    cc48:	68e2      	ldr	r2, [r4, #12]
    cc4a:	6a10      	ldr	r0, [r2, #32]
    cc4c:	6120      	str	r0, [r4, #16]
    cc4e:	e00a      	b.n	cc66 <execute_one_command+0x56>
    cc50:	681b      	ldr	r3, [r3, #0]
    cc52:	2b00      	cmp	r3, #0
    cc54:	d003      	beq.n	cc5e <execute_one_command+0x4e>
    cc56:	3220      	adds	r2, #32
    cc58:	1c19      	adds	r1, r3, #0
    cc5a:	4293      	cmp	r3, r2
    cc5c:	d100      	bne.n	cc60 <execute_one_command+0x50>
    cc5e:	2100      	movs	r1, #0
    cc60:	4c0d      	ldr	r4, [pc, #52]	(cc98 <execute_one_command+0x88>)
    cc62:	447c      	add	r4, pc
    cc64:	6121      	str	r1, [r4, #16]
    cc66:	4c0d      	ldr	r4, [pc, #52]	(cc9c <execute_one_command+0x8c>)
    cc68:	447c      	add	r4, pc
    cc6a:	6923      	ldr	r3, [r4, #16]
    cc6c:	2b00      	cmp	r3, #0
    cc6e:	d00c      	beq.n	cc8a <execute_one_command+0x7a>
    cc70:	1c19      	adds	r1, r3, #0
    cc72:	68d8      	ldr	r0, [r3, #12]
    cc74:	3110      	adds	r1, #16
    cc76:	689b      	ldr	r3, [r3, #8]
    cc78:	4798      	blx	r3
    cc7a:	4909      	ldr	r1, [pc, #36]	(cca0 <execute_one_command+0x90>)
    cc7c:	1c03      	adds	r3, r0, #0
    cc7e:	6920      	ldr	r0, [r4, #16]
    cc80:	4479      	add	r1, pc
    cc82:	6902      	ldr	r2, [r0, #16]
    cc84:	2006      	movs	r0, #6
    cc86:	f002 f8db 	bl	ee40 <log_write>
    cc8a:	bd10      	pop	{r4, pc}
    cc8c:	000149c0 	.word	0x000149c0
    cc90:	000149a2 	.word	0x000149a2
    cc94:	0000eac4 	.word	0x0000eac4
    cc98:	00014972 	.word	0x00014972
    cc9c:	0001496c 	.word	0x0001496c
    cca0:	0000eaaa 	.word	0x0000eaaa

0000cca4 <main>:
    cca4:	b5f0      	push	{r4, r5, r6, r7, lr}
    cca6:	4fcd      	ldr	r7, [pc, #820]	(cfdc <main+0x338>)
    cca8:	1c06      	adds	r6, r0, #0
    ccaa:	48cd      	ldr	r0, [pc, #820]	(cfe0 <main+0x33c>)
    ccac:	447f      	add	r7, pc
    ccae:	b09d      	sub	sp, #116
    ccb0:	583d      	ldr	r5, [r7, r0]
    ccb2:	1c0c      	adds	r4, r1, #0
    ccb4:	682b      	ldr	r3, [r5, #0]
    ccb6:	931b      	str	r3, [sp, #108]
    ccb8:	6808      	ldr	r0, [r1, #0]
    ccba:	f009 fb73 	bl	163a4 <basename>
    ccbe:	49c9      	ldr	r1, [pc, #804]	(cfe4 <main+0x340>)
    ccc0:	4ac9      	ldr	r2, [pc, #804]	(cfe8 <main+0x344>)
    ccc2:	1c03      	adds	r3, r0, #0
    ccc4:	4479      	add	r1, pc
    ccc6:	447a      	add	r2, pc
    ccc8:	2006      	movs	r0, #6
    ccca:	f002 f8b9 	bl	ee40 <log_write>
    ccce:	6820      	ldr	r0, [r4, #0]
    ccd0:	f009 fb68 	bl	163a4 <basename>
    ccd4:	49c5      	ldr	r1, [pc, #788]	(cfec <main+0x348>)
    ccd6:	4479      	add	r1, pc
    ccd8:	f7fc e98a 	blx	8ff0 <strcmp>
    ccdc:	2800      	cmp	r0, #0
    ccde:	d10e      	bne.n	ccfe <main+0x5a>
    cce0:	49c3      	ldr	r1, [pc, #780]	(cff0 <main+0x34c>)
    cce2:	2006      	movs	r0, #6
    cce4:	4479      	add	r1, pc
    cce6:	f002 f8ab 	bl	ee40 <log_write>
    ccea:	1c30      	adds	r0, r6, #0
    ccec:	1c21      	adds	r1, r4, #0
    ccee:	f003 fec9 	bl	10a84 <ueventd_main>
    ccf2:	9a1b      	ldr	r2, [sp, #108]
    ccf4:	682b      	ldr	r3, [r5, #0]
    ccf6:	429a      	cmp	r2, r3
    ccf8:	d100      	bne.n	ccfc <main+0x58>
    ccfa:	e1d3      	b.n	d0a4 <main+0x400>
    ccfc:	e16b      	b.n	cfd6 <main+0x332>
    ccfe:	4cbd      	ldr	r4, [pc, #756]	(cff4 <main+0x350>)
    cd00:	4dbd      	ldr	r5, [pc, #756]	(cff8 <main+0x354>)
    cd02:	4ebe      	ldr	r6, [pc, #760]	(cffc <main+0x358>)
    cd04:	447c      	add	r4, pc
    cd06:	2000      	movs	r0, #0
    cd08:	f7fb ecf2 	blx	86f0 <umask>
    cd0c:	447d      	add	r5, pc
    cd0e:	1c20      	adds	r0, r4, #0
    cd10:	49bb      	ldr	r1, [pc, #748]	(d000 <main+0x35c>)
    cd12:	f7fb ebde 	blx	84d0 <mkdir>
    cd16:	447e      	add	r6, pc
    cd18:	1c28      	adds	r0, r5, #0
    cd1a:	49b9      	ldr	r1, [pc, #740]	(d000 <main+0x35c>)
    cd1c:	f7fb ebd8 	blx	84d0 <mkdir>
    cd20:	1c30      	adds	r0, r6, #0
    cd22:	49b7      	ldr	r1, [pc, #732]	(d000 <main+0x35c>)
    cd24:	f7fb ebd4 	blx	84d0 <mkdir>
    cd28:	49b6      	ldr	r1, [pc, #728]	(d004 <main+0x360>)
    cd2a:	4ab7      	ldr	r2, [pc, #732]	(d008 <main+0x364>)
    cd2c:	2300      	movs	r3, #0
    cd2e:	4479      	add	r1, pc
    cd30:	9100      	str	r1, [sp, #0]
    cd32:	1c21      	adds	r1, r4, #0
    cd34:	4cb5      	ldr	r4, [pc, #724]	(d00c <main+0x368>)
    cd36:	447a      	add	r2, pc
    cd38:	1c10      	adds	r0, r2, #0
    cd3a:	447c      	add	r4, pc
    cd3c:	f7fb eb90 	blx	8460 <mount>
    cd40:	1c20      	adds	r0, r4, #0
    cd42:	49af      	ldr	r1, [pc, #700]	(d000 <main+0x35c>)
    cd44:	f7fb ebc4 	blx	84d0 <mkdir>
    cd48:	48b1      	ldr	r0, [pc, #708]	(d010 <main+0x36c>)
    cd4a:	49ad      	ldr	r1, [pc, #692]	(d000 <main+0x35c>)
    cd4c:	4478      	add	r0, pc
    cd4e:	f7fb ebc0 	blx	84d0 <mkdir>
    cd52:	4ab0      	ldr	r2, [pc, #704]	(d014 <main+0x370>)
    cd54:	2300      	movs	r3, #0
    cd56:	1c21      	adds	r1, r4, #0
    cd58:	447a      	add	r2, pc
    cd5a:	9300      	str	r3, [sp, #0]
    cd5c:	1c10      	adds	r0, r2, #0
    cd5e:	2300      	movs	r3, #0
    cd60:	f7fb eb7e 	blx	8460 <mount>
    cd64:	4aac      	ldr	r2, [pc, #688]	(d018 <main+0x374>)
    cd66:	2300      	movs	r3, #0
    cd68:	1c29      	adds	r1, r5, #0
    cd6a:	447a      	add	r2, pc
    cd6c:	1c10      	adds	r0, r2, #0
    cd6e:	9300      	str	r3, [sp, #0]
    cd70:	f7fb eb76 	blx	8460 <mount>
    cd74:	4aa9      	ldr	r2, [pc, #676]	(d01c <main+0x378>)
    cd76:	2000      	movs	r0, #0
    cd78:	2300      	movs	r3, #0
    cd7a:	447a      	add	r2, pc
    cd7c:	1c31      	adds	r1, r6, #0
    cd7e:	9000      	str	r0, [sp, #0]
    cd80:	1c10      	adds	r0, r2, #0
    cd82:	f7fb eb6e 	blx	8460 <mount>
    cd86:	f001 ff7f 	bl	ec88 <open_devnull_stdio>
    cd8a:	f002 faf7 	bl	f37c <log_init>
    cd8e:	49a4      	ldr	r1, [pc, #656]	(d020 <main+0x37c>)
    cd90:	2006      	movs	r0, #6
    cd92:	4ca4      	ldr	r4, [pc, #656]	(d024 <main+0x380>)
    cd94:	4479      	add	r1, pc
    cd96:	f002 f853 	bl	ee40 <log_write>
    cd9a:	48a3      	ldr	r0, [pc, #652]	(d028 <main+0x384>)
    cd9c:	4da3      	ldr	r5, [pc, #652]	(d02c <main+0x388>)
    cd9e:	447c      	add	r4, pc
    cda0:	4478      	add	r0, pc
    cda2:	f003 fb83 	bl	104ac <init_parse_config_file>
    cda6:	3460      	adds	r4, #96
    cda8:	447d      	add	r5, pc
    cdaa:	2000      	movs	r0, #0
    cdac:	f7ff fd16 	bl	c7dc <import_kernel_cmdline>
    cdb0:	1c20      	adds	r0, r4, #0
    cdb2:	1c29      	adds	r1, r5, #0
    cdb4:	f001 feca 	bl	eb4c <get_hardware_name>
    cdb8:	4a9d      	ldr	r2, [pc, #628]	(d030 <main+0x38c>)
    cdba:	ae13      	add	r6, sp, #76
    cdbc:	1c23      	adds	r3, r4, #0
    cdbe:	447a      	add	r2, pc
    cdc0:	2120      	movs	r1, #32
    cdc2:	1c30      	adds	r0, r6, #0
    cdc4:	f004 f990 	bl	110e8 <snprintf>
    cdc8:	1c30      	adds	r0, r6, #0
    cdca:	4e9a      	ldr	r6, [pc, #616]	(d034 <main+0x390>)
    cdcc:	f003 fb6e 	bl	104ac <init_parse_config_file>
    cdd0:	59bc      	ldr	r4, [r7, r6]
    cdd2:	4899      	ldr	r0, [pc, #612]	(d038 <main+0x394>)
    cdd4:	4e99      	ldr	r6, [pc, #612]	(d03c <main+0x398>)
    cdd6:	1c21      	adds	r1, r4, #0
    cdd8:	4478      	add	r0, pc
    cdda:	f002 ffe3 	bl	fda4 <action_for_each_trigger>
    cdde:	4898      	ldr	r0, [pc, #608]	(d040 <main+0x39c>)
    cde0:	4998      	ldr	r1, [pc, #608]	(d044 <main+0x3a0>)
    cde2:	447e      	add	r6, pc
    cde4:	4478      	add	r0, pc
    cde6:	4479      	add	r1, pc
    cde8:	f002 ff56 	bl	fc98 <queue_builtin_action>
    cdec:	4896      	ldr	r0, [pc, #600]	(d048 <main+0x3a4>)
    cdee:	4997      	ldr	r1, [pc, #604]	(d04c <main+0x3a8>)
    cdf0:	4478      	add	r0, pc
    cdf2:	4479      	add	r1, pc
    cdf4:	f002 ff50 	bl	fc98 <queue_builtin_action>
    cdf8:	4895      	ldr	r0, [pc, #596]	(d050 <main+0x3ac>)
    cdfa:	4996      	ldr	r1, [pc, #600]	(d054 <main+0x3b0>)
    cdfc:	4478      	add	r0, pc
    cdfe:	4479      	add	r1, pc
    ce00:	f002 ff4a 	bl	fc98 <queue_builtin_action>
    ce04:	4894      	ldr	r0, [pc, #592]	(d058 <main+0x3b4>)
    ce06:	4995      	ldr	r1, [pc, #596]	(d05c <main+0x3b8>)
    ce08:	4478      	add	r0, pc
    ce0a:	4479      	add	r1, pc
    ce0c:	f002 ff44 	bl	fc98 <queue_builtin_action>
    ce10:	4893      	ldr	r0, [pc, #588]	(d060 <main+0x3bc>)
    ce12:	4994      	ldr	r1, [pc, #592]	(d064 <main+0x3c0>)
    ce14:	4478      	add	r0, pc
    ce16:	4479      	add	r1, pc
    ce18:	f002 ff3e 	bl	fc98 <queue_builtin_action>
    ce1c:	4892      	ldr	r0, [pc, #584]	(d068 <main+0x3c4>)
    ce1e:	1c21      	adds	r1, r4, #0
    ce20:	4478      	add	r0, pc
    ce22:	f002 ffbf 	bl	fda4 <action_for_each_trigger>
    ce26:	4891      	ldr	r0, [pc, #580]	(d06c <main+0x3c8>)
    ce28:	1c21      	adds	r1, r4, #0
    ce2a:	4478      	add	r0, pc
    ce2c:	f002 ffba 	bl	fda4 <action_for_each_trigger>
    ce30:	488f      	ldr	r0, [pc, #572]	(d070 <main+0x3cc>)
    ce32:	1c21      	adds	r1, r4, #0
    ce34:	4478      	add	r0, pc
    ce36:	f002 ffb5 	bl	fda4 <action_for_each_trigger>
    ce3a:	488e      	ldr	r0, [pc, #568]	(d074 <main+0x3d0>)
    ce3c:	1c21      	adds	r1, r4, #0
    ce3e:	4478      	add	r0, pc
    ce40:	f002 ffb0 	bl	fda4 <action_for_each_trigger>
    ce44:	488c      	ldr	r0, [pc, #560]	(d078 <main+0x3d4>)
    ce46:	498d      	ldr	r1, [pc, #564]	(d07c <main+0x3d8>)
    ce48:	4478      	add	r0, pc
    ce4a:	4479      	add	r1, pc
    ce4c:	f002 ff24 	bl	fc98 <queue_builtin_action>
    ce50:	488b      	ldr	r0, [pc, #556]	(d080 <main+0x3dc>)
    ce52:	498c      	ldr	r1, [pc, #560]	(d084 <main+0x3e0>)
    ce54:	4478      	add	r0, pc
    ce56:	4479      	add	r1, pc
    ce58:	f002 ff1e 	bl	fc98 <queue_builtin_action>
    ce5c:	488a      	ldr	r0, [pc, #552]	(d088 <main+0x3e4>)
    ce5e:	498b      	ldr	r1, [pc, #556]	(d08c <main+0x3e8>)
    ce60:	4478      	add	r0, pc
    ce62:	4479      	add	r1, pc
    ce64:	f002 ff18 	bl	fc98 <queue_builtin_action>
    ce68:	4889      	ldr	r0, [pc, #548]	(d090 <main+0x3ec>)
    ce6a:	1c21      	adds	r1, r4, #0
    ce6c:	4478      	add	r0, pc
    ce6e:	f002 ff99 	bl	fda4 <action_for_each_trigger>
    ce72:	4888      	ldr	r0, [pc, #544]	(d094 <main+0x3f0>)
    ce74:	1c21      	adds	r1, r4, #0
    ce76:	2400      	movs	r4, #0
    ce78:	4478      	add	r0, pc
    ce7a:	f002 ff93 	bl	fda4 <action_for_each_trigger>
    ce7e:	4886      	ldr	r0, [pc, #536]	(d098 <main+0x3f4>)
    ce80:	4986      	ldr	r1, [pc, #536]	(d09c <main+0x3f8>)
    ce82:	4478      	add	r0, pc
    ce84:	4479      	add	r1, pc
    ce86:	f002 ff07 	bl	fc98 <queue_builtin_action>
    ce8a:	2100      	movs	r1, #0
    ce8c:	9103      	str	r1, [sp, #12]
    ce8e:	9104      	str	r1, [sp, #16]
    ce90:	9105      	str	r1, [sp, #20]
    ce92:	9508      	str	r5, [sp, #32]
    ce94:	9509      	str	r5, [sp, #36]
    ce96:	f7ff febb 	bl	cc10 <execute_one_command>
    ce9a:	9a08      	ldr	r2, [sp, #32]
    ce9c:	2000      	movs	r0, #0
    ce9e:	1c31      	adds	r1, r6, #0
    cea0:	6150      	str	r0, [r2, #20]
    cea2:	2008      	movs	r0, #8
    cea4:	f002 febe 	bl	fc24 <service_for_each_flags>
    cea8:	9f05      	ldr	r7, [sp, #20]
    ceaa:	2f00      	cmp	r7, #0
    ceac:	d002      	beq.n	ceb4 <main+0x210>
    ceae:	2501      	movs	r5, #1
    ceb0:	9505      	str	r5, [sp, #20]
    ceb2:	e012      	b.n	ceda <main+0x236>
    ceb4:	f001 fa34 	bl	e320 <get_property_set_fd>
    ceb8:	2800      	cmp	r0, #0
    ceba:	dd0e      	ble.n	ceda <main+0x236>
    cebc:	f001 fa30 	bl	e320 <get_property_set_fd>
    cec0:	00e5      	lsls	r5, r4, #3
    cec2:	ab0b      	add	r3, sp, #44
    cec4:	50e8      	str	r0, [r5, r3]
    cec6:	195f      	adds	r7, r3, r5
    cec8:	2001      	movs	r0, #1
    ceca:	80b8      	strh	r0, [r7, #4]
    cecc:	4669      	mov	r1, sp
    cece:	2214      	movs	r2, #20
    ced0:	5a51      	ldrh	r1, [r2, r1]
    ced2:	2301      	movs	r3, #1
    ced4:	3401      	adds	r4, #1
    ced6:	80f9      	strh	r1, [r7, #6]
    ced8:	9305      	str	r3, [sp, #20]
    ceda:	9f04      	ldr	r7, [sp, #16]
    cedc:	2f00      	cmp	r7, #0
    cede:	d002      	beq.n	cee6 <main+0x242>
    cee0:	2101      	movs	r1, #1
    cee2:	9104      	str	r1, [sp, #16]
    cee4:	e012      	b.n	cf0c <main+0x268>
    cee6:	f002 fd2b 	bl	f940 <get_signal_fd>
    ceea:	2800      	cmp	r0, #0
    ceec:	dd0e      	ble.n	cf0c <main+0x268>
    ceee:	f002 fd27 	bl	f940 <get_signal_fd>
    cef2:	aa0b      	add	r2, sp, #44
    cef4:	00e3      	lsls	r3, r4, #3
    cef6:	18d5      	adds	r5, r2, r3
    cef8:	2101      	movs	r1, #1
    cefa:	5098      	str	r0, [r3, r2]
    cefc:	2710      	movs	r7, #16
    cefe:	80a9      	strh	r1, [r5, #4]
    cf00:	466a      	mov	r2, sp
    cf02:	5ab8      	ldrh	r0, [r7, r2]
    cf04:	2201      	movs	r2, #1
    cf06:	3401      	adds	r4, #1
    cf08:	80e8      	strh	r0, [r5, #6]
    cf0a:	9204      	str	r2, [sp, #16]
    cf0c:	9803      	ldr	r0, [sp, #12]
    cf0e:	2800      	cmp	r0, #0
    cf10:	d110      	bne.n	cf34 <main+0x290>
    cf12:	f002 fc1d 	bl	f750 <get_keychord_fd>
    cf16:	2800      	cmp	r0, #0
    cf18:	dd0e      	ble.n	cf38 <main+0x294>
    cf1a:	f002 fc19 	bl	f750 <get_keychord_fd>
    cf1e:	ad0b      	add	r5, sp, #44
    cf20:	00e3      	lsls	r3, r4, #3
    cf22:	5158      	str	r0, [r3, r5]
    cf24:	18ef      	adds	r7, r5, r3
    cf26:	2001      	movs	r0, #1
    cf28:	80b8      	strh	r0, [r7, #4]
    cf2a:	4669      	mov	r1, sp
    cf2c:	220c      	movs	r2, #12
    cf2e:	5a55      	ldrh	r5, [r2, r1]
    cf30:	3401      	adds	r4, #1
    cf32:	80fd      	strh	r5, [r7, #6]
    cf34:	2701      	movs	r7, #1
    cf36:	9703      	str	r7, [sp, #12]
    cf38:	9909      	ldr	r1, [sp, #36]
    cf3a:	694d      	ldr	r5, [r1, #20]
    cf3c:	2d00      	cmp	r5, #0
    cf3e:	d102      	bne.n	cf46 <main+0x2a2>
    cf40:	2201      	movs	r2, #1
    cf42:	4255      	negs	r5, r2
    cf44:	e009      	b.n	cf5a <main+0x2b6>
    cf46:	f002 f87d 	bl	f044 <gettime>
    cf4a:	1a2f      	subs	r7, r5, r0
    cf4c:	25fa      	movs	r5, #250
    cf4e:	00a9      	lsls	r1, r5, #2
    cf50:	1c0d      	adds	r5, r1, #0
    cf52:	437d      	muls	r5, r7
    cf54:	43eb      	mvns	r3, r5
    cf56:	17d8      	asrs	r0, r3, #31
    cf58:	4005      	ands	r5, r0
    cf5a:	f002 fe75 	bl	fc48 <action_queue_empty>
    cf5e:	2800      	cmp	r0, #0
    cf60:	d004      	beq.n	cf6c <main+0x2c8>
    cf62:	484f      	ldr	r0, [pc, #316]	(d0a0 <main+0x3fc>)
    cf64:	4478      	add	r0, pc
    cf66:	68c2      	ldr	r2, [r0, #12]
    cf68:	2a00      	cmp	r2, #0
    cf6a:	d000      	beq.n	cf6e <main+0x2ca>
    cf6c:	2500      	movs	r5, #0
    cf6e:	a80b      	add	r0, sp, #44
    cf70:	1c21      	adds	r1, r4, #0
    cf72:	1c2a      	adds	r2, r5, #0
    cf74:	f7fb ebec 	blx	8750 <poll>
    cf78:	2800      	cmp	r0, #0
    cf7a:	dd8c      	ble.n	ce96 <main+0x1f2>
    cf7c:	466f      	mov	r7, sp
    cf7e:	2300      	movs	r3, #0
    cf80:	3732      	adds	r7, #50
    cf82:	9306      	str	r3, [sp, #24]
    cf84:	e023      	b.n	cfce <main+0x32a>
    cf86:	2200      	movs	r2, #0
    cf88:	5eb9      	ldrsh	r1, [r7, r2]
    cf8a:	2901      	cmp	r1, #1
    cf8c:	d11b      	bne.n	cfc6 <main+0x322>
    cf8e:	1fbd      	subs	r5, r7, #6
    cf90:	6828      	ldr	r0, [r5, #0]
    cf92:	9007      	str	r0, [sp, #28]
    cf94:	f001 f9c4 	bl	e320 <get_property_set_fd>
    cf98:	9a07      	ldr	r2, [sp, #28]
    cf9a:	4282      	cmp	r2, r0
    cf9c:	d102      	bne.n	cfa4 <main+0x300>
    cf9e:	f001 fc97 	bl	e8d0 <handle_property_set_fd>
    cfa2:	e010      	b.n	cfc6 <main+0x322>
    cfa4:	6829      	ldr	r1, [r5, #0]
    cfa6:	9107      	str	r1, [sp, #28]
    cfa8:	f002 fbd2 	bl	f750 <get_keychord_fd>
    cfac:	9b07      	ldr	r3, [sp, #28]
    cfae:	4283      	cmp	r3, r0
    cfb0:	d102      	bne.n	cfb8 <main+0x314>
    cfb2:	f002 fbd3 	bl	f75c <handle_keychord>
    cfb6:	e006      	b.n	cfc6 <main+0x322>
    cfb8:	682d      	ldr	r5, [r5, #0]
    cfba:	f002 fcc1 	bl	f940 <get_signal_fd>
    cfbe:	4285      	cmp	r5, r0
    cfc0:	d101      	bne.n	cfc6 <main+0x322>
    cfc2:	f002 fd99 	bl	faf8 <handle_signal>
    cfc6:	9a06      	ldr	r2, [sp, #24]
    cfc8:	3708      	adds	r7, #8
    cfca:	3201      	adds	r2, #1
    cfcc:	9206      	str	r2, [sp, #24]
    cfce:	9806      	ldr	r0, [sp, #24]
    cfd0:	42a0      	cmp	r0, r4
    cfd2:	dbd8      	blt.n	cf86 <main+0x2e2>
    cfd4:	e75f      	b.n	ce96 <main+0x1f2>
    cfd6:	f009 fa77 	bl	164c8 <__stack_chk_fail>
    cfda:	46c0      	nop			(mov r8, r8)
    cfdc:	00012ac4 	.word	0x00012ac4
    cfe0:	ffffff90 	.word	0xffffff90
    cfe4:	0000ea82 	.word	0x0000ea82
    cfe8:	0000dc22 	.word	0x0000dc22
    cfec:	0000ea8f 	.word	0x0000ea8f
    cff0:	0000ea89 	.word	0x0000ea89
    cff4:	0000ea87 	.word	0x0000ea87
    cff8:	0000ea84 	.word	0x0000ea84
    cffc:	0000ea80 	.word	0x0000ea80
    d000:	000001ed 	.word	0x000001ed
    d004:	0000ea73 	.word	0x0000ea73
    d008:	0000ea65 	.word	0x0000ea65
    d00c:	0000ea71 	.word	0x0000ea71
    d010:	0000ea68 	.word	0x0000ea68
    d014:	0000ea68 	.word	0x0000ea68
    d018:	0000ea5d 	.word	0x0000ea5d
    d01c:	0000ea52 	.word	0x0000ea52
    d020:	0000ea3e 	.word	0x0000ea3e
    d024:	000147b6 	.word	0x000147b6
    d028:	0000ea62 	.word	0x0000ea62
    d02c:	0001482c 	.word	0x0001482c
    d030:	0000ea4d 	.word	0x0000ea4d
    d034:	ffffff8c 	.word	0xffffff8c
    d038:	0000ea3f 	.word	0x0000ea3f
    d03c:	00000817 	.word	0x00000817
    d040:	fffffded 	.word	0xfffffded
    d044:	0000ea3c 	.word	0x0000ea3c
    d048:	fffffdc9 	.word	0xfffffdc9
    d04c:	0000ea47 	.word	0x0000ea47
    d050:	fffffdb1 	.word	0xfffffdb1
    d054:	0000ea49 	.word	0x0000ea49
    d058:	fffffce9 	.word	0xfffffce9
    d05c:	0000ea4b 	.word	0x0000ea4b
    d060:	fffffa8d 	.word	0xfffffa8d
    d064:	0000ea4c 	.word	0x0000ea4c
    d068:	0000ea56 	.word	0x0000ea56
    d06c:	0000ea51 	.word	0x0000ea51
    d070:	0000ea50 	.word	0x0000ea50
    d074:	0000ea49 	.word	0x0000ea49
    d078:	fffffc45 	.word	0xfffffc45
    d07c:	0000ea45 	.word	0x0000ea45
    d080:	fffffc2d 	.word	0xfffffc2d
    d084:	0000ea4f 	.word	0x0000ea4f
    d088:	fffffbf5 	.word	0xfffffbf5
    d08c:	0000ea4f 	.word	0x0000ea4f
    d090:	0000ea53 	.word	0x0000ea53
    d094:	0000ea52 	.word	0x0000ea52
    d098:	fffffbbb 	.word	0xfffffbbb
    d09c:	0000ea4b 	.word	0x0000ea4b
    d0a0:	00014670 	.word	0x00014670
    d0a4:	b01d      	add	sp, #116
    d0a6:	bdf0      	pop	{r4, r5, r6, r7, pc}

0000d0a8 <property_changed>:
    d0a8:	b510      	push	{r4, lr}
    d0aa:	4a04      	ldr	r2, [pc, #16]	(d0bc <property_changed+0x14>)
    d0ac:	447a      	add	r2, pc
    d0ae:	6853      	ldr	r3, [r2, #4]
    d0b0:	2b00      	cmp	r3, #0
    d0b2:	d001      	beq.n	d0b8 <property_changed+0x10>
    d0b4:	f003 f87e 	bl	101b4 <queue_property_triggers>
    d0b8:	bd10      	pop	{r4, pc}
    d0ba:	46c0      	nop			(mov r8, r8)
    d0bc:	00014528 	.word	0x00014528

0000d0c0 <service_stop>:
    d0c0:	b510      	push	{r4, lr}
    d0c2:	1c04      	adds	r4, r0, #0
    d0c4:	6900      	ldr	r0, [r0, #16]
    d0c6:	210c      	movs	r1, #12
    d0c8:	6963      	ldr	r3, [r4, #20]
    d0ca:	2201      	movs	r2, #1
    d0cc:	4388      	bics	r0, r1
    d0ce:	4310      	orrs	r0, r2
    d0d0:	6120      	str	r0, [r4, #16]
    d0d2:	68a2      	ldr	r2, [r4, #8]
    d0d4:	2b00      	cmp	r3, #0
    d0d6:	d00d      	beq.n	d0f4 <service_stop+0x34>
    d0d8:	4909      	ldr	r1, [pc, #36]	(d100 <service_stop+0x40>)
    d0da:	2005      	movs	r0, #5
    d0dc:	4479      	add	r1, pc
    d0de:	f001 feaf 	bl	ee40 <log_write>
    d0e2:	6963      	ldr	r3, [r4, #20]
    d0e4:	210f      	movs	r1, #15
    d0e6:	4258      	negs	r0, r3
    d0e8:	f7fb ebba 	blx	8860 <kill>
    d0ec:	4905      	ldr	r1, [pc, #20]	(d104 <service_stop+0x44>)
    d0ee:	68a0      	ldr	r0, [r4, #8]
    d0f0:	4479      	add	r1, pc
    d0f2:	e002      	b.n	d0fa <service_stop+0x3a>
    d0f4:	4904      	ldr	r1, [pc, #16]	(d108 <service_stop+0x48>)
    d0f6:	1c10      	adds	r0, r2, #0
    d0f8:	4479      	add	r1, pc
    d0fa:	f7ff fccf 	bl	ca9c <notify_service_state>
    d0fe:	bd10      	pop	{r4, pc}
    d100:	0000e80a 	.word	0x0000e80a
    d104:	0000e81d 	.word	0x0000e81d
    d108:	0000e81e 	.word	0x0000e81e

0000d10c <msg_stop>:
    d10c:	b510      	push	{r4, lr}
    d10e:	1c04      	adds	r4, r0, #0
    d110:	f002 fe74 	bl	fdfc <service_find_by_name>
    d114:	2800      	cmp	r0, #0
    d116:	d002      	beq.n	d11e <msg_stop+0x12>
    d118:	f7ff ffd2 	bl	d0c0 <service_stop>
    d11c:	e005      	b.n	d12a <msg_stop+0x1e>
    d11e:	4903      	ldr	r1, [pc, #12]	(d12c <msg_stop+0x20>)
    d120:	2003      	movs	r0, #3
    d122:	1c22      	adds	r2, r4, #0
    d124:	4479      	add	r1, pc
    d126:	f001 fe8b 	bl	ee40 <log_write>
    d12a:	bd10      	pop	{r4, pc}
    d12c:	0000e7fa 	.word	0x0000e7fa

0000d130 <open_console>:
    d130:	b510      	push	{r4, lr}
    d132:	4b0f      	ldr	r3, [pc, #60]	(d170 <open_console+0x40>)
    d134:	2102      	movs	r1, #2
    d136:	447b      	add	r3, pc
    d138:	6818      	ldr	r0, [r3, #0]
    d13a:	f003 fe7b 	bl	10e34 <open>
    d13e:	1e04      	subs	r4, r0, #0
    d140:	da05      	bge.n	d14e <open_console+0x1e>
    d142:	480c      	ldr	r0, [pc, #48]	(d174 <open_console+0x44>)
    d144:	2102      	movs	r1, #2
    d146:	4478      	add	r0, pc
    d148:	f003 fe74 	bl	10e34 <open>
    d14c:	1c04      	adds	r4, r0, #0
    d14e:	1c20      	adds	r0, r4, #0
    d150:	2100      	movs	r1, #0
    d152:	f7fb e906 	blx	8360 <dup2>
    d156:	1c20      	adds	r0, r4, #0
    d158:	2101      	movs	r1, #1
    d15a:	f7fb e902 	blx	8360 <dup2>
    d15e:	2102      	movs	r1, #2
    d160:	1c20      	adds	r0, r4, #0
    d162:	f7fb e8fe 	blx	8360 <dup2>
    d166:	1c20      	adds	r0, r4, #0
    d168:	f7fb e8aa 	blx	82c0 <close>
    d16c:	bd10      	pop	{r4, pc}
    d16e:	46c0      	nop			(mov r8, r8)
    d170:	0001269a 	.word	0x0001269a
    d174:	0000e7f7 	.word	0x0000e7f7

0000d178 <zap_stdio>:
    d178:	b510      	push	{r4, lr}
    d17a:	480a      	ldr	r0, [pc, #40]	(d1a4 <zap_stdio+0x2c>)
    d17c:	2102      	movs	r1, #2
    d17e:	4478      	add	r0, pc
    d180:	f003 fe58 	bl	10e34 <open>
    d184:	2100      	movs	r1, #0
    d186:	1c04      	adds	r4, r0, #0
    d188:	f7fb e8ea 	blx	8360 <dup2>
    d18c:	1c20      	adds	r0, r4, #0
    d18e:	2101      	movs	r1, #1
    d190:	f7fb e8e6 	blx	8360 <dup2>
    d194:	2102      	movs	r1, #2
    d196:	1c20      	adds	r0, r4, #0
    d198:	f7fb e8e2 	blx	8360 <dup2>
    d19c:	1c20      	adds	r0, r4, #0
    d19e:	f7fb e890 	blx	82c0 <close>
    d1a2:	bd10      	pop	{r4, pc}
    d1a4:	0000e7bf 	.word	0x0000e7bf

0000d1a8 <add_environment>:
    d1a8:	b5f0      	push	{r4, r5, r6, r7, lr}
    d1aa:	4b16      	ldr	r3, [pc, #88]	(d204 <add_environment+0x5c>)
    d1ac:	b085      	sub	sp, #20
    d1ae:	1c07      	adds	r7, r0, #0
    d1b0:	447b      	add	r3, pc
    d1b2:	1c0d      	adds	r5, r1, #0
    d1b4:	3318      	adds	r3, #24
    d1b6:	2400      	movs	r4, #0
    d1b8:	681a      	ldr	r2, [r3, #0]
    d1ba:	2a00      	cmp	r2, #0
    d1bc:	d11b      	bne.n	d1f6 <add_environment+0x4e>
    d1be:	1c38      	adds	r0, r7, #0
    d1c0:	f003 ed72 	blx	10ca8 <strlen>
    d1c4:	1c06      	adds	r6, r0, #0
    d1c6:	1c28      	adds	r0, r5, #0
    d1c8:	f003 ed6e 	blx	10ca8 <strlen>
    d1cc:	1836      	adds	r6, r6, r0
    d1ce:	3602      	adds	r6, #2
    d1d0:	1c30      	adds	r0, r6, #0
    d1d2:	f009 fe2b 	bl	16e2c <malloc>
    d1d6:	4a0c      	ldr	r2, [pc, #48]	(d208 <add_environment+0x60>)
    d1d8:	1c31      	adds	r1, r6, #0
    d1da:	1c3b      	adds	r3, r7, #0
    d1dc:	447a      	add	r2, pc
    d1de:	9003      	str	r0, [sp, #12]
    d1e0:	9500      	str	r5, [sp, #0]
    d1e2:	f003 ff81 	bl	110e8 <snprintf>
    d1e6:	4909      	ldr	r1, [pc, #36]	(d20c <add_environment+0x64>)
    d1e8:	9803      	ldr	r0, [sp, #12]
    d1ea:	00a4      	lsls	r4, r4, #2
    d1ec:	4479      	add	r1, pc
    d1ee:	190b      	adds	r3, r1, r4
    d1f0:	6198      	str	r0, [r3, #24]
    d1f2:	2000      	movs	r0, #0
    d1f4:	e004      	b.n	d200 <add_environment+0x58>
    d1f6:	3401      	adds	r4, #1
    d1f8:	3304      	adds	r3, #4
    d1fa:	2c1f      	cmp	r4, #31
    d1fc:	d1dc      	bne.n	d1b8 <add_environment+0x10>
    d1fe:	2001      	movs	r0, #1
    d200:	b005      	add	sp, #20
    d202:	bdf0      	pop	{r4, r5, r6, r7, pc}
    d204:	00014424 	.word	0x00014424
    d208:	0000e76b 	.word	0x0000e76b
    d20c:	000143e8 	.word	0x000143e8

0000d210 <publish_socket>:
    d210:	b5f0      	push	{r4, r5, r6, r7, lr}
    d212:	4b1a      	ldr	r3, [pc, #104]	(d27c <publish_socket+0x6c>)
    d214:	1c0f      	adds	r7, r1, #0
    d216:	491a      	ldr	r1, [pc, #104]	(d280 <publish_socket+0x70>)
    d218:	447b      	add	r3, pc
    d21a:	1c06      	adds	r6, r0, #0
    d21c:	585c      	ldr	r4, [r3, r1]
    d21e:	4919      	ldr	r1, [pc, #100]	(d284 <publish_socket+0x74>)
    d220:	b0a3      	sub	sp, #140
    d222:	6820      	ldr	r0, [r4, #0]
    d224:	ad11      	add	r5, sp, #68
    d226:	4479      	add	r1, pc
    d228:	9021      	str	r0, [sp, #132]
    d22a:	3105      	adds	r1, #5
    d22c:	2210      	movs	r2, #16
    d22e:	1c28      	adds	r0, r5, #0
    d230:	f7fb ec5e 	blx	8af0 <memcpy>
    d234:	2100      	movs	r1, #0
    d236:	2230      	movs	r2, #48
    d238:	a815      	add	r0, sp, #84
    d23a:	f7fb edf6 	blx	8e28 <memset>
    d23e:	4668      	mov	r0, sp
    d240:	1c31      	adds	r1, r6, #0
    d242:	2230      	movs	r2, #48
    d244:	3053      	adds	r0, #83
    d246:	f008 ffe7 	bl	16218 <strlcpy>
    d24a:	4a0f      	ldr	r2, [pc, #60]	(d288 <publish_socket+0x78>)
    d24c:	ae01      	add	r6, sp, #4
    d24e:	1c3b      	adds	r3, r7, #0
    d250:	447a      	add	r2, pc
    d252:	2140      	movs	r1, #64
    d254:	1c30      	adds	r0, r6, #0
    d256:	f003 ff47 	bl	110e8 <snprintf>
    d25a:	1c31      	adds	r1, r6, #0
    d25c:	1c28      	adds	r0, r5, #0
    d25e:	f7ff ffa3 	bl	d1a8 <add_environment>
    d262:	2200      	movs	r2, #0
    d264:	1c38      	adds	r0, r7, #0
    d266:	2102      	movs	r1, #2
    d268:	f003 fdc0 	bl	10dec <fcntl>
    d26c:	9a21      	ldr	r2, [sp, #132]
    d26e:	6823      	ldr	r3, [r4, #0]
    d270:	429a      	cmp	r2, r3
    d272:	d001      	beq.n	d278 <publish_socket+0x68>
    d274:	f009 f928 	bl	164c8 <__stack_chk_fail>
    d278:	b023      	add	sp, #140
    d27a:	bdf0      	pop	{r4, r5, r6, r7, pc}
    d27c:	00012558 	.word	0x00012558
    d280:	ffffff90 	.word	0xffffff90
    d284:	0000d6c2 	.word	0x0000d6c2
    d288:	0000e3eb 	.word	0x0000e3eb

0000d28c <service_start>:
    d28c:	b5f0      	push	{r4, r5, r6, r7, lr}
